ARM GAS  e:\temp\cciiBhKe.s 			page 1


   1              		.syntax unified
   2              		.cpu cortex-m0
   3              		.fpu softvfp
   4              		.eabi_attribute 20, 1
   5              		.eabi_attribute 21, 1
   6              		.eabi_attribute 23, 3
   7              		.eabi_attribute 24, 1
   8              		.eabi_attribute 25, 1
   9              		.eabi_attribute 26, 1
  10              		.eabi_attribute 30, 4
  11              		.eabi_attribute 34, 0
  12              		.eabi_attribute 18, 4
  13              		.thumb
  14              		.syntax unified
  15              		.file	"CyFlash.c"
  16              		.text
  17              	.Ltext0:
  18              		.section	.gnu.lto_.profile.624149ef,"",%progbits
  19 0000 789C6361 		.ascii	"x\234ca`d`c`\000\222?\031\0273\002\000\005\302\001\253"
  19      60646063 
  19      6000923F 
  19      19173302 
  19      0005C201 
  20              		.text
  21              		.section	.gnu.lto_.icf.624149ef,"",%progbits
  22 0000 789C6361 		.ascii	"x\234ca`d\000\0015\006\004`cxx\352\321.V\306\353k\327"
  22      60640001 
  22      35060460 
  22      637878EA 
  22      D12E56C6 
  23 0017 3C64655A 		.ascii	"<deZ}a\306j.\346y\233\337\274ga\331\374\261\257\213"
  23      7D61C66A 
  23      2EE6799B 
  23      DFBC6761 
  23      D9FCB1AF 
  24 002c 97F5EBDA 		.ascii	"\227\365\353\332\207\207\230\031\000s]\022\254"
  24      87879819 
  24      00735D12 
  24      AC
  25              		.text
  26              		.section	.gnu.lto_.jmpfuncs.624149ef,"",%progbits
  27 0000 789C458B 		.ascii	"x\234E\2131\016@@\024Dgf\227B\342\006\316\346\036\252"
  27      310E4040 
  27      14446766 
  27      9742E206 
  27      CEE61EAA 
  28 0014 D5B8C5F6 		.ascii	"\325\270\305\366T\324*\327Q(5\012\211\377E\342%S\315"
  28      54D42AD7 
  28      5128350A 
  28      89FF45E2 
  28      2553CD
  29 0027 7B1184D3 		.ascii	"{\021\204\323\342\247\260\011\010@\024\031R\322w\224"
  29      E2A7B009 
  29      08401419 
  29      52D27794 
  30 0037 0023D4D1 		.ascii	"\000#\324\321\032\336\342\274o\271:5\004\260\027G6\326"
  30      1ADEE2BC 
ARM GAS  e:\temp\cciiBhKe.s 			page 2


  30      6FB93A35 
  30      04B01747 
  30      36D6
  31 0049 927C7DB9 		.ascii	"\222|}\271\260\034\353U\273`\005'\377\201\007k\232\017"
  31      B01CEB55 
  31      BB600527 
  31      FF81076B 
  31      9A0F
  32 005b EF       		.ascii	"\357"
  33              		.text
  34              		.section	.gnu.lto_.inline.624149ef,"",%progbits
  35 0000 789C6D8F 		.ascii	"x\234m\2171J\003A\030\205\337\233\231\354\016.nV\203"
  35      314A0341 
  35      1885DF9B 
  35      99EC0E2E 
  35      6E5683
  36 0013 8D043282 		.ascii	"\215\0042\202\205\225x\204=A\256\241\350\005,\267\011"
  36      85957884 
  36      3D41AEA1 
  36      E8052CB7 
  36      09
  37 0024 A45C4144 		.ascii	"\244\\ADDa\013AM\016 \250\240X\010\202A\261\210\007"
  37      44610B41 
  37      4D0E20A8 
  37      A0580882 
  37      41B18807 
  38 0038 B04919C1 		.ascii	"\260I\031\301R\321\231\235]m\362\027\377\373y\3370\274"
  38      52D1999D 
  38      5D6DF217 
  38      FFFB79DF 
  38      30BC
  39 004a A740B839 		.ascii	"\247@\2709\366RN\003zi\201\020\253w\023\"(:\302\231"
  39      F6524E03 
  39      7A698110 
  39      AB771322 
  39      283AC299 
  40 005e 02ADA6F5 		.ascii	"\002\255\246\365L\361\370\357\311\031\357T.\306h3\200"
  40      4CF1F8EF 
  40      C919EF54 
  40      2EC66833 
  40      80
  41 006f D9FC16BC 		.ascii	"\331\374\026\274\035\177\275\311O\321\223\202?\222g"
  41      1D7FBDC9 
  41      4FD19382 
  41      3F9267
  42 007e 6C0366AB 		.ascii	"l\003f\253T\232\035\313\017z\367\317\241\343\222\340"
  42      549A1DCB 
  42      0F7AF7CF 
  42      A1E392E0 
  43 008e 79696F97 		.ascii	"yio\227\012c\003\321\2550\230\256\373\337U\321I\241"
  43      0A6303D1 
  43      AD3098AE 
  43      FBDF55D1 
  43      49A1
  44 00a0 5E9A1915 		.ascii	"^\232\031\025\304\376\334\032v\257\366\230\330\273\317"
  44      C4FEDC1A 
  44      76AFF698 
ARM GAS  e:\temp\cciiBhKe.s 			page 3


  44      D8BBCF
  45 00af D48A0B19 		.ascii	"\324\212\013\031\301\036\314\273\376\300LQ\363N$\362"
  45      C11ECCBB 
  45      FEC04C51 
  45      F34E24F2 
  46 00bf AE6DBABC 		.ascii	"\256m\272\274\302\320G}\235>\235D.\212b\302\213*\251"
  46      C2D0477D 
  46      9D3E9D44 
  46      2E8A62C2 
  46      8B2AA9
  47 00d2 57873F46 		.ascii	"W\207?FG\357\261\307\206\203\012\017\376\360\365\345"
  47      47EFB1C7 
  47      86830A0F 
  47      FEF0F5E5 
  48 00e2 CD43C3E3 		.ascii	"\315C\303\343\015\016+<\254\213h\233\255\256\220\331"
  48      0D0E2B3C 
  48      AC8B689B 
  48      ADAE90D9 
  49 00f2 DD6F6542 		.ascii	"\335oeB\333*Q&\214\206>\214S'\2238\321\010N\027\353"
  49      DB2A5126 
  49      8C863E8C 
  49      53279338 
  49      D1084E17 
  50 0107 2A55918C 		.ascii	"*U\221\214\026\2624\200_GeIM"
  50      16B23480 
  50      5F476549 
  50      4D
  51              		.text
  52              		.section	.gnu.lto_.pureconst.624149ef,"",%progbits
  53 0000 789C6361 		.ascii	"x\234ca`d\340g```e\330\305\310\264\213\221y\027#\313"
  53      6064E067 
  53      60606065 
  53      D8C5C8B4 
  53      8B917917 
  54 0016 2E465629 		.ascii	".FV)\000\033(\003."
  54      001B2803 
  54      2E
  55              		.text
  56              		.section	.gnu.lto_CySysFlashClockBackup.624149ef,"",%progbits
  57 0000 789C7D54 		.ascii	"x\234}TKl\023W\024}\367\275\231\361d\374K7]E\010\004"
  57      4B6C1357 
  57      147DF7BD 
  57      99F164FC 
  57      4B375D45 
  58 0016 51C5A651 		.ascii	"Q\305\246Q\020\013\244\252l\220\332\025\037\025\251"
  58      100BA4AA 
  58      6C90DA15 
  58      1F15A9
  59 0025 2B10B2C0 		.ascii	"+\020\262\300j\027\264P\023$\272\312K\3541\244\252("
  59      6A17B450 
  59      1324BACA 
  59      4BEC31A4 
  59      AA28
  60 0037 166ACA37 		.ascii	"\026j\3127\026a\021\314\317\016M\011n\022b\022\223\020"
  60      166111CC 
  60      CF0E4D09 
  60      6E126212 
ARM GAS  e:\temp\cciiBhKe.s 			page 4


  60      9310
  61 0049 CAA7B4A2 		.ascii	"\312\247\264\242?\250\024>\241R\024Q\033\005\2424$\351"
  61      3FA8143E 
  61      A1521451 
  61      1B05A234 
  61      24E9
  62 005b BDF3C621 		.ascii	"\275\363\306!\361\"O\362\035\277w\357=\347\3343\037"
  62      F1224FF2 
  62      1DBF77EF 
  62      3DE7DC33 
  62      1F
  63 006c 8D01A3D5 		.ascii	"\215\001\243\325\2553\366>^\327\343\017<\014\370\241"
  63      AD33F63E 
  63      5ED7E30F 
  63      3C0CF8A1 
  64 007c 3B8C3598 		.ascii	";\2145\230\234\213\301 \223\2266\264\226I\237\000C\035"
  64      9C8BC120 
  64      939636B4 
  64      96499F00 
  64      431D
  65 008e 6B5CA703 		.ascii	"k\\\247\003\313\240\244O/\035\033\000\364G\232\300\352"
  65      CBA0A44F 
  65      2F1D1B00 
  65      F4479AC0 
  65      EA
  66 009f B9D07403 		.ascii	"\271\320t\003\352\341%\237\346p/\2269!\306\271-\030"
  66      EAE1259F 
  66      E6702F96 
  66      3921C6B9 
  66      2D18
  67 00b1 68B82DDE 		.ascii	"h\270-\336>\366$@[\200\245\270=.\177i\362\254l\223\262"
  67      3EF62440 
  67      5B80A5B8 
  67      3D2E7F69 
  67      F2AC6C93 
  68 00c6 510E5FBF 		.ascii	"Q\016_\277\352K]\372YV\330\202\263Y\316\340\014TA\033"
  68      EA4B5DFA 
  68      5956D882 
  68      B359CEE0 
  68      0C54411B 
  69 00da 5491AA14 		.ascii	"T\221\252\024\254dX}\254k\374\246\256\260L\334v>?\327"
  69      AC64587D 
  69      AC6BFCA6 
  69      AEB04CDC 
  69      763E3FD7 
  70 00ee E9575839 		.ascii	"\351WX9JOO\034\212jb\005\320\377\327\277e\007\274\325"
  70      4A4F4F1C 
  70      8A6A6205 
  70      D0FFD7BF 
  70      6507BCD5 
  71 0102 A765BE41 		.ascii	"\247e\276A\346\022\317\366\035\226\362\206\324l!\340"
  71      E612CFF6 
  71      1D96F286 
  71      D46C21E0 
  72 0112 3C08023F 		.ascii	"<\010\002?\207\340g\035pF\345G\276\333\237\012\210\032"
  72      87E0671D 
  72      7046E547 
ARM GAS  e:\temp\cciiBhKe.s 			page 5


  72      BEDB9F0A 
  72      881A
  73 0124 A7F5E1DD 		.ascii	"\247\365\341\335{#\032\266\242\246\334\344\223\335\211"
  73      7B231AB6 
  73      A2A6DCE4 
  73      93DD89
  74 0133 A86AE570 		.ascii	"\250j\345pQ\265\276\321\345\264>n\237\371\326o\304$"
  74      51B5BED1 
  74      E5B43E6E 
  74      9FF9D66F 
  74      C424
  75 0145 AEA59086 		.ascii	"\256\245\220\206j\270\000\325\244\037eg\300@\213y\351"
  75      6AB800D5 
  75      A41F6567 
  75      C0408B79 
  75      E9
  76 0156 34FD514E 		.ascii	"4\375QN\316\316Fenby\342L\253\377-`\224\321\230-4\203"
  76      CECE4665 
  76      6E6279E2 
  76      4CABFF2D 
  76      6094D198 
  77 016d 4205058B 		.ascii	"B\005\005\213\202\227\202\217\202\237B\200B\220B%\005"
  77      8297828F 
  77      829F4280 
  77      42904225 
  77      05
  78 017e C60A084F 		.ascii	"\306\012\010Ov\0279\247\253x\014\215(\265\000\016#b"
  78      761739A7 
  78      AB780C8D 
  78      28B5000E 
  78      2362
  79 0190 A2AC66BB 		.ascii	"\242\254f\273\357\256\207\314\341H\323\216r\237A\337"
  79      EFAE87CC 
  79      E148D38E 
  79      729F41DF 
  80 01a0 78E6E5D1 		.ascii	"x\346\345\321}T\203\371\364Xv\3221Ow\206\216\037\031"
  80      7D5483F9 
  80      F45876D2 
  80      314F7786 
  80      8E1F19
  81 01b3 C99BB569 		.ascii	"\311\233\265i\031k\220r\233-\014\322\013\227\324\224"
  81      196B9072 
  81      9B2D0CD2 
  81      0B97D494 
  82 01c3 F03DD462 		.ascii	"\360=\324b\311\300\323d\306\351\320\340\362\257\002"
  82      C9C0D364 
  82      C6E9D0E0 
  82      F2AF02
  83 01d2 3A1CCCC6 		.ascii	":\034\314\306\027\373\237\267\364\007\0114*\264\371"
  83      17FB9FB7 
  83      F4070934 
  83      2AB4F9
  84 01e1 BC1E0737 		.ascii	"\274\036\0077\233\035{\340\251\237\226\007\244\254\304"
  84      9B1D7BE0 
  84      A99F9607 
  84      A4ACC4
  85 01f0 B326A14C 		.ascii	"\263&\241L\033\275u?o%\341$\262\321\271\011\227\361"
ARM GAS  e:\temp\cciiBhKe.s 			page 6


  85      1BBD753F 
  85      6F25E124 
  85      B2D1B909 
  85      97F1
  86 0202 79F981E8 		.ascii	"y\371\201\3500y\360J\246\311\254\271@\216\312\"\330"
  86      3079F04A 
  86      A6C9ACB9 
  86      408ECA22 
  86      D8
  87 0213 A2023A21 		.ascii	"\242\002:!\0113\3345\374\367?\343_\223TZ'\015[Xp\005"
  87      0933DC35 
  87      FCF73FE3 
  87      5F93545A 
  87      270D5B58 
  88 0229 6A4A5AE9 		.ascii	"jJZ\351\326\317\\+x\025\245Lb\273\027\262P\213S\374"
  88      D6CF5C2B 
  88      7815A54C 
  88      62BB17B2 
  88      508B53FC 
  89 023d 08F56442 		.ascii	"\010\365dB\363\251%\256\005\035\371\301\270\251,\000"
  89      F3A925AE 
  89      051DF9C1 
  89      B8A92C00 
  90 024d DCB6F6FD 		.ascii	"\334\266\366\375\0357\312-\350r-\350\206Z\234O\015\374"
  90      1D37CA2D 
  90      E8722DE8 
  90      865A9C4F 
  90      0DFC
  91 025f AAE5F4DB 		.ascii	"\252\345\364\333j`\243\314\271)(\263\016\363#\375\255"
  91      6A60A3CC 
  91      B92928B3 
  91      0EF323FD 
  91      AD
  92 0270 237E9443 		.ascii	"#~\224C\353>\346}\320\343\310\271\352\312y\364\216+"
  92      EB3EE67D 
  92      D0E3C8B9 
  92      EACA79F4 
  92      8E2B
  93 0282 67CE39BF 		.ascii	"g\3169\277\343\\\323\037\355S>\265= s\222\274m\355\372"
  93      E35CD31F 
  93      ED533EB5 
  93      3D207392 
  93      BC6DEDFA 
  94 0296 E6B89F5C 		.ascii	"\346\270\237\\#\256\367\360Q\010@\016\037\306^\342\202"
  94      23AEF7F0 
  94      5108400E 
  94      1FC65EE2 
  94      82
  95 02a7 6BE8112A 		.ascii	"k\350\021*r\356sa\342h\013\270\260\303\003\027\307\014"
  95      72EE7361 
  95      E2680BB8 
  95      B0C30317 
  95      C70C
  96 02b9 85137371 		.ascii	"\205\023sq\246&\036v{\027\342\364\315\341\364#\016\326"
  96      A6261E76 
  96      7B17E2F4 
  96      CDE1F423 
ARM GAS  e:\temp\cciiBhKe.s 			page 7


  96      0ED6
  97 02cb F4FC9BEA 		.ascii	"\364\374\233\352\011\250\273\335\214\312M\310c\366\037"
  97      09A8BBDD 
  97      8CCA4DC8 
  97      63F61F
  98 02da 90FD854F 		.ascii	"\220\375\205O\010\230\206[C\\\377}u'\031\015(;*\026"
  98      0898865B 
  98      435CFF7D 
  98      7527190D 
  98      283B2A16 
  99 02ee 688485FA 		.ascii	"h\204\205\372\256#.6D_\033\252\330R\365\371\304\344"
  99      AE232E36 
  99      445F1BAA 
  99      D852F5F9 
  99      C4E4
 100 0300 178A860C 		.ascii	"\027\212\206\014\012\302\000\026?\202\330_\302\255r"
 100      0AC20016 
 100      3F82D85F 
 100      C2AD72
 101 030f 0E6815B9 		.ascii	"\016h\025\271`\203AA\224\226\312y\027\243\033,\243\363"
 101      60834141 
 101      9496CA79 
 101      17A31B2C 
 101      A3F3
 102 0321 A9FAB4FD 		.ascii	"\251\372\264\3754e*\276Y\200\033\016v\221klh\355|d\377"
 102      34652ABE 
 102      59801B0E 
 102      76916B6C 
 102      68ED7C64 
 103 0336 62C84365 		.ascii	"b\310Ce\310\001\254/\311~\340\312\016 @[G\357\214\371"
 103      C801AC2F 
 103      C97EE0CA 
 103      0E20405B 
 103      47EF8CF9 
 104 034a 66340B6E 		.ascii	"f4\013n\316M\242\263\203\253\346\363\005\027\343\373"
 104      CE4DA2B3 
 104      83ABE6F3 
 104      0517E3FB 
 105 035a A98CAF12 		.ascii	"\251\214\257\022\353\347\224\033\245\367_n-\275\374"
 105      EBE7941B 
 105      A5F75F6E 
 105      2DBDFC
 106 0369 51016C14 		.ascii	"Q\001l\024?\010\211\321aP\035\364\235\177\001\370t\370"
 106      3F0889D1 
 106      61501DF4 
 106      9D7F01F8 
 106      74F8
 107 037b C489DE78 		.ascii	"\304\211\336x\325\374\267_\303\257\303-\250\322\030"
 107      D5FCB75F 
 107      C3AFC32D 
 107      A8D218
 108 038a E2EAF461 		.ascii	"\342\352\364a\001\002\304Wm\331\207\341\317\303\221"
 108      0102C457 
 108      6DD987E1 
 108      CFC391
 109 0399 505D78C7 		.ascii	"P]x\307\266\315\273\366F\266\207\267l\332\274k\335\352"
 109      B6CDBBF6 
ARM GAS  e:\temp\cciiBhKe.s 			page 8


 109      46B687B7 
 109      6CDABC6B 
 109      DDEA
 110 03ab 2DEBBEFC 		.ascii	"-\353\276\374`gh\317\247\357ng\326\356P$\364Y\270.\034"
 110      606768CF 
 110      A7EF6E67 
 110      D6EE5024 
 110      F459B82E 
 111 03c0 D96346C2 		.ascii	"\331cF\302u\037\207v\356\015\353\0336n\262\330\377<"
 111      751F8776 
 111      EE0DEB1B 
 111      366EB2D8 
 111      FF3C
 112 03d2 B3018B   		.ascii	"\263\001\213"
 113              		.text
 114              		.section	.gnu.lto_CySysFlashClockConfig.624149ef,"",%progbits
 115 0000 789C7D53 		.ascii	"x\234}SML\023Q\020\236yow\273l[z\361\330\003&r\300D"
 115      4D4C1351 
 115      109E796F 
 115      77BB6C5B 
 115      7AF1D803 
 116 0018 0FC4AB5C 		.ascii	"\017\304\253\\H\364\244\022I<\221\030\202M<\020P\204"
 116      48F4A412 
 116      493C9118 
 116      824D3C10 
 116      5084
 117 002a 831779D0 		.ascii	"\203\027y\320\256\212\211?\034\360\0074D=\324\372\303"
 117      AE8A893F 
 117      1CF00734 
 117      443DD4FA 
 117      C3
 118 003b 9F802024 		.ascii	"\237\200 $4\210 \007\304z2\312\241\242\242!\204P\203"
 118      34882007 
 118      C47A32CA 
 118      A1A2A221 
 118      845083
 119 004e 1A44A933 		.ascii	"\032D\2513\335\266R\016\274\244\263\373\346}\363}\337"
 119      DDB6520E 
 119      BCA4B3FB 
 119      E67DF37D 
 119      DF
 120 005f CCBE6A80 		.ascii	"\314\276j\200\300kF\002\024\323\363\020\375\320\005"
 120      C06B4602 
 120      14D3F310 
 120      FDD005
 121 006e 28AEBD06 		.ascii	"(\256\275\006h2\205\220S>P\2266]\002\312#\321p\322\232"
 121      68328590 
 121      533E5096 
 121      365D02CA 
 121      23D170D2 
 122 0083 D0396119 		.ascii	"\3209a\031|\350\3213i\003\221_\224\211\320(\244\246"
 122      7CE8D133 
 122      6903915F 
 122      9489D028 
 122      A4A6
 123 0095 1BD8883F 		.ascii	"\033\330\210?\304_\201\261P\317m\271*l\011\250\3216"
 123      C45F81B1 
ARM GAS  e:\temp\cciiBhKe.s 			page 9


 123      50CF6DB9 
 123      2A6C09A8 
 123      D136
 124 00a7 31D3FE29 		.ascii	"1\323\376)\237\267\210\005\264\355Po[\\Ea\245\232U\374"
 124      9FB78805 
 124      B4ED506F 
 124      5B5C4561 
 124      A59A55FC 
 125 00bb 65D81BE9 		.ascii	"e\330\033\351{\243\362l) )\000\037\240\037\303\350g"
 125      7BA3F26C 
 125      29202900 
 125      1FA01FC3 
 125      E867
 126 00cd 57112C02 		.ascii	"W\021,\002B\337\274q!\222/w!\277\317\315\306\276h\205"
 126      42DFBC71 
 126      21922F77 
 126      21BFCFCD 
 126      C6BE6885 
 127 00e1 F7B9321A 		.ascii	"\367\2712\032[<\325\032T\257\224F\245\370\020en50|\276"
 127      5B3CD51A 
 127      54AF9446 
 127      A5F81065 
 127      6E35307C 
 128 00f6 77A3CD6B 		.ascii	"w\243\315k\204\024\255\002|\204\205\254@\304\217\321"
 128      8414AD02 
 128      7C8485AC 
 128      40C48FD1 
 129 0106 A0212067 		.ascii	"\240! g\272\217FU2\031T\321\261\335\255\337\026\274"
 129      BA8F4655 
 129      321954D1 
 129      B1DDADDF 
 129      16BC
 130 0118 5E04CEEA 		.ascii	"^\004\316\352`Kippq09\344q\2608\2709x8\000\254\020!"
 130      604B6970 
 130      70713039 
 130      E471B038 
 130      B8397838 
 131 0130 8F202104 		.ascii	"\217 !\004?\345<6\223\261\025Li\020\023\231\270n\217"
 131      3FE53C36 
 131      93B1154C 
 131      69101399 
 131      B86E8F
 132 0143 CFBAB879 		.ascii	"\317\272\270yA\344O\310\334\002\216\257\256Lt\234c\314"
 132      41E44FC8 
 132      DC028EAF 
 132      AE4C749C 
 132      63CC
 133 0155 E6732DD5 		.ascii	"\346s-\325b\313\273\336u\217\263\275\250\242\212\307"
 133      62CBBBDE 
 133      758FB3BD 
 133      A8A28AC7 
 134 0165 776FE46A 		.ascii	"wo\344j\207\267\023\3574\205\232\224r\333R\307n\352"
 134      87B713EF 
 134      34859A94 
 134      72DB52C7 
 134      6EEA
 135 0177 B38BFBC4 		.ascii	"\263\213\373\304\036\354D\202\334\275\025\036ws\225"
ARM GAS  e:\temp\cciiBhKe.s 			page 10


 135      1EEC4482 
 135      DCBD151E 
 135      777395
 136 0186 C4C198C4 		.ascii	"\304\301\230\304\336\264L\317dV&>\331\265d8\274\241"
 136      DEB44CCF 
 136      6456263E 
 136      D9B56438 
 136      BCA1
 137 0198 34EFFAAF 		.ascii	"4\357\372\257\271Qw\016o_\226\367\251\303\273\272l_"
 137      B951770E 
 137      6F5F96F7 
 137      A9C3BBBA 
 137      6C5F
 138 01aa D61DDE36 		.ascii	"\326\035\3366\232\242\211\375t\372\025\325\213\366\032"
 138      9AA289FD 
 138      74FA15D5 
 138      8BF61A
 139 01b9 E6E539EF 		.ascii	"\346\3459\357a\245\337\227~\016\005-N\005\245\236c\031"
 139      61A5DF97 
 139      7E0E052D 
 139      4E05A59E 
 139      6319
 140 01cb 73FD0E10 		.ascii	"s\375\016\020/\025\004\377\030\0168\215\237h];\355\310"
 140      2F1504FF 
 140      180E388D 
 140      9F685D3B 
 140      EDC8
 141 01dd F0C7F2E1 		.ascii	"\360\307\362\341 \201?b\350\275L\243R\011^\011!a\312"
 141      20813F62 
 141      E8BD4CA3 
 141      52095E09 
 141      2161CA
 142 01f0 2759322D 		.ascii	"'Y2-\347\332N\356\331\0269\323\301w\333\237#\246\243"
 142      E7DA4EEE 
 142      D91639D3 
 142      C177DB9F 
 142      23A6A3
 143 0203 97441C4A 		.ascii	"\227D\034Jq'\204\006\323%\233\231\363\266c\036\336\302"
 143      71278406 
 143      D3259B99 
 143      F3B6631E 
 143      DEC2
 144 0215 6C113E63 		.ascii	"l\021>c\373C\332\266E\004\341\376\261\015\363\177k\026"
 144      FB43DAB6 
 144      4504E1FE 
 144      B10DF37F 
 144      6B16
 145 0227 3ECF76A2 		.ascii	">\317v\242\303\225\342\315z\356\355\364F\266\350y\010"
 145      C395E2CD 
 145      7AEEEDF4 
 145      46B6E879 
 145      08
 146 0238 9F756E64 		.ascii	"\237und.\237\332\237\271yA\211\260H\267q`9\216N\005"
 146      2E9FDA9F 
 146      B9794189 
 146      B048B771 
 146      60398E4E 
ARM GAS  e:\temp\cciiBhKe.s 			page 11


 147 024d FFF1BF23 		.ascii	"\377\361\277#\322\020\344R\342\374\016\036\303\322\360"
 147      D210E452 
 147      E2FC0E1E 
 147      C3D2F0
 148 025c 9AD7F106 		.ascii	"\232\327\361\0068\212~\015\210W\347[\215LHw{\347\301"
 148      388A7E0D 
 148      8857E75B 
 148      8D4C4877 
 148      7BE7C1
 149 026f 404DA0AE 		.ascii	"@M\240\256\262>p\342xymC]U\240\242\254\274\266t_E\351"
 149      B23E70E2 
 149      78796D43 
 149      5D55A0A2 
 149      ACBCB674 
 150 0286 D903D595 		.ascii	"\331\003\325\225gN\356\255\002\263.P\177\254\262\272"
 150      674EEEAD 
 150      02B32E50 
 150      7FACB2BA 
 151 0296 21A01F3E 		.ascii	"!\240\037>Rf\301?\321\013O\327"
 151      5266C13F 
 151      D10B4FD7 
 152              		.text
 153              		.section	.gnu.lto_CySysFlashClockRestore.624149ef,"",%progbits
 154 0000 789C7D54 		.ascii	"x\234}T]LTG\024\2363s\357\335\313\335?|\361\21146)i"
 154      5D4C5447 
 154      149E3373 
 154      EFDDCBDD 
 154      3F7CF189 
 155 0018 7C91D0F8 		.ascii	"|\221\320\370`\322\350\213\211>\371\223\232\364\311"
 155      60D2E88B 
 155      893EF993 
 155      9AF4C9
 156 0027 C66CEC26 		.ascii	"\306l\354&}\260jWL\364\211\201\335\313\2171*i*F\260"
 156      7DB06A57 
 156      4CF48981 
 156      DDCB8F31 
 156      2A692A46 
 157 003c A4F840A9 		.ascii	"\244\370@\251\305\005J\305\025ZWXA\320jm\304\177\015"
 157      C5054AC5 
 157      155A5758 
 157      41D06A6D 
 157      C47F0D
 158 004f FEA08992 		.ascii	"\376\240\211\222\015\213\030\242\010\333s\356\334E\330"
 158      0D8B18A2 
 158      08DB73EE 
 158      DC45D8
 159 005e 0726D973 		.ascii	"\007&\331sw\346\234\371\276\357|w\356h\014\030\215^"
 159      77E69CF9 
 159      BEEF7C77 
 159      EE680C18 
 159      8D5E
 160 0070 9DB1B5F8 		.ascii	"\235\261\265\370\334\204?\3600\340\307\2563Var.\006"
 160      DC843FF0 
 160      30E0C7AE 
 160      33566172 
 160      2E06
 161 0082 834C5ADA 		.ascii	"\203LZ\332\320:&}\002\014\265\254q\235\026,\203\222"
ARM GAS  e:\temp\cciiBhKe.s 			page 12


 161      D03A267D 
 161      020CB5AC 
 161      719D162C 
 161      8392
 162 0094 3E3DB76C 		.ascii	">=\267l\000\320\037i\002+\347B\323\015(\207\267|\226"
 162      00D01F69 
 162      022BE742 
 162      D30D2887 
 162      B77C96
 163 00a7 C3CD587B 		.ascii	"\303\315X{\243\230\342\266`\240\3414\363\317\311g\001"
 163      A398E2B6 
 163      60A0E134 
 163      F3CFC967 
 163      01
 164 00b8 9A02ACC0 		.ascii	"\232\002\254\300i\203\374\257\326\263\262E\312J9j\247"
 164      6983FCAF 
 164      D6B3B245 
 164      CA4A396A 
 164      A7
 165 00c9 FDAD9DFF 		.ascii	"\375\255\235\377\312\002[p\226\345\014~\205\"h\201\""
 165      CA025B70 
 165      96E50C7E 
 165      85226881 
 165      22
 166 00da 52D50A2B 		.ascii	"R\325\012+\031V\237\354\231\032\326\025\226\211\323"
 166      19569FEC 
 166      991AD615 
 166      9689D3
 167 00e9 EEF4996E 		.ascii	"\356\364\231n\277\302JRzv\372XT\023\237\001\375\377"
 167      BFC24A52 
 167      7A76FA58 
 167      54139F01 
 167      FDFF
 168 00fb 703B31E0 		.ascii	"p;1\340->-S\02529\233>\360\243\224W\244f\013\001\277"
 168      2D3E2D53 
 168      1532399B 
 168      3EF0A394 
 168      57A4660B 
 169 0111 8320F033 		.ascii	"\203 \3603\010\376\233\003\316\250\374D}uk@\2248[\037"
 169      08FE9B03 
 169      CEA8FC44 
 169      7D756B40 
 169      94385B1F 
 170 0125 DEB839A6 		.ascii	"\336\2709\246\341V\324\224|\233\336[\027U[9\234U[?\352"
 170      E156D494 
 170      7C9BDE5B 
 170      17555B39 
 170      9C555B3F 
 171 013a 72B63EED 		.ascii	"r\266>\355\230\373\311o\304$\216\025\020\207bh\203b"
 171      98FBC96F 
 171      C4248E15 
 171      10876268 
 171      8362
 172 014c D28FB2DB 		.ascii	"\322\217\262\333\301@\213yn5\376URf\263Q\231|\263\252"
 172      C1408B79 
 172      6E35FE55 
 172      5266B351 
ARM GAS  e:\temp\cciiBhKe.s 			page 13


 172      997CB3AA 
 173 0160 AEA633B0 		.ascii	"\256\2463\260\014\030e4f\013\315\240P@\301\242\340\245"
 173      0C186534 
 173      660BCDA0 
 173      5040C1A2 
 173      E0A5
 174 0172 E0A3E0A7 		.ascii	"\340\243\340\247\020\240\020\244PH\201\261\011\204'"
 174      10A010A4 
 174      504881B1 
 174      098427
 175 0181 BB339CD3 		.ascii	"\2733\234\323S<\205J\224:\001\016#b\242\254\343v\337"
 175      533C854A 
 175      943A010E 
 175      2362A2AC 
 175      E376DF
 176 0194 0D0F99C3 		.ascii	"\015\017\231\303\221\246\003\345\276\200\276\251\211"
 176      91A603E5 
 176      BE80BEA9 
 176      89
 177 01a1 5B8D07A8 		.ascii	"[\215\007\250\006\363\361\361\304;\307<\335i\272\352"
 177      06F3F1F1 
 177      C43BC73C 
 177      DD69BAEA 
 178 01b1 C458CA2C 		.ascii	"\304X\312,\215\313X\205\224;la\220^\350T]\302\037P\212"
 178      8DCB5885 
 178      943B6C61 
 178      905EE854 
 178      5DC21F50 
 179 01c6 25AFED97 		.ascii	"%\257\355\227\323\016\242\006\347F\004t9\230\225\223"
 179      D30EA206 
 179      E7460474 
 179      39989593 
 180 01d6 D52F86FB 		.ascii	"\325/\206\373\203\004\032\025\332B^\217\203\233H\214"
 180      83041A15 
 180      DA425E8F 
 180      839B488C 
 181 01e6 3FF094CF 		.ascii	"?\360\224\317\312\032)\013q\255V(\323^]\033IYMp\012"
 181      CA1A290B 
 181      71AD5628 
 181      D35E5D1B 
 181      49594D70 
 182 01fb D968DD84 		.ascii	"\331h\335\204sx^\376$:L\0369\337^k\226\264\221\2432"
 182      73785EFE 
 182      243A4C1E 
 182      39DF5E6B 
 182      96B491A3 
 183 0210 03B62880 		.ascii	"\003\266(\200nh\2029\356\032~\347^\325a\222J\343\224"
 183      6E688239 
 183      EE1A7EE7 
 183      5ED56192 
 183      4AE394
 184 0223 610B0BCE 		.ascii	"a\013\013\316CIN+\275\372\271K\023^E)\233p\273\027\022"
 184      43494E2B 
 184      BDFAB94B 
 184      135E4529 
 184      9B70BB17 
 185 0238 508A5D5C 		.ascii	"P\212]\\\200r2\341\370/\237\270\026t\245\006\253Le\001"
ARM GAS  e:\temp\cciiBhKe.s 			page 14


 185      807232E1 
 185      F82F9FB8 
 185      1674A506 
 185      AB4C6501 
 186 024c E0B4B9EF 		.ascii	"\340\264\271\357Q\225\221oA\217kA/\224b\177\252\341"
 186      5195916F 
 186      418F6B41 
 186      2F94627F 
 186      AAE1
 187 025e F4F0E9E5 		.ascii	"\364\360\351\345\252a#\317\271\031\310\263\016\363c"
 187      AA6123CF 
 187      B919C8B3 
 187      0EF363
 188 026d FDCD637E 		.ascii	"\375\315c~\224Cc\004\363>\370\313\221\363\267+\347\311"
 188      94436304 
 188      F33EF8CB 
 188      91F3B72B 
 188      E7C9
 189 027f E7AE9C79 		.ascii	"\347\256\234y\347\374\216s\265w;f|jZ#\223\222\274m\356"
 189      E7FC8E73 
 189      B5773B66 
 189      7C6A5A23 
 189      9392BC6D 
 190 0294 39DAE027 		.ascii	"9\332\340'\327\210\353K<\012\001H\342a\274H\\p\011="
 190      D788EB4B 
 190      3C0A0148 
 190      E261BC48 
 190      5C70093D 
 191 02a8 4245CE7B 		.ascii	"BE\316{n\277\323\3703\270\260\243\003g\307\015\205\023"
 191      6EBFD3F8 
 191      33B8B0A3 
 191      0367C70D 
 191      8513
 192 02ba 737166A6 		.ascii	"sqf\246\037\366z\027\343\364\315\343\364#\016\326\\"
 192      1FF67A17 
 192      E3F4CDE3 
 192      F4230ED6 
 192      5C
 193 02cb 6F6B88FB 		.ascii	"ok\210\373\324\333\256G\345&\2440\373\022d\377\343\010"
 193      D4DBAE47 
 193      E526A430 
 193      FB1264FF 
 193      E308
 194 02dd 0153736B 		.ascii	"\001Ssk\210\353\375\241\201\253\321\200\262\243`\221"
 194      88EBFDA1 
 194      81ABD180 
 194      B2A36091 
 195 02ed 4658ACEF 		.ascii	"FX\254\3572\342\342\206\350\007C\025[\252>U\367\356"
 195      32E2E286 
 195      E8074315 
 195      5BAA3E55 
 195      F7EE
 196 02ff 07454306 		.ascii	"\007EC\006\005a\000\213\237@\354\276p\253\234\005\032"
 196      0561008B 
 196      9F40ECBE 
 196      70AB9C05 
 196      1A
ARM GAS  e:\temp\cciiBhKe.s 			page 15


 197 0310 192ED860 		.ascii	"\031.\330`P\020\245\245r\336\245\350\006\363\350|\252"
 197      5010A5A5 
 197      72DEA5E8 
 197      06F3E87C 
 197      AA
 198 0321 3E6E3F6F 		.ascii	">n?o5\025_\026\340\212\203\235\341\032\033Z\267\020"
 198      35155F16 
 198      E08A839D 
 198      E11A1B5A 
 198      B710
 199 0333 D9BF14F2 		.ascii	"\331\277\024\362P\036r\000\353s\262\037\270\262\003"
 199      501E7200 
 199      EB73B21F 
 199      B8B203
 200 0342 08D0D275 		.ascii	"\010\320\322uq\316\374\330\232\005\303\363\235\350\354"
 200      71CEFCD8 
 200      9A05C3F3 
 200      9DE8EC
 201 0351 C8170BF9 		.ascii	"\310\027\013\371\202K\361]\315\343+\304\372y\345F\356"
 201      824BF15D 
 201      CDE32BC4 
 201      FA79E546 
 201      EE
 202 0362 FB97DFE4 		.ascii	"\373\227\337\344>\376\250\000\366\012/\204\354\344("
 202      3EFEA800 
 202      F60A2F84 
 202      ECE428
 203 0371 A81D74CF 		.ascii	"\250\035t\317O\002\236\016\2378\\_]\264\360\353\327"
 203      4F029E0E 
 203      9F385C5F 
 203      5DB4F0EB 
 203      D7
 204 0382 F076B806 		.ascii	"\360v\270\006E\032C\\\235.\026 @\374\324>\335\030\336"
 204      451A435C 
 204      9D2E1620 
 204      40FCD43E 
 204      DD18DE
 205 0395 1D8E84CA 		.ascii	"\035\216\204\312\302\337\356\330\266g\177dgx\373\326"
 205      C2DFEED8 
 205      B6677F64 
 205      6778FBD6 
 206 03a5 6D7BD6AF 		.ascii	"m{\326\257\336\276\376\340\206]\241}\337\255\332\311"
 206      DEBEFEE0 
 206      865DA17D 
 206      DFADDAC9 
 207 03b5 ACBDA148 		.ascii	"\254\275\241H\350\373pY8\262\317\214\204\313\276\016"
 207      E8FB7059 
 207      38B2CF8C 
 207      84CBBE0E 
 208 03c5 EDDA1FD6 		.ascii	"\355\332\037\3267o\331j\261\377\001+l\002b"
 208      376FD96A 
 208      B1FF012B 
 208      6C0262
 209              		.text
 210              		.section	.gnu.lto_CySysFlashWriteRow.624149ef,"",%progbits
 211 0000 789C7D56 		.ascii	"x\234}VklT\325\026\336\353\354\23193g\236v:\323\"\345"
 211      6B6C54D5 
ARM GAS  e:\temp\cciiBhKe.s 			page 16


 211      16DEEBEC 
 211      99393367 
 211      9E763AD3 
 212 0016 156C2A21 		.ascii	"\025l*!RJA$\362\003\305\334{\377\\56Q\177\220\230\006"
 212      524A4124 
 212      F203C5DC 
 212      7BFF5C35 
 212      36517F90 
 213 002c C778AF08 		.ascii	"\307x\257\010ZK\324\037\332Sf\246VL\240\202Ry\005\224"
 213      5A4BD41F 
 213      DA5366A6 
 213      564CA082 
 213      52790594 
 214 0040 20A0D817 		.ascii	" \240\330\027\210\026\301\016PZ|\224\332\002\025\350"
 214      8816C10E 
 214      505A7C94 
 214      DA0215E8 
 215 0050 43DE2272 		.ascii	"C\336\"ro\332\252\001A\030\327\332\373\234\351\364\224"
 215      6FDAAA01 
 215      4118D7DA 
 215      FB9CE9F4 
 215      94
 216 0061 74925973 		.ascii	"t\222Ys\366\336k}\337\332k\357\365\315\2611`\364\211"
 216      F6DE6B7D 
 216      DFDA6BEF 
 216      F5CDB131 
 216      60F489
 217 0074 7819FB2F 		.ascii	"x\031\373/\376\336\215C\030\303@\251:\312X\271SQxe\036"
 217      FEDE8D43 
 217      18C340A9 
 217      3ACA58B9 
 217      53517865 
 218 0089 D3B52CB2 		.ascii	"\323\265,\262\036\256\330Z\357\247\3217Y8\262)\366\376"
 218      1EAED85A 
 218      EFA7D137 
 218      5938B229 
 218      F6FE
 219 009b 108E1C9B 		.ascii	"\020\216\034\233\037\300\221\035\\2\304\241\2504\241"
 219      1FC0911D 
 219      5C32C4A1 
 219      A834A1
 220 00aa B968D1A3 		.ascii	"\271h\321\243\232\323.E\333;\036\247\263\273\362qZS"
 220      9AD32E45 
 220      DB3B1EA7 
 220      B3BBF271 
 220      5A53
 221 00bc DCC7C338 		.ascii	"\334\307\3038\362\354\233\215#7x\244\223G\361\012\272"
 221      F2EC9B8D 
 221      233778A4 
 221      9347F10A 
 221      BA
 222 00cd A0A0F32A 		.ascii	"\240\240\363*>A\340\027\004>\310\220N~% \0102\004A\300"
 222      3E41E017 
 222      043EC890 
 222      4E7E2520 
 222      08320441 
 223 00e2 9CCE80A0 		.ascii	"\234\316\200\240|\010*\231\202),\2302\225\320\361|\032"
ARM GAS  e:\temp\cciiBhKe.s 			page 17


 223      7C082A99 
 223      82292C98 
 223      3295D0F1 
 223      7C1A
 224 00f4 EDC3394F 		.ascii	"\355\3039O\010\302\322)\014\331\362!\313|\310\006\240"
 224      08C2D229 
 224      0CD9F221 
 224      CB7CC806 
 224      A0
 225 0105 07DD09AC 		.ascii	"\007\335\011\254L\3416\273Cuin\217\327\347\017d\004"
 225      4CE136BB 
 225      4375696E 
 225      8FD7E70F 
 225      6404
 226 0117 3343E1AC 		.ascii	"3C\341\254l(\203?\224[\012t\304\3526\360\337\2258g`"
 226      6C28833F 
 226      945B0A74 
 226      C4EA36F0 
 226      DF953867 
 227 012c C3E140DB 		.ascii	"\303\341@\333\272\363>\032\002L\304\341z\275\363mu\312"
 227      BAF33E1A 
 227      024CC4E1 
 227      7ABDF36D 
 227      75CA
 228 013e 365D5FA6 		.ascii	"6]_\246\237\331ze\336\273\321\370\277\342\\aI\205\301"
 228      9FD97A65 
 228      DEBBD1F8 
 228      BFE25C61 
 228      4985C1
 229 0151 76C8816D 		.ascii	"v\310\201m\220\203U\206\0350\005}\2537}|\321\315\357"
 229      90835586 
 229      1D30057D 
 229      AB377D7C 
 229      D1CDEF
 230 0164 0186CF0D 		.ascii	"\001\206\317\015+7\267A\336V\212\323\337\217\350.\014"
 230      2B37B741 
 230      DE568AD3 
 230      DF8FE82E 
 230      0C
 231 0175 824F80A7 		.ascii	"\202O\200\247\307\021\016|\012y\350\375\355\315\353"
 231      C7110E7C 
 231      0A79E8FD 
 231      EDCDEB
 232 0184 1F6B7CAA 		.ascii	"\037k|\252\210\324W\354\275i7\"{E$\207\235\326HL\366"
 232      88D457EC 
 232      BD693722 
 232      7B452487 
 232      9DD6484C 
 233 0199 33C823F7 		.ascii	"3\310#\367\325\203\275_:x\241\010=]S\025\323r\267Ph"
 233      D583BD5F 
 233      3A78A108 
 233      3D5D5315 
 233      D372B750 
 234 01ae A2B7C257 		.ascii	"\242\267\302W\255'\312'\306\271\015jdxa\016L\317\021"
 234      AD27CA27 
 234      C6B90D6A 
 234      6478610E 
ARM GAS  e:\temp\cciiBhKe.s 			page 18


 234      4CCF11
 235 01c1 D7037D0F 		.ascii	"\327\003}\017]\272\376\253Sn\273\222\312\320\326\260"
 235      5DBAFEAB 
 235      536EBB92 
 235      CAD0D6B0 
 236 01d1 EE1D97DC 		.ascii	"\356\035\227\334w\"\200\343[\327\252\2426\376\260\300"
 236      772280E3 
 236      5BD7AAA2 
 236      36FEB0C0 
 237 01e1 6DEFBFD1 		.ascii	"m\357\277\321\255\"ns\271\236\350n\011\243\215!\256"
 237      AD226E73 
 237      B99EE86E 
 237      09A38D21 
 237      AE
 238 01f2 1D1A246E 		.ascii	"\035\032$n=\246U\007)\344#\347\252\017(\374\337\"r\317"
 238      3DA65507 
 238      29E423E7 
 238      AA0F28FC 
 238      DF2272CF 
 239 0206 86CD0376 		.ascii	"\206\315\003v\214\214E\365\304\311\026\217^U\356\214"
 239      8C8C45F5 
 239      C4C9168F 
 239      5E55EE8C 
 240 0216 7307EC1E 		.ascii	"s\007\354\036\276\037#\360\203\352\267v\370\370\002"
 240      BE1F23F0 
 240      83EAB776 
 240      F8F802
 241 0225 11B861ED 		.ascii	"\021\270a\355\261\317\315\300\256\241\300=w\014<W\177"
 241      B1CFCDC0 
 241      AEA1C03D 
 241      770C3C57 
 241      7F
 242 0236 FB7DAF23 		.ascii	"\373}\257#\246\343g\"|\001\271\3609~w\341\267\026r\351"
 242      A6E36722 
 242      7C01B9F0 
 242      397E77E1 
 242      B71672E9 
 243 024a A8F084BE 		.ascii	"\250\360\204\276\004\007\266\202\315\272Z\373DBO&\221"
 243      0407B682 
 243      CDBA5AFB 
 243      44424F26 
 243      91
 244 025b E384E3C0 		.ascii	"\343\204\343\300\015\337C\200\245U\0252\032\320\321"
 244      0DDF4380 
 244      A5551532 
 244      1AD0D1
 245 026a B881CAEC 		.ascii	"\270\201\312\354\247\211\0142A2\231dBd\302d\262\310"
 245      A7890C32 
 245      41329964 
 245      4264C264 
 245      B2C8
 246 027c 64931943 		.ascii	"d\223\031Cf,\231q\214\300'\320\343$2\223\311\344\222"
 246      662C9971 
 246      8CC027D0 
 246      E3243293 
 246      C9E492
 247 028f C923732F 		.ascii	"\311#s/\231)d\246\222\231F&\237\314t2\005df\220)$3\223"
ARM GAS  e:\temp\cciiBhKe.s 			page 19


 247      992964A6 
 247      92994626 
 247      9FCC7432 
 247      05646690 
 248 02a7 CC2C32B3 		.ascii	"\314,2\263\311\314!\363 \231\271d\346\211k\304\372\361"
 248      C9CC21F3 
 248      2099B964 
 248      E6896BC4 
 248      FAF1
 249 02b9 4BD77D40 		.ascii	"K\327}@Q\350\227_\202\203\277\367\237\350\260\213}\343"
 249      51E8975F 
 249      8283BFF7 
 249      9FE8B08B 
 249      7DE3
 250 02cb 9EB1486B 		.ascii	"\236\261Hk\342\007\333U:`,\0044b\361\310\247\252\013"
 250      E207DB55 
 250      3A602C04 
 250      3462F1C8 
 250      A7AA0B
 251 02de 840B9584 		.ascii	"\204\013\225\204\346\316B\254=\272mE6MF\271\206aM]\177"
 251      E6CE42AC 
 251      3DBA6D45 
 251      364D46B9 
 251      86614D5D 
 252 02f3 FD28DA43 		.ascii	"\375(\332C\201$\207\275F\321\007\024\316*\3638\272w"
 252      812487BD 
 252      46D10714 
 252      CE2AF338 
 252      BA77
 253 0305 472F29D2 		.ascii	"G/)\322\333\235N\302\221\344\253\224\263\215m\031\313"
 253      DB9D4EC2 
 253      91E4AB94 
 253      B38D6D19 
 253      CB
 254 0316 2F434562 		.ascii	"/CEbm\253\207\234\351\320\032\033\257v\253e\267\364"
 254      6DAB879C 
 254      E9D01A1B 
 254      AF76AB65 
 254      B7F4
 255 0328 4A5D0FC4 		.ascii	"J]\017\304\2713\251\220T\355\2032Z;\234\274\226\360"
 255      B933A990 
 255      54ED8332 
 255      5A3B9CBC 
 255      96F0
 256 033a 138C0BE8 		.ascii	"\023\214\013\350n~\262\373\304\012[A\255\036+\327\365"
 256      6E7EB2FB 
 256      C40A5B41 
 256      AD1E2BD7 
 256      F5
 257 034b 5D403BA0 		.ascii	"]@;\240\343\333/\341q\375\323\316\246\333^\204\242\317"
 257      E3DB2FE1 
 257      71FDD3CE 
 257      A6DB5E84 
 257      A2CF
 258 035d 1B71AEC1 		.ascii	"\033q\256\301\327P h\240\011\312db5\227\2336h\022QW"
 258      D7502068 
 258      A009CA64 
ARM GAS  e:\temp\cciiBhKe.s 			page 20


 258      6235979B 
 258      36681251 
 259 0372 20013971 		.ascii	" \0019q\356\026\025\250\273]\256\222/\372\324^m\374"
 259      EE1615A8 
 259      BB5DAE92 
 259      2FFAD45E 
 259      6DFC
 260 0384 D32B7DC4 		.ascii	"\323+}\304\255\217\351\215v\203\365)\223\364\200$\205"
 260      AD8FE98D 
 260      7683F529 
 260      93F48024 
 260      85
 261 0395 8350802E 		.ascii	"\203P\200.}k\326\276F\001*\354\251\345p\310(j]\3632"
 261      7D6BD6BE 
 261      46012AEC 
 261      A9E570C8 
 261      286A5DF3 
 262 03aa 13727773 		.ascii	"\023rwsk\205SB\002\016\007\367\257\357\365Y!\233\015"
 262      6B855342 
 262      020E07F7 
 262      AFEFF559 
 262      219B0D
 263 03bd C8C302F2 		.ascii	"\310\303\002\362X\264\271\235\313cJ\002\264\010\310"
 263      58B4B99D 
 263      CB634A02 
 263      B408C8
 264 03cc 65836F75 		.ascii	"e\203oum_\007\262\314~Kj\277\201%7\\\277X\363\303z\237"
 264      6D5F07B2 
 264      CC7E4B6A 
 264      BF812537 
 264      5CBF58F3 
 265 03e3 5190FD40 		.ascii	"Q\220\375@\025i\205\002\2448\202\345\305\014\327\234"
 265      15698502 
 265      A43882E5 
 265      C50CD79C 
 266 03f3 CD35F24B 		.ascii	"\3155\362K\235\227Gl\371\355\223\3657=rX\251't\322\303"
 266      9D97476C 
 266      F9ED93F5 
 266      373D7258 
 266      A92774D2 
 267 0408 8FBE5AB9 		.ascii	"\217\276Z\271\336\273\0116\226\023\027]H/|\213\335\367"
 267      DEBB0936 
 267      9613175D 
 267      482F7C8B 
 267      DDF7
 268 041a 0D71C177 		.ascii	"\015q\301w\260\0110#\261\353\376\303\015.\003\365LK"
 268      B0093023 
 268      B1EBFEC3 
 268      0D2E03F5 
 268      4C4B
 269 042c CD558784 		.ascii	"\315U\207\204\211\03107\257\365\354s\017\207\371>\005"
 269      89193037 
 269      AFF5EC73 
 269      0F87F93E 
 269      05
 270 043d D38630E8 		.ascii	"\323\2060\350\263r\347\326\253\\\226\223z\331\011Gq"
 270      B372E7D6 
ARM GAS  e:\temp\cciiBhKe.s 			page 21


 270      AB5C9693 
 270      7AD90947 
 270      71
 271 044e F567D00F 		.ascii	"\365g\320\017}\240\211\323\244\3775\242\272\261\374"
 271      7DA089D3 
 271      A4FF35A2 
 271      BAB1FC
 272 045d FFDB9F96 		.ascii	"\377\333\237\226\305\310\030\226!\014\317\256\035a\321"
 272      C5C81896 
 272      210CCFAE 
 272      1D61D1
 273 046c 3FFA9743 		.ascii	"?\372\227C:\007\245\177\363\273\177\276,Y\250<~\370"
 273      3A07A57F 
 273      F3BB7FBE 
 273      2C59A83C 
 273      7EF8
 274 047e 41DEFBD3 		.ascii	"A\336\373\323\334\360\022\023\362\336\332Y\247J\275"
 274      DCF01213 
 274      F2DEDA59 
 274      A74ABD
 275 048d 7443936B 		.ascii	"tC\223k\231\243\321uX\350B\322\2776~a\207S\362\341\201"
 275      99A3D175 
 275      58E842D2 
 275      BF367E61 
 275      8753F2E1 
 276 04a2 760AEC01 		.ascii	"v\012\354\001\305\301:\203\351\310\341\321\220\217Y"
 276      C5C13A83 
 276      E9C8E1D1 
 276      908F59
 277 04b1 90B3D0DF 		.ascii	"\220\263\320\337L\273\333H;\013\001\266\355n\272\355"
 277      4CBBDB48 
 277      3B0B01B6 
 277      ED6EBAED 
 278 04c1 1CDA9A06 		.ascii	"\034\332\232\006\307S;Q\331*_:_\366h|',|c\320?\225\271"
 278      C7533B51 
 278      D92A5F3A 
 278      5FF6687C 
 278      272C7C63 
 279 04d9 8B7A992E 		.ascii	"\213z\231.\321\207!S]\242\034\304\265\032h\355\264\313"
 279      D1872153 
 279      5DA21CC4 
 279      B51A68ED 
 279      B4CB
 280 04eb 88B1342D 		.ascii	"\210\2614-\252\032]l\314\2447\230\212\352\320%s\033"
 280      AA1A5D6C 
 280      CCA43798 
 280      8AEAD025 
 280      731B
 281 04fd 04BC4121 		.ascii	"\004\274A!{OG\035\320\224\203!\235J<\032\353\320P3\242"
 281      7B4F471D 
 281      D0948321 
 281      9D4A3C1A 
 281      EBD05033 
 282 0512 89A6E5E3 		.ascii	"\211\246\345\343%\304\270\021\252\341K\242\3361\370"
 282      25C4B811 
 282      AAE14BA2 
 282      DE31F8
ARM GAS  e:\temp\cciiBhKe.s 			page 22


 283 0521 11AF751C 		.ascii	"\021\257u\034\257\3419\020RD\332\213\336\214\202\217"
 283      AFE13910 
 283      5244DA8B 
 283      DE8C828F 
 284 0531 2D9F2083 		.ascii	"-\237 \203'\214\010\016$Q\304\030\234\024\301w\211\015"
 284      278C080E 
 284      2451C418 
 284      9C14C177 
 284      890D
 285 0543 7C38DE54 		.ascii	"|8\336TC\014\0203\365]\203\252\004\230D\323rKo\2323"
 285      430C1033 
 285      F55D83AA 
 285      049844D3 
 285      724B6F9A 
 286 0558 5DA9FABA 		.ascii	"]\251\372\272\331;\\d\333kf;\371N\2046$<\225N8n\250"
 286      D93B5C64 
 286      DB6B663B 
 286      F94E8436 
 286      243C954E 
 287 056f 86930590 		.ascii	"\206\223\005\220\207\266-\230{W\031\314\271C\305|\323"
 287      87B62D98 
 287      7B5719CC 
 287      B943C57C 
 287      D3
 288 0580 9C1962F6 		.ascii	"\234\031b\366\262\355v\251\367}\253\314\006L\327\207"
 288      B2ED76A9 
 288      F77DABCC 
 288      064CD787 
 289 0590 57ADD275 		.ascii	"W\255\322uZ\350\314g\345\325_\330\014\355\252\347\320"
 289      5AE8CC67 
 289      E5D55FD8 
 289      0CEDAAE7 
 289      D0
 290 05a1 2DB5EBEB 		.ascii	"-\265\353\353\372\237\226\271$G\336p\234\200\025\246"
 290      FA9F96B9 
 290      2447DE70 
 290      9C8015A6 
 291 05b1 071505EF 		.ascii	"\007\025\005\357H\177E\217qK\356\225\177\030\235\375"
 291      487F458F 
 291      714BEE95 
 291      7F189DFD 
 292 05c1 DF6F744B 		.ascii	"\337otK\311\013@\257\200\215^\257h\266I\247)\010\214"
 292      C90B40AF 
 292      808D5EAF 
 292      68B649A7 
 292      29088C
 293 05d4 AE62F330 		.ascii	"\256b\36302\333\021,}P\200AR\003[v\35654p\252e\217\253"
 293      32DB112C 
 293      7D508041 
 293      52035B76 
 293      EE353470 
 294 05ec 1DA36B60 		.ascii	"\035\243k`\257\320\300\237\204\006\23615\360>\203~\230"
 294      AFD0C09F 
 294      84069E31 
 294      35F03E83 
 294      7E98
 295 05fe C2155914 		.ascii	"\302\025Y\024\356\254P\270\251R\341.4\270\215\230ar"
ARM GAS  e:\temp\cciiBhKe.s 			page 23


 295      EEAC50B8 
 295      A952E12E 
 295      34B88D98 
 295      6172
 296 0610 566491B3 		.ascii	"Vd\221\263sR\316\376\250\2529\345\226\025\216\0139;"
 296      7352CEFE 
 296      A8AA39E5 
 296      96158E0B 
 296      393B
 297 0622 6FC8D97B 		.ascii	"o\310\331{n\213\234\365\355|M\356k\332h]y\301\322\225"
 297      6E8B9CF5 
 297      ED7C4DEE 
 297      6BDA685D 
 297      79C1D295 
 298 0636 F9E86F15 		.ascii	"\371\350o\025\257\3744\361\362\261&Ho\371\351\243\201"
 298      AFFC34F1 
 298      F2B12648 
 298      6FF9E9A3 
 298      81
 299 0647 5FB48063 		.ascii	"_\264\200c\325\247\247Z\336\317\256\360t\244\031\243"
 299      D5A7A75A 
 299      DECFAEF0 
 299      74A419A3 
 300 0657 215DB220 		.ascii	"!]\262 \025\242\277U\254\012\323\224)\300\316*\351\340"
 300      15A2BF55 
 300      AC0AD394 
 300      29C0CE2A 
 300      E9E0
 301 0669 334703FF 		.ascii	"3G\003\377\331\002>\013\375Sif\030\2350\254\253\024"
 301      D9023E0B 
 301      FD536966 
 301      189D30AC 
 301      AB14
 302 067b 92180537 		.ascii	"\222\030\0057\344;\242R\327\370Q`f\005\310=\230\352"
 302      E43BA252 
 302      D7F85160 
 302      6605C83D 
 302      98EA
 303 068d B4B6DF8C 		.ascii	"\264\266\337\214N\233=\242\307g\247uZ&[m\023=\336\270"
 303      4E9B3DA2 
 303      C767A775 
 303      5A265B6D 
 303      133DDEB8 
 304 06a1 2257AECE 		.ascii	"\"W\256\316\271S\217\3331\317\313\351=~\317\220\250"
 304      B9538FDB 
 304      31CFCBE9 
 304      3D7ECF90 
 304      A8
 305 06b2 CC91A2D2 		.ascii	"\314\221\242\322\276\313h\262\007M\302\356h\015\230"
 305      BECB68B2 
 305      074DC2EE 
 305      680D98
 306 06c1 53438C21 		.ascii	"SC\214!\326\254\310\024\217\2377R\234+\"R\355#79Wx\207"
 306      D6ACC814 
 306      8F9F3752 
 306      9C2B2252 
 306      ED233739 
ARM GAS  e:\temp\cciiBhKe.s 			page 24


 307 06d8 A562C612 		.ascii	"\245b\306\022\247\216\372\356\374\226\225\221\304?\036"
 307      A78EFAEE 
 307      FC969591 
 307      C43F1E
 308 06e7 06BF6076 		.ascii	"\006\277`v(\220q\036\024qY\354\1773\244\202\364lI\177"
 308      2890711E 
 308      147159EC 
 308      7F33A482 
 308      F46C497F 
 309 06fb 633C70A6 		.ascii	"c<p\246a\300-_Elp\305(r\266\371~\271\246\276\357\220"
 309      61C02D5F 
 309      456C70C5 
 309      2872B6F9 
 309      7EB9A6BE 
 310 0711 719CF384 		.ascii	"q\234\363\204@]\001\343Ep\036%\337\217\357s\350\211"
 310      405D01E3 
 310      45701E25 
 310      DF8FEF73 
 310      E889
 311 0723 E59FF4CF 		.ascii	"\345\237\364\317\310\342HIqi\344\331g\212\226,-Y\030"
 311      C8E24849 
 311      7169E4D9 
 311      678A962C 
 311      2D5918
 312 0736 59F078D1 		.ascii	"Y\360x\321\222\3713\027\314\177\375\037\213\212_y~\332"
 312      92F93317 
 312      CC7FFD1F 
 312      8B8A5F79 
 312      7EDA
 313 0748 42E62859 		.ascii	"B\346(Y\362\352\243K_T\361\347\221\342\322b\337\177"
 313      F2EAA34B 
 313      5F54F1E7 
 313      91E2D262 
 313      DF7F
 314 075a 1697464A 		.ascii	"\026\227FJJ\226\276TZT\212a\332K\305%\305/Fp\352\025"
 314      4A96BE54 
 314      5A548A61 
 314      DA4BC525 
 314      C52F4670 
 315 0770 DFC2452F 		.ascii	"\337\302E/\314_\374\334\023\221\322'\213\027-\2158K"
 315      CC5FFCDC 
 315      1391D227 
 315      8B172D8D 
 315      384B
 316 0782 8C07FBA3 		.ascii	"\214\007\373\243\217=\256\261\277\001[\247\212\326"
 316      8F3DAEB1 
 316      BF015BA7 
 316      8AD6
 317              		.text
 318              		.section	.gnu.lto_CySysFlashSetWaitCycles.624149ef,"",%progbits
 319 0000 789C9554 		.ascii	"x\234\225T\353KTA\024?g\346>\366\241\273V\020T\233\030"
 319      EB4B5441 
 319      143F67E6 
 319      3EF6A1BB 
 319      5610549B 
 320 0015 2426440A 		.ascii	"$&D\012\006\375\001A}\215\374X\024b\033\005\241\266"
 320      06FD0141 
ARM GAS  e:\temp\cciiBhKe.s 			page 25


 320      7D8DFC58 
 320      14621B05 
 320      A1B6
 321 0027 69D02747 		.ascii	"i\320'Gw\327\036D\004QA&\022\021\225\226\317L77\273"
 321      77D71E44 
 321      04514126 
 321      12119596 
 321      CF4C3737 
 322 003c 49D6874A 		.ascii	"I\326\207J\321\244\017=\2544,BH\303\324B\275\235\271"
 322      D1A40F3D 
 322      AC342C42 
 322      48C3D442 
 322      BD9DB9
 323 004f A35BF610 		.ascii	"\243[\366\020\032\330s\357\234\371\235\337\371\375\346"
 323      1AD873EF 
 323      9CF99DDF 
 323      F9FDE6
 324 005e CEAC0608 		.ascii	"\316\254\006\010r\234\322\0006\321\263\210~\350\001"
 324      729CD200 
 324      36D1B388 
 324      7EE801
 325 006d 64A7BB01 		.ascii	"d\247\273\001\312\\\214\361x*\010\217\326\237\005\""
 325      CA5C8CF1 
 325      782A088F 
 325      D69F0522 
 326 007d 89A35BA5 		.ascii	"\211\243[\2455\246;i\303I\353\363i\203\231\317)\341"
 326      35A63B69 
 326      C349EBF3 
 326      698399CF 
 326      29E1
 327 008f 71DDA1C5 		.ascii	"q\335\241\305$s>\355\232\177q#\312\027\341B(e\\\323"
 327      24733EED 
 327      9A7F7123 
 327      CA17E142 
 327      28655CD3 
 328 00a3 0D9352A5 		.ascii	"\015\223R\245\370\225\3150\354<:\034c\231W\005\215\267"
 328      F895CD30 
 328      EC3C3A1C 
 328      63995705 
 328      8DB7
 329 00b5 5DCD39E2 		.ascii	"]\3159\342\232\205Q\016`3G\036\340U\314$To\244\341\""
 329      9A85510E 
 329      6033471E 
 329      E055CC24 
 329      546FA4E1 
 330 00ca 1F67518E 		.ascii	"\037gQ\216\250\321t\354\351\205!\237\2342L\243i\317"
 330      A8D174EC 
 330      E985219F 
 330      9C324CA3 
 330      69CF
 331 00dc C4FB4B7E 		.ascii	"\304\373K~\276\026\201\336OvOt`\306\025!\312\205\250"
 331      BE1681DE 
 331      4F764F74 
 331      60C61521 
 331      CA85A8
 332 00ef 0C0A7794 		.ascii	"\014\012w\224s\254AN|x\035\003x\015\003@)\300Z\314\220"
 332      73AC414E 
ARM GAS  e:\temp\cciiBhKe.s 			page 26


 332      7C781D03 
 332      780D0340 
 332      29C05ACC 
 333 0104 F0335F5E 		.ascii	"\3603_^\267\031<\323)}Qw:\342I\277,K\255\306J\337ya"
 333      B7193CD3 
 333      297D5177 
 333      3AE249BF 
 333      2C4BADC6 
 334 011c 95A545B9 		.ascii	"\225\245E\271\2067TyN\000\263\003\216(\302\0166\316"
 334      86375479 
 334      4E00B303 
 334      8E28C20E 
 334      36CE
 335 012e 9E4D3622 		.ascii	"\236M6\"Rv\032\336\304t%\030\353\320\240}E\231\251\337"
 335      52761ADE 
 335      C4742518 
 335      EBD0A07D 
 335      4599A9DF 
 336 0142 6E09DB0E 		.ascii	"n\011\333\016\013\253z\325\375\276\324e\032\310\244"
 336      0BAB7AD5 
 336      FDBED465 
 336      1AC8A4
 337 0151 8EB2B141 		.ascii	"\216\262\261A\022tS\006\267\014\036\031\2742$\313\340"
 337      12745306 
 337      B70C1E19 
 337      BC3224CB 
 337      E0
 338 0162 93C12F03 		.ascii	"\223\301/\003\300(\261\312\255\033cL>\371G\014[-\225"
 338      C028B1CA 
 338      AD1B634C 
 338      3EF9470C 
 338      5B2D95
 339 0175 CB659F30 		.ascii	"\313e\2370\227;\021\213\215\2744Kg\3041!R\242\334\260"
 339      973B118B 
 339      8DBC344B 
 339      67C43121 
 339      52A2DCB0 
 340 0189 996C5F8F 		.ascii	"\231l_\217\245Tn\302 2G\0215&4\274\303HO\370C\353:U"
 340      A5546EC2 
 340      20324711 
 340      352634BC 
 340      C3484FF8 
 341 01a1 AD5375DF 		.ascii	"\255Su\337\350\223*\257\334G\035S\260\001\225\2731\306"
 341      E8932AAF 
 341      DC471D53 
 341      B00195BB 
 341      31C6
 342 01b3 219ECA87 		.ascii	"!\236\312\207\261\363\373\211\201\317\027P\301\015\202"
 342      B1F3FB89 
 342      81CF1750 
 342      C10D82
 343 01c2 9F8B76F6 		.ascii	"\237\213v\366\230\022\356r\366kj\250n\304\245\246\015"
 343      9812EE72 
 343      F66B6AA8 
 343      6EC4A5A6 
 343      0D
 344 01d3 C212524E 		.ascii	"\302\022RN\270\245\355\262\247\032\253\312\"\364\025"
ARM GAS  e:\temp\cciiBhKe.s 			page 27


 344      B8A5EDB2 
 344      A71AABCA 
 344      22F415
 345 01e2 DDD8443B 		.ascii	"\335\330D;\336(i\261\031\253\021\2061<]1\275B\021\232"
 345      DE2869B1 
 345      19AB1186 
 345      313C5D31 
 345      BD42119A 
 346 01f6 8AB36322 		.ascii	"\212\263c\"zX)\230\266m\333\217\267\010N\255\317]J\227"
 346      7A582998 
 346      B66DDB8F 
 346      B7084EAD 
 346      CF5D4A97 
 347 020a B0059465 		.ascii	"\260\005\224eB\344\302B\332\026\242%*G\265\006\375Y"
 347      42E4C242 
 347      DA16A225 
 347      2A47B506 
 347      FD59
 348 021c DCF138F9 		.ascii	"\334\3618\371\253\307\304Y\3211\015o'<\352\360x\251"
 348      ABC7C459 
 348      D1310D6F 
 348      273CEAF0 
 348      78A9
 349 022e F2389BF0 		.ascii	"\3628\233\360\350^\314Ak\302\301\270\241\340\036\252"
 349      E85ECC41 
 349      6BC2C1B8 
 349      A1E01EAA 
 350 023e 98D31B9E 		.ascii	"\230\323\033\236J\370\362\322\002\361\334z\360\250\302"
 350      4AF8F2D2 
 350      02F1DC7A 
 350      F0A8C2
 351 024d A5DA22B6 		.ascii	"\245\332\"\266\375\227\251\230c\312\353\3104\340\370"
 351      FD97A998 
 351      63CAEBC8 
 351      34E0F8
 352 025c 6A65AA36 		.ascii	"je\2526\276\376\247\251\366\326\370C]\261g\343\235\204"
 352      BEFEA7A9 
 352      F6D6F843 
 352      5DB167E3 
 352      9D84
 353 026e 2913DE2C 		.ascii	")\023\336,Q\246\206\247\232\346L%/f\252=a\252\337Tp"
 353      51A686A7 
 353      9AE64C25 
 353      2F66AA3D 
 353      61AADF54 
 354 0283 1F55FC34 		.ascii	"\037U\3744\365j\245\312\372i\201x\272\354I\313\257\332"
 354      F56AA5CA 
 354      FA698178 
 354      BAEC49CB 
 354      AFDA
 355 0295 328CCF9B 		.ascii	"2\214\317\233\312\370\233\251\035\277\231\272\353\230"
 355      CAF89BA9 
 355      1DBF99BA 
 355      EB98
 356 02a3 F23B325D 		.ascii	"\362;2]P\343\245\243\034\261Z\007|\262\026\3768\310"
 356      50E3A5A3 
 356      1CB15A07 
ARM GAS  e:\temp\cciiBhKe.s 			page 28


 356      7CB216FE 
 356      38C8
 357 02b5 1E9B0E3C 		.ascii	"\036\233\016<`\007\035dZ\253\037\211}K\226m\275\010"
 357      60071D64 
 357      5AAB1F89 
 357      7D4B966D 
 357      BD08
 358 02c7 780F0351 		.ascii	"x\017\003Q\236\344\360\270\347\356D\304\352\035`\377"
 358      9EE4F0B8 
 358      E7EE44C4 
 358      EA1D60FF 
 359 02d7 24A27F13 		.ascii	"$\242\177\023\264\210\210\256\200,\374\204\345\326\263"
 359      B48888AE 
 359      802CFC84 
 359      E5D6B3
 360 02e6 5D0E5A8E 		.ascii	"]\016Z\216Q\2721\304B\335\326l\015\026\004Cy\305\301"
 360      51BA31C4 
 360      42DDD66C 
 360      0D160443 
 360      79C5C1
 361 02f9 3DBB730B 		.ascii	"=\273s\013KB\371\301\235\333r\0137o\334\271\371\310"
 361      4B42F9C1 
 361      9DDB720B 
 361      376FDCB9 
 361      F9C8
 362 030b 96037987 		.ascii	"\226\003y\207\366m\310\007mo(x\320\267\277\2408\030"
 362      F66DC807 
 362      6D6F2878 
 362      D0B7BFA0 
 362      3818
 363 031d 0A951415 		.ascii	"\012\225\024\025\347\026\023\370\007B9\234s"
 363      E71613F8 
 363      0742399C 
 363      73
 364              		.text
 365              		.section	.gnu.lto_.symbol_nodes.624149ef,"",%progbits
 366 0000 789C5D8C 		.ascii	"x\234]\214=\012\0021\024\204'\357'\311\266^@\255\304"
 366      3D0A0231 
 366      148427EF 
 366      27C9B65E 
 366      40ADC4
 367 0013 C2D6EBBD 		.ascii	"\302\326\353\275\260\245\205z\005!\227\320\312b+\021"
 367      B0A5857A 
 367      052197D0 
 367      CA622B11 
 368 0023 0BB116D9 		.ascii	"\013\261\026\331Rlm\305(\010\356N3|\337\300\010\034"
 368      526C6DC5 
 368      2808EE4E 
 368      337CDFC0 
 368      081C
 369 0035 EE282136 		.ascii	"\356(!6`}\002Jm\323&1\240@\032\000Lb\2567\221\032\365"
 369      607D024A 
 369      6DD32631 
 369      A0401A00 
 369      4C62AE37 
 370 004c 9533FEA9 		.ascii	"\2253\376\251]\032\027A&\035\341\242\351W\224\3374*"
 370      5D1A1741 
ARM GAS  e:\temp\cciiBhKe.s 			page 29


 370      261DE1A2 
 370      E95794DF 
 370      342A
 371 005e 1CCC77D8 		.ascii	"\034\314w\330[\350pe\361\237Y\"\362s\306\022\320,\217"
 371      5BE87065 
 371      F19F5922 
 371      F273C612 
 371      D02C8F
 372 0071 C402D4AB 		.ascii	"\304\002\324\253O\023\352\363\204\205\321^\347,\036"
 372      4F13EAF3 
 372      8485D15E 
 372      E72C1E
 373 0080 B9DD4F59 		.ascii	"\271\335OY\003\362\355\345X+\344\303\205X=\232\305c"
 373      03F2EDE5 
 373      582BE4C3 
 373      85583D9A 
 373      C563
 374 0092 88374282 		.ascii	"\2107B\2026\255"
 374      36AD
 375              		.text
 376              		.section	.gnu.lto_.refs.624149ef,"",%progbits
 377 0000 789C6361 		.ascii	"x\234ca`d\340f`\000\222L\214\314\214\314@\202\001\000"
 377      6064E066 
 377      6000924C 
 377      8CCC8CCC 
 377      40820100 
 378 0014 01750022 		.ascii	"\001u\000\""
 379              		.text
 380              		.section	.gnu.lto_.decls.624149ef,"",%progbits
 381 0000 789CAD56 		.ascii	"x\234\255V{PSg\026\277\337\275IHB\000\027\255eg\231"
 381      7B505367 
 381      16BFDFBD 
 381      49484200 
 381      17AD6567 
 382 0015 2976EAE8 		.ascii	")v\352\350?e}\355\314N\377\330\3316S\353lmq\244\332"
 382      3F657DED 
 382      CC4EFFD8 
 382      D93653EB 
 382      6C6D71A4 
 383 002a ED4C76D8 		.ascii	"\355Lv\330\030\257\230\025\023&\011\323\245;;s\005\304"
 383      18AF9815 
 383      132609D3 
 383      A53B3B73 
 383      05C4
 384 003c B7051F2D 		.ascii	"\267\005\037- (E\313C@\320XT\360\021E\253\202\210\200"
 384      202845CB 
 384      4340D058 
 384      54F01145 
 384      AB828880 
 385 0050 28481550 		.ascii	"(H\025PQ\361\211\300\242\202\302\236\357q\223\033j\266"
 385      51F189C0 
 385      A282C29E 
 385      EF71931B 
 385      6AB6
 386 0062 3BB37B87 		.ascii	";\263{\207\303\315w\3569\277\363\373\3169\367|W\305"
 386      C3CD77EE 
 386      39BFF3FB 
ARM GAS  e:\temp\cciiBhKe.s 			page 30


 386      CE39F77C 
 386      57C5
 387 0074 210E5F73 		.ascii	"!\016_sC9\356;\236\343L cpi@\267\030D\015\022\003\022"
 387      4339EE3B 
 387      9EE34C20 
 387      63706940 
 387      B718440D 
 388 008b 09520EF2 		.ascii	"\011R\016\362\003\3104\216^:\220\343 \036\220S gA\352"
 388      03C8348E 
 388      5E3A90E3 
 388      201E9053 
 388      206741EA 
 389 009f 411A419A 		.ascii	"A\032A\232A\356\201\334\007\301\021^p\376\027\366\013"
 389      41EE81DC 
 389      07C1115E 
 389      70FE17F6 
 389      0B
 390 00b0 03090799 		.ascii	"\003\011\007\231\004R\0032\306\260q\274Q\216:>\203["
 390      04520332 
 390      C6B071BC 
 390      518E3A3E 
 390      835B
 391 00c2 3F8B8D60 		.ascii	"?\213\215`\315\203h@\324\210\342\0160\374\343\001\342"
 391      CD836840 
 391      D488E20E 
 391      30FCE301 
 391      E2
 392 00d3 606E9A71 		.ascii	"`n\232qqp\014\031\203\205!v\343\257S\377g\216\247\002"
 392      71700C19 
 392      83852176 
 392      E3AF53FF 
 392      678EA702 
 393 00e7 703CCBF0 		.ascii	"p<\313\360\3458r\236\335 \006D\343\340\230!\210\306"
 393      E538729E 
 393      DD200644 
 393      E3E09821 
 393      88C6
 394 00f9 C5F81315 		.ascii	"\305\370\023\0251&\2014\201\376\015\270\037\203\373"
 394      31268134 
 394      81FE0DB8 
 394      1F83FB
 395 0108 64B85F64 		.ascii	"d\270_d\330A\014\037\327\242\231\363\257W\343k\366\214"
 395      D8410C1F 
 395      D7A299F3 
 395      AF57E36B 
 395      F68C
 396 011a EB17C2D1 		.ascii	"\353\027\302\321\332+\371\270\031\0079\226\034\033\307"
 396      DA2BF9B8 
 396      19073996 
 396      1C1BC7
 397 0129 C2BD21C7 		.ascii	"\302\275!\307S1\014\034\353~\200\030\257xt\375\\I\251"
 397      53310C1C 
 397      EB7E8018 
 397      AF7874FD 
 397      5C49A9
 398 013c 30C8A369 		.ascii	"0\310\243iz\204\273-\014T\025\017\217\274\010\241*l"
 398      7A84BB2D 
ARM GAS  e:\temp\cciiBhKe.s 			page 31


 398      0C54150F 
 398      8FBC08A1 
 398      2A6C
 399 014e D1F9A278 		.ascii	"\321\371\242xnt\231\004W\206$\361\274\317\265\256\263"
 399      6E749904 
 399      578624F1 
 399      BCCFB5AE 
 399      B3
 400 015f A75F2704 		.ascii	"\247_'\004\023\243\246\264\312\\\014\023\256G*X>m\310"
 400      13A3A6B4 
 400      CA5C0C13 
 400      AE472A58 
 400      3E6DC8
 401 0172 B9150ACB 		.ascii	"\271\025\012\313Iz\024\365\212\347\233\263\037vj\220"
 401      497A14F5 
 401      8AE79BB3 
 401      1F766A90 
 402 0182 7EFA5A49 		.ascii	"~\372ZIJ\2212R\245\360y\034*C\221\250\024Erh\037\232"
 402      4A913252 
 402      A5F0791C 
 402      2A4391A8 
 402      14457268 
 403 0198 8E4395A0 		.ascii	"\216C\225\240h\016\025\203\262\010\224\2058\\W\353\341"
 403      680E1583 
 403      B2089485 
 403      385C57EB 
 403      E1
 404 01a9 3F1C91A4 		.ascii	"?\034\221\244\011\250\034\351\321^$\020\023(\3344=\376"
 404      09A81CE9 
 404      D15E2410 
 404      1328DC34 
 404      3DFE
 405 01bb 0F4ACC75 		.ascii	"\017J\314u\365\355\022-\004\212\004\372H\301=\222r\317"
 405      F5ED122D 
 405      048A04FA 
 405      48C13D92 
 405      72CF
 406 01cd CEBC351A 		.ascii	"\316\2745\032,\314\301\277\371\226[\245\275*4]O\260"
 406      2CCCC1BF 
 406      F9965BA5 
 406      BD2A345D 
 406      4FB0
 407 01df 3D596F49 		.ascii	"=YoI<r\003\360~\037p$\006&\034\373\012$M\004\207fG\242"
 407      3C7203F0 
 407      7E1F7024 
 407      06261CFB 
 407      0A244D04 
 408 01f7 19C0F000 		.ascii	"\031\300\360\0000\214d\014+\201a\0050\004\360\276\222"
 408      308C640C 
 408      2B816105 
 408      3004F0BE 
 408      92
 409 0208 B1C1303D 		.ascii	"\261\3010=\263\317\370e\373\252\202\336\323j\303zo\016"
 409      B3CFF865 
 409      FBAA82DE 
 409      D36AC37A 
 409      6F0E
ARM GAS  e:\temp\cciiBhKe.s 			page 32


 410 021a D041082F 		.ascii	"\320A\010/\247\201C? \003ic\270\203\361X\336\276b]\007"
 410      A781433F 
 410      20036963 
 410      B883F158 
 410      DEBE625D 
 411 022f 6A47D063 		.ascii	"jG\320c\362\333\201\350\177D\204\243B\226\360\203\347"
 411      F2DB81E8 
 411      7F4484A3 
 411      4296F083 
 411      E7
 412 0240 588F3395 		.ascii	"X\2173\225\367\306\341\377\034\265':\037\030\371\223"
 412      F7C6E1FF 
 412      1CB5273A 
 412      1F18F993 
 413 0250 EF63F245 		.ascii	"\357c\362E@|\350\2109!/\003\352E\237\363\314\214\243"
 413      407CE888 
 413      39212F03 
 413      EA459FF3 
 413      CC8CA3
 414 0263 E0BCCF41 		.ascii	"\340\274\317A\201G\351*8!\377=!\271\243<\265\273\212"
 414      8147E92A 
 414      3821FF3D 
 414      21B9A33C 
 414      B5BB8A
 415 0276 55C27BA4 		.ascii	"U\302{\244tg\306\236y\302hG\361\260l\356\273\220\027"
 415      7467C69E 
 415      79C26847 
 415      F1B06CEE 
 415      BB9017
 416 0289 4C3B6A02 		.ascii	"L;j\002,[\253V?\014\026\026\220\302>\331S\\\251\015"
 416      2C5BAB56 
 416      3F0C1616 
 416      90C23ED9 
 416      535CA90D 
 417 029d D45D4703 		.ascii	"\324]G\003u\227'\357\376\237S%\011\241\032\250B\365"
 417      759727EF 
 417      FE9F5325 
 417      09A11AA8 
 417      42F5
 418 02af B8EEC22D 		.ascii	"\270\356\302-|\276\370\327\021\337`K)U\212\342\211\331"
 418      7CBEF8D7 
 418      11DF604B 
 418      29558AE2 
 418      89D9
 419 02c1 1100384C 		.ascii	"\021\0008L\212u\014E\300\377%*j{\265\353Z\273\356\355"
 419      8A750C45 
 419      C0FF252A 
 419      6A7BB5EB 
 419      5ABBEEED 
 420 02d5 7CC95329 		.ascii	"|\311S)u\015\244\3773\253\371\266$\351U\330\010\035"
 420      750DA4FF 
 420      33ABF9B6 
 420      24E955D8 
 420      081D
 421 02e7 F221C34F 		.ascii	"\362!\303O|\253B\035\260\375\343\350m\274\253\261\264"
 421      7CAB421D 
 421      B0FDE3E8 
ARM GAS  e:\temp\cciiBhKe.s 			page 33


 421      6DBCABB1 
 421      B4
 422 02f8 4C9DF00F 		.ascii	"L\235\360\017\262\341\264\266\003\021\024\303s\364o"
 422      B2E1B4B6 
 422      031114C3 
 422      73F46F
 423 0307 D9922705 		.ascii	"\331\222'\005\"\363\004\343\204\017\343\204\022\303"
 423      22F304E3 
 423      840FE384 
 423      12C3
 424 0315 4330BEDF 		.ascii	"C0\276\337[V\256\0232\021\001)\274\233\337\206\030J"
 424      5B56AE13 
 424      32110129 
 424      BC9BDF86 
 424      184A
 425 0327 9FCD0FE5 		.ascii	"\237\315\017\345\244\017\345\244\022\345\024Ay\271\352"
 425      A40FE5A4 
 425      12E51441 
 425      79B9EA
 426 0336 78B55E28 		.ascii	"x\265^(\246(O\326\354o\015S\361\264\031\361.AW}\267"
 426      A6284FD6 
 426      EC6F0D53 
 426      F1B419F1 
 426      2E41577D 
 427 034b B3434574 		.ascii	"\263CEt\370u<\215\210\362\306\372\376\275A\312,\225"
 427      F8753C8D 
 427      88F2C6FA 
 427      FEBD41CA 
 427      2C95
 428 035d FB65E947 		.ascii	"\373e\351G\222\2453\210\245\251 \353\312\335P \227\017"
 428      92A53388 
 428      A5A920EB 
 428      CADD5020 
 428      970F
 429 036f E45AD20D 		.ascii	"\344Z\322\015^v`\206j}\354j\225\354\316\022v'\012/o"
 429      5E766086 
 429      6A7DEC6A 
 429      95ECCE12 
 429      76270A2F 
 430 0384 D7093594 		.ascii	"\327\0115\224\335X\327\301\014\336\313\204\262k\315"
 430      DD58D7C1 
 430      0CDECB84 
 430      B26BCD
 431 0393 ED6B0956 		.ascii	"\355k\011V\022Y<Y\301\243\216\3608/\3638S\337\372'F"
 431      12593C59 
 431      C1A38EF0 
 431      382FF338 
 431      53DFFA27 
 432 03a8 236F87E0 		.ascii	"#o\207\340\245\001V\350\234\217\3069%\215zJ\243\267"
 432      A50156E8 
 432      9C8FC639 
 432      258D7A4A 
 432      A3B7
 433 03ba AE48105A 		.ascii	"\256H\020Z(\215\236ow=\320\020\032n/\215\213\333\332"
 433      288D9E6F 
 433      773DD010 
 433      1A6E2F8D 
ARM GAS  e:\temp\cciiBhKe.s 			page 34


 433      8BDBDA
 434 03cd 9B51401A 		.ascii	"\233Q@\032\027\011\215\006\231F\367\272\3566\003\360"
 434      17098D06 
 434      9946F7BA 
 434      EE3603F0 
 435 03dd E88251E7 		.ascii	"\350\202Q\347\376:~\340\200\224\246\3066\350\202\217"
 435      FE3A7EE0 
 435      8094A6C6 
 435      36E8828F 
 436 03ed C4054202 		.ascii	"\304\005B\002~4\022\002e5y#Za\035O\010\344e\354\336"
 436      7E341202 
 436      65357923 
 436      5A611D4F 
 436      08E465EC 
 437 0402 EBB767B7 		.ascii	"\353\267g\267_\362\233\374Z\364\376\275\235\215a4\230"
 437      5FF29BFC 
 437      5AF4FEBD 
 437      9D8D6134 
 437      98
 438 0413 27A7D1E0 		.ascii	"'\247\321\340Y\200\237\243K\276H\227\344H\315$\322\216"
 438      59809FA3 
 438      4BBE4897 
 438      E448CD24 
 438      D28E
 439 0425 BD356E8D 		.ascii	"\2755n\215\220O#5T\364n\320\010EtQ\271\343N]\020\354"
 439      904F2335 
 439      54F46ED0 
 439      08457451 
 439      B9E34E5D 
 440 043b 1B5D261E 		.ascii	"\033]&\036X\263\312S\024\"\224\321\307\005\337\357l"
 440      58B3CA53 
 440      142294D1 
 440      C705DFEF 
 440      6C
 441 044c D6E1C757 		.ascii	"\326\341\307W\3401j\245}\262\257l\244ROr\265x\262\337"
 441      E0316AA5 
 441      7DB2AF6C 
 441      A4524F72 
 441      B578B2DF 
 442 0460 B113F3F3 		.ascii	"\261\023\363\363c'\206\216\356=/\236\0342\010\007\011"
 442      6327868E 
 442      EE3D2F9E 
 442      1C320807 
 442      09
 443 0471 287FAFBA 		.ascii	"(\177\257\272j\247 \317\356\256g[M\003\253q\305\256"
 443      6AA720CF 
 443      EEAE675B 
 443      4D03AB71 
 443      C5AE
 444 0483 C3863B7C 		.ascii	"\303\206;|[\210\361\316\357\361S\340'\230\0021l\012"
 444      5B88F1CE 
 444      EFF153E0 
 444      27980231 
 444      6C0A
 445 0495 5C03653B 		.ascii	"\\\003e;\235\310\356\221\242\022\201\320\302Hm\224k"
 445      9DC8EE91 
 445      A21281D0 
ARM GAS  e:\temp\cciiBhKe.s 			page 35


 445      C2486D94 
 445      6B
 446 04a6 D6A9ABBF 		.ascii	"\326\251\253\277\"\272O\014\350\006Ue\367\334\224h\307"
 446      22BA4F0C 
 446      E8065565 
 446      F7DC9468 
 446      C7
 447 04b7 2D32A04E 		.ascii	"-2\240N\252\273\222\272q(tJ\221\260K\322\222\035\035"
 447      AABB92BA 
 447      7128744A 
 447      91B04BD2 
 447      921D1D
 448 04ca CBEE75D3 		.ascii	"\313\356u\323\367\243\033M!\232\241\233\233\266\006"
 448      F7A31B4D 
 448      219AA19B 
 448      9BB606
 449 04d9 092502D9 		.ascii	"\011%\002\331\316\323]\003\205\270[\320-\340{\023\267"
 449      CED35D03 
 449      85B85BD0 
 449      2DE07B13 
 449      B7
 450 04ea 0028077F 		.ascii	"\000(\007\177\312>\252\026\366S\213\322o\367\\\"y\355"
 450      CA3EAA16 
 450      F6538BD2 
 450      6FF75C22 
 450      79ED
 451 04fc C189BB4D 		.ascii	"\301\211\273M\243\344_\035\036\322)k\014\004X\211\321"
 451      A3E45F1D 
 451      1ED2296B 
 451      0C045889 
 451      D1
 452 050d 1D304177 		.ascii	"\0350AwI\225\273\344\236\272\227\323\331L\312\234\001"
 452      4995BBE4 
 452      9EBA97D3 
 452      D94CCA9C 
 452      01
 453 051e 93A8E3CD 		.ascii	"\223\250\343\315,\350\251\325RD\007\217\355P\213\234"
 453      2CE8A9D5 
 453      5244078F 
 453      ED508B9C 
 454 052e 2A7415A9 		.ascii	"*t\025\251\360\212\026\374\036)xe\365\246t\235\360\255"
 454      F08A16FC 
 454      1E297865 
 454      F5A6749D 
 454      F0AD
 455 0540 8A7049B9 		.ascii	"\212pI\271\3208\034\"\267f\243\2425{}\331\356\225\375"
 455      D0381C22 
 455      B766A3A2 
 455      357B7DD9 
 455      EE95FD
 456 0553 EF13FF1B 		.ascii	"\357\023\377\033M\273\333ya'\365\177\234\326\323\025"
 456      4DBBDB79 
 456      6127F57F 
 456      9CD6D315 
 457 0563 4C877704 		.ascii	"L\207w\004\306>\232\366\210}\016x\360)=\324\272M\022"
 457      C63E9AF6 
 457      887D0E78 
ARM GAS  e:\temp\cciiBhKe.s 			page 36


 457      F0293DD4 
 457      BA4D12
 458 0576 840A6A7B 		.ascii	"\204\012j{\344l\255F\250\247\277\317\357\251~i\240~"
 458      E46CAD46 
 458      A8A7BFCF 
 458      EFA97E69 
 458      A07E
 459 0588 6A58D6E7 		.ascii	"jX\326\347^|%\340\023Vb'f\270\362\300|\212\240\336\350"
 459      5E7C25E0 
 459      13566227 
 459      66B8F2C0 
 459      7C8AA0DE 
 460 059d B791A88F 		.ascii	"\267\221\250\217V\363yw\305\322\360\014\366\241\362"
 460      56F37977 
 460      C5D2F00C 
 460      F6A1F2
 461 05ac 4715990E 		.ascii	"G\025\231\016\217\300\372!\261\356G\341\262\017\030"
 461      8FC0FA21 
 461      B1EE47E1 
 461      B20F18
 462 05bb 0B599BDB 		.ascii	"\013Y\233\333\206\365\350\235\211\323\013\260C\376\300"
 462      86F5E89D 
 462      89D30BB0 
 462      43FEC0
 463 05ca 9DBF6E91 		.ascii	"\235\277n\221\244s3\260\031z\002\233\034D\023\275\316"
 463      A47333B0 
 463      197A029B 
 463      1C4413BD 
 463      CE
 464 05db 10035C67 		.ascii	"\020\003\\g\342\257\253L\006/\341\334{\237?f\016\220"
 464      E2AFAB4C 
 464      062FE1DC 
 464      7B9F3F66 
 464      0E90
 465 05ed 19F42F68 		.ascii	"\031\364/h\265\001\364\016I\015=h:7O\222$-6\340X\356"
 465      B501F40E 
 465      490D3D68 
 465      3A374F92 
 465      242D36E0 
 466 0603 D87177B7 		.ascii	"\330qw\267j\337\243Pa\204l\235_\277\266\347\200\026"
 466      6ADFA350 
 466      61846C9D 
 466      5FBFB6E7 
 466      8016
 467 0615 4D9CFEFA 		.ascii	"M\234\376\372\010\317\0015p\204\232F\204#<\003\203!"
 467      08CF0135 
 467      70849A46 
 467      84233C03 
 467      8321
 468 0627 5F817040 		.ascii	"_\201p@\022\247\263\366p\261f\352n\311\223\217\217\247"
 468      12A7B3F6 
 468      70B166EA 
 468      6EC9938F 
 468      8FA7
 469 0639 A9D761DC 		.ascii	"\251\327a\334\351\210\361\003j\254\310\322\003\\T\364"
 469      E988F103 
 469      6AACC8D2 
ARM GAS  e:\temp\cciiBhKe.s 			page 37


 469      035C54F4 
 470 0649 024D05B7 		.ascii	"\002M\005\267\013\205\273W\351\002f\177X\316\376\014"
 470      0B85BB57 
 470      E902667F 
 470      58CEFE0C 
 471 0659 92FC9C9A 		.ascii	"\222\374\234\232\301:5\255\234\026\226\207\036\227\036"
 471      C13A35AD 
 471      9C169687 
 471      1E971E
 472 0668 0A6115C7 		.ascii	"\012a\025\307\217\037\\>\336\020\314\212\343\221\213"
 472      8F1F5C3E 
 472      DE10CC8A 
 472      E3918B
 473 0677 F312C046 		.ascii	"\363\022\300F\010\330+R\234aV\034\264\256{\37355\216"
 473      08D82B52 
 473      9C61561C 
 473      B4AE7BFB 
 473      35358E
 474 068a 9CFA5F7D 		.ascii	"\234\372_}-\342YX\260&]\243\304\037\015\210\017\037"
 474      2DE25958 
 474      B0265DA3 
 474      C41F0D88 
 474      0F1F
 475 069c 8AE1F85B 		.ascii	"\212\341\370[cw\3113\225\362k\014'\304\267=\211\247"
 475      6377C933 
 475      95F26B0C 
 475      27C4B73D 
 475      89A7
 476 06ae 5F6370C7 		.ascii	"_cp\307\323st\277[\2434.\367\373t[\305\214W\021\343"
 476      D37374BF 
 476      5BA3342E 
 476      F7FB745B 
 476      C58C5711 
 477 06c3 91272DED 		.ascii	"\221'-\355Z\245\361\250\237q\0123N!\306\3257\244\\\265"
 477      5AA5F1A8 
 477      9F710A33 
 477      4E21C6D5 
 477      37A45CB5 
 478 06d7 90AB263D 		.ascii	"\220\253&=\320\272\341P\226o\314\265\346/\312\\\207"
 478      D0BAE150 
 478      966FCCB5 
 478      E62FCA5C 
 478      87
 479 06e8 C7DC6A5E 		.ascii	"\307\334j^\217Ryo]G\021\233s?\317N\032\377\332\354\014"
 479      8F52796F 
 479      5D47119B 
 479      733FCF4E 
 479      1AFFDAEC 
 480 06fd 3D3FBFD1 		.ascii	"=?\277\321\240d\204\021}\214\322\031\243t\302\350\210"
 480      A0648411 
 480      7D8CD219 
 480      A374C2E8 
 480      88
 481 070e 54769DBD 		.ascii	"Tv\235\275\203'\261s\372\217\025)\372\200m\260\226g"
 481      8327B173 
 481      FA8F1529 
 481      FA806DB0 
ARM GAS  e:\temp\cciiBhKe.s 			page 38


 481      9667
 482 0720 6DB08627 		.ascii	"m\260\206'\241j\357<\177\240\245\336k\361w[\303\201"
 482      A16AEF3C 
 482      7FA0A5DE 
 482      6BF1775B 
 482      C381
 483 0732 9C0D3AD6 		.ascii	"\234\015:\326\010\370\303-??\245[=\376-]\317G\242u<"
 483      08F8C32D 
 483      3F3FA55B 
 483      3DFE2D5D 
 483      CF47A275 
 484 0747 86DBC087 		.ascii	"\206\333\300\207\313\240\344\324:\335T\247UZ\217\006"
 484      CBA0E4D4 
 484      3ADD54A7 
 484      555A8F06 
 485 0757 B4461B79 		.ascii	"\264F\033y\\\326\313C7\352\203\224[\305\203\317Gw\023"
 485      5CD6CB43 
 485      37EA8394 
 485      5BC583CF 
 485      477713
 486 076a DBEA26B2 		.ascii	"\333\352&\262\325s7\007\276\362\216\177z\202oi\030\314"
 486      D5733707 
 486      BEF28E7F 
 486      7A826F69 
 486      18CC
 487 077c F5162F0D 		.ascii	"\365\026/\015\374?\235\254p\377\304\300^\335\366\362"
 487      FC3F9DAC 
 487      70FFC4C0 
 487      5EDDF6F2 
 488 078c CC462D71 		.ascii	"\314F-q\375\2327\240\315\374\353}\027+}ar\323\002\202"
 488      FD9A37A0 
 488      CDFCEB7D 
 488      172B7D61 
 488      72D30282 
 489 07a0 E5E1A1B4 		.ascii	"\345\341\241\2642D\3343\301=\203\272\227\227\366\337"
 489      3244DC33 
 489      C13D83BA 
 489      9797F6DF 
 490 07b0 54FDA759 		.ascii	"T\375\247Y\277\225\307\263~\013\217g=^\200\317p\316"
 490      BF95C7B3 
 490      7E0B8F67 
 490      3D5E80CF 
 490      70CE
 491 07c2 662954B9 		.ascii	"f)T\271\335&\277\355nc\333\335F\266"
 491      DD26BFED 
 491      6E63DBDD 
 491      46B6
 492 07d0 DBD65F55 		.ascii	"\333\326_U\344\227\233c~\306\333\231\361vb,\025\016"
 492      E4979B63 
 492      7EC6DB99 
 492      F176622C 
 492      150E
 493 07e2 BB754AE3 		.ascii	"\273uJ\343\213~\306\3370c|\327~\364\351\242(\343\314"
 493      8B7EC6DF 
 493      30637CD7 
 493      7EF4E9A2 
 493      28E3CC
ARM GAS  e:\temp\cciiBhKe.s 			page 39


 494 07f5 999C26C9 		.ascii	"\231\234&\311js\315\2365\345#\321&:\314.qi\\\254=\311"
 494      6A73CD9E 
 494      35E523D1 
 494      263ACC2E 
 494      71695CAC 
 495 080b 61114D0B 		.ascii	"a\021M\013b\355\3069&K\262+9QtF/\347\324\330\360\367"
 495      62EDC639 
 495      264BB22B 
 495      39517446 
 495      2FE7D4D8 
 496 0821 6F189363 		.ascii	"o\030\223c\223\235s\023\314\316\345\306\004\273e\305"
 496      939D7313 
 496      CCCEE5C6 
 496      04BB65C5 
 497 0831 0766CB8A 		.ascii	"\007f\313\212\244D\255%\331\3512\273\222\234\201`\214"
 497      A444AD25 
 497      D9E932BB 
 497      929C8160 
 497      8C
 498 0842 C9C425DA 		.ascii	"\311\304%\332\302\215\0070\332m\313\254\361\223\307"
 498      C28D0730 
 498      DA6DCBAC 
 498      F193C7
 499 0851 69178A4E 		.ascii	"i\027\212N\227\335!\206\373\324\237;\254.q\241\375\313"
 499      97DD2186 
 499      FBD49F3B 
 499      AC2E71A1 
 499      FDCB
 500 0863 377DAA58 		.ascii	"7}\252X\321\365\271\331\3522&[\022D'\340~\370wX\200"
 500      D1F5B9D9 
 500      EA32265B 
 500      124427E0 
 500      7EF87758 
 501 0878 99D5624E 		.ascii	"\231\325bN\210\025-.\253\335\366V@>\363\255K`S\020\367"
 501      88152D2E 
 501      ABDDF656 
 501      403EF3AD 
 501      4B605310 
 502 088d 439B4B74 		.ascii	"C\233Kt\214s\323\254\024WZ\022\223U\011\242yY\220\315"
 502      8C73D3AC 
 502      14575A12 
 502      935509A2 
 502      795990CD 
 503 08a1 EE5AEEB0 		.ascii	"\356Z\356\260\177\251qZ\277\022\343\\+\304\367 )\211"
 503      7FA9715A 
 503      BF12E35C 
 503      2BC4F720 
 503      2989
 504 08b3 0ED1E934 		.ascii	"\016\321\3514%:\355\226(\213C4\003W\323\234\350Y\376"
 504      253AED96 
 504      288B4334 
 504      0357D39C 
 504      E859FE
 505 08c6 0AEBCA44 		.ascii	"\012\353\312D\273\303e\212\267%\231\314\216\225\246"
 505      BBC3658A 
 505      B72599CC 
 505      8E95A6
ARM GAS  e:\temp\cciiBhKe.s 			page 40


 506 08d5 DF45CF89 		.ascii	"\337E\317\211\236iJ\260.1\305[,X\363\256\315n\023\337"
 506      9E694AB0 
 506      2E31C55B 
 506      2C58F3AE 
 506      CD6E13DF 
 507 08e9 15CD4BAC 		.ascii	"\025\315K\254\354\231\325fIHZ*\232\234\256\245K\305"
 507      EC99D566 
 507      49485A2A 
 507      9A9CAEA5 
 507      4BC5
 508 08fb 65C00ECD 		.ascii	"e\300\016\315\014Zf\213r&\212\026 a\263%%$\374\345\177"
 508      0C5A668B 
 508      72268A16 
 508      2061B325 
 508      2524FCE5 
 509 0910 8BEE1FD5 		.ascii	"\213\356\037\325\027\317a\265\305C<\2151y\2369\3015"
 509      17CF61B5 
 509      C5433C8D 
 509      31799E39 
 509      C135
 510 0922 C1E24D31 		.ascii	"\301\342M1-\357o,\257+z\254\313\221dq\205X\260\006J"
 510      2DEF6F2C 
 510      AF2B7AAC 
 510      CB916471 
 510      8558B006 
 511 0937 E1028C5F 		.ascii	"\341\002\214_\254\377r.\312\370E\\\354\027\261qs\347"
 511      ACFF722E 
 511      CAF8455C 
 511      EC17B171 
 511      73E7
 512 0949 BF1F3B2F 		.ascii	"\277\037;/\3168?\306\370q\334\007\357\033?^\264 .\366"
 512      CE383FC6 
 512      F871DC07 
 512      EF1B3F5E 
 512      B4202EF6 
 513 095d B3858B8C 		.ascii	"\263\205\213\214\237\251\035b\374\354Y\377\006\210\033"
 513      9FA91D62 
 513      FCEC59FF 
 513      06881B
 514 096c 3EF8     		.ascii	">\370"
 515              		.text
 516              		.section	.gnu.lto_.symtab.624149ef,"",%progbits
 517 0000 43795379 		.ascii	"CySysFlashWriteRow\000"
 517      73466C61 
 517      73685772 
 517      69746552 
 517      6F7700
 518 0013 00       		.ascii	"\000"
 519 0014 00       		.ascii	"\000"
 520 0015 00       		.ascii	"\000"
 521 0016 00000000 		.ascii	"\000\000\000\000\000\000\000\000"
 521      00000000 
 522 001e C7000000 		.ascii	"\307\000\000\000"
 523 0022 43795379 		.ascii	"CySysFlashSetWaitCycles\000"
 523      73466C61 
 523      73685365 
 523      74576169 
ARM GAS  e:\temp\cciiBhKe.s 			page 41


 523      74437963 
 524 003a 00       		.ascii	"\000"
 525 003b 00       		.ascii	"\000"
 526 003c 00       		.ascii	"\000"
 527 003d 00000000 		.ascii	"\000\000\000\000\000\000\000\000"
 527      00000000 
 528 0045 CB000000 		.ascii	"\313\000\000\000"
 529 0049 43794578 		.ascii	"CyExitCriticalSection\000"
 529      69744372 
 529      69746963 
 529      616C5365 
 529      6374696F 
 530 005f 00       		.ascii	"\000"
 531 0060 02       		.ascii	"\002"
 532 0061 00       		.ascii	"\000"
 533 0062 00000000 		.ascii	"\000\000\000\000\000\000\000\000"
 533      00000000 
 534 006a CF000000 		.ascii	"\317\000\000\000"
 535 006e 4379456E 		.ascii	"CyEnterCriticalSection\000"
 535      74657243 
 535      72697469 
 535      63616C53 
 535      65637469 
 536 0085 00       		.ascii	"\000"
 537 0086 02       		.ascii	"\002"
 538 0087 00       		.ascii	"\000"
 539 0088 00000000 		.ascii	"\000\000\000\000\000\000\000\000"
 539      00000000 
 540 0090 D2000000 		.ascii	"\322\000\000\000"
 541 0094 43794861 		.ascii	"CyHalt\000"
 541      6C7400
 542 009b 00       		.ascii	"\000"
 543 009c 02       		.ascii	"\002"
 544 009d 00       		.ascii	"\000"
 545 009e 00000000 		.ascii	"\000\000\000\000\000\000\000\000"
 545      00000000 
 546 00a6 EA000000 		.ascii	"\352\000\000\000"
 547              		.text
 548              		.section	.gnu.lto_.opts,"",%progbits
 549 0000 272D666D 		.ascii	"'-fmath-errno' '-fsigned-zeros' '-ftrapping-math' '"
 549      6174682D 
 549      6572726E 
 549      6F272027 
 549      2D667369 
 550 0033 2D666E6F 		.ascii	"-fno-trapv' '-fno-openmp' '-fno-openacc' '-mcpu=cor"
 550      2D747261 
 550      70762720 
 550      272D666E 
 550      6F2D6F70 
 551 0066 7465782D 		.ascii	"tex-m0' '-mthumb' '-g' '-Os' '-Werror' '-ffunction-"
 551      6D302720 
 551      272D6D74 
 551      68756D62 
 551      2720272D 
 552 0099 73656374 		.ascii	"sections' '-ffat-lto-objects' '-finline-functions' "
 552      696F6E73 
 552      2720272D 
ARM GAS  e:\temp\cciiBhKe.s 			page 42


 552      66666174 
 552      2D6C746F 
 553 00cc 272D666C 		.ascii	"'-flto' '-fno-strict-aliasing'\000"
 553      746F2720 
 553      272D666E 
 553      6F2D7374 
 553      72696374 
 554              		.text
 555              		.cfi_sections	.debug_frame
 556              		.section	.text.CySysFlashWriteRow,"ax",%progbits
 557              		.align	1
 558              		.global	CySysFlashWriteRow
 559              		.code	16
 560              		.thumb_func
 561              		.type	CySysFlashWriteRow, %function
 562              	CySysFlashWriteRow:
 563              	.LFB0:
 564              		.file 1 "Generated_Source\\PSoC4\\CyFlash.c"
   1:Generated_Source\PSoC4/CyFlash.c **** /***************************************************************************//**
   2:Generated_Source\PSoC4/CyFlash.c **** * \file CyFlash.c
   3:Generated_Source\PSoC4/CyFlash.c **** * \version 5.70
   4:Generated_Source\PSoC4/CyFlash.c **** *
   5:Generated_Source\PSoC4/CyFlash.c **** * \brief Provides an API for the FLASH.
   6:Generated_Source\PSoC4/CyFlash.c **** *
   7:Generated_Source\PSoC4/CyFlash.c **** * \note This code is endian agnostic.
   8:Generated_Source\PSoC4/CyFlash.c **** *
   9:Generated_Source\PSoC4/CyFlash.c **** * \note Documentation of the API's in this file is located in the System
  10:Generated_Source\PSoC4/CyFlash.c **** * Reference Guide provided with PSoC Creator.
  11:Generated_Source\PSoC4/CyFlash.c **** *
  12:Generated_Source\PSoC4/CyFlash.c **** ********************************************************************************
  13:Generated_Source\PSoC4/CyFlash.c **** * \copyright
  14:Generated_Source\PSoC4/CyFlash.c **** * Copyright 2010-2018, Cypress Semiconductor Corporation.  All rights reserved.
  15:Generated_Source\PSoC4/CyFlash.c **** * You may use this file only in accordance with the license, terms, conditions,
  16:Generated_Source\PSoC4/CyFlash.c **** * disclaimers, and limitations in the end user license agreement accompanying
  17:Generated_Source\PSoC4/CyFlash.c **** * the software package with which this file was provided.
  18:Generated_Source\PSoC4/CyFlash.c **** *******************************************************************************/
  19:Generated_Source\PSoC4/CyFlash.c **** 
  20:Generated_Source\PSoC4/CyFlash.c **** #include "CyFlash.h"
  21:Generated_Source\PSoC4/CyFlash.c **** 
  22:Generated_Source\PSoC4/CyFlash.c **** 
  23:Generated_Source\PSoC4/CyFlash.c **** /*******************************************************************************
  24:Generated_Source\PSoC4/CyFlash.c **** * Cypress identified a defect with the Flash write functionality of the
  25:Generated_Source\PSoC4/CyFlash.c **** * PSoC 4000, PSoC 4000U, PSoC 4100, and PSoC 4200 devices. The 
  26:Generated_Source\PSoC4/CyFlash.c **** * CySysFlashWriteRow() function now checks the data to be written and, if 
  27:Generated_Source\PSoC4/CyFlash.c **** * necessary, modifies it to have a non-zero checksum. After writing to Flash, 
  28:Generated_Source\PSoC4/CyFlash.c **** * the modified data is replaced (Flash program) with 
  29:Generated_Source\PSoC4/CyFlash.c **** * the correct (original) data.
  30:Generated_Source\PSoC4/CyFlash.c **** *******************************************************************************/
  31:Generated_Source\PSoC4/CyFlash.c **** #define CY_FLASH_CHECKSUM_WORKAROUND    (CY_PSOC4_4000 || CY_PSOC4_4100 || CY_PSOC4_4200 || CY_PSOC
  32:Generated_Source\PSoC4/CyFlash.c **** 
  33:Generated_Source\PSoC4/CyFlash.c **** #if (CY_IP_FM || ((!CY_PSOC4_4000) && CY_IP_SPCIF_SYNCHRONOUS) || (!CY_IP_FM) && CY_PSOC4_4000)
  34:Generated_Source\PSoC4/CyFlash.c ****     static CY_SYS_FLASH_CLOCK_BACKUP_STRUCT cySysFlashBackup;
  35:Generated_Source\PSoC4/CyFlash.c **** #endif /* (CY_IP_FM || ((!CY_PSOC4_4000) && CY_IP_SPCIF_SYNCHRONOUS) || (!CY_IP_FM) && CY_PSOC4_400
  36:Generated_Source\PSoC4/CyFlash.c **** 
  37:Generated_Source\PSoC4/CyFlash.c **** static cystatus CySysFlashClockBackup(void);
  38:Generated_Source\PSoC4/CyFlash.c **** static cystatus CySysFlashClockRestore(void);
  39:Generated_Source\PSoC4/CyFlash.c **** #if(CY_IP_SPCIF_SYNCHRONOUS)
ARM GAS  e:\temp\cciiBhKe.s 			page 43


  40:Generated_Source\PSoC4/CyFlash.c ****     static cystatus CySysFlashClockConfig(void);
  41:Generated_Source\PSoC4/CyFlash.c **** #endif  /* (CY_IP_SPCIF_SYNCHRONOUS) */
  42:Generated_Source\PSoC4/CyFlash.c **** 
  43:Generated_Source\PSoC4/CyFlash.c **** 
  44:Generated_Source\PSoC4/CyFlash.c **** /*******************************************************************************
  45:Generated_Source\PSoC4/CyFlash.c **** * Function Name: CySysFlashWriteRow
  46:Generated_Source\PSoC4/CyFlash.c **** ****************************************************************************//**
  47:Generated_Source\PSoC4/CyFlash.c **** *
  48:Generated_Source\PSoC4/CyFlash.c **** * Erases a row of Flash and programs it with the new data.
  49:Generated_Source\PSoC4/CyFlash.c **** *
  50:Generated_Source\PSoC4/CyFlash.c **** * The IMO must be enabled before calling this function. The operation of the
  51:Generated_Source\PSoC4/CyFlash.c **** * flash writing hardware is dependent on the IMO.
  52:Generated_Source\PSoC4/CyFlash.c **** *
  53:Generated_Source\PSoC4/CyFlash.c **** * For PSoC 4000, PSoC 4100 BLE and PSoC 4200 BLE devices (PSoC 4100 BLE and
  54:Generated_Source\PSoC4/CyFlash.c **** * PSoC 4200 BLE devices with 256K of Flash memory are not affected), this API
  55:Generated_Source\PSoC4/CyFlash.c **** * will automatically modify the clock settings for the device. Writing to
  56:Generated_Source\PSoC4/CyFlash.c **** * flash requires that changes be made to the IMO and HFCLK settings. The
  57:Generated_Source\PSoC4/CyFlash.c **** * configuration is restored before returning. This will impact the operation
  58:Generated_Source\PSoC4/CyFlash.c **** * of most of the hardware in the device.
  59:Generated_Source\PSoC4/CyFlash.c **** *
  60:Generated_Source\PSoC4/CyFlash.c **** * For PSoC 4000 devices this API will automatically modify the clock settings
  61:Generated_Source\PSoC4/CyFlash.c **** * for the device. Writing to flash requires that changes be made to the IMO
  62:Generated_Source\PSoC4/CyFlash.c **** * and HFCLK settings. The configuration is restored before returning. HFCLK
  63:Generated_Source\PSoC4/CyFlash.c **** * will have several frequency changes during the operation of this API between
  64:Generated_Source\PSoC4/CyFlash.c **** * a minimum frequency of the current IMO frequency divided by 8 and a maximum
  65:Generated_Source\PSoC4/CyFlash.c **** * frequency of 12 MHz. This will impact the operation of most of the hardware
  66:Generated_Source\PSoC4/CyFlash.c **** * in the device.
  67:Generated_Source\PSoC4/CyFlash.c **** *
  68:Generated_Source\PSoC4/CyFlash.c **** * \param rowNum The flash row number. The number of the flash rows is defined by
  69:Generated_Source\PSoC4/CyFlash.c **** * the \ref CY_FLASH_NUMBER_ROWS macro for the selected device. Refer to the
  70:Generated_Source\PSoC4/CyFlash.c **** * device datasheet for the details.
  71:Generated_Source\PSoC4/CyFlash.c **** * \note The target flash array is calculated based on the specified flash row.
  72:Generated_Source\PSoC4/CyFlash.c **** *
  73:Generated_Source\PSoC4/CyFlash.c **** * \param rowData Array of bytes to write. The size of the array must be equal to
  74:Generated_Source\PSoC4/CyFlash.c **** * the flash row size. The flash row size for the selected device is defined by
  75:Generated_Source\PSoC4/CyFlash.c **** * the \ref CY_FLASH_SIZEOF_ROW macro. Refer to the device datasheet for the
  76:Generated_Source\PSoC4/CyFlash.c **** * details.
  77:Generated_Source\PSoC4/CyFlash.c **** *
  78:Generated_Source\PSoC4/CyFlash.c **** * \return \ref group_flash_status_codes
  79:Generated_Source\PSoC4/CyFlash.c **** *
  80:Generated_Source\PSoC4/CyFlash.c **** *******************************************************************************/
  81:Generated_Source\PSoC4/CyFlash.c **** uint32 CySysFlashWriteRow(uint32 rowNum, const uint8 rowData[])
  82:Generated_Source\PSoC4/CyFlash.c **** {
 565              		.loc 1 82 0
 566              		.cfi_startproc
 567              		@ args = 0, pretend = 0, frame = 296
 568              		@ frame_needed = 0, uses_anonymous_args = 0
 569              	.LVL0:
 570 0000 F0B5     		push	{r4, r5, r6, r7, lr}
 571              		.cfi_def_cfa_offset 20
 572              		.cfi_offset 4, -20
 573              		.cfi_offset 5, -16
 574              		.cfi_offset 6, -12
 575              		.cfi_offset 7, -8
 576              		.cfi_offset 14, -4
  83:Generated_Source\PSoC4/CyFlash.c ****     volatile uint32 retValue = CY_SYS_FLASH_SUCCESS;
 577              		.loc 1 83 0
ARM GAS  e:\temp\cciiBhKe.s 			page 44


 578 0002 0025     		movs	r5, #0
  84:Generated_Source\PSoC4/CyFlash.c ****     volatile uint32 clkCnfRetValue = CY_SYS_FLASH_SUCCESS;
  85:Generated_Source\PSoC4/CyFlash.c ****     volatile uint32 parameters[(CY_FLASH_SIZEOF_ROW + CY_FLASH_SRAM_ROM_DATA) / sizeof(uint32)];
  86:Generated_Source\PSoC4/CyFlash.c ****     uint8  interruptState;
  87:Generated_Source\PSoC4/CyFlash.c **** 
  88:Generated_Source\PSoC4/CyFlash.c ****     #if (CY_FLASH_CHECKSUM_WORKAROUND)
  89:Generated_Source\PSoC4/CyFlash.c ****         uint32 needChecksumWorkaround = 0u;
  90:Generated_Source\PSoC4/CyFlash.c ****         uint32 savedIndex = 0u;
  91:Generated_Source\PSoC4/CyFlash.c ****         uint32 savedValue = 0u;
  92:Generated_Source\PSoC4/CyFlash.c ****         uint32 checksum = 0u;
  93:Generated_Source\PSoC4/CyFlash.c ****         uint32 bits = 0u;
  94:Generated_Source\PSoC4/CyFlash.c ****         uint32 i;
  95:Generated_Source\PSoC4/CyFlash.c ****     #endif  /* (CY_FLASH_CHECKSUM_WORKAROUND) */
  96:Generated_Source\PSoC4/CyFlash.c **** 
  97:Generated_Source\PSoC4/CyFlash.c ****     if ((rowNum < CY_FLASH_NUMBER_ROWS) && (rowData != 0u))
 579              		.loc 1 97 0
 580 0004 484B     		ldr	r3, .L35
  82:Generated_Source\PSoC4/CyFlash.c ****     volatile uint32 retValue = CY_SYS_FLASH_SUCCESS;
 581              		.loc 1 82 0
 582 0006 CBB0     		sub	sp, sp, #300
 583              		.cfi_def_cfa_offset 320
  83:Generated_Source\PSoC4/CyFlash.c ****     volatile uint32 retValue = CY_SYS_FLASH_SUCCESS;
 584              		.loc 1 83 0
 585 0008 0295     		str	r5, [sp, #8]
  82:Generated_Source\PSoC4/CyFlash.c ****     volatile uint32 retValue = CY_SYS_FLASH_SUCCESS;
 586              		.loc 1 82 0
 587 000a 0190     		str	r0, [sp, #4]
  84:Generated_Source\PSoC4/CyFlash.c ****     volatile uint32 clkCnfRetValue = CY_SYS_FLASH_SUCCESS;
 588              		.loc 1 84 0
 589 000c 0395     		str	r5, [sp, #12]
 590              		.loc 1 97 0
 591 000e 9842     		cmp	r0, r3
 592 0010 00D9     		bls	.LCB21
 593 0012 84E0     		b	.L2	@long jump
 594              	.LCB21:
 595              		.loc 1 97 0 is_stmt 0 discriminator 1
 596 0014 A942     		cmp	r1, r5
 597 0016 00D1     		bne	.LCB23
 598 0018 81E0     		b	.L2	@long jump
 599              	.LCB23:
  98:Generated_Source\PSoC4/CyFlash.c ****     {
  99:Generated_Source\PSoC4/CyFlash.c ****         /* Copy data to be written into internal variable */
 100:Generated_Source\PSoC4/CyFlash.c ****         (void)memcpy((void *)&parameters[2u], rowData, CY_FLASH_SIZEOF_ROW);
 600              		.loc 1 100 0 is_stmt 1
 601 001a 8022     		movs	r2, #128
 602 001c 0AA8     		add	r0, sp, #40
 603              	.LVL1:
 604 001e 5200     		lsls	r2, r2, #1
 605 0020 FFF7FEFF 		bl	memcpy
 606              	.LVL2:
 101:Generated_Source\PSoC4/CyFlash.c **** 
 102:Generated_Source\PSoC4/CyFlash.c ****         #if (CY_FLASH_CHECKSUM_WORKAROUND)
 103:Generated_Source\PSoC4/CyFlash.c **** 
 104:Generated_Source\PSoC4/CyFlash.c ****             for (i = 2u; i < ((CY_FLASH_SIZEOF_ROW / sizeof(uint32)) + 2u); i++)
 105:Generated_Source\PSoC4/CyFlash.c ****             {
 106:Generated_Source\PSoC4/CyFlash.c ****                 uint32 tmp = parameters[i];
 107:Generated_Source\PSoC4/CyFlash.c ****                 if (tmp != 0u)
ARM GAS  e:\temp\cciiBhKe.s 			page 45


 108:Generated_Source\PSoC4/CyFlash.c ****                 {
 109:Generated_Source\PSoC4/CyFlash.c ****                     checksum += tmp;
 110:Generated_Source\PSoC4/CyFlash.c ****                     bits |= tmp;
 111:Generated_Source\PSoC4/CyFlash.c ****                     savedIndex = i;
 112:Generated_Source\PSoC4/CyFlash.c ****                 }
 113:Generated_Source\PSoC4/CyFlash.c ****             }
 114:Generated_Source\PSoC4/CyFlash.c **** 
 115:Generated_Source\PSoC4/CyFlash.c ****             needChecksumWorkaround = ((checksum == 0u) && (bits != 0u)) ? 1u : 0u;
 116:Generated_Source\PSoC4/CyFlash.c ****             if (needChecksumWorkaround != 0u)
 117:Generated_Source\PSoC4/CyFlash.c ****             {
 118:Generated_Source\PSoC4/CyFlash.c ****                 savedValue = parameters[savedIndex];
 119:Generated_Source\PSoC4/CyFlash.c ****                 parameters[savedIndex] = 0u;
 120:Generated_Source\PSoC4/CyFlash.c ****             }
 121:Generated_Source\PSoC4/CyFlash.c ****         #endif  /* (CY_FLASH_CHECKSUM_WORKAROUND) */
 122:Generated_Source\PSoC4/CyFlash.c **** 
 123:Generated_Source\PSoC4/CyFlash.c ****         /* Load Flash Bytes */
 124:Generated_Source\PSoC4/CyFlash.c ****         parameters[0u] = (uint32) (CY_FLASH_GET_MACRO_FROM_ROW(rowNum)        << CY_FLASH_PARAM_MAC
 607              		.loc 1 124 0
 608 0024 414B     		ldr	r3, .L35+4
 125:Generated_Source\PSoC4/CyFlash.c ****                          (uint32) (CY_FLASH_PAGE_LATCH_START_ADDR             << CY_FLASH_PARAM_ADD
 126:Generated_Source\PSoC4/CyFlash.c ****                          (uint32) (CY_FLASH_KEY_TWO(CY_FLASH_API_OPCODE_LOAD) << CY_FLASH_PARAM_KEY
 127:Generated_Source\PSoC4/CyFlash.c ****                          CY_FLASH_KEY_ONE;
 128:Generated_Source\PSoC4/CyFlash.c ****         parameters[1u] = CY_FLASH_SIZEOF_ROW - 1u;
 129:Generated_Source\PSoC4/CyFlash.c **** 
 130:Generated_Source\PSoC4/CyFlash.c ****         CY_FLASH_CPUSS_SYSARG_REG = (uint32) &parameters[0u];
 609              		.loc 1 130 0
 610 0026 424C     		ldr	r4, .L35+8
 124:Generated_Source\PSoC4/CyFlash.c ****                          (uint32) (CY_FLASH_PAGE_LATCH_START_ADDR             << CY_FLASH_PARAM_ADD
 611              		.loc 1 124 0
 612 0028 0893     		str	r3, [sp, #32]
 128:Generated_Source\PSoC4/CyFlash.c **** 
 613              		.loc 1 128 0
 614 002a FF23     		movs	r3, #255
 131:Generated_Source\PSoC4/CyFlash.c ****         CY_FLASH_CPUSS_SYSREQ_REG = CY_FLASH_CPUSS_REQ_START | CY_FLASH_API_OPCODE_LOAD;
 615              		.loc 1 131 0
 616 002c 414E     		ldr	r6, .L35+12
 617 002e 424A     		ldr	r2, .L35+16
 100:Generated_Source\PSoC4/CyFlash.c **** 
 618              		.loc 1 100 0
 619 0030 08AF     		add	r7, sp, #32
 128:Generated_Source\PSoC4/CyFlash.c **** 
 620              		.loc 1 128 0
 621 0032 7B60     		str	r3, [r7, #4]
 130:Generated_Source\PSoC4/CyFlash.c ****         CY_FLASH_CPUSS_SYSREQ_REG = CY_FLASH_CPUSS_REQ_START | CY_FLASH_API_OPCODE_LOAD;
 622              		.loc 1 130 0
 623 0034 2760     		str	r7, [r4]
 624              	.LVL3:
 625              		.loc 1 131 0
 626 0036 3260     		str	r2, [r6]
 132:Generated_Source\PSoC4/CyFlash.c ****         CY_NOP;
 627              		.loc 1 132 0
 628              		.syntax divided
 629              	@ 132 "Generated_Source\PSoC4\CyFlash.c" 1
 630 0038 C046     		NOP
 631              	
 632              	@ 0 "" 2
 133:Generated_Source\PSoC4/CyFlash.c ****         retValue = CY_FLASH_API_RETURN;
ARM GAS  e:\temp\cciiBhKe.s 			page 46


 633              		.loc 1 133 0
 634              		.thumb
 635              		.syntax unified
 636 003a 2268     		ldr	r2, [r4]
 637 003c 120F     		lsrs	r2, r2, #28
 638 003e 0F2A     		cmp	r2, #15
 639 0040 03D0     		beq	.L29
 640              		.loc 1 133 0 is_stmt 0 discriminator 2
 641 0042 2268     		ldr	r2, [r4]
 642 0044 120F     		lsrs	r2, r2, #28
 643 0046 0A2A     		cmp	r2, #10
 644 0048 01D0     		beq	.L4
 645              	.L29:
 646              		.loc 1 133 0 discriminator 4
 647 004a 2568     		ldr	r5, [r4]
 648 004c 1D40     		ands	r5, r3
 649              	.L4:
 650              		.loc 1 133 0 discriminator 8
 651 004e 0295     		str	r5, [sp, #8]
 134:Generated_Source\PSoC4/CyFlash.c **** 
 135:Generated_Source\PSoC4/CyFlash.c ****         if(retValue == CY_SYS_FLASH_SUCCESS)
 652              		.loc 1 135 0 is_stmt 1 discriminator 8
 653 0050 029D     		ldr	r5, [sp, #8]
 654 0052 002D     		cmp	r5, #0
 655 0054 65D1     		bne	.L5
 136:Generated_Source\PSoC4/CyFlash.c ****         {
 137:Generated_Source\PSoC4/CyFlash.c ****             /***************************************************************
 138:Generated_Source\PSoC4/CyFlash.c ****             * Mask all the exceptions to guarantee that Flash write will
 139:Generated_Source\PSoC4/CyFlash.c ****             * occur in the atomic way. It will not affect system call
 140:Generated_Source\PSoC4/CyFlash.c ****             * execution (flash row write) since it is executed in the NMI
 141:Generated_Source\PSoC4/CyFlash.c ****             * context.
 142:Generated_Source\PSoC4/CyFlash.c ****             ***************************************************************/
 143:Generated_Source\PSoC4/CyFlash.c ****             interruptState = CyEnterCriticalSection();
 656              		.loc 1 143 0
 657 0056 FFF7FEFF 		bl	CyEnterCriticalSection
 658              	.LVL4:
 659              	.LBB8:
 660              	.LBB9:
 144:Generated_Source\PSoC4/CyFlash.c **** 
 145:Generated_Source\PSoC4/CyFlash.c ****             clkCnfRetValue = CySysFlashClockBackup();
 146:Generated_Source\PSoC4/CyFlash.c **** 
 147:Generated_Source\PSoC4/CyFlash.c ****         #if(CY_IP_SPCIF_SYNCHRONOUS)
 148:Generated_Source\PSoC4/CyFlash.c ****             if(clkCnfRetValue == CY_SYS_FLASH_SUCCESS)
 149:Generated_Source\PSoC4/CyFlash.c ****             {
 150:Generated_Source\PSoC4/CyFlash.c ****                 retValue = CySysFlashClockConfig();
 151:Generated_Source\PSoC4/CyFlash.c ****             }
 152:Generated_Source\PSoC4/CyFlash.c ****         #endif  /* (CY_IP_SPCIF_SYNCHRONOUS) */
 153:Generated_Source\PSoC4/CyFlash.c **** 
 154:Generated_Source\PSoC4/CyFlash.c ****             if(retValue == CY_SYS_FLASH_SUCCESS)
 155:Generated_Source\PSoC4/CyFlash.c ****             {
 156:Generated_Source\PSoC4/CyFlash.c ****                 /* Write Row */
 157:Generated_Source\PSoC4/CyFlash.c ****                 parameters[0u]  = (uint32) (((uint32) CY_FLASH_KEY_TWO(CY_FLASH_API_OPCODE_WRITE_RO
 158:Generated_Source\PSoC4/CyFlash.c ****                 parameters[0u] |= (uint32)(rowNum << 16u);
 159:Generated_Source\PSoC4/CyFlash.c **** 
 160:Generated_Source\PSoC4/CyFlash.c ****                 CY_FLASH_CPUSS_SYSARG_REG = (uint32) &parameters[0u];
 161:Generated_Source\PSoC4/CyFlash.c ****                 CY_FLASH_CPUSS_SYSREQ_REG = CY_FLASH_CPUSS_REQ_START | CY_FLASH_API_OPCODE_WRITE_RO
 162:Generated_Source\PSoC4/CyFlash.c ****                 CY_NOP;
ARM GAS  e:\temp\cciiBhKe.s 			page 47


 163:Generated_Source\PSoC4/CyFlash.c ****                 retValue = CY_FLASH_API_RETURN;
 164:Generated_Source\PSoC4/CyFlash.c ****             }
 165:Generated_Source\PSoC4/CyFlash.c **** 
 166:Generated_Source\PSoC4/CyFlash.c ****             #if (CY_FLASH_CHECKSUM_WORKAROUND)
 167:Generated_Source\PSoC4/CyFlash.c **** 
 168:Generated_Source\PSoC4/CyFlash.c ****                 if ((retValue == CYRET_SUCCESS) && (needChecksumWorkaround != 0u))
 169:Generated_Source\PSoC4/CyFlash.c ****                 {
 170:Generated_Source\PSoC4/CyFlash.c ****                     (void)memset((void *)&parameters[2u], 0, CY_FLASH_SIZEOF_ROW);
 171:Generated_Source\PSoC4/CyFlash.c ****                     parameters[savedIndex] = savedValue;
 172:Generated_Source\PSoC4/CyFlash.c **** 
 173:Generated_Source\PSoC4/CyFlash.c ****                     /* Load Flash Bytes */
 174:Generated_Source\PSoC4/CyFlash.c ****                     parameters[0u] = (uint32) (CY_FLASH_GET_MACRO_FROM_ROW(rowNum)        << CY_FLA
 175:Generated_Source\PSoC4/CyFlash.c ****                                      (uint32) (CY_FLASH_PAGE_LATCH_START_ADDR             << CY_FLA
 176:Generated_Source\PSoC4/CyFlash.c ****                                      (uint32) (CY_FLASH_KEY_TWO(CY_FLASH_API_OPCODE_LOAD) << CY_FLA
 177:Generated_Source\PSoC4/CyFlash.c ****                                      CY_FLASH_KEY_ONE;
 178:Generated_Source\PSoC4/CyFlash.c ****                     parameters[1u] = CY_FLASH_SIZEOF_ROW - 1u;
 179:Generated_Source\PSoC4/CyFlash.c **** 
 180:Generated_Source\PSoC4/CyFlash.c ****                     CY_FLASH_CPUSS_SYSARG_REG = (uint32) &parameters[0u];
 181:Generated_Source\PSoC4/CyFlash.c ****                     CY_FLASH_CPUSS_SYSREQ_REG = CY_FLASH_CPUSS_REQ_START | CY_FLASH_API_OPCODE_LOAD
 182:Generated_Source\PSoC4/CyFlash.c ****                     CY_NOP;
 183:Generated_Source\PSoC4/CyFlash.c ****                     retValue = CY_FLASH_API_RETURN;
 184:Generated_Source\PSoC4/CyFlash.c **** 
 185:Generated_Source\PSoC4/CyFlash.c **** 
 186:Generated_Source\PSoC4/CyFlash.c ****                     if(retValue == CY_SYS_FLASH_SUCCESS)
 187:Generated_Source\PSoC4/CyFlash.c ****                     {
 188:Generated_Source\PSoC4/CyFlash.c ****                         /* Program Row */
 189:Generated_Source\PSoC4/CyFlash.c ****                         parameters[0u]  =
 190:Generated_Source\PSoC4/CyFlash.c ****                             (uint32) (((uint32) CY_FLASH_KEY_TWO(CY_FLASH_API_OPCODE_PROGRAM_ROW) <
 191:Generated_Source\PSoC4/CyFlash.c ****                                                     CY_FLASH_PARAM_KEY_TWO_OFFSET) | CY_FLASH_KEY_O
 192:Generated_Source\PSoC4/CyFlash.c ****                         parameters[0u] |= (uint32)(rowNum << 16u);
 193:Generated_Source\PSoC4/CyFlash.c **** 
 194:Generated_Source\PSoC4/CyFlash.c ****                         CY_FLASH_CPUSS_SYSARG_REG = (uint32) &parameters[0u];
 195:Generated_Source\PSoC4/CyFlash.c ****                         CY_FLASH_CPUSS_SYSREQ_REG = CY_FLASH_CPUSS_REQ_START | CY_FLASH_API_OPCODE_
 196:Generated_Source\PSoC4/CyFlash.c ****                         CY_NOP;
 197:Generated_Source\PSoC4/CyFlash.c ****                         retValue = CY_FLASH_API_RETURN;
 198:Generated_Source\PSoC4/CyFlash.c ****                     }
 199:Generated_Source\PSoC4/CyFlash.c ****                 }
 200:Generated_Source\PSoC4/CyFlash.c ****             #endif  /* (CY_FLASH_CHECKSUM_WORKAROUND) */
 201:Generated_Source\PSoC4/CyFlash.c **** 
 202:Generated_Source\PSoC4/CyFlash.c ****             if(clkCnfRetValue == CY_SYS_FLASH_SUCCESS)
 203:Generated_Source\PSoC4/CyFlash.c ****             {
 204:Generated_Source\PSoC4/CyFlash.c ****                 clkCnfRetValue = CySysFlashClockRestore();
 205:Generated_Source\PSoC4/CyFlash.c **** 
 206:Generated_Source\PSoC4/CyFlash.c ****                 if(clkCnfRetValue != CY_SYS_FLASH_SUCCESS)
 207:Generated_Source\PSoC4/CyFlash.c ****                 {
 208:Generated_Source\PSoC4/CyFlash.c ****                     retValue = clkCnfRetValue;
 209:Generated_Source\PSoC4/CyFlash.c ****                 }
 210:Generated_Source\PSoC4/CyFlash.c ****             }
 211:Generated_Source\PSoC4/CyFlash.c **** 
 212:Generated_Source\PSoC4/CyFlash.c ****             CyExitCriticalSection(interruptState);
 213:Generated_Source\PSoC4/CyFlash.c ****         }
 214:Generated_Source\PSoC4/CyFlash.c ****     }
 215:Generated_Source\PSoC4/CyFlash.c ****     else
 216:Generated_Source\PSoC4/CyFlash.c ****     {
 217:Generated_Source\PSoC4/CyFlash.c ****         retValue = CY_SYS_FLASH_INVALID_ADDR;
 218:Generated_Source\PSoC4/CyFlash.c ****     }
 219:Generated_Source\PSoC4/CyFlash.c **** 
ARM GAS  e:\temp\cciiBhKe.s 			page 48


 220:Generated_Source\PSoC4/CyFlash.c ****     return (retValue);
 221:Generated_Source\PSoC4/CyFlash.c **** }
 222:Generated_Source\PSoC4/CyFlash.c **** 
 223:Generated_Source\PSoC4/CyFlash.c **** 
 224:Generated_Source\PSoC4/CyFlash.c **** 
 225:Generated_Source\PSoC4/CyFlash.c **** #if (CY_IP_FLASH_PARALLEL_PGM_EN && (CY_IP_FLASH_MACROS > 1u))
 226:Generated_Source\PSoC4/CyFlash.c **** /*******************************************************************************
 227:Generated_Source\PSoC4/CyFlash.c **** * Function Name: CySysFlashStartWriteRow
 228:Generated_Source\PSoC4/CyFlash.c **** ****************************************************************************//**
 229:Generated_Source\PSoC4/CyFlash.c **** *
 230:Generated_Source\PSoC4/CyFlash.c **** * Initiates a write to a row of Flash. A call to this API is non-blocking. 
 231:Generated_Source\PSoC4/CyFlash.c **** * Use CySysFlashResumeWriteRow() to resume flash writes and 
 232:Generated_Source\PSoC4/CyFlash.c **** * CySysFlashGetWriteRowStatus() to ascertain status of the write operation.
 233:Generated_Source\PSoC4/CyFlash.c **** *
 234:Generated_Source\PSoC4/CyFlash.c **** * The devices require HFCLK to be sourced by 48 MHz IMO during flash write.
 235:Generated_Source\PSoC4/CyFlash.c **** * This API will modify IMO configuration; it can be later restored to original
 236:Generated_Source\PSoC4/CyFlash.c **** * configuration by calling \ref CySysFlashGetWriteRowStatus().
 237:Generated_Source\PSoC4/CyFlash.c **** *
 238:Generated_Source\PSoC4/CyFlash.c **** * \note The non-blocking operation does not return success status 
 239:Generated_Source\PSoC4/CyFlash.c **** * CY_SYS_FLASH_SUCCESS until the last \ref CySysFlashResumeWriteRow API 
 240:Generated_Source\PSoC4/CyFlash.c **** * is complete. The CPUSS_SYSARG register will be reflecting the SRAM address 
 241:Generated_Source\PSoC4/CyFlash.c **** * during an ongoing non-blocking operation.
 242:Generated_Source\PSoC4/CyFlash.c **** *    
 243:Generated_Source\PSoC4/CyFlash.c **** * \param rowNum The flash row number. The number of the flash rows is defined by
 244:Generated_Source\PSoC4/CyFlash.c **** * the \ref CY_FLASH_NUMBER_ROWS macro for the selected device. Refer to the
 245:Generated_Source\PSoC4/CyFlash.c **** * device datasheet for the details.
 246:Generated_Source\PSoC4/CyFlash.c **** * \note The target flash array is calculated based on the specified flash row.
 247:Generated_Source\PSoC4/CyFlash.c **** *
 248:Generated_Source\PSoC4/CyFlash.c **** * \param rowData Array of bytes to write. The size of the array must be equal to
 249:Generated_Source\PSoC4/CyFlash.c **** * the flash row size. The flash row size for the selected device is defined by
 250:Generated_Source\PSoC4/CyFlash.c **** * the \ref CY_FLASH_SIZEOF_ROW macro. Refer to the device datasheet for the
 251:Generated_Source\PSoC4/CyFlash.c **** * details.
 252:Generated_Source\PSoC4/CyFlash.c **** *
 253:Generated_Source\PSoC4/CyFlash.c **** * \return \ref group_flash_status_codes
 254:Generated_Source\PSoC4/CyFlash.c **** *
 255:Generated_Source\PSoC4/CyFlash.c **** *******************************************************************************/
 256:Generated_Source\PSoC4/CyFlash.c **** uint32 CySysFlashStartWriteRow(uint32 rowNum, const uint8 rowData[])
 257:Generated_Source\PSoC4/CyFlash.c **** {
 258:Generated_Source\PSoC4/CyFlash.c ****     volatile uint32 retValue = CY_SYS_FLASH_SUCCESS;
 259:Generated_Source\PSoC4/CyFlash.c ****     volatile uint32 parameters[(CY_FLASH_SIZEOF_ROW + CY_FLASH_SRAM_ROM_DATA) / sizeof(uint32)];
 260:Generated_Source\PSoC4/CyFlash.c ****     uint8  interruptState;
 261:Generated_Source\PSoC4/CyFlash.c **** 
 262:Generated_Source\PSoC4/CyFlash.c **** #if(CY_IP_SPCIF_SYNCHRONOUS)
 263:Generated_Source\PSoC4/CyFlash.c ****     volatile uint32 clkCnfRetValue = CY_SYS_FLASH_SUCCESS;
 264:Generated_Source\PSoC4/CyFlash.c **** #endif  /* (CY_IP_SPCIF_SYNCHRONOUS) */    
 265:Generated_Source\PSoC4/CyFlash.c **** 
 266:Generated_Source\PSoC4/CyFlash.c ****     if ((rowNum < CY_FLASH_NUMBER_ROWS) && (rowData != 0u))
 267:Generated_Source\PSoC4/CyFlash.c ****     {
 268:Generated_Source\PSoC4/CyFlash.c ****         /* Copy data to be written into internal variable */
 269:Generated_Source\PSoC4/CyFlash.c ****         (void)memcpy((void *)&parameters[2u], rowData, CY_FLASH_SIZEOF_ROW);
 270:Generated_Source\PSoC4/CyFlash.c **** 
 271:Generated_Source\PSoC4/CyFlash.c ****         /* Load Flash Bytes */
 272:Generated_Source\PSoC4/CyFlash.c ****         parameters[0u] = (uint32) (CY_FLASH_GET_MACRO_FROM_ROW(rowNum)        << CY_FLASH_PARAM_MAC
 273:Generated_Source\PSoC4/CyFlash.c ****                          (uint32) (CY_FLASH_PAGE_LATCH_START_ADDR             << CY_FLASH_PARAM_ADD
 274:Generated_Source\PSoC4/CyFlash.c ****                          (uint32) (CY_FLASH_KEY_TWO(CY_FLASH_API_OPCODE_LOAD) << CY_FLASH_PARAM_KEY
 275:Generated_Source\PSoC4/CyFlash.c ****                          CY_FLASH_KEY_ONE;
 276:Generated_Source\PSoC4/CyFlash.c ****         parameters[1u] = CY_FLASH_SIZEOF_ROW - 1u;
ARM GAS  e:\temp\cciiBhKe.s 			page 49


 277:Generated_Source\PSoC4/CyFlash.c **** 
 278:Generated_Source\PSoC4/CyFlash.c ****         CY_FLASH_CPUSS_SYSARG_REG = (uint32) &parameters[0u];
 279:Generated_Source\PSoC4/CyFlash.c ****         CY_FLASH_CPUSS_SYSREQ_REG = CY_FLASH_CPUSS_REQ_START | CY_FLASH_API_OPCODE_LOAD;
 280:Generated_Source\PSoC4/CyFlash.c ****         CY_NOP;
 281:Generated_Source\PSoC4/CyFlash.c ****         retValue = CY_FLASH_API_RETURN;
 282:Generated_Source\PSoC4/CyFlash.c **** 
 283:Generated_Source\PSoC4/CyFlash.c ****         if(retValue == CY_SYS_FLASH_SUCCESS)
 284:Generated_Source\PSoC4/CyFlash.c ****         {
 285:Generated_Source\PSoC4/CyFlash.c ****             /***************************************************************
 286:Generated_Source\PSoC4/CyFlash.c ****             * Mask all the exceptions to guarantee that Flash write will
 287:Generated_Source\PSoC4/CyFlash.c ****             * occur in the atomic way. It will not affect system call
 288:Generated_Source\PSoC4/CyFlash.c ****             * execution (flash row write) since it is executed in the NMI
 289:Generated_Source\PSoC4/CyFlash.c ****             * context.
 290:Generated_Source\PSoC4/CyFlash.c ****             ***************************************************************/
 291:Generated_Source\PSoC4/CyFlash.c ****             interruptState = CyEnterCriticalSection();
 292:Generated_Source\PSoC4/CyFlash.c **** 
 293:Generated_Source\PSoC4/CyFlash.c ****         #if(CY_IP_SPCIF_SYNCHRONOUS)
 294:Generated_Source\PSoC4/CyFlash.c ****             clkCnfRetValue = CySysFlashClockBackup();
 295:Generated_Source\PSoC4/CyFlash.c ****             
 296:Generated_Source\PSoC4/CyFlash.c ****             if(clkCnfRetValue == CY_SYS_FLASH_SUCCESS)
 297:Generated_Source\PSoC4/CyFlash.c ****             {
 298:Generated_Source\PSoC4/CyFlash.c ****                 retValue = CySysFlashClockConfig();
 299:Generated_Source\PSoC4/CyFlash.c ****             }
 300:Generated_Source\PSoC4/CyFlash.c ****         #else
 301:Generated_Source\PSoC4/CyFlash.c ****             (void)CySysFlashClockBackup();
 302:Generated_Source\PSoC4/CyFlash.c ****         #endif  /* (CY_IP_SPCIF_SYNCHRONOUS) */
 303:Generated_Source\PSoC4/CyFlash.c **** 
 304:Generated_Source\PSoC4/CyFlash.c ****             if(retValue == CY_SYS_FLASH_SUCCESS)
 305:Generated_Source\PSoC4/CyFlash.c ****             {
 306:Generated_Source\PSoC4/CyFlash.c ****                 /* Non-blocking Write Row */
 307:Generated_Source\PSoC4/CyFlash.c ****                 parameters[0u]  = (uint32) (((uint32) CY_FLASH_KEY_TWO(CY_FLASH_API_OPCODE_NON_BLOC
 308:Generated_Source\PSoC4/CyFlash.c ****                                                         CY_FLASH_PARAM_KEY_TWO_OFFSET) | CY_FLASH_K
 309:Generated_Source\PSoC4/CyFlash.c ****                 parameters[0u] |= (uint32)(rowNum << 16u);
 310:Generated_Source\PSoC4/CyFlash.c **** 
 311:Generated_Source\PSoC4/CyFlash.c ****                 CY_FLASH_CPUSS_SYSARG_REG = (uint32) &parameters[0u];
 312:Generated_Source\PSoC4/CyFlash.c ****                 CY_FLASH_CPUSS_SYSREQ_REG = CY_FLASH_CPUSS_REQ_START | CY_FLASH_API_OPCODE_NON_BLOC
 313:Generated_Source\PSoC4/CyFlash.c ****                 CY_NOP;
 314:Generated_Source\PSoC4/CyFlash.c ****                 retValue = CY_FLASH_API_RETURN;
 315:Generated_Source\PSoC4/CyFlash.c ****             }
 316:Generated_Source\PSoC4/CyFlash.c **** 
 317:Generated_Source\PSoC4/CyFlash.c ****             CyExitCriticalSection(interruptState);
 318:Generated_Source\PSoC4/CyFlash.c ****         }
 319:Generated_Source\PSoC4/CyFlash.c ****     }
 320:Generated_Source\PSoC4/CyFlash.c ****     else
 321:Generated_Source\PSoC4/CyFlash.c ****     {
 322:Generated_Source\PSoC4/CyFlash.c ****         retValue = CY_SYS_FLASH_INVALID_ADDR;
 323:Generated_Source\PSoC4/CyFlash.c ****     }
 324:Generated_Source\PSoC4/CyFlash.c **** 
 325:Generated_Source\PSoC4/CyFlash.c ****     return (retValue);
 326:Generated_Source\PSoC4/CyFlash.c **** }
 327:Generated_Source\PSoC4/CyFlash.c **** 
 328:Generated_Source\PSoC4/CyFlash.c **** 
 329:Generated_Source\PSoC4/CyFlash.c **** /*******************************************************************************
 330:Generated_Source\PSoC4/CyFlash.c **** * Function Name: CySysFlashGetWriteRowStatus
 331:Generated_Source\PSoC4/CyFlash.c **** ****************************************************************************//**
 332:Generated_Source\PSoC4/CyFlash.c **** *
 333:Generated_Source\PSoC4/CyFlash.c **** * Returns the current status of the flash write operation.
ARM GAS  e:\temp\cciiBhKe.s 			page 50


 334:Generated_Source\PSoC4/CyFlash.c **** *
 335:Generated_Source\PSoC4/CyFlash.c **** ** \note The non-blocking operation does not return success status 
 336:Generated_Source\PSoC4/CyFlash.c **** * CY_SYS_FLASH_SUCCESS until the last \ref CySysFlashResumeWriteRow API 
 337:Generated_Source\PSoC4/CyFlash.c **** * is complete. The CPUSS_SYSARG register will be reflecting the SRAM address 
 338:Generated_Source\PSoC4/CyFlash.c **** * during an ongoing non-blocking operation.
 339:Generated_Source\PSoC4/CyFlash.c **** * Calling this API before starting a non-blocking write row operation 
 340:Generated_Source\PSoC4/CyFlash.c **** * using the \ref CySysFlashStartWriteRow() API will cause improper operation.
 341:Generated_Source\PSoC4/CyFlash.c **** *
 342:Generated_Source\PSoC4/CyFlash.c **** * \return \ref group_flash_status_codes
 343:Generated_Source\PSoC4/CyFlash.c **** *
 344:Generated_Source\PSoC4/CyFlash.c **** *******************************************************************************/
 345:Generated_Source\PSoC4/CyFlash.c **** uint32 CySysFlashGetWriteRowStatus(void)
 346:Generated_Source\PSoC4/CyFlash.c **** {
 347:Generated_Source\PSoC4/CyFlash.c ****     volatile uint32 retValue = CY_SYS_FLASH_SUCCESS;
 348:Generated_Source\PSoC4/CyFlash.c **** 
 349:Generated_Source\PSoC4/CyFlash.c ****     CY_NOP;
 350:Generated_Source\PSoC4/CyFlash.c ****     retValue = CY_FLASH_API_RETURN;
 351:Generated_Source\PSoC4/CyFlash.c **** 
 352:Generated_Source\PSoC4/CyFlash.c ****     (void) CySysFlashClockRestore();
 353:Generated_Source\PSoC4/CyFlash.c **** 
 354:Generated_Source\PSoC4/CyFlash.c ****     return (retValue);
 355:Generated_Source\PSoC4/CyFlash.c **** }
 356:Generated_Source\PSoC4/CyFlash.c **** 
 357:Generated_Source\PSoC4/CyFlash.c **** 
 358:Generated_Source\PSoC4/CyFlash.c **** /*******************************************************************************
 359:Generated_Source\PSoC4/CyFlash.c **** * Function Name: CySysFlashResumeWriteRow
 360:Generated_Source\PSoC4/CyFlash.c **** ****************************************************************************//**
 361:Generated_Source\PSoC4/CyFlash.c **** *
 362:Generated_Source\PSoC4/CyFlash.c **** * This API must be called, once the SPC interrupt is triggered to complete the
 363:Generated_Source\PSoC4/CyFlash.c **** * non-blocking operation. It is advised not to prolong calling this API for
 364:Generated_Source\PSoC4/CyFlash.c **** * more than 25 ms.
 365:Generated_Source\PSoC4/CyFlash.c **** *
 366:Generated_Source\PSoC4/CyFlash.c **** * The non-blocking write row API \ref CySysFlashStartWriteRow() requires that
 367:Generated_Source\PSoC4/CyFlash.c **** * this API be called 3 times to complete the write. This can be done by
 368:Generated_Source\PSoC4/CyFlash.c **** * configuring SPCIF interrupt and placing a call to this API.
 369:Generated_Source\PSoC4/CyFlash.c **** *
 370:Generated_Source\PSoC4/CyFlash.c **** * For CM0 based device, a non-blocking call to program a row of macro 0
 371:Generated_Source\PSoC4/CyFlash.c **** * requires the user to set the CPUSS_CONFIG.VECS_IN_RAM bit so that the
 372:Generated_Source\PSoC4/CyFlash.c **** * interrupt vector for the SPC is fetched from the SRAM rather than the FLASH.
 373:Generated_Source\PSoC4/CyFlash.c **** *
 374:Generated_Source\PSoC4/CyFlash.c **** * For CM0+ based device, if the user wants to keep the vector table in flash
 375:Generated_Source\PSoC4/CyFlash.c **** * when performing non-blocking flash write then they need to make sure the
 376:Generated_Source\PSoC4/CyFlash.c **** * vector table is placed in the flash macro which is not getting programmed by
 377:Generated_Source\PSoC4/CyFlash.c **** * configuring the VTOR register.
 378:Generated_Source\PSoC4/CyFlash.c **** *
 379:Generated_Source\PSoC4/CyFlash.c **** * \note The non-blocking operation does not return success status 
 380:Generated_Source\PSoC4/CyFlash.c **** * CY_SYS_FLASH_SUCCESS until the last Resume API is complete. 
 381:Generated_Source\PSoC4/CyFlash.c **** * The CPUSS_SYSARG register will be reflecting the SRAM address during an 
 382:Generated_Source\PSoC4/CyFlash.c **** * ongoing non-blocking operation.
 383:Generated_Source\PSoC4/CyFlash.c **** *
 384:Generated_Source\PSoC4/CyFlash.c **** * \return \ref group_flash_status_codes
 385:Generated_Source\PSoC4/CyFlash.c **** *
 386:Generated_Source\PSoC4/CyFlash.c **** *******************************************************************************/
 387:Generated_Source\PSoC4/CyFlash.c **** uint32 CySysFlashResumeWriteRow(void)
 388:Generated_Source\PSoC4/CyFlash.c **** {
 389:Generated_Source\PSoC4/CyFlash.c ****     volatile uint32 retValue = CY_SYS_FLASH_SUCCESS;
 390:Generated_Source\PSoC4/CyFlash.c ****     static volatile uint32 parameters[1u];
ARM GAS  e:\temp\cciiBhKe.s 			page 51


 391:Generated_Source\PSoC4/CyFlash.c **** 
 392:Generated_Source\PSoC4/CyFlash.c ****     /* Resume */
 393:Generated_Source\PSoC4/CyFlash.c ****     parameters[0u] = (uint32) (((uint32) CY_FLASH_KEY_TWO(CY_FLASH_API_OPCODE_RESUME_NON_BLOCKING) 
 394:Generated_Source\PSoC4/CyFlash.c ****                                          CY_FLASH_PARAM_KEY_TWO_OFFSET) | CY_FLASH_KEY_ONE);
 395:Generated_Source\PSoC4/CyFlash.c ****     CY_FLASH_CPUSS_SYSARG_REG = (uint32) &parameters[0u];
 396:Generated_Source\PSoC4/CyFlash.c ****     CY_FLASH_CPUSS_SYSREQ_REG = CY_FLASH_CPUSS_REQ_START | CY_FLASH_API_OPCODE_RESUME_NON_BLOCKING;
 397:Generated_Source\PSoC4/CyFlash.c ****     
 398:Generated_Source\PSoC4/CyFlash.c ****     CY_NOP;
 399:Generated_Source\PSoC4/CyFlash.c ****     retValue = CY_FLASH_API_RETURN;
 400:Generated_Source\PSoC4/CyFlash.c ****     
 401:Generated_Source\PSoC4/CyFlash.c ****     return (retValue);
 402:Generated_Source\PSoC4/CyFlash.c **** }
 403:Generated_Source\PSoC4/CyFlash.c **** 
 404:Generated_Source\PSoC4/CyFlash.c **** #endif /* (CY_IP_FLASH_PARALLEL_PGM_EN && (CY_IP_FLASH_MACROS > 1u)) */
 405:Generated_Source\PSoC4/CyFlash.c **** 
 406:Generated_Source\PSoC4/CyFlash.c **** 
 407:Generated_Source\PSoC4/CyFlash.c **** /*******************************************************************************
 408:Generated_Source\PSoC4/CyFlash.c **** * Function Name: CySysFlashSetWaitCycles
 409:Generated_Source\PSoC4/CyFlash.c **** ****************************************************************************//**
 410:Generated_Source\PSoC4/CyFlash.c **** *
 411:Generated_Source\PSoC4/CyFlash.c **** * Sets the number of clock cycles the cache will wait before it samples data
 412:Generated_Source\PSoC4/CyFlash.c **** * coming back from Flash. This function must be called before increasing the
 413:Generated_Source\PSoC4/CyFlash.c **** * SYSCLK clock frequency. It can optionally be called after lowering SYSCLK
 414:Generated_Source\PSoC4/CyFlash.c **** * clock frequency in order to improve the CPU performance.
 415:Generated_Source\PSoC4/CyFlash.c **** *
 416:Generated_Source\PSoC4/CyFlash.c **** * \param freq The System clock frequency in MHz.
 417:Generated_Source\PSoC4/CyFlash.c **** *
 418:Generated_Source\PSoC4/CyFlash.c **** * \note Invalid frequency will be ignored in Release mode and the CPU will be
 419:Generated_Source\PSoC4/CyFlash.c **** * halted if project is compiled in Debug mode.
 420:Generated_Source\PSoC4/CyFlash.c **** *
 421:Generated_Source\PSoC4/CyFlash.c **** *******************************************************************************/
 422:Generated_Source\PSoC4/CyFlash.c **** void CySysFlashSetWaitCycles(uint32 freq)
 423:Generated_Source\PSoC4/CyFlash.c **** {
 424:Generated_Source\PSoC4/CyFlash.c ****     uint8  interruptState;
 425:Generated_Source\PSoC4/CyFlash.c **** 
 426:Generated_Source\PSoC4/CyFlash.c ****     interruptState = CyEnterCriticalSection();
 427:Generated_Source\PSoC4/CyFlash.c **** 
 428:Generated_Source\PSoC4/CyFlash.c ****     #if (CY_IP_CPUSS)
 429:Generated_Source\PSoC4/CyFlash.c **** 
 430:Generated_Source\PSoC4/CyFlash.c ****         if ( freq <= CY_FLASH_SYSCLK_BOUNDARY_MHZ )
 431:Generated_Source\PSoC4/CyFlash.c ****         {
 432:Generated_Source\PSoC4/CyFlash.c ****             CY_SYS_CLK_SELECT_REG &= (uint32)(~CY_FLASH_WAIT_STATE_EN);
 433:Generated_Source\PSoC4/CyFlash.c ****         }
 434:Generated_Source\PSoC4/CyFlash.c ****         else
 435:Generated_Source\PSoC4/CyFlash.c ****         {
 436:Generated_Source\PSoC4/CyFlash.c ****             CY_SYS_CLK_SELECT_REG |= CY_FLASH_WAIT_STATE_EN;
 437:Generated_Source\PSoC4/CyFlash.c ****         }
 438:Generated_Source\PSoC4/CyFlash.c ****     #else
 439:Generated_Source\PSoC4/CyFlash.c ****         #if (CY_IP_CPUSS_FLASHC_PRESENT)
 440:Generated_Source\PSoC4/CyFlash.c ****             /* CY_IP_FM and CY_IP_FS */
 441:Generated_Source\PSoC4/CyFlash.c ****             if (freq <= CY_FLASH_CTL_WS_0_FREQ_MAX)
 442:Generated_Source\PSoC4/CyFlash.c ****             {
 443:Generated_Source\PSoC4/CyFlash.c ****                 CY_FLASH_CTL_REG = (CY_FLASH_CTL_REG & ~CY_FLASH_CTL_WS_MASK) | CY_FLASH_CTL_WS_0_V
 444:Generated_Source\PSoC4/CyFlash.c ****             } else
 445:Generated_Source\PSoC4/CyFlash.c ****             if (freq <= CY_FLASH_CTL_WS_1_FREQ_MAX)
 446:Generated_Source\PSoC4/CyFlash.c ****             {
 447:Generated_Source\PSoC4/CyFlash.c ****                 CY_FLASH_CTL_REG = (CY_FLASH_CTL_REG & ~CY_FLASH_CTL_WS_MASK) | CY_FLASH_CTL_WS_1_V
ARM GAS  e:\temp\cciiBhKe.s 			page 52


 448:Generated_Source\PSoC4/CyFlash.c ****             } else
 449:Generated_Source\PSoC4/CyFlash.c ****             #if (CY_IP_FMLT || CY_IP_FSLT)
 450:Generated_Source\PSoC4/CyFlash.c ****                 if (freq <= CY_FLASH_CTL_WS_2_FREQ_MAX)
 451:Generated_Source\PSoC4/CyFlash.c ****                 {
 452:Generated_Source\PSoC4/CyFlash.c ****                     CY_FLASH_CTL_REG = (CY_FLASH_CTL_REG & ~CY_FLASH_CTL_WS_MASK) | CY_FLASH_CTL_WS
 453:Generated_Source\PSoC4/CyFlash.c ****                 }
 454:Generated_Source\PSoC4/CyFlash.c ****                 else
 455:Generated_Source\PSoC4/CyFlash.c ****             #endif  /* (CY_IP_FMLT || CY_IP_FSLT) */
 456:Generated_Source\PSoC4/CyFlash.c ****         #endif /* (CY_IP_CPUSS_FLASHC_PRESENT) */
 457:Generated_Source\PSoC4/CyFlash.c ****         {
 458:Generated_Source\PSoC4/CyFlash.c ****             /* Halt CPU in debug mode if frequency is invalid */
 459:Generated_Source\PSoC4/CyFlash.c ****             CYASSERT(0u != 0u);
 460:Generated_Source\PSoC4/CyFlash.c ****         }
 461:Generated_Source\PSoC4/CyFlash.c **** 
 462:Generated_Source\PSoC4/CyFlash.c ****     #endif  /* (CY_IP_CPUSS) */
 463:Generated_Source\PSoC4/CyFlash.c **** 
 464:Generated_Source\PSoC4/CyFlash.c ****     CyExitCriticalSection(interruptState);
 465:Generated_Source\PSoC4/CyFlash.c **** }
 466:Generated_Source\PSoC4/CyFlash.c **** 
 467:Generated_Source\PSoC4/CyFlash.c **** 
 468:Generated_Source\PSoC4/CyFlash.c **** #if (CY_SFLASH_XTRA_ROWS)
 469:Generated_Source\PSoC4/CyFlash.c **** /*******************************************************************************
 470:Generated_Source\PSoC4/CyFlash.c **** * Function Name: CySysSFlashWriteUserRow
 471:Generated_Source\PSoC4/CyFlash.c **** ****************************************************************************//**
 472:Generated_Source\PSoC4/CyFlash.c **** *
 473:Generated_Source\PSoC4/CyFlash.c **** * Writes data to a row of SFlash user configurable area.
 474:Generated_Source\PSoC4/CyFlash.c **** *
 475:Generated_Source\PSoC4/CyFlash.c **** * This API is applicable for PSoC 4100 BLE, PSoC 4200 BLE, PSoC 4100M,
 476:Generated_Source\PSoC4/CyFlash.c **** * PSoC 4200M, and PSoC 4200L family of devices.
 477:Generated_Source\PSoC4/CyFlash.c **** *
 478:Generated_Source\PSoC4/CyFlash.c **** * \param rowNum The flash row number. The flash row number. The number of the
 479:Generated_Source\PSoC4/CyFlash.c **** * flash rows is defined by the CY_SFLASH_NUMBER_USERROWS macro for the selected
 480:Generated_Source\PSoC4/CyFlash.c **** * device. Valid range is 0-3. Refer to the device TRM for details.
 481:Generated_Source\PSoC4/CyFlash.c **** *
 482:Generated_Source\PSoC4/CyFlash.c **** * \param rowData Array of bytes to write. The size of the array must be equal to
 483:Generated_Source\PSoC4/CyFlash.c **** * the flash row size. The flash row size for the selected device is defined by
 484:Generated_Source\PSoC4/CyFlash.c **** * the \ref CY_SFLASH_SIZEOF_USERROW macro. Refer to the device TRM for the
 485:Generated_Source\PSoC4/CyFlash.c **** * details.
 486:Generated_Source\PSoC4/CyFlash.c **** *
 487:Generated_Source\PSoC4/CyFlash.c **** * \return \ref group_flash_status_codes
 488:Generated_Source\PSoC4/CyFlash.c **** *
 489:Generated_Source\PSoC4/CyFlash.c **** *******************************************************************************/
 490:Generated_Source\PSoC4/CyFlash.c **** uint32 CySysSFlashWriteUserRow(uint32 rowNum, const uint8 rowData[])
 491:Generated_Source\PSoC4/CyFlash.c **** {
 492:Generated_Source\PSoC4/CyFlash.c ****     volatile uint32 retValue = CY_SYS_FLASH_SUCCESS;
 493:Generated_Source\PSoC4/CyFlash.c ****     volatile uint32 clkCnfRetValue = CY_SYS_FLASH_SUCCESS;
 494:Generated_Source\PSoC4/CyFlash.c ****     volatile uint32 parameters[(CY_FLASH_SIZEOF_ROW + CY_FLASH_SRAM_ROM_DATA)/4u];
 495:Generated_Source\PSoC4/CyFlash.c ****     uint8  interruptState;
 496:Generated_Source\PSoC4/CyFlash.c **** 
 497:Generated_Source\PSoC4/CyFlash.c **** 
 498:Generated_Source\PSoC4/CyFlash.c ****     if ((rowNum < CY_SFLASH_NUMBER_USERROWS) && (rowData != 0u))
 499:Generated_Source\PSoC4/CyFlash.c ****     {
 500:Generated_Source\PSoC4/CyFlash.c ****         /* Load Flash Bytes */
 501:Generated_Source\PSoC4/CyFlash.c ****         parameters[0u] = (uint32) (CY_FLASH_GET_MACRO_FROM_ROW(rowNum)        << CY_FLASH_PARAM_MAC
 502:Generated_Source\PSoC4/CyFlash.c ****                          (uint32) (CY_FLASH_PAGE_LATCH_START_ADDR             << CY_FLASH_PARAM_ADD
 503:Generated_Source\PSoC4/CyFlash.c ****                          (uint32) (CY_FLASH_KEY_TWO(CY_FLASH_API_OPCODE_LOAD) << CY_FLASH_PARAM_KEY
 504:Generated_Source\PSoC4/CyFlash.c ****                          CY_FLASH_KEY_ONE;
ARM GAS  e:\temp\cciiBhKe.s 			page 53


 505:Generated_Source\PSoC4/CyFlash.c ****         parameters[1u] = CY_FLASH_SIZEOF_ROW - 1u;
 506:Generated_Source\PSoC4/CyFlash.c **** 
 507:Generated_Source\PSoC4/CyFlash.c ****         (void)memcpy((void *)&parameters[2u], rowData, CY_FLASH_SIZEOF_ROW);
 508:Generated_Source\PSoC4/CyFlash.c ****         CY_FLASH_CPUSS_SYSARG_REG = (uint32) &parameters[0u];
 509:Generated_Source\PSoC4/CyFlash.c ****         CY_FLASH_CPUSS_SYSREQ_REG = CY_FLASH_CPUSS_REQ_START | CY_FLASH_API_OPCODE_LOAD;
 510:Generated_Source\PSoC4/CyFlash.c ****         CY_NOP;
 511:Generated_Source\PSoC4/CyFlash.c ****         retValue = CY_FLASH_API_RETURN;
 512:Generated_Source\PSoC4/CyFlash.c **** 
 513:Generated_Source\PSoC4/CyFlash.c ****         if(retValue == CY_SYS_FLASH_SUCCESS)
 514:Generated_Source\PSoC4/CyFlash.c ****         {
 515:Generated_Source\PSoC4/CyFlash.c ****             /***************************************************************
 516:Generated_Source\PSoC4/CyFlash.c ****             * Mask all the exceptions to guarantee that Flash write will
 517:Generated_Source\PSoC4/CyFlash.c ****             * occur in the atomic way. It will not affect system call
 518:Generated_Source\PSoC4/CyFlash.c ****             * execution (flash row write) since it is executed in the NMI
 519:Generated_Source\PSoC4/CyFlash.c ****             * context.
 520:Generated_Source\PSoC4/CyFlash.c ****             ***************************************************************/
 521:Generated_Source\PSoC4/CyFlash.c ****             interruptState = CyEnterCriticalSection();
 522:Generated_Source\PSoC4/CyFlash.c **** 
 523:Generated_Source\PSoC4/CyFlash.c ****             clkCnfRetValue = CySysFlashClockBackup();
 524:Generated_Source\PSoC4/CyFlash.c **** 
 525:Generated_Source\PSoC4/CyFlash.c ****         #if(CY_IP_SPCIF_SYNCHRONOUS)
 526:Generated_Source\PSoC4/CyFlash.c ****             if(clkCnfRetValue == CY_SYS_FLASH_SUCCESS)
 527:Generated_Source\PSoC4/CyFlash.c ****             {
 528:Generated_Source\PSoC4/CyFlash.c ****                 retValue = CySysFlashClockConfig();
 529:Generated_Source\PSoC4/CyFlash.c ****             }
 530:Generated_Source\PSoC4/CyFlash.c ****         #endif  /* (CY_IP_SPCIF_SYNCHRONOUS) */
 531:Generated_Source\PSoC4/CyFlash.c **** 
 532:Generated_Source\PSoC4/CyFlash.c ****             if(retValue == CY_SYS_FLASH_SUCCESS)
 533:Generated_Source\PSoC4/CyFlash.c ****             {
 534:Generated_Source\PSoC4/CyFlash.c ****                 /* Write User Sflash Row */
 535:Generated_Source\PSoC4/CyFlash.c ****                 parameters[0u]  = (uint32) (((uint32) CY_FLASH_KEY_TWO(CY_FLASH_API_OPCODE_WRITE_SF
 536:Generated_Source\PSoC4/CyFlash.c ****                 parameters[1u] = (uint32) rowNum;
 537:Generated_Source\PSoC4/CyFlash.c **** 
 538:Generated_Source\PSoC4/CyFlash.c ****                 CY_FLASH_CPUSS_SYSARG_REG = (uint32) &parameters[0u];
 539:Generated_Source\PSoC4/CyFlash.c ****                 CY_FLASH_CPUSS_SYSREQ_REG = CY_FLASH_CPUSS_REQ_START | CY_FLASH_API_OPCODE_WRITE_SF
 540:Generated_Source\PSoC4/CyFlash.c ****                 CY_NOP;
 541:Generated_Source\PSoC4/CyFlash.c ****                 retValue = CY_FLASH_API_RETURN;
 542:Generated_Source\PSoC4/CyFlash.c ****             }
 543:Generated_Source\PSoC4/CyFlash.c **** 
 544:Generated_Source\PSoC4/CyFlash.c ****             if(clkCnfRetValue == CY_SYS_FLASH_SUCCESS)
 545:Generated_Source\PSoC4/CyFlash.c ****             {
 546:Generated_Source\PSoC4/CyFlash.c ****                 clkCnfRetValue = CySysFlashClockRestore();
 547:Generated_Source\PSoC4/CyFlash.c ****             }
 548:Generated_Source\PSoC4/CyFlash.c ****             CyExitCriticalSection(interruptState);
 549:Generated_Source\PSoC4/CyFlash.c ****         }
 550:Generated_Source\PSoC4/CyFlash.c ****     }
 551:Generated_Source\PSoC4/CyFlash.c ****     else
 552:Generated_Source\PSoC4/CyFlash.c ****     {
 553:Generated_Source\PSoC4/CyFlash.c ****         retValue = CY_SYS_FLASH_INVALID_ADDR;
 554:Generated_Source\PSoC4/CyFlash.c ****     }
 555:Generated_Source\PSoC4/CyFlash.c **** 
 556:Generated_Source\PSoC4/CyFlash.c ****     return (retValue);
 557:Generated_Source\PSoC4/CyFlash.c **** }
 558:Generated_Source\PSoC4/CyFlash.c **** #endif /* (CY_SFLASH_XTRA_ROWS) */
 559:Generated_Source\PSoC4/CyFlash.c **** 
 560:Generated_Source\PSoC4/CyFlash.c **** 
 561:Generated_Source\PSoC4/CyFlash.c **** /*******************************************************************************
ARM GAS  e:\temp\cciiBhKe.s 			page 54


 562:Generated_Source\PSoC4/CyFlash.c **** * Function Name: CySysFlashClockBackup
 563:Generated_Source\PSoC4/CyFlash.c **** ****************************************************************************//**
 564:Generated_Source\PSoC4/CyFlash.c **** *
 565:Generated_Source\PSoC4/CyFlash.c **** * Backups the device clock configuration.
 566:Generated_Source\PSoC4/CyFlash.c **** *
 567:Generated_Source\PSoC4/CyFlash.c **** * \return The same as \ref CySysFlashWriteRow().
 568:Generated_Source\PSoC4/CyFlash.c **** *
 569:Generated_Source\PSoC4/CyFlash.c **** *******************************************************************************/
 570:Generated_Source\PSoC4/CyFlash.c **** static cystatus CySysFlashClockBackup(void)
 571:Generated_Source\PSoC4/CyFlash.c **** {
 572:Generated_Source\PSoC4/CyFlash.c ****     cystatus retValue = CY_SYS_FLASH_SUCCESS;
 573:Generated_Source\PSoC4/CyFlash.c **** #if(!CY_IP_FM)
 574:Generated_Source\PSoC4/CyFlash.c ****     #if !(CY_PSOC4_4000)
 575:Generated_Source\PSoC4/CyFlash.c ****         #if (CY_IP_SPCIF_SYNCHRONOUS)
 576:Generated_Source\PSoC4/CyFlash.c ****             volatile uint32   parameters[2u];
 577:Generated_Source\PSoC4/CyFlash.c ****         #endif /* (CY_IP_SPCIF_SYNCHRONOUS) */
 578:Generated_Source\PSoC4/CyFlash.c ****     #endif  /* !(CY_PSOC4_4000) */
 579:Generated_Source\PSoC4/CyFlash.c **** #endif  /* (!CY_IP_FM) */
 580:Generated_Source\PSoC4/CyFlash.c **** 
 581:Generated_Source\PSoC4/CyFlash.c **** #if(CY_IP_FM)
 582:Generated_Source\PSoC4/CyFlash.c **** 
 583:Generated_Source\PSoC4/CyFlash.c ****     /***************************************************************
 584:Generated_Source\PSoC4/CyFlash.c ****     * Preserve IMO configuration that could be changed during
 585:Generated_Source\PSoC4/CyFlash.c ****     * system call execution (Cypress ID #150448).
 586:Generated_Source\PSoC4/CyFlash.c ****     ***************************************************************/
 587:Generated_Source\PSoC4/CyFlash.c ****     cySysFlashBackup.imoConfigReg = CY_SYS_CLK_IMO_CONFIG_REG;
 588:Generated_Source\PSoC4/CyFlash.c **** 
 589:Generated_Source\PSoC4/CyFlash.c **** #else   /* (CY_IP_FMLT) */
 590:Generated_Source\PSoC4/CyFlash.c **** 
 591:Generated_Source\PSoC4/CyFlash.c ****     #if (CY_PSOC4_4000)
 592:Generated_Source\PSoC4/CyFlash.c **** 
 593:Generated_Source\PSoC4/CyFlash.c ****         /***************************************************************************
 594:Generated_Source\PSoC4/CyFlash.c ****         * Perform firmware clock settings backup for the PSOC4 4000 devices (the
 595:Generated_Source\PSoC4/CyFlash.c ****         * corresponding system call is not available).
 596:Generated_Source\PSoC4/CyFlash.c ****         ***************************************************************************/
 597:Generated_Source\PSoC4/CyFlash.c **** 
 598:Generated_Source\PSoC4/CyFlash.c ****         /***************************************************************************
 599:Generated_Source\PSoC4/CyFlash.c ****         * The registers listed below are modified by CySysFlashClockConfig().
 600:Generated_Source\PSoC4/CyFlash.c ****         *
 601:Generated_Source\PSoC4/CyFlash.c ****         * The registers to be saved:
 602:Generated_Source\PSoC4/CyFlash.c ****         * - CY_SYS_CLK_IMO_CONFIG_REG - IMO enable state.
 603:Generated_Source\PSoC4/CyFlash.c ****         * - CY_SYS_CLK_SELECT_REG     - HFCLK source, divider, pump source. Save
 604:Generated_Source\PSoC4/CyFlash.c ****         *                               entire register as it can be directly
 605:Generated_Source\PSoC4/CyFlash.c ****         *                               written on restore (no special
 606:Generated_Source\PSoC4/CyFlash.c ****         *                               requirements).
 607:Generated_Source\PSoC4/CyFlash.c ****         * - CY_SYS_CLK_IMO_SELECT_REG - Save IMO frequency.
 608:Generated_Source\PSoC4/CyFlash.c ****         *
 609:Generated_Source\PSoC4/CyFlash.c ****         * The registers not to be saved:
 610:Generated_Source\PSoC4/CyFlash.c ****         * - CY_SYS_CLK_IMO_TRIM1_REG  - No need to save. Function of frequency.
 611:Generated_Source\PSoC4/CyFlash.c ****         *                               Restored by CySysClkWriteImoFreq().
 612:Generated_Source\PSoC4/CyFlash.c ****         * - CY_SYS_CLK_IMO_TRIM3_REG  - No need to save. Function of frequency.
 613:Generated_Source\PSoC4/CyFlash.c ****         *                               Restored by CySysClkWriteImoFreq().
 614:Generated_Source\PSoC4/CyFlash.c ****         * - REG_CPUSS_FLASH_CTL       - Flash wait cycles. Unmodified due to system
 615:Generated_Source\PSoC4/CyFlash.c ****         *                               clock 16 MHz limit.
 616:Generated_Source\PSoC4/CyFlash.c ****         ***************************************************************************/
 617:Generated_Source\PSoC4/CyFlash.c **** 
 618:Generated_Source\PSoC4/CyFlash.c ****         cySysFlashBackup.clkSelectReg = CY_SYS_CLK_SELECT_REG;
ARM GAS  e:\temp\cciiBhKe.s 			page 55


 619:Generated_Source\PSoC4/CyFlash.c ****         cySysFlashBackup.clkImoEna    = CY_SYS_CLK_IMO_CONFIG_REG & CY_SYS_CLK_IMO_CONFIG_ENABLE;
 620:Generated_Source\PSoC4/CyFlash.c ****         cySysFlashBackup.clkImoFreq   = CY_SYS_CLK_IMO_MIN_FREQ_MHZ + (CY_SYS_CLK_IMO_SELECT_REG <<
 621:Generated_Source\PSoC4/CyFlash.c **** 
 622:Generated_Source\PSoC4/CyFlash.c ****     #else
 623:Generated_Source\PSoC4/CyFlash.c **** 
 624:Generated_Source\PSoC4/CyFlash.c ****         #if (CY_IP_SPCIF_SYNCHRONOUS)
 625:Generated_Source\PSoC4/CyFlash.c ****             /* FM-Lite Clock Backup System Call */
 626:Generated_Source\PSoC4/CyFlash.c ****             parameters[0u] =
 661              		.loc 1 626 0
 662 005a 384B     		ldr	r3, .L35+20
 627:Generated_Source\PSoC4/CyFlash.c ****                 (uint32) ((CY_FLASH_KEY_TWO(CY_FLASH_API_OPCODE_CLK_BACKUP) <<  CY_FLASH_PARAM_KEY_
 628:Generated_Source\PSoC4/CyFlash.c ****                             CY_FLASH_KEY_ONE);
 629:Generated_Source\PSoC4/CyFlash.c ****             parameters[1u] = (uint32) &cySysFlashBackup.clockSettings[0u];
 663              		.loc 1 629 0
 664 005c 3849     		ldr	r1, .L35+24
 626:Generated_Source\PSoC4/CyFlash.c ****                 (uint32) ((CY_FLASH_KEY_TWO(CY_FLASH_API_OPCODE_CLK_BACKUP) <<  CY_FLASH_PARAM_KEY_
 665              		.loc 1 626 0
 666 005e 04AA     		add	r2, sp, #16
 667 0060 0493     		str	r3, [sp, #16]
 668              		.loc 1 629 0
 669 0062 0591     		str	r1, [sp, #20]
 630:Generated_Source\PSoC4/CyFlash.c ****             CY_FLASH_CPUSS_SYSARG_REG = (uint32) &parameters[0u];
 670              		.loc 1 630 0
 671 0064 2260     		str	r2, [r4]
 631:Generated_Source\PSoC4/CyFlash.c ****             CY_FLASH_CPUSS_SYSREQ_REG = CY_FLASH_CPUSS_REQ_START | CY_FLASH_API_OPCODE_CLK_BACKUP;
 672              		.loc 1 631 0
 673 0066 374A     		ldr	r2, .L35+28
 630:Generated_Source\PSoC4/CyFlash.c ****             CY_FLASH_CPUSS_SYSARG_REG = (uint32) &parameters[0u];
 674              		.loc 1 630 0
 675 0068 314B     		ldr	r3, .L35+8
 676              		.loc 1 631 0
 677 006a 3260     		str	r2, [r6]
 632:Generated_Source\PSoC4/CyFlash.c ****             CY_NOP;
 678              		.loc 1 632 0
 679              		.syntax divided
 680              	@ 632 "Generated_Source\PSoC4\CyFlash.c" 1
 681 006c C046     		NOP
 682              	
 683              	@ 0 "" 2
 633:Generated_Source\PSoC4/CyFlash.c ****             retValue = CY_FLASH_API_RETURN;
 684              		.loc 1 633 0
 685              		.thumb
 686              		.syntax unified
 687 006e 2268     		ldr	r2, [r4]
 688 0070 120F     		lsrs	r2, r2, #28
 689 0072 0F2A     		cmp	r2, #15
 690 0074 03D0     		beq	.L30
 691 0076 1A68     		ldr	r2, [r3]
 692 0078 120F     		lsrs	r2, r2, #28
 693 007a 0A2A     		cmp	r2, #10
 694 007c 01D0     		beq	.L7
 695              	.L30:
 696 007e 1D68     		ldr	r5, [r3]
 697 0080 EDB2     		uxtb	r5, r5
 698              	.L7:
 699              	.LVL5:
 700              	.LBE9:
ARM GAS  e:\temp\cciiBhKe.s 			page 56


 701              	.LBE8:
 145:Generated_Source\PSoC4/CyFlash.c **** 
 702              		.loc 1 145 0
 703 0082 0395     		str	r5, [sp, #12]
 148:Generated_Source\PSoC4/CyFlash.c ****             {
 704              		.loc 1 148 0
 705 0084 039B     		ldr	r3, [sp, #12]
 706 0086 002B     		cmp	r3, #0
 707 0088 10D1     		bne	.L8
 708              	.LVL6:
 709              	.LBB10:
 710              	.LBB11:
 634:Generated_Source\PSoC4/CyFlash.c ****         #endif /* (CY_IP_SPCIF_SYNCHRONOUS) */
 635:Generated_Source\PSoC4/CyFlash.c **** 
 636:Generated_Source\PSoC4/CyFlash.c ****     #endif  /* (CY_PSOC4_4000) */
 637:Generated_Source\PSoC4/CyFlash.c **** 
 638:Generated_Source\PSoC4/CyFlash.c **** #endif  /* (CY_IP_FM) */
 639:Generated_Source\PSoC4/CyFlash.c **** 
 640:Generated_Source\PSoC4/CyFlash.c ****     return (retValue);
 641:Generated_Source\PSoC4/CyFlash.c **** }
 642:Generated_Source\PSoC4/CyFlash.c **** 
 643:Generated_Source\PSoC4/CyFlash.c **** 
 644:Generated_Source\PSoC4/CyFlash.c **** #if(CY_IP_SPCIF_SYNCHRONOUS)
 645:Generated_Source\PSoC4/CyFlash.c **** /*******************************************************************************
 646:Generated_Source\PSoC4/CyFlash.c **** * Function Name: CySysFlashClockConfig
 647:Generated_Source\PSoC4/CyFlash.c **** ****************************************************************************//**
 648:Generated_Source\PSoC4/CyFlash.c **** *
 649:Generated_Source\PSoC4/CyFlash.c **** * Configures the device clocks for the flash writing.
 650:Generated_Source\PSoC4/CyFlash.c **** *
 651:Generated_Source\PSoC4/CyFlash.c **** * \return The same as \ref CySysFlashWriteRow().
 652:Generated_Source\PSoC4/CyFlash.c **** *
 653:Generated_Source\PSoC4/CyFlash.c **** *******************************************************************************/
 654:Generated_Source\PSoC4/CyFlash.c **** static cystatus CySysFlashClockConfig(void)
 655:Generated_Source\PSoC4/CyFlash.c **** {
 656:Generated_Source\PSoC4/CyFlash.c ****     cystatus retValue = CY_SYS_FLASH_SUCCESS;
 657:Generated_Source\PSoC4/CyFlash.c **** 
 658:Generated_Source\PSoC4/CyFlash.c ****     /***************************************************************************
 659:Generated_Source\PSoC4/CyFlash.c ****     * The FM-Lite IP uses the IMO at 48MHz for the pump clock and SPC timer
 660:Generated_Source\PSoC4/CyFlash.c ****     * clock. The PUMP_SEL and HF clock must be set to IMO before calling Flash
 661:Generated_Source\PSoC4/CyFlash.c ****     * write or erase operation.
 662:Generated_Source\PSoC4/CyFlash.c ****     ***************************************************************************/
 663:Generated_Source\PSoC4/CyFlash.c **** #if (CY_PSOC4_4000)
 664:Generated_Source\PSoC4/CyFlash.c **** 
 665:Generated_Source\PSoC4/CyFlash.c ****     /***************************************************************************
 666:Generated_Source\PSoC4/CyFlash.c ****     * Perform firmware clock settings setup for the PSOC4 4000 devices (the
 667:Generated_Source\PSoC4/CyFlash.c ****     * corresponding system call is not reliable):
 668:Generated_Source\PSoC4/CyFlash.c ****     * - The IMO frequency should be 48 MHz
 669:Generated_Source\PSoC4/CyFlash.c ****     * - The IMO should be source for the HFCLK
 670:Generated_Source\PSoC4/CyFlash.c ****     * - The IMO should be the source for the charge pump clock
 671:Generated_Source\PSoC4/CyFlash.c ****     *
 672:Generated_Source\PSoC4/CyFlash.c ****     * Note The structure members used below are initialized by
 673:Generated_Source\PSoC4/CyFlash.c ****     * the CySysFlashClockBackup() function.
 674:Generated_Source\PSoC4/CyFlash.c ****     ***************************************************************************/
 675:Generated_Source\PSoC4/CyFlash.c ****     if ((cySysFlashBackup.clkImoFreq != 48u) ||
 676:Generated_Source\PSoC4/CyFlash.c ****         ((cySysFlashBackup.clkSelectReg & CY_SYS_CLK_SELECT_DIRECT_SEL_MASK) != CY_SYS_CLK_HFCLK_IM
 677:Generated_Source\PSoC4/CyFlash.c ****         (((cySysFlashBackup.clkSelectReg >> CY_SYS_CLK_SELECT_PUMP_SEL_SHIFT) & CY_SYS_CLK_SELECT_P
 678:Generated_Source\PSoC4/CyFlash.c ****             CY_SYS_CLK_SELECT_PUMP_SEL_IMO))
ARM GAS  e:\temp\cciiBhKe.s 			page 57


 679:Generated_Source\PSoC4/CyFlash.c ****     {
 680:Generated_Source\PSoC4/CyFlash.c ****         /***********************************************************************
 681:Generated_Source\PSoC4/CyFlash.c ****          Set HFCLK divider to divide-by-4 to ensure that System clock frequency
 682:Generated_Source\PSoC4/CyFlash.c ****         * is within the valid limit (16 MHz for the PSoC4 4000).
 683:Generated_Source\PSoC4/CyFlash.c ****         ***********************************************************************/
 684:Generated_Source\PSoC4/CyFlash.c ****         CySysClkWriteHfclkDiv(CY_SYS_CLK_HFCLK_DIV_4);
 685:Generated_Source\PSoC4/CyFlash.c **** 
 686:Generated_Source\PSoC4/CyFlash.c ****         /* The IMO frequency should be 48 MHz */
 687:Generated_Source\PSoC4/CyFlash.c ****         if (cySysFlashBackup.clkImoFreq != 48u)
 688:Generated_Source\PSoC4/CyFlash.c ****         {
 689:Generated_Source\PSoC4/CyFlash.c ****             CySysClkWriteImoFreq(48u);
 690:Generated_Source\PSoC4/CyFlash.c ****         }
 691:Generated_Source\PSoC4/CyFlash.c ****         CySysClkImoStart();
 692:Generated_Source\PSoC4/CyFlash.c **** 
 693:Generated_Source\PSoC4/CyFlash.c ****         /* The IMO should be source for the HFCLK */
 694:Generated_Source\PSoC4/CyFlash.c ****         CySysClkWriteHfclkDirect(CY_SYS_CLK_HFCLK_IMO);
 695:Generated_Source\PSoC4/CyFlash.c **** 
 696:Generated_Source\PSoC4/CyFlash.c ****         /* The IMO should be the source for the charge pump clock */
 697:Generated_Source\PSoC4/CyFlash.c ****         CY_SYS_CLK_SELECT_REG =  (CY_SYS_CLK_SELECT_REG &
 698:Generated_Source\PSoC4/CyFlash.c ****             ((uint32)~(uint32)(CY_SYS_CLK_SELECT_PUMP_SEL_MASK << CY_SYS_CLK_SELECT_PUMP_SEL_SHIFT)
 699:Generated_Source\PSoC4/CyFlash.c ****             ((uint32)((uint32)1u << CY_SYS_CLK_SELECT_PUMP_SEL_SHIFT));
 700:Generated_Source\PSoC4/CyFlash.c ****     }
 701:Generated_Source\PSoC4/CyFlash.c **** 
 702:Generated_Source\PSoC4/CyFlash.c **** #else
 703:Generated_Source\PSoC4/CyFlash.c **** 
 704:Generated_Source\PSoC4/CyFlash.c ****     /* FM-Lite Clock Configuration */
 705:Generated_Source\PSoC4/CyFlash.c ****     CY_FLASH_CPUSS_SYSARG_REG =
 711              		.loc 1 705 0
 712 008a 2F4D     		ldr	r5, .L35+32
 713 008c 284A     		ldr	r2, .L35+8
 714 008e 2560     		str	r5, [r4]
 706:Generated_Source\PSoC4/CyFlash.c ****         (uint32) ((CY_FLASH_KEY_TWO(CY_FLASH_API_OPCODE_CLK_CONFIG) <<  CY_FLASH_PARAM_KEY_TWO_OFFS
 707:Generated_Source\PSoC4/CyFlash.c ****                     CY_FLASH_KEY_ONE);
 708:Generated_Source\PSoC4/CyFlash.c ****     CY_FLASH_CPUSS_SYSREQ_REG = CY_FLASH_CPUSS_REQ_START | CY_FLASH_API_OPCODE_CLK_CONFIG;
 715              		.loc 1 708 0
 716 0090 2E4D     		ldr	r5, .L35+36
 717 0092 3560     		str	r5, [r6]
 709:Generated_Source\PSoC4/CyFlash.c ****     CY_NOP;
 718              		.loc 1 709 0
 719              		.syntax divided
 720              	@ 709 "Generated_Source\PSoC4\CyFlash.c" 1
 721 0094 C046     		NOP
 722              	
 723              	@ 0 "" 2
 710:Generated_Source\PSoC4/CyFlash.c ****     retValue = CY_FLASH_API_RETURN;
 724              		.loc 1 710 0
 725              		.thumb
 726              		.syntax unified
 727 0096 2568     		ldr	r5, [r4]
 728 0098 2D0F     		lsrs	r5, r5, #28
 729 009a 0F2D     		cmp	r5, #15
 730 009c 03D0     		beq	.L31
 731 009e 1568     		ldr	r5, [r2]
 732 00a0 2D0F     		lsrs	r5, r5, #28
 733 00a2 0A2D     		cmp	r5, #10
 734 00a4 01D0     		beq	.L10
 735              	.L31:
ARM GAS  e:\temp\cciiBhKe.s 			page 58


 736 00a6 1368     		ldr	r3, [r2]
 737 00a8 DBB2     		uxtb	r3, r3
 738              	.L10:
 739              	.LVL7:
 740              	.LBE11:
 741              	.LBE10:
 150:Generated_Source\PSoC4/CyFlash.c ****             }
 742              		.loc 1 150 0
 743 00aa 0293     		str	r3, [sp, #8]
 744              	.L8:
 154:Generated_Source\PSoC4/CyFlash.c ****             {
 745              		.loc 1 154 0
 746 00ac 029B     		ldr	r3, [sp, #8]
 747 00ae 002B     		cmp	r3, #0
 748 00b0 16D1     		bne	.L11
 157:Generated_Source\PSoC4/CyFlash.c ****                 parameters[0u] |= (uint32)(rowNum << 16u);
 749              		.loc 1 157 0
 750 00b2 274A     		ldr	r2, .L35+40
 751 00b4 0892     		str	r2, [sp, #32]
 158:Generated_Source\PSoC4/CyFlash.c **** 
 752              		.loc 1 158 0
 753 00b6 019A     		ldr	r2, [sp, #4]
 754 00b8 089D     		ldr	r5, [sp, #32]
 755 00ba 1204     		lsls	r2, r2, #16
 756 00bc 2A43     		orrs	r2, r5
 161:Generated_Source\PSoC4/CyFlash.c ****                 CY_NOP;
 757              		.loc 1 161 0
 758 00be 254D     		ldr	r5, .L35+44
 158:Generated_Source\PSoC4/CyFlash.c **** 
 759              		.loc 1 158 0
 760 00c0 0892     		str	r2, [sp, #32]
 160:Generated_Source\PSoC4/CyFlash.c ****                 CY_FLASH_CPUSS_SYSREQ_REG = CY_FLASH_CPUSS_REQ_START | CY_FLASH_API_OPCODE_WRITE_RO
 761              		.loc 1 160 0
 762 00c2 2760     		str	r7, [r4]
 763 00c4 1A4A     		ldr	r2, .L35+8
 161:Generated_Source\PSoC4/CyFlash.c ****                 CY_NOP;
 764              		.loc 1 161 0
 765 00c6 3560     		str	r5, [r6]
 162:Generated_Source\PSoC4/CyFlash.c ****                 retValue = CY_FLASH_API_RETURN;
 766              		.loc 1 162 0
 767              		.syntax divided
 768              	@ 162 "Generated_Source\PSoC4\CyFlash.c" 1
 769 00c8 C046     		NOP
 770              	
 771              	@ 0 "" 2
 163:Generated_Source\PSoC4/CyFlash.c ****             }
 772              		.loc 1 163 0
 773              		.thumb
 774              		.syntax unified
 775 00ca 2568     		ldr	r5, [r4]
 776 00cc 2D0F     		lsrs	r5, r5, #28
 777 00ce 0F2D     		cmp	r5, #15
 778 00d0 03D0     		beq	.L32
 163:Generated_Source\PSoC4/CyFlash.c ****             }
 779              		.loc 1 163 0 is_stmt 0 discriminator 2
 780 00d2 1568     		ldr	r5, [r2]
 781 00d4 2D0F     		lsrs	r5, r5, #28
ARM GAS  e:\temp\cciiBhKe.s 			page 59


 782 00d6 0A2D     		cmp	r5, #10
 783 00d8 01D0     		beq	.L13
 784              	.L32:
 163:Generated_Source\PSoC4/CyFlash.c ****             }
 785              		.loc 1 163 0 discriminator 4
 786 00da 1368     		ldr	r3, [r2]
 787 00dc DBB2     		uxtb	r3, r3
 788              	.L13:
 163:Generated_Source\PSoC4/CyFlash.c ****             }
 789              		.loc 1 163 0 discriminator 8
 790 00de 0293     		str	r3, [sp, #8]
 791              	.L11:
 202:Generated_Source\PSoC4/CyFlash.c ****             {
 792              		.loc 1 202 0 is_stmt 1
 793 00e0 039B     		ldr	r3, [sp, #12]
 794 00e2 002B     		cmp	r3, #0
 795 00e4 18D1     		bne	.L15
 796              	.LVL8:
 797              	.LBB12:
 798              	.LBB13:
 711:Generated_Source\PSoC4/CyFlash.c **** 
 712:Generated_Source\PSoC4/CyFlash.c **** #endif  /* (CY_PSOC4_4000) */
 713:Generated_Source\PSoC4/CyFlash.c **** 
 714:Generated_Source\PSoC4/CyFlash.c ****     return (retValue);
 715:Generated_Source\PSoC4/CyFlash.c **** }
 716:Generated_Source\PSoC4/CyFlash.c **** #endif  /* (CY_IP_SPCIF_SYNCHRONOUS) */
 717:Generated_Source\PSoC4/CyFlash.c **** 
 718:Generated_Source\PSoC4/CyFlash.c **** 
 719:Generated_Source\PSoC4/CyFlash.c **** /*******************************************************************************
 720:Generated_Source\PSoC4/CyFlash.c **** * Function Name: CySysFlashClockRestore
 721:Generated_Source\PSoC4/CyFlash.c **** ****************************************************************************//**
 722:Generated_Source\PSoC4/CyFlash.c **** *
 723:Generated_Source\PSoC4/CyFlash.c **** * Restores the device clock configuration.
 724:Generated_Source\PSoC4/CyFlash.c **** *
 725:Generated_Source\PSoC4/CyFlash.c **** * \return The same as \ref CySysFlashWriteRow().
 726:Generated_Source\PSoC4/CyFlash.c **** *
 727:Generated_Source\PSoC4/CyFlash.c **** *******************************************************************************/
 728:Generated_Source\PSoC4/CyFlash.c **** static cystatus CySysFlashClockRestore(void)
 729:Generated_Source\PSoC4/CyFlash.c **** {
 730:Generated_Source\PSoC4/CyFlash.c ****     cystatus retValue = CY_SYS_FLASH_SUCCESS;
 731:Generated_Source\PSoC4/CyFlash.c **** #if(!CY_IP_FM)
 732:Generated_Source\PSoC4/CyFlash.c ****     #if !(CY_PSOC4_4000)
 733:Generated_Source\PSoC4/CyFlash.c ****         #if (CY_IP_SPCIF_SYNCHRONOUS)
 734:Generated_Source\PSoC4/CyFlash.c ****             volatile uint32   parameters[2u];
 735:Generated_Source\PSoC4/CyFlash.c ****         #endif /* (CY_IP_SPCIF_SYNCHRONOUS) */
 736:Generated_Source\PSoC4/CyFlash.c ****     #endif  /* !(CY_PSOC4_4000) */
 737:Generated_Source\PSoC4/CyFlash.c **** #endif  /* (!CY_IP_FM) */
 738:Generated_Source\PSoC4/CyFlash.c **** 
 739:Generated_Source\PSoC4/CyFlash.c **** #if(CY_IP_FM)
 740:Generated_Source\PSoC4/CyFlash.c **** 
 741:Generated_Source\PSoC4/CyFlash.c ****     /***************************************************************
 742:Generated_Source\PSoC4/CyFlash.c ****     * Restore IMO configuration that could be changed during
 743:Generated_Source\PSoC4/CyFlash.c ****     * system call execution (Cypress ID #150448).
 744:Generated_Source\PSoC4/CyFlash.c ****     ***************************************************************/
 745:Generated_Source\PSoC4/CyFlash.c ****     CY_SYS_CLK_IMO_CONFIG_REG = cySysFlashBackup.imoConfigReg;
 746:Generated_Source\PSoC4/CyFlash.c **** 
 747:Generated_Source\PSoC4/CyFlash.c **** #else
ARM GAS  e:\temp\cciiBhKe.s 			page 60


 748:Generated_Source\PSoC4/CyFlash.c **** 
 749:Generated_Source\PSoC4/CyFlash.c ****     #if (CY_PSOC4_4000)
 750:Generated_Source\PSoC4/CyFlash.c **** 
 751:Generated_Source\PSoC4/CyFlash.c ****         /***************************************************************************
 752:Generated_Source\PSoC4/CyFlash.c ****         * Perform firmware clock settings restore for the PSOC4 4000 devices (the
 753:Generated_Source\PSoC4/CyFlash.c ****         * corresponding system call is not available).
 754:Generated_Source\PSoC4/CyFlash.c ****         ***************************************************************************/
 755:Generated_Source\PSoC4/CyFlash.c **** 
 756:Generated_Source\PSoC4/CyFlash.c ****         /* Restore clock settings */
 757:Generated_Source\PSoC4/CyFlash.c ****         if ((cySysFlashBackup.clkImoFreq != 48u) ||
 758:Generated_Source\PSoC4/CyFlash.c ****             ((cySysFlashBackup.clkSelectReg & CY_SYS_CLK_SELECT_DIRECT_SEL_MASK) != CY_SYS_CLK_HFCL
 759:Generated_Source\PSoC4/CyFlash.c ****             (((cySysFlashBackup.clkSelectReg >> CY_SYS_CLK_SELECT_PUMP_SEL_SHIFT) & CY_SYS_CLK_SELE
 760:Generated_Source\PSoC4/CyFlash.c ****                 CY_SYS_CLK_SELECT_PUMP_SEL_IMO))
 761:Generated_Source\PSoC4/CyFlash.c ****         {
 762:Generated_Source\PSoC4/CyFlash.c ****             /* Restore IMO frequency if needed */
 763:Generated_Source\PSoC4/CyFlash.c ****             if (cySysFlashBackup.clkImoFreq != 48u)
 764:Generated_Source\PSoC4/CyFlash.c ****             {
 765:Generated_Source\PSoC4/CyFlash.c ****                 CySysClkWriteImoFreq(cySysFlashBackup.clkImoFreq);
 766:Generated_Source\PSoC4/CyFlash.c ****             }
 767:Generated_Source\PSoC4/CyFlash.c **** 
 768:Generated_Source\PSoC4/CyFlash.c ****             /* Restore HFCLK clock source */
 769:Generated_Source\PSoC4/CyFlash.c ****             CySysClkWriteHfclkDirect(cySysFlashBackup.clkSelectReg & CY_SYS_CLK_SELECT_DIRECT_SEL_M
 770:Generated_Source\PSoC4/CyFlash.c **** 
 771:Generated_Source\PSoC4/CyFlash.c ****             /* Restore HFCLK divider and source for pump  */
 772:Generated_Source\PSoC4/CyFlash.c ****             CY_SYS_CLK_SELECT_REG = cySysFlashBackup.clkSelectReg;
 773:Generated_Source\PSoC4/CyFlash.c **** 
 774:Generated_Source\PSoC4/CyFlash.c ****             /* Stop IMO if needed */
 775:Generated_Source\PSoC4/CyFlash.c ****             if (0u == cySysFlashBackup.clkImoEna)
 776:Generated_Source\PSoC4/CyFlash.c ****             {
 777:Generated_Source\PSoC4/CyFlash.c ****                 CySysClkImoStop();
 778:Generated_Source\PSoC4/CyFlash.c ****             }
 779:Generated_Source\PSoC4/CyFlash.c ****         }
 780:Generated_Source\PSoC4/CyFlash.c **** 
 781:Generated_Source\PSoC4/CyFlash.c ****     #else
 782:Generated_Source\PSoC4/CyFlash.c **** 
 783:Generated_Source\PSoC4/CyFlash.c ****         #if (CY_IP_SPCIF_SYNCHRONOUS)
 784:Generated_Source\PSoC4/CyFlash.c ****             /* FM-Lite Clock Restore */
 785:Generated_Source\PSoC4/CyFlash.c ****             parameters[0u] =
 799              		.loc 1 785 0
 800 00e6 1C4A     		ldr	r2, .L35+48
 801 00e8 06AD     		add	r5, sp, #24
 802 00ea 0692     		str	r2, [sp, #24]
 786:Generated_Source\PSoC4/CyFlash.c ****                 (uint32) ((CY_FLASH_KEY_TWO(CY_FLASH_API_OPCODE_CLK_RESTORE) <<  CY_FLASH_PARAM_KEY
 787:Generated_Source\PSoC4/CyFlash.c ****                             CY_FLASH_KEY_ONE);
 788:Generated_Source\PSoC4/CyFlash.c ****             parameters[1u] = (uint32) &cySysFlashBackup.clockSettings[0u];
 803              		.loc 1 788 0
 804 00ec 0791     		str	r1, [sp, #28]
 789:Generated_Source\PSoC4/CyFlash.c ****             CY_FLASH_CPUSS_SYSARG_REG = (uint32) &parameters[0u];
 790:Generated_Source\PSoC4/CyFlash.c ****             CY_FLASH_CPUSS_SYSREQ_REG = CY_FLASH_CPUSS_REQ_START | CY_FLASH_API_OPCODE_CLK_RESTORE;
 805              		.loc 1 790 0
 806 00ee 1B49     		ldr	r1, .L35+52
 789:Generated_Source\PSoC4/CyFlash.c ****             CY_FLASH_CPUSS_SYSARG_REG = (uint32) &parameters[0u];
 807              		.loc 1 789 0
 808 00f0 2560     		str	r5, [r4]
 809 00f2 0F4A     		ldr	r2, .L35+8
 810              		.loc 1 790 0
 811 00f4 3160     		str	r1, [r6]
ARM GAS  e:\temp\cciiBhKe.s 			page 61


 791:Generated_Source\PSoC4/CyFlash.c ****             CY_NOP;
 812              		.loc 1 791 0
 813              		.syntax divided
 814              	@ 791 "Generated_Source\PSoC4\CyFlash.c" 1
 815 00f6 C046     		NOP
 816              	
 817              	@ 0 "" 2
 792:Generated_Source\PSoC4/CyFlash.c ****             retValue = CY_FLASH_API_RETURN;
 818              		.loc 1 792 0
 819              		.thumb
 820              		.syntax unified
 821 00f8 2168     		ldr	r1, [r4]
 822 00fa 090F     		lsrs	r1, r1, #28
 823 00fc 0F29     		cmp	r1, #15
 824 00fe 03D0     		beq	.L33
 825 0100 1168     		ldr	r1, [r2]
 826 0102 090F     		lsrs	r1, r1, #28
 827 0104 0A29     		cmp	r1, #10
 828 0106 01D0     		beq	.L17
 829              	.L33:
 830 0108 1368     		ldr	r3, [r2]
 831 010a DBB2     		uxtb	r3, r3
 832              	.L17:
 833              	.LVL9:
 834              	.LBE13:
 835              	.LBE12:
 204:Generated_Source\PSoC4/CyFlash.c **** 
 836              		.loc 1 204 0
 837 010c 0393     		str	r3, [sp, #12]
 206:Generated_Source\PSoC4/CyFlash.c ****                 {
 838              		.loc 1 206 0
 839 010e 039B     		ldr	r3, [sp, #12]
 840 0110 002B     		cmp	r3, #0
 841 0112 01D0     		beq	.L15
 208:Generated_Source\PSoC4/CyFlash.c ****                 }
 842              		.loc 1 208 0
 843 0114 039B     		ldr	r3, [sp, #12]
 844 0116 0293     		str	r3, [sp, #8]
 845              	.L15:
 212:Generated_Source\PSoC4/CyFlash.c ****         }
 846              		.loc 1 212 0
 847 0118 FFF7FEFF 		bl	CyExitCriticalSection
 848              	.LVL10:
 849 011c 01E0     		b	.L5
 850              	.LVL11:
 851              	.L2:
 217:Generated_Source\PSoC4/CyFlash.c ****     }
 852              		.loc 1 217 0
 853 011e 0423     		movs	r3, #4
 854 0120 0293     		str	r3, [sp, #8]
 855              	.LVL12:
 856              	.L5:
 220:Generated_Source\PSoC4/CyFlash.c **** }
 857              		.loc 1 220 0
 858 0122 0298     		ldr	r0, [sp, #8]
 221:Generated_Source\PSoC4/CyFlash.c **** 
 859              		.loc 1 221 0
ARM GAS  e:\temp\cciiBhKe.s 			page 62


 860 0124 4BB0     		add	sp, sp, #300
 861              		@ sp needed
 862 0126 F0BD     		pop	{r4, r5, r6, r7, pc}
 863              	.L36:
 864              		.align	2
 865              	.L35:
 866 0128 FF010000 		.word	511
 867 012c B6D70000 		.word	55222
 868 0130 08001040 		.word	1074790408
 869 0134 04001040 		.word	1074790404
 870 0138 04000080 		.word	-2147483644
 871 013c B6E90000 		.word	59830
 872 0140 00000000 		.word	.LANCHOR0
 873 0144 16000080 		.word	-2147483626
 874 0148 B6E80000 		.word	59574
 875 014c 15000080 		.word	-2147483627
 876 0150 B6D80000 		.word	55478
 877 0154 05000080 		.word	-2147483643
 878 0158 B6EA0000 		.word	60086
 879 015c 17000080 		.word	-2147483625
 880              		.cfi_endproc
 881              	.LFE0:
 882              		.size	CySysFlashWriteRow, .-CySysFlashWriteRow
 883              		.section	.text.CySysFlashSetWaitCycles,"ax",%progbits
 884              		.align	1
 885              		.global	CySysFlashSetWaitCycles
 886              		.code	16
 887              		.thumb_func
 888              		.type	CySysFlashSetWaitCycles, %function
 889              	CySysFlashSetWaitCycles:
 890              	.LFB1:
 423:Generated_Source\PSoC4/CyFlash.c ****     uint8  interruptState;
 891              		.loc 1 423 0
 892              		.cfi_startproc
 893              		@ args = 0, pretend = 0, frame = 0
 894              		@ frame_needed = 0, uses_anonymous_args = 0
 895              	.LVL13:
 896 0000 70B5     		push	{r4, r5, r6, lr}
 897              		.cfi_def_cfa_offset 16
 898              		.cfi_offset 4, -16
 899              		.cfi_offset 5, -12
 900              		.cfi_offset 6, -8
 901              		.cfi_offset 14, -4
 423:Generated_Source\PSoC4/CyFlash.c ****     uint8  interruptState;
 902              		.loc 1 423 0
 903 0002 0500     		movs	r5, r0
 426:Generated_Source\PSoC4/CyFlash.c **** 
 904              		.loc 1 426 0
 905 0004 FFF7FEFF 		bl	CyEnterCriticalSection
 906              	.LVL14:
 907 0008 0400     		movs	r4, r0
 908              	.LVL15:
 441:Generated_Source\PSoC4/CyFlash.c ****             {
 909              		.loc 1 441 0
 910 000a 102D     		cmp	r5, #16
 911 000c 04D8     		bhi	.L38
 443:Generated_Source\PSoC4/CyFlash.c ****             } else
ARM GAS  e:\temp\cciiBhKe.s 			page 63


 912              		.loc 1 443 0
 913 000e 0321     		movs	r1, #3
 914 0010 0E4A     		ldr	r2, .L44
 915 0012 1368     		ldr	r3, [r2]
 916 0014 8B43     		bics	r3, r1
 917 0016 07E0     		b	.L42
 918              	.L38:
 445:Generated_Source\PSoC4/CyFlash.c ****             {
 919              		.loc 1 445 0
 920 0018 202D     		cmp	r5, #32
 921 001a 07D8     		bhi	.L40
 447:Generated_Source\PSoC4/CyFlash.c ****             } else
 922              		.loc 1 447 0
 923 001c 0321     		movs	r1, #3
 924 001e 0B4A     		ldr	r2, .L44
 925 0020 1368     		ldr	r3, [r2]
 926 0022 8B43     		bics	r3, r1
 927 0024 0239     		subs	r1, r1, #2
 928              	.L43:
 929 0026 0B43     		orrs	r3, r1
 930              	.L42:
 931 0028 1360     		str	r3, [r2]
 932 002a 0AE0     		b	.L39
 933              	.L40:
 450:Generated_Source\PSoC4/CyFlash.c ****                 {
 934              		.loc 1 450 0
 935 002c 302D     		cmp	r5, #48
 936 002e 05D8     		bhi	.L41
 452:Generated_Source\PSoC4/CyFlash.c ****                 }
 937              		.loc 1 452 0
 938 0030 0321     		movs	r1, #3
 939 0032 064A     		ldr	r2, .L44
 940 0034 1368     		ldr	r3, [r2]
 941 0036 8B43     		bics	r3, r1
 942 0038 0139     		subs	r1, r1, #1
 943 003a F4E7     		b	.L43
 944              	.L41:
 459:Generated_Source\PSoC4/CyFlash.c ****         }
 945              		.loc 1 459 0 discriminator 1
 946 003c 0020     		movs	r0, #0
 947 003e FFF7FEFF 		bl	CyHalt
 948              	.LVL16:
 949              	.L39:
 464:Generated_Source\PSoC4/CyFlash.c **** }
 950              		.loc 1 464 0
 951 0042 2000     		movs	r0, r4
 952 0044 FFF7FEFF 		bl	CyExitCriticalSection
 953              	.LVL17:
 465:Generated_Source\PSoC4/CyFlash.c **** 
 954              		.loc 1 465 0
 955              		@ sp needed
 956              	.LVL18:
 957              	.LVL19:
 958 0048 70BD     		pop	{r4, r5, r6, pc}
 959              	.L45:
 960 004a C046     		.align	2
 961              	.L44:
ARM GAS  e:\temp\cciiBhKe.s 			page 64


 962 004c 30001040 		.word	1074790448
 963              		.cfi_endproc
 964              	.LFE1:
 965              		.size	CySysFlashSetWaitCycles, .-CySysFlashSetWaitCycles
 966              		.bss
 967              		.align	2
 968              		.set	.LANCHOR0,. + 0
 969              		.type	cySysFlashBackup, %object
 970              		.size	cySysFlashBackup, 24
 971              	cySysFlashBackup:
 972 0000 00000000 		.space	24
 972      00000000 
 972      00000000 
 972      00000000 
 972      00000000 
 973              		.text
 974              	.Letext0:
 975              		.file 2 "Generated_Source\\PSoC4\\cytypes.h"
 976              		.file 3 "Generated_Source\\PSoC4\\CyFlash.h"
 977              		.file 4 "Generated_Source\\PSoC4\\CyLib.h"