ARM GAS  e:\temp\ccQSLkZi.s 			page 1


   1              		.syntax unified
   2              		.cpu cortex-m0
   3              		.fpu softvfp
   4              		.eabi_attribute 20, 1
   5              		.eabi_attribute 21, 1
   6              		.eabi_attribute 23, 3
   7              		.eabi_attribute 24, 1
   8              		.eabi_attribute 25, 1
   9              		.eabi_attribute 26, 1
  10              		.eabi_attribute 30, 4
  11              		.eabi_attribute 34, 0
  12              		.eabi_attribute 18, 4
  13              		.thumb
  14              		.syntax unified
  15              		.file	"DP_HPD_P1.c"
  16              		.text
  17              	.Ltext0:
  18              		.section	.gnu.lto_.profile.624116cf,"",%progbits
  19 0000 789C6361 		.ascii	"x\234ca`d`a`\000\222J2\000\000\312\000I"
  19      60646061 
  19      6000924A 
  19      320000CA 
  19      0049
  20              		.text
  21              		.section	.gnu.lto_.icf.624116cf,"",%progbits
  22 0000 789C6361 		.ascii	"x\234ca`d\000\0015\006\004`cx0\355\307[n\306\223M\033"
  22      60640001 
  22      35060460 
  22      637830ED 
  22      C75B6EC6 
  23 0017 76B0303D 		.ascii	"v\2600=:\363}\017\027\363\364\335w\376\363\263\034<"
  23      3AF37D0F 
  23      17F3F4DD 
  23      77FEF3B3 
  23      1C3C
  24 0029 F9E01313 		.ascii	"\371\340\023\023\353\276\265+&11\000\000}\177\023\012"
  24      EBBEB52B 
  24      26313100 
  24      007D7F13 
  24      0A
  25              		.text
  26              		.section	.gnu.lto_.jmpfuncs.624116cf,"",%progbits
  27 0000 789C45C9 		.ascii	"x\234E\311\261\001\000 \010\300\260\026\320+\374\225"
  27      B1010020 
  27      08C0B016 
  27      D02BFC95 
  28 0010 D795C90C 		.ascii	"\327\225\311\014]Z\3108|\033\265\235\004$Thv\257\367"
  28      5D5AC838 
  28      7C1BB59D 
  28      04245468 
  28      76AFF7
  29 0023 2E215502 		.ascii	".!U\002@"
  29      40
  30              		.text
  31              		.section	.gnu.lto_.inline.624116cf,"",%progbits
  32 0000 789C658C 		.ascii	"x\234e\214\313\015\2000\014C\2354M\213\204\004\033t"
  32      CB0D8030 
ARM GAS  e:\temp\ccQSLkZi.s 			page 2


  32      0C439D34 
  32      4D8B8404 
  32      1B74
  33 0012 0346E89A 		.ascii	"\003F\350\232\\;\012#0\012#\220H(\010\341\203\017\317"
  33      5C3B0A23 
  33      300A2390 
  33      482808E1 
  33      830FCF
  34 0025 1F01C1B5 		.ascii	"\037\001\301\265\343\225\002E\211P-\342zt\350h\354\201"
  34      E3950245 
  34      89502DE2 
  34      7A74E868 
  34      EC81
  35 0037 A1F2F014 		.ascii	"\241\362\360\024\234\317E<dd!\260\214\026\375\364G\202"
  35      9CCF453C 
  35      646421B0 
  35      8C16FDF4 
  35      4782
  36 0049 A91263B5 		.ascii	"\251\022c\265\013r\223\357\217\331\354\265\014\315\266"
  36      0B7293EF 
  36      8FD9ECB5 
  36      0CCDB6
  37 0058 D46B8B25 		.ascii	"\324k\213%n2B\016g"
  37      6E32420E 
  37      67
  38              		.text
  39              		.section	.gnu.lto_.pureconst.624116cf,"",%progbits
  40 0000 789C6361 		.ascii	"x\234ca`d\340e```c\220b\224b\222b\226b\221b\225\002"
  40      6064E065 
  40      60606063 
  40      90629462 
  40      92629662 
  41 0018 00059500 		.ascii	"\000\005\225\000\304"
  41      C4
  42              		.text
  43              		.section	.gnu.lto_DP_HPD_P1_SetDriveMode.624116cf,"",%progbits
  44 0000 789C7D50 		.ascii	"x\234}P\317+DQ\024>\337\275o\236A\330*\263P\212X\210"
  44      CF2B4451 
  44      143EDFBD 
  44      6F9E41D8 
  44      2AB3508A 
  45 0016 F80F2896 		.ascii	"\370\017(\226/\2664\211\267dJ\254\335\371\361\220\025"
  45      2FB63489 
  45      B7644AAC 
  45      DDF9F190 
  45      15
  46 0027 69149212 		.ascii	"i\024\222\022\371m\222\220\3354\305\222\215,%\213\267"
  46      F96D9290 
  46      DD34C592 
  46      8D2C258B 
  46      B7
  47 0038 B01ABF4A 		.ascii	"\260\032\277J\302s\316<k\247\316=\347~}\337w\317\271"
  47      C273CE3C 
  47      6BA7CE3D 
  47      E77E7DDF 
  47      77CFB9
  48 004b 16812456 		.ascii	"\026\201$V\271\264p\255\343\204&\250\371k\242dT\001"
ARM GAS  e:\temp\ccQSLkZi.s 			page 3


  48      B9B470AD 
  48      E38426A8 
  48      F96BA264 
  48      5401
  49 005d D2982868 		.ascii	"\322\230(hJa\012\357\352[\2410\343_\250\346m\303\361"
  49      4A610AEF 
  49      EA5BA130 
  49      E35FA8E6 
  49      6DC3F1
  50 0070 E0F94ED2 		.ascii	"\340\371N\322x\265\236&\012T\311\211\260\215ff\275\236"
  50      78B59E26 
  50      0A54C989 
  50      B08D6666 
  50      BD9E
  51 0082 6C2D56EA 		.ascii	"l-V\352F\020\367\317\327\305\373\352\246-cR\306\254"
  51      4610F7CF 
  51      D7C5FBEA 
  51      A62D6352 
  51      C6AC
  52 0094 0F1AED69 		.ascii	"\017\032\355i`\007\232\025\350\210\241-F\014\020v\321"
  52      60079A15 
  52      E888A12D 
  52      460C1076 
  52      D1
  53 00a5 24E4C7E3 		.ascii	"$\344\307\343\237l\225\235\021\373\372\320\024{\260"
  53      9F6C959D 
  53      11FBFAD0 
  53      147BB0
  54 00b4 65CC5C5F 		.ascii	"e\314\\_\336\004A\332\344O\354\3133;\252X\246\264\034"
  54      DE0441DA 
  54      E44FECCB 
  54      333BAA58 
  54      A6B41C
  55 00c7 16441C91 		.ascii	"\026D\034\221\326\226\203\250\310)\223?+%U\373(|\316"
  55      D69683A8 
  55      C829933F 
  55      2B2555FB 
  55      287CCE
  56 00da DD2DDB62 		.ascii	"\335-\333b\225\326\262\305\222W\270){S\236\326\245\021"
  56      95D6B2C5 
  56      9257B829 
  56      7B539ED6 
  56      A511
  57 00ec BFCF722B 		.ascii	"\277\317r+\025\341uvz\336X\014\235n,d\261\216\265d\006"
  57      15E17576 
  57      7ADE580C 
  57      9D6E2C64 
  57      B18EB564 
  58 0101 9EB67080 		.ascii	"\236\266p\200\030\366\021\343q\016\031%\037\351\257"
  58      18F611E3 
  58      710E1925 
  58      1FE9AF
  59 0110 3F3B1D3A 		.ascii	"?;\035:\336f6\357\313\305B\341#\010\202\032\0341\333"
  59      DE6636EF 
  59      CBC542E1 
  59      2308821A 
  59      1C31DB
ARM GAS  e:\temp\ccQSLkZi.s 			page 4


  60 0123 47EAA52C 		.ascii	"G\352\245,\244E\322\332\022\331\307\237,TF\030*,A\240"
  60      A445D2DA 
  60      12D9C79F 
  60      2C544618 
  60      2A2C41A0 
  61 0137 FFDECC31 		.ascii	"\377\336\3141\312\022zB*\177~\245\204^\372\355\242\202"
  61      CA127A42 
  61      2A7F7EA5 
  61      845EFAED 
  61      A282
  62 0149 2CC8EB36 		.ascii	",\310\3536\364\270c\356\370\320\204;\022\357OL\216\017"
  62      F4B863EE 
  62      F8D0843B 
  62      12EF4F4C 
  62      8E0F
  63 015b BB034E7F 		.ascii	"\273\003N\177\242\253s\240\333\211\367:\335q\247\275"
  63      A2AB73A0 
  63      DB89F73A 
  63      DD71A7BD 
  64 016b 7598ACD1 		.ascii	"u\230\254\321\304\210\373\013i\002\222w"
  64      C488FB0B 
  64      69029277 
  65              		.text
  66              		.section	.gnu.lto_DP_HPD_P1_Write.624116cf,"",%progbits
  67 0000 789C5551 		.ascii	"x\234UQMk\023Q\024\275\347\275\371\242\261KW\006)H-"
  67      4D6B1351 
  67      14BDE7BD 
  67      F9A2B14B 
  67      57062948 
  68 0015 059116FD 		.ascii	"\005\221\026\375\001\202\205\272\014\026\304E \204v"
  68      018285BA 
  68      0C16C445 
  68      208476
  69 0024 76C142B0 		.ascii	"v\301B\260\335\366%i\022\320M]\264\256l\025\221V\253"
  69      DDF62569 
  69      12D04D5D 
  69      B4AE6C15 
  69      9156AB
  70 0037 D6080A82 		.ascii	"\326\010\012\202\3108\233\"j\305\352\242B\021)4\242"
  70      C8389B22 
  70      6AC5EAA2 
  70      42112934 
  70      A2
  71 0048 6EE247F1 		.ascii	"n\342G\361\203\332x\357\274\215\271\314\233\367\346"
  71      83DA78EF 
  71      BC8DB9CC 
  71      9BF7E6
  72 0057 CC3967CE 		.ascii	"\3149g\316\275\343\020H\352\204\"\032\344\375\000/h"
  72      BDE31048 
  72      EA84221A 
  72      E4FD002F 
  72      68
  73 0068 829A5923 		.ascii	"\202\232Y#*\005\012\220\203\011@S\012S\330Q\177\025"
  73      2A050A90 
  73      83094053 
  73      0A53D851 
  73      7F15
ARM GAS  e:\temp\ccQSLkZi.s 			page 5


  74 007a E27AF391 		.ascii	"\342z\363\221\352_4\\\037\266\177\016\230\245\010UM"
  74      EA5F345C 
  74      1FB67F0E 
  74      98A50855 
  74      4D
  75 008b D4568913 		.ascii	"\324V\211\023a\021\375\314\372\370\270\376\026\3720"
  75      6111FDCC 
  75      FAF8B8FE 
  75      16FA30
  76 009a 88CFB578 		.ascii	"\210\317\265x\247\225\352\273aL\331\230\337Y\243\253"
  76      A795EABB 
  76      614CD998 
  76      DF59A3AB 
  77 00aa 1A588266 		.ascii	"\032X\202f\005\216\2451\220&\006\0107\321'\344O\361"
  77      058EA531 
  77      90260608 
  77      37D127E4 
  77      4FF1
  78 00bc C5823E92 		.ascii	"\305\202>\222\350V\037^j\243\367\272\350\2427\253\335"
  78      E8561F5E 
  78      6AA3F7BA 
  78      E8A237AB 
  78      DD
  79 00cd 974D54EA 		.ascii	"\227MT\352\021\355\255\377\265R\314\335j\354\315v{\323"
  79      11EDADFF 
  79      B552CCDD 
  79      6AECCD76 
  79      7BD3
  80 00df 92AA07CB 		.ascii	"\222\252\007\313\350\265yp\033\036w\010AVNG\246\335"
  80      E8B57970 
  80      1B1E7708 
  80      41564E47 
  80      A6DD
  81 00f1 AE98E8B5 		.ascii	"\256\230\350\265\377t\303\357R\374U\245\371\246\035"
  81      FF74C3EF 
  81      52FC55A5 
  81      F9A61D
  82 0100 92D72E24 		.ascii	"\222\327.$\201'\200\237\000\201\020\210Z\274d\010_\225"
  82      8127809F 
  82      00811088 
  82      5ABC6408 
  82      5F95
  83 0112 925D3711 		.ascii	"\222]7\021\377\271\2606?)\326\025-\003\231\253\306\257"
  83      FFB9B036 
  83      3F29D615 
  83      2D0399AB 
  83      C6AF
  84 0124 FC1FAAAA 		.ascii	"\374\037\252\252\235$\365\367\253\263\317\366\331GS"
  84      9D24F5F7 
  84      ABB3CFF6 
  84      D94753
  85 0133 9B310E43 		.ascii	"\2331\016C/\227\237l\007\013\270R\232\346Q\271\270\213"
  85      2F979F6C 
  85      070BB852 
  85      9AE651B9 
  85      B88B
  86 0145 34EE80A3 		.ascii	"4\356\200\243c\005\013\240&\312\337\352\233\312\032"
ARM GAS  e:\temp\ccQSLkZi.s 			page 6


  86      63050BA0 
  86      26CADFEA 
  86      9BCA1A
  87 0154 6AF664A4 		.ascii	"j\366d\244\262[\333\204E\034\006\331c\343\313\372\363"
  87      B25BDB84 
  87      451C06D9 
  87      63E3CBFA 
  87      F3
  88 0165 94D86AEC 		.ascii	"\224\330j\354\001\367X\276\205D#Y\231eE\353\007\255"
  88      01F758BE 
  88      85442359 
  88      996545EB 
  88      07AD
  89 0177 882F9745 		.ascii	"\210/\227E\017\352/\032]\"\002W\2035L\372\345Y\212\237"
  89      0FEA2F1A 
  89      5D220257 
  89      83354CFA 
  89      E5598A9F 
  90 018b 587B9D36 		.ascii	"X{\2356\276M\363~\376\254%\005\026\212\347\256\355\027"
  90      BE4DF37E 
  90      FEAC2505 
  90      168AE7AE 
  90      ED17
  91 019d A0A39792 		.ascii	"\240\243\227\2221\251\316v\356s;\254\241\317(G\357\206"
  91      31A9CE76 
  91      EE733BAC 
  91      A1CF2847 
  91      EF86
  92 01af 4590FC9E 		.ascii	"E\220\374\236\226\202\214\216\007yh8<\027\026\363\347"
  92      96828C8E 
  92      07796838 
  92      3C1716F3 
  92      E7
  93 01c0 C3B1DCC8 		.ascii	"\303\261\334\310\370Dq4\314fF\306O\036\317\016er\247"
  93      F8447134 
  93      CC6646C6 
  93      4F1ECF0E 
  93      6572A7
  94 01d3 3243B9CC 		.ascii	"2C\271\314\340\321Qr'\363\205\211\320\035+\236\311\027"
  94      E0D15172 
  94      27F38589 
  94      D01D2B9E 
  94      C917
  95 01e5 FE010FA7 		.ascii	"\376\001\017\247\307R"
  95      C752
  96              		.text
  97              		.section	.gnu.lto_DP_HPD_P1_Read.624116cf,"",%progbits
  98 0000 789C2D4E 		.ascii	"x\234-N1HBQ\024\275\347\275\237\311\217\366 \207 \032"
  98      31484251 
  98      14BDE7BD 
  98      9FC98FF6 
  98      2087201A 
  99 0014 5CA2A8A5 		.ascii	"\\\242\250\2459\241\306On!H\330_\023\244f\237\372\177"
  99      39A1C64F 
  99      6E2148D8 
  99      5F13A466 
  99      9FFA7F
ARM GAS  e:\temp\ccQSLkZi.s 			page 7


 100 0027 4234B854 		.ascii	"B4\270T\020\204[j\005\241\221\2639\005E5\265\264D\204"
 100      10845B6A 
 100      05A191B3 
 100      39054535 
 100      B5B44484 
 101 003b 43534621 		.ascii	"CSF!De\367\366\273\360\270\367\236w\3569\307\"\220\324"
 101      4465F7F6 
 101      BBF0B8F7 
 101      9E77EE39 
 101      C72290D4 
 102 004f 08B709EE 		.ascii	"\010\267\011\356\243\374\240\011\252tC\224\013+@\006"
 102      A3FCA009 
 102      AA744394 
 102      0B2B4006 
 103 005f 13066515 		.ascii	"\023\006e\025\262\370P\337\012W\275\313m;Z1&o\036\375"
 103      B2F850DF 
 103      0A57BDCB 
 103      6D3B5A31 
 103      266F1EFD 
 104 0073 C3B9BD6A 		.ascii	"\303\271\275j\013\276&\352+\302L\004S\021\221\250 J"
 104      0BBE26EA 
 104      2BC24C04 
 104      531191A8 
 104      204A
 105 0085 4C7DAAFF 		.ascii	"L}\252\377\354\014\207<\3035&\004\376\251\"$\226\247"
 105      EC0C873C 
 105      C3352604 
 105      FEA92224 
 105      96A7
 106 0097 4B2DD3EF 		.ascii	"K-\323\357\027L\353\314\276h\332\003\212|\315\276\276"
 106      174CEBCC 
 106      BE68DA03 
 106      8A7CCDBE 
 106      BE
 107 00a8 56168918 		.ascii	"V\026\211\030\2752Y\254\273JI\327\035\264?\267\356k"
 107      BD3259AC 
 107      BB4A49D7 
 107      1DB43FB7 
 107      EE6B
 108 00ba CB725FD0 		.ascii	"\313r_\320\022c\327o\337\016\276+_k\210\325]\267\331"
 108      1263D76F 
 108      DF0EBE2B 
 108      5F6B88D5 
 108      5DB7D9
 109 00cd 0807ABB7 		.ascii	"\010\007\253\267Y2\026C\275\306\376\303P\031\0079\217"
 109      59321643 
 109      BDC6FEC3 
 109      50190739 
 109      8F
 110 00de 035A3842 		.ascii	"\003Z8B\0045p<\034\243\014\352 \377V|F \250Y\223\221"
 110      0435703C 
 110      1CA30CEA 
 110      20FF567C 
 110      4620A859 
 111 00f4 C25728D8 		.ascii	"\302W(\330-\206X\341\274x]\267E\224\000\234\360\355"
 111      2D8658E1 
 111      BC785DB7 
ARM GAS  e:\temp\ccQSLkZi.s 			page 8


 111      4594009C 
 111      F0ED
 112 0106 0BD43F81 		.ascii	"\013\324?\201\376BB\302q\324\361\005w\315\315\254\254"
 112      FE4242C2 
 112      71D4F105 
 112      77CDCDAC 
 112      AC
 113 0117 BBABC978 		.ascii	"\273\253\311xz#\223r\023N<=?\233\2109\311E'\226t\246"
 113      7A239372 
 113      134E3C3D 
 113      3F9B8839 
 113      C9452796 
 114 012d 2753F40B 		.ascii	"'S\364\013\270\274h\326"
 114      B8BC68D6 
 115              		.text
 116              		.section	.gnu.lto_DP_HPD_P1_ReadDataReg.624116cf,"",%progbits
 117 0000 789C2D4E 		.ascii	"x\234-N\277KBa\024\275\347\373^&Z{\220C\020\015.Q\324"
 117      BF4B4261 
 117      14BDE7FB 
 117      5E265A7B 
 117      9043100D 
 118 0017 D29C50E3 		.ascii	"\322\234P\343#\267\020$\354\255\011R\263\237>_B4\270"
 118      23B71024 
 118      ECAD0952 
 118      B39F3E5F 
 118      4234B8
 119 002a 5843946D 		.ascii	"XC\224mZ\012!\321\032\346T\364\353_\210(\207\246~\007"
 119      5A0A21D1 
 119      1AE654F4 
 119      EB5F8828 
 119      87A67E07 
 120 003e 51BDEECD 		.ascii	"Q\275\356\315.|\334{\317w\3569\307\"\220\324\000\267"
 120      2E7CDC7B 
 120      CF77EE39 
 120      C72290D4 
 120      00B7
 121 0050 11EE83FC 		.ascii	"\021\356\203\374\240\011\252tE\224\013*@\006\023\004"
 121      A009AA74 
 121      45940B2A 
 121      40061304 
 122 0060 6515B278 		.ascii	"e\025\262xS\337\012\347\037\247\353\241h\325\230\274"
 122      53DF0AE7 
 122      1FA7EBA1 
 122      68D598BC 
 123 0070 B9F10EA7 		.ascii	"\271\361\016\2476k-x\232\310W\204\211\010\306\"\"QE"
 123      366B2D78 
 123      9AC85784 
 123      8908C622 
 123      225145
 124 0083 94987ADB 		.ascii	"\224\230z\333\374)\367\007\012\206kH\010\374SC@,\017"
 124      FC29F707 
 124      0A866B48 
 124      08FC5343 
 124      402C0F
 125 0096 E65AC6F7 		.ascii	"\346Z\306\367]\323\332\012\237\354\204{\024y\232}=\255"
 125      5DD3DA0A 
 125      9FEC847B 
ARM GAS  e:\temp\ccQSLkZi.s 			page 9


 125      14799A7D 
 125      3DAD
 126 00a8 2C12317A 		.ascii	",\0221zd\262X?)%]w\320\376\\{o\314\313\275\253%\306"
 126      64B2583F 
 126      29255D77 
 126      D0FE5C7B 
 126      6FCCCBBD 
 127 00bf 86D7BEEE 		.ascii	"\206\327\276\356}U\236\326\020\253\227\335\362Y_w5\253"
 127      7D559ED6 
 127      10AB97DD 
 127      F2595F77 
 127      35AB
 128 00d1 25633174 		.ascii	"%c1tY?\276\017V\260\235+p@\013\373\210`\017\034\017"
 128      593FBE0F 
 128      56B09D2B 
 128      70400BFB 
 128      88600F1C 
 129 00e6 7554401D 		.ascii	"uT@\035\344\237\213w\350\012j\326d\304\375\012tw\213"
 129      E49F8B77 
 129      E80A6AD6 
 129      64C4FD0A 
 129      74778B
 130 00f9 2156382A 		.ascii	"!V8*^4C\"J\000\032|\373\000\365O\240\277\220\220p\034"
 130      5E344322 
 130      4A001A7C 
 130      FB00F54F 
 130      A0BF9090 
 131 010f 7578C659 		.ascii	"ux\306Yr2\013\313\316b2\236^\311\244\234\204\035OOO"
 131      72320BCB 
 131      CE62329E 
 131      5EC9A49C 
 131      841D4F4F 
 132 0124 26627672 		.ascii	"&bvr\326\216%\355\361\321\024\375\002\221fh\232"
 132      D68E25ED 
 132      F1D114FD 
 132      02916668 
 132      9A
 133              		.text
 134              		.section	.gnu.lto_DP_HPD_P1_SetInterruptMode.624116cf,"",%progbits
 135 0000 789C6D51 		.ascii	"x\234mQMh\023A\024~of\223\335$m\352\315\203=\004\244"
 135      4D681341 
 135      147E6F66 
 135      93DD246D 
 135      EACD833D 
 136 0016 865E9442 		.ascii	"\206^\224Bo\036[\320\223\004{-\204\322F\311\301Db<w"
 136      6F1E5BD0 
 136      93047B2D 
 136      84D246C9 
 136      C144623C 
 137 002b 924D5228 		.ascii	"\222MR(V\212b\300b\011*K\243U\333\264U\261\2475\350"
 137      568A62C0 
 137      62092A4B 
 137      A355DBB4 
 137      55B1A735 
 138 0040 41D14A15 		.ascii	"A\321J\025\361\027\221\226\246P{H[E\021m|o7\227\202"
 138      F1179196 
 138      A6507B48 
ARM GAS  e:\temp\ccQSLkZi.s 			page 10


 138      5B45116D 
 138      7C6F3797 
 139 0055 03BB33EF 		.ascii	"\003\2733\357\343\373\276\371\336\033\015\020x\225\005"
 139      E3FBBEF9 
 139      DE1B0D10 
 139      789505
 140 0064 C051DA0F 		.ascii	"\300Q\332\017\320\207\022P\214/\001d\014\201\310\007"
 140      D0871250 
 140      8C2F0164 
 140      0C81C807 
 141 0074 65200C0B 		.ascii	"e \014\013\034\306\037\342\257\300\352H\355\221\350"
 141      1CC61FE2 
 141      AFC0EA48 
 141      ED91E8
 142 0083 9C52B4BE 		.ascii	"\234R\264\276\256\255w\251\262\215y\011\320\020\216"
 142      AEAD77A9 
 142      B28D7909 
 142      D0108E
 143 0092 13E01476 		.ascii	"\023\340\024v\022\353i\343\247\335\366]\344%\"\213^"
 143      12EB69E3 
 143      A7DDF65D 
 143      E425228B 
 143      5E
 144 00a3 D75F4C06 		.ascii	"\327_L\006\270\024\270\217\312\211\015\253\030\224\207"
 144      B814B88F 
 144      CA890DAB 
 144      189487
 145 00b2 10E8BCBE 		.ascii	"\020\350\274\276p\343\235?l)\225U\2522\240<y)\3616J"
 145      70E39D3F 
 145      6C299555 
 145      AA32A03C 
 145      7929F136 
 146 00c7 F2C35BD8 		.ascii	"\362\303[\330\216el\007\202\000\2471L\354\235y\353r"
 146      8E656C07 
 146      8200A731 
 146      4CEC9D79 
 146      EB72
 147 00d9 401E7194 		.ascii	"@\036q\224\333\246e\2664\225;M\345\235\377(\357b\230"
 147      DBA665B6 
 147      34953B4D 
 147      E59DFF28 
 147      EF6298
 148 00ec E9CBB9D9 		.ascii	"\351\313\271\331k\322\215\244Q\271\365rb5\350F\012Q"
 148      6BD28DA4 
 148      51B9F572 
 148      6235E846 
 148      0A51
 149 00fe 396DBDB5 		.ascii	"9m\275\265\204\354v\214G?\\\232k\355\270\311\306\366"
 149      84EC768C 
 149      473F5C9A 
 149      6BEDB8C9 
 149      C6F6
 150 0110 9B8BC1AB 		.ascii	"\233\213\301\253\312\316\205\362R\303Y\327|\206\314"
 150      CACE85F2 
 150      52C359D7 
 150      7C86CC
 151 011f EF91392F 		.ascii	"\357\2219/b\257Tv\257\264zs<\220\020V\260\303\035\005"
ARM GAS  e:\temp\ccQSLkZi.s 			page 11


 151      62AF5476 
 151      AFB47A73 
 151      3C901056 
 151      B0C31D05 
 152 0133 CEA19786 		.ascii	"\316\241\227\206\213\214\314\234\264U\243a*{9\370\370"
 152      8B8CCC9C 
 152      B455A361 
 152      2A7B39F8 
 152      F8
 153 0144 63B04550 		.ascii	"c\260EP,\017\245\240\2164>z\370\347\005f\352\310i\015"
 153      2C0FA5A0 
 153      8E343E7A 
 153      F8E70566 
 153      EAC8690D 
 154 0158 02BC3E46 		.ascii	"\002\274>F\375\374\003\250\223#\277\304\226\020\274"
 154      FDFC03A8 
 154      9323BFC4 
 154      9610BC
 155 0167 CB1A567F 		.ascii	"\313\032V\177\217~Y\214\360%\246\344\001\027\363\325"
 155      8F7E598C 
 155      F025A6E4 
 155      0117F3D5 
 156 0177 573A77A3 		.ascii	"W:w\243;\035</\255.I\267\274P\030W\334\357\267\261g"
 156      3B1D3C2F 
 156      AD2E49B7 
 156      BC501857 
 156      DCEFB7B1 
 157 018c 0FB5124E 		.ascii	"\017\265\022Nfr\364^\006.P\023\363\334\004\336\307\022"
 157      6672F45E 
 157      062E5013 
 157      F3DC04DE 
 157      C712
 158 019e 420DB3DB 		.ascii	"B\015\263\333#\233\036\327P3il\204\354\026>k.\342!\220"
 158      239B1ED7 
 158      5033696C 
 158      84EC163E 
 158      6B2EE221 
 159 01b3 10F34F61 		.ascii	"\020\363Oa\023]\204\357%\034VP8\255Rx\002]Nm\361}\223"
 159      135D84EF 
 159      251C5650 
 159      38AD5278 
 159      025D4E6D 
 160 01ca 65909329 		.ascii	"e\220\223)u\307^w!\037\241L\373Ux\3224\367;n>\002\253"
 160      75C75E77 
 160      211FA14C 
 160      FB5578D2 
 160      34F73B6E 
 161 01e1 C5EBFB19 		.ascii	"\305\353\373\031\333\0237\243T`o\342\007\224\230d\260"
 161      DB1337A3 
 161      54606FE2 
 161      07949864 
 161      B0
 162 01f2 8159FBD3 		.ascii	"\201Y\373\323\011\0268oQ\027\310\323\241Y\035<\026K"
 162      0916386F 
 162      5117C8D3 
 162      A1591D3C 
 162      164B
ARM GAS  e:\temp\ccQSLkZi.s 			page 12


 163 0204 C45203E9 		.ascii	"\304R\003\351\330P\264/y>5\030\353\217\364%{\272\373"
 163      D850B42F 
 163      793E3518 
 163      EB8FF425 
 163      7BBAFB
 164 0217 7B23D1E3 		.ascii	"{#\321\343\221\336h\244\353\360 \030g\223\347\342\351"
 164      91DE68A4 
 164      EBF02018 
 164      6793E7E2 
 164      E9
 165 0228 7832A19D 		.ascii	"x2\241\235I\016\305\364x\"\235\3529u\372\037\224\260"
 165      490EC5F4 
 165      78229DEA 
 165      3975FA1F 
 165      94B0
 166 023a EE02     		.ascii	"\356\002"
 167              		.text
 168              		.section	.gnu.lto_DP_HPD_P1_ClearInterrupt.624116cf,"",%progbits
 169 0000 789C5590 		.ascii	"x\234U\220\275KcA\024\305\357\231y\321\020t\375\003"
 169      BD4B6341 
 169      14C5EF99 
 169      79D11074 
 169      FD03
 170 0012 4C218882 		.ascii	"L!\210\202\315\342\272\333X+h\031L\263\205\020\202\276"
 170      CDE2BADB 
 170      582B6819 
 170      4CB38510 
 170      82BE
 171 0024 4A5C4163 		.ascii	"J\\Ac\253\223\304\027A\004\323\030+\261X\330\270~\""
 171      AB93C417 
 171      4104D318 
 171      2BB158D8 
 171      B87E22
 172 0037 ECDA48F0 		.ascii	"\354\332H\360\031\003\012\242\262\026\332\212\273X,"
 172      19030AA2 
 172      B216DA8A 
 172      BB582C
 173 0046 082A7EE0 		.ascii	"\010*~\340g\2747\317B\007\0363s\346\236\337;\367Z\004"
 173      67BC37CF 
 173      42071E33 
 173      73E69EDF 
 173      3BF75A04 
 174 005a 92B5CA5B 		.ascii	"\222\265\312[\023\357\325\374A\023Tz\217(\356W\200\034"
 174      13EFD5FC 
 174      4113547A 
 174      8F28EE57 
 174      801C
 175 006c 8C1F34AC 		.ascii	"\214\0374\2540\214k\365\244\260s\273=\036h\310\032\223"
 175      308C6BF5 
 175      A4B073BB 
 175      3D1E68C8 
 175      1A93
 176 007e 30C7CE6D 		.ascii	"0\307\316m\363\324\254\013G\023\025\025\341s\020\215"
 176      F3D4AC0B 
 176      47131515 
 176      E173108D 
 177 008e 414164D1 		.ascii	"AAd\321@\\\372w\351![\251\353!\347\335\037g\277Q\367"
ARM GAS  e:\temp\ccQSLkZi.s 			page 13


 177      405CFA77 
 177      E9215BA9 
 177      EB21E7DD 
 177      1F67BF51 
 178 00a3 5D6C6E6E 		.ascii	"]lnn\242b\312\270\361\032\366a\026\372\255\225\244\366"
 178      A262CAB8 
 178      F11AF661 
 178      16FAAD95 
 178      A4F6
 179 00b5 64E579B2 		.ascii	"d\345y\262\262l\304\360\252\301O\324\011\234\251s(\343"
 179      B26CC4F0 
 179      AAC14FD4 
 179      099CA973 
 179      28E3
 180 00c7 9C1065B9 		.ascii	"\234\020e\271\3035\305b\322\270kU\033\007U\345\212\034"
 180      C335C562 
 180      D2B86B55 
 180      1B0755E5 
 180      8A1C
 181 00d9 CDB91DAD 		.ascii	"\315\271\035\255,\222g\237\334\211\316\331&\015\\(%"
 181      2C92679F 
 181      DC89CED9 
 181      260D5C28 
 181      25
 182 00ea BB3E45FE 		.ascii	"\273>E\376~\354&7$\244\244\226f2N~\277\374J9Z\227B\036"
 182      7EEC2637 
 182      24A4A496 
 182      66324E7E 
 182      BFFC4A39 
 183 0102 6EAE4F07 		.ascii	"n\256O\007\274k:\2256\026Kw\273G\3770\203\351\370\010"
 183      BC6B3A95 
 183      36164B77 
 183      BB47FF30 
 183      83E9F808 
 184 0116 B7696101 		.ascii	"\267ia\001A\314\203\223b\221U:E\342r\364Qy@\315LV\222"
 184      41CC8393 
 184      6291553A 
 184      45E272F4 
 184      517940CD 
 185 012d 8FA9023C 		.ascii	"\217\251\002<\305b\221\031\277\012[)\277`y\240Xb\367"
 185      C5629119 
 185      BF0A5B29 
 185      BF6079A0 
 185      5862F7
 186 0140 094A1689 		.ascii	"\011J\026\211\312E\036\3459\367\3253\371<)\237)A\336"
 186      CA451EE5 
 186      39F7D533 
 186      F93C299F 
 186      2941DE
 187 0153 45881BE3 		.ascii	"E\210\033\343{\237b\231\037\330B\377\221p\377L|x\375"
 187      7B9F6299 
 187      1FD842FF 
 187      9170FF4C 
 187      7C78FD
 188 0166 ADCCF15C 		.ascii	"\255\314\361\\A\232\346\021\324\266\331\337\354\376"
 188      419AE611 
 188      D4B6D9DF 
ARM GAS  e:\temp\ccQSLkZi.s 			page 14


 188      ECFE
 189 0174 68CCEE8E 		.ascii	"h\314\356\216\204\373\006\373\273\354\316P\270\257\345"
 189      84FB06FB 
 189      BBECCE50 
 189      B8AFE5
 190 0183 4B676B28 		.ascii	"Kgk(\322\036j\215\204>}\354\242\212\336\350@\217\335"
 190      D21E6A8D 
 190      843E7DEC 
 190      A28ADEE8 
 190      408FDD
 191 0196 1D8E4563 		.ascii	"\035\216Ec\203\003/A\315\241\304"
 191      83032F41 
 191      CDA1C4
 192              		.text
 193              		.section	.gnu.lto_.symbol_nodes.624116cf,"",%progbits
 194 0000 789C6361 		.ascii	"x\234ca`d\310`\000\002&\206z\006\206\011\347\030@\324"
 194      6064C860 
 194      00022686 
 194      7A068609 
 194      E71840D4 
 195 0014 AE0645A0 		.ascii	"\256\006E\240\000c=#\252\000S=\023\252\000s=3\252\000"
 195      00633D23 
 195      AA00533D 
 195      13AA0073 
 195      3D33AA00 
 196 0028 4B3D0BAA 		.ascii	"K=\013\252\000k=+\212\000\003\000\305\333\026\342"
 196      006B3D2B 
 196      8A000300 
 196      C5DB16E2 
 197              		.text
 198              		.section	.gnu.lto_.refs.624116cf,"",%progbits
 199 0000 789C6361 		.ascii	"x\234ca`\004B \000\000\0009\000\007"
 199      60044220 
 199      00000039 
 199      0007
 200              		.text
 201              		.section	.gnu.lto_.decls.624116cf,"",%progbits
 202 0000 789C8D54 		.ascii	"x\234\215T]LTG\024\236s\357\356*\027\020C\254!\315>"
 202      5D4C5447 
 202      149E73EF 
 202      EE2A1710 
 202      43AC21CD 
 203 0015 50DAECEE 		.ascii	"P\332\354\356\023)bL\373\3224\201T\232\364\207Hj_L\310"
 203      1329624C 
 203      FBD23481 
 203      549AF487 
 203      486A5F4C 
 204 002a 0A3796C4 		.ascii	"\0127\226\304\200\331.&\2764\023\025k+\215\324\237\026"
 204      80D92E26 
 204      BE341315 
 204      6B2B8DD4 
 204      9F16
 205 003c 0CA428B6 		.ascii	"\014\244(\266]D\376\204Ev\375a\261\260  \310\232\266"
 205      5D44FE84 
 205      4576FD61 
 205      B1B02020 
 205      C89AB6
ARM GAS  e:\temp\ccQSLkZi.s 			page 15


 206 004f 5A52B141 		.ascii	"ZR\261AH\253\306R\323\264\325\246\336\236\231\271\273"
 206      48ABC652 
 206      D3B4D5A6 
 206      DE9E99B9 
 206      BB
 207 0060 73A96BC3 		.ascii	"s\251k\303d\317\314\2343\347|\347\234\357\236\254\215"
 207      64CFCC9C 
 207      33E77CE7 
 207      9CEF9EAC 
 207      8D
 208 0071 0061EBB1 		.ascii	"\000a\353\261\235\220;x6\243j\340Z\201\367\315D.\007"
 208      9D903B78 
 208      36A36AE0 
 208      5A81F7CD 
 208      442E07
 209 0084 4A0F4A10 		.ascii	"J\017J\020\245\037%\2142\204\022%O.\346g7\343;P\334"
 209      A51F258C 
 209      32841225 
 209      4F2EE667 
 209      37E33B50 
 210 0099 28319469 		.ascii	"(1\224i\363\035L\237\377\256\240\231\307\032\347L\022"
 210      F31D4C9F 
 210      FFAEA099 
 210      C71AE74C 
 210      12
 211 00aa 1B4C12DB 		.ascii	"\033L\022\333o\346\374\277\270\376$q\341e\304\205\223"
 211      6FE6FCBF 
 211      B8FE2471 
 211      E165C485 
 211      93
 212 00bb C4B1DE53 		.ascii	"\304\261\336S\314Z3Q\326\240\014\240L\2308\256$8CIp"
 212      CC5A3351 
 212      D6A00CA0 
 212      4C9838AE 
 212      24384349 
 213 00d0 A2CBC89F 		.ascii	"\242\313\310\237\214\343\177\0240\232:\002)3p\003\024"
 213      8CE37F14 
 213      309A3A02 
 213      29337003 
 213      14
 214 00e1 303F2201 		.ascii	"0?\"\001\020;p!B\270\212\027\205\357$aJ\034\204\355"
 214      103B7021 
 214      42B88A17 
 214      85EF2461 
 214      4A1C84ED 
 215 00f5 44F8739B 		.ascii	"D\370s\233\004\343\277\370i\304\027\007\221\350`\006"
 215      04E3BFF8 
 215      69C41707 
 215      91E86006 
 216 0105 41A20211 		.ascii	"A\242\002\021%\336\025\323\215\010pE\006X\360D\271\226"
 216      25DE15D3 
 216      8D087045 
 216      0658F044 
 216      B996
 217 0117 9A60694F 		.ascii	"\232`iO\020o\372\372\341\205v\233\212\230x\237}\030"
 217      106FFAFA 
 217      E185769B 
ARM GAS  e:\temp\ccQSLkZi.s 			page 16


 217      8A98789F 
 217      7D18
 218 0129 782DF734 		.ascii	"x-\3674\305UG\251\362\262d\246\263\346v\353\312\337"
 218      C55547A9 
 218      F2B264A6 
 218      B3E676EB 
 218      CADF
 219 013b 15706A60 		.ascii	"\025pj`\000\323\357\205\036\246\013\235=7|:\3678U\315"
 219      00D3EF85 
 219      1EA60B9D 
 219      3D377C3A 
 219      F73855CD 
 220 014f 6177E5DA 		.ascii	"aw\345\332\\\333/6\360h_1\230[\335\335\257\204(]\015"
 220      5CDB2F36 
 220      F0685F31 
 220      985BDDDD 
 220      AF84285D 
 221 0164 1DA0C169 		.ascii	"\035\240\301iP\241\025rYr\247\206\373~Jw\323\305\023"
 221      50A11572 
 221      5972A786 
 221      FB7E4A77 
 221      D3C513
 222 0177 D4914520 		.ascii	"\324\221E \337\011/:\011\264\203\207a2/h\003'\234\002"
 222      DF092F3A 
 222      09B48387 
 222      61322F68 
 222      03279C02 
 223 018b 27C39FFF 		.ascii	"'\303\237\377\374\213\273\016\233\202\201\014g\253\215"
 223      FC8BBB0E 
 223      9B82810C 
 223      67AB8D
 224 019a D9868D3F 		.ascii	"\331\206\215?#\031XB\246\006\012\252\261\305\211\246"
 224      23195842 
 224      A6060AAA 
 224      B1C589A6 
 225 01aa 5454D768 		.ascii	"TT\327h\260\032\325\311#7b\220\365\031\253\201\356\241"
 225      B01AD5C9 
 225      23376290 
 225      F519AB81 
 225      EEA1
 226 01bc D90A6C5E 		.ascii	"\331\012l^\013\335\010\330\205\200\004\316@\026\356"
 226      0BDD08D8 
 226      858004CE 
 226      4016EE
 227 01cb 9D6013DD 		.ascii	"\235`\023\3355M\035\274\240\3444\323\346.z+\270\357"
 227      354D1DBC 
 227      A0E434D3 
 227      E62E7A2B 
 227      B8EF
 228 01dd 8DE32DFB 		.ascii	"\215\343-\373\350U\214{\225;B@\226\215Wv|\0153Hf\017"
 228      E8558C7B 
 228      953B4240 
 228      968D5776 
 228      7C0D3348 
 229 01f3 E460ECF8 		.ascii	"\344`\354\370\202Q\007j%\247\341\330\341\346\0036\201"
 229      8251076A 
 229      25A7E1D8 
ARM GAS  e:\temp\ccQSLkZi.s 			page 17


 229      E1E60336 
 229      81
 230 0204 1319F850 		.ascii	"\023\031\370Pm\240\221\335\010\243p\224^\211\322kE\011"
 230      6DA091DD 
 230      08A37094 
 230      5E89D26B 
 230      4509
 231 0216 729443B1 		.ascii	"r\224C\261`\237]\375\200\2434\325\265\234J\265\226\316"
 231      609F5DFD 
 231      80A334D5 
 231      B59C4AB5 
 231      96CE
 232 0228 7A96B59F 		.ascii	"z\226\265\237\345\265o5K?Z{\362\327\025f\312\3561\231"
 232      E5B56F35 
 232      4B3F5A7B 
 232      F2D71566 
 232      CAEE3199 
 233 023c 12BDA04F 		.ascii	"\022\275\240O\246\354\263\246\354\347)k\002'\037\331"
 233      A6ECB3A6 
 233      ECE7296B 
 233      02271FD9 
 234 024c D54F80E7 		.ascii	"\325O\200\347\274\377`\346\266\311@\244~<M\264\317A"
 234      BCFF60E6 
 234      B6C940A4 
 234      7E3C4DB4 
 234      CF41
 235 025e 42122464 		.ascii	"B\022$d\005\011s\220I\343P\255Cm\021 _>\372{Q\305O\340"
 235      05097390 
 235      49E350AD 
 235      436D1120 
 235      5F3EFA7B 
 236 0276 C2213154 		.ascii	"\302!1T\313\224\270\304\224\004\216G{4\365\"wV\356\367"
 236      CB94B8C4 
 236      94048E47 
 236      7B34F522 
 236      7756EEF7 
 237 028a 8E5C4F07 		.ascii	"\216\\O\007\315\303\207\000\373\324<$\321$Dp\014\\\346"
 237      CDC38700 
 237      FBD43C24 
 237      D1244470 
 237      0C5CE6
 238 029d 185C40E3 		.ascii	"\030\\@\343y4\232\363\024\024\3634\200\234\\\224\245"
 238      79349AF3 
 238      1414F334 
 238      809C5C94 
 238      A5
 239 02ae B9344147 		.ascii	"\2714AG}\313A\017\237\223\201\304\234\014\266/Lh\011"
 239      7DCB410F 
 239      9F9381C4 
 239      9C0CB62F 
 239      4C6809
 240 02c1 DB2070E3 		.ascii	"\333 p\343\211\237\357\366\245?u<\276\341\024_\212\217"
 240      899FEFF6 
 240      A53F753C 
 240      BEE1145F 
 240      8A8F
 241 02d3 47E377A3 		.ascii	"G\343w\2433)\361\361\210\276=w\206\322\032\214\2631"
ARM GAS  e:\temp\ccQSLkZi.s 			page 18


 241      3329F1F1 
 241      88BE3D77 
 241      86D21A8C 
 241      B331
 242 02e5 3F38278B 		.ascii	"?8'\2138g\345g\210\363\023\030\351\254\267\253\303\202"
 242      3867E567 
 242      88F31318 
 242      E9ACB7AB 
 242      C382
 243 02f7 9FC1EF8F 		.ascii	"\237\301\357\217\274`r\034\232Z\372\251\206%\312\260"
 243      BC60721C 
 243      9A5AFAA9 
 243      8625CAB0 
 244 0307 1525CA51 		.ascii	"\025%\312Q\246\367v5\252b\324m\250\376v\345\330\334"
 244      A6F77635 
 244      AA62D46D 
 244      A8FE76E5 
 244      D8DC
 245 0319 2A31EAD9 		.ascii	"*1\352\331\250\3768\332\332\306^\335\214v\303\310\260"
 245      A8FE38DA 
 245      DAC65EDD 
 245      8C76C3C8 
 245      B0
 246 032a 10EF16C4 		.ascii	"\020\357\026\304\217\315\316?HQo\012\342c\015\367f\035"
 246      8FCDCE3F 
 246      48516F0A 
 246      E2630DF7 
 246      661D
 247 033c 71E2EBF6 		.ascii	"q\342\353\366\320\314\"\002\243\330\372\010#\376\012"
 247      D0CC2202 
 247      A3D8FA08 
 247      23FE0A
 248 034b 12EF3689 		.ascii	"\022\3576\211\037C\343eI|H\020?\201$\216\313j\335&\361"
 248      1F43E365 
 248      497C4810 
 248      3F81248E 
 248      CB6ADD26 
 249 0360 1FFD74F4 		.ascii	"\037\375t\364\007\273\266\237\261\271\034L\214\010\337"
 249      07BBB69F 
 249      B1B91C4C 
 249      8C08DF
 250 036f A48D7675 		.ascii	"\244\215vu^\024\365\355\201\263\365j\374O#2}\247h/\245"
 250      5E14F5ED 
 250      81B3F56A 
 250      FC4F2332 
 250      7DA7682F 
 251 0384 00D3986B 		.ascii	"\000\323\230kJ\346\232\004\363_\343\311\034W\223\347"
 251      4AE69A04 
 251      F35FE3C9 
 251      1C5793E7 
 252 0394 F8E3AFCB 		.ascii	"\370\343\257\313\265ii\037':\345\210\361 \0021H\343"
 252      B569691F 
 252      273AE588 
 252      F1200231 
 252      48E3
 253 03a6 FF87EC5C 		.ascii	"\377\207\354\\[X\\ZT\\XZ\234WZ\242\373\013}\025;\365"
 253      5B585C5A 
ARM GAS  e:\temp\ccQSLkZi.s 			page 19


 253      545C585A 
 253      9C575AA2 
 253      FB0B7D15 
 254 03bc 37ABCAF5 		.ascii	"7\253\312\365\225\033\337z'\273 /\217\330\253+*\375"
 254      951BDF7A 
 254      27BB202F 
 254      8FD8AB2B 
 254      2AFD
 255 03ce 2F3DB751 		.ascii	"/=\267Q\257\324}^\277^^ZRU\355+\323\267\024\227T\025"
 255      AFD47D5E 
 255      BF5E5E5A 
 255      5255ED2B 
 255      D3B71497 
 256 03e4 ACDF52B6 		.ascii	"\254\337R\266\313\277k\207\376~\356{\344\371\247x$\340"
 256      CBBF6B87 
 256      FE7EEE7B 
 256      E4F9A778 
 256      24E0
 257 03f6 73CB4886 		.ascii	"s\313H\206\314\365\256\257\302\257\257\222\372&\335"
 257      CCF5AEAF 
 257      C2AFAF92 
 257      FA26DD
 258 0405 5BFECC52 		.ascii	"[\376\314R\265\320\353\367n\322\267=\273\244\300\327"
 258      B5D0EBF7 
 258      6ED2B73D 
 258      BBA4C0D7 
 259 0415 2BFDBACF 		.ascii	"+\375\272\317W\275\303\317\212t\260\332\3626dI\217\202"
 259      57BDC3CF 
 259      8A74B0DA 
 259      F2366449 
 259      8F82
 260 0427 EDBAD797 		.ascii	"\355\272\327\227\360\341\357\371\353\354>}[\376\272"
 260      F0E1EFF9 
 260      EBEC3E7D 
 260      5BFEBA
 261 0436 7F011771 		.ascii	"\177\001\027q\032\231"
 261      1A99
 262              		.text
 263              		.section	.gnu.lto_.symtab.624116cf,"",%progbits
 264 0000 44505F48 		.ascii	"DP_HPD_P1_SetDriveMode\000"
 264      50445F50 
 264      315F5365 
 264      74447269 
 264      76654D6F 
 265 0017 00       		.ascii	"\000"
 266 0018 00       		.ascii	"\000"
 267 0019 00       		.ascii	"\000"
 268 001a 00000000 		.ascii	"\000\000\000\000\000\000\000\000"
 268      00000000 
 269 0022 B3000000 		.ascii	"\263\000\000\000"
 270 0026 44505F48 		.ascii	"DP_HPD_P1_Write\000"
 270      50445F50 
 270      315F5772 
 270      69746500 
 271 0036 00       		.ascii	"\000"
 272 0037 00       		.ascii	"\000"
 273 0038 00       		.ascii	"\000"
ARM GAS  e:\temp\ccQSLkZi.s 			page 20


 274 0039 00000000 		.ascii	"\000\000\000\000\000\000\000\000"
 274      00000000 
 275 0041 B5000000 		.ascii	"\265\000\000\000"
 276 0045 44505F48 		.ascii	"DP_HPD_P1_Read\000"
 276      50445F50 
 276      315F5265 
 276      616400
 277 0054 00       		.ascii	"\000"
 278 0055 00       		.ascii	"\000"
 279 0056 00       		.ascii	"\000"
 280 0057 00000000 		.ascii	"\000\000\000\000\000\000\000\000"
 280      00000000 
 281 005f B8000000 		.ascii	"\270\000\000\000"
 282 0063 44505F48 		.ascii	"DP_HPD_P1_ReadDataReg\000"
 282      50445F50 
 282      315F5265 
 282      61644461 
 282      74615265 
 283 0079 00       		.ascii	"\000"
 284 007a 00       		.ascii	"\000"
 285 007b 00       		.ascii	"\000"
 286 007c 00000000 		.ascii	"\000\000\000\000\000\000\000\000"
 286      00000000 
 287 0084 BA000000 		.ascii	"\272\000\000\000"
 288 0088 44505F48 		.ascii	"DP_HPD_P1_SetInterruptMode\000"
 288      50445F50 
 288      315F5365 
 288      74496E74 
 288      65727275 
 289 00a3 00       		.ascii	"\000"
 290 00a4 00       		.ascii	"\000"
 291 00a5 00       		.ascii	"\000"
 292 00a6 00000000 		.ascii	"\000\000\000\000\000\000\000\000"
 292      00000000 
 293 00ae C4000000 		.ascii	"\304\000\000\000"
 294 00b2 44505F48 		.ascii	"DP_HPD_P1_ClearInterrupt\000"
 294      50445F50 
 294      315F436C 
 294      65617249 
 294      6E746572 
 295 00cb 00       		.ascii	"\000"
 296 00cc 00       		.ascii	"\000"
 297 00cd 00       		.ascii	"\000"
 298 00ce 00000000 		.ascii	"\000\000\000\000\000\000\000\000"
 298      00000000 
 299 00d6 C6000000 		.ascii	"\306\000\000\000"
 300              		.text
 301              		.section	.gnu.lto_.opts,"",%progbits
 302 0000 272D666D 		.ascii	"'-fmath-errno' '-fsigned-zeros' '-ftrapping-math' '"
 302      6174682D 
 302      6572726E 
 302      6F272027 
 302      2D667369 
 303 0033 2D666E6F 		.ascii	"-fno-trapv' '-fno-openmp' '-fno-openacc' '-mcpu=cor"
 303      2D747261 
 303      70762720 
 303      272D666E 
ARM GAS  e:\temp\ccQSLkZi.s 			page 21


 303      6F2D6F70 
 304 0066 7465782D 		.ascii	"tex-m0' '-mthumb' '-g' '-Os' '-Werror' '-ffunction-"
 304      6D302720 
 304      272D6D74 
 304      68756D62 
 304      2720272D 
 305 0099 73656374 		.ascii	"sections' '-ffat-lto-objects' '-finline-functions' "
 305      696F6E73 
 305      2720272D 
 305      66666174 
 305      2D6C746F 
 306 00cc 272D666C 		.ascii	"'-flto' '-fno-strict-aliasing'\000"
 306      746F2720 
 306      272D666E 
 306      6F2D7374 
 306      72696374 
 307              		.text
 308              		.cfi_sections	.debug_frame
 309              		.section	.text.DP_HPD_P1_SetDriveMode,"ax",%progbits
 310              		.align	1
 311              		.global	DP_HPD_P1_SetDriveMode
 312              		.code	16
 313              		.thumb_func
 314              		.type	DP_HPD_P1_SetDriveMode, %function
 315              	DP_HPD_P1_SetDriveMode:
 316              	.LFB0:
 317              		.file 1 "Generated_Source\\PSoC4\\DP_HPD_P1.c"
   1:Generated_Source\PSoC4/DP_HPD_P1.c **** /*******************************************************************************
   2:Generated_Source\PSoC4/DP_HPD_P1.c **** * File Name: DP_HPD_P1.c  
   3:Generated_Source\PSoC4/DP_HPD_P1.c **** * Version 2.20
   4:Generated_Source\PSoC4/DP_HPD_P1.c **** *
   5:Generated_Source\PSoC4/DP_HPD_P1.c **** * Description:
   6:Generated_Source\PSoC4/DP_HPD_P1.c **** *  This file contains API to enable firmware control of a Pins component.
   7:Generated_Source\PSoC4/DP_HPD_P1.c **** *
   8:Generated_Source\PSoC4/DP_HPD_P1.c **** ********************************************************************************
   9:Generated_Source\PSoC4/DP_HPD_P1.c **** * Copyright 2008-2015, Cypress Semiconductor Corporation.  All rights reserved.
  10:Generated_Source\PSoC4/DP_HPD_P1.c **** * You may use this file only in accordance with the license, terms, conditions, 
  11:Generated_Source\PSoC4/DP_HPD_P1.c **** * disclaimers, and limitations in the end user license agreement accompanying 
  12:Generated_Source\PSoC4/DP_HPD_P1.c **** * the software package with which this file was provided.
  13:Generated_Source\PSoC4/DP_HPD_P1.c **** *******************************************************************************/
  14:Generated_Source\PSoC4/DP_HPD_P1.c **** 
  15:Generated_Source\PSoC4/DP_HPD_P1.c **** #include "cytypes.h"
  16:Generated_Source\PSoC4/DP_HPD_P1.c **** #include "DP_HPD_P1.h"
  17:Generated_Source\PSoC4/DP_HPD_P1.c **** 
  18:Generated_Source\PSoC4/DP_HPD_P1.c **** 
  19:Generated_Source\PSoC4/DP_HPD_P1.c **** #if defined(DP_HPD_P1__PC)
  20:Generated_Source\PSoC4/DP_HPD_P1.c ****     #define DP_HPD_P1_SetP4PinDriveMode(shift, mode)  \
  21:Generated_Source\PSoC4/DP_HPD_P1.c ****     do { \
  22:Generated_Source\PSoC4/DP_HPD_P1.c ****         DP_HPD_P1_PC =   (DP_HPD_P1_PC & \
  23:Generated_Source\PSoC4/DP_HPD_P1.c ****                                 (uint32)(~(uint32)(DP_HPD_P1_DRIVE_MODE_IND_MASK << \
  24:Generated_Source\PSoC4/DP_HPD_P1.c ****                                 (DP_HPD_P1_DRIVE_MODE_BITS * (shift))))) | \
  25:Generated_Source\PSoC4/DP_HPD_P1.c ****                                 (uint32)((uint32)(mode) << \
  26:Generated_Source\PSoC4/DP_HPD_P1.c ****                                 (DP_HPD_P1_DRIVE_MODE_BITS * (shift))); \
  27:Generated_Source\PSoC4/DP_HPD_P1.c ****     } while (0)
  28:Generated_Source\PSoC4/DP_HPD_P1.c **** #else
  29:Generated_Source\PSoC4/DP_HPD_P1.c ****     #if (CY_PSOC4_4200L)
  30:Generated_Source\PSoC4/DP_HPD_P1.c ****         #define DP_HPD_P1_SetP4PinDriveMode(shift, mode)  \
ARM GAS  e:\temp\ccQSLkZi.s 			page 22


  31:Generated_Source\PSoC4/DP_HPD_P1.c ****         do { \
  32:Generated_Source\PSoC4/DP_HPD_P1.c ****             DP_HPD_P1_USBIO_CTRL_REG = (DP_HPD_P1_USBIO_CTRL_REG & \
  33:Generated_Source\PSoC4/DP_HPD_P1.c ****                                     (uint32)(~(uint32)(DP_HPD_P1_DRIVE_MODE_IND_MASK << \
  34:Generated_Source\PSoC4/DP_HPD_P1.c ****                                     (DP_HPD_P1_DRIVE_MODE_BITS * (shift))))) | \
  35:Generated_Source\PSoC4/DP_HPD_P1.c ****                                     (uint32)((uint32)(mode) << \
  36:Generated_Source\PSoC4/DP_HPD_P1.c ****                                     (DP_HPD_P1_DRIVE_MODE_BITS * (shift))); \
  37:Generated_Source\PSoC4/DP_HPD_P1.c ****         } while (0)
  38:Generated_Source\PSoC4/DP_HPD_P1.c ****     #endif
  39:Generated_Source\PSoC4/DP_HPD_P1.c **** #endif
  40:Generated_Source\PSoC4/DP_HPD_P1.c ****   
  41:Generated_Source\PSoC4/DP_HPD_P1.c **** 
  42:Generated_Source\PSoC4/DP_HPD_P1.c **** #if defined(DP_HPD_P1__PC) || (CY_PSOC4_4200L) 
  43:Generated_Source\PSoC4/DP_HPD_P1.c ****     /*******************************************************************************
  44:Generated_Source\PSoC4/DP_HPD_P1.c ****     * Function Name: DP_HPD_P1_SetDriveMode
  45:Generated_Source\PSoC4/DP_HPD_P1.c ****     ****************************************************************************//**
  46:Generated_Source\PSoC4/DP_HPD_P1.c ****     *
  47:Generated_Source\PSoC4/DP_HPD_P1.c ****     * \brief Sets the drive mode for each of the Pins component's pins.
  48:Generated_Source\PSoC4/DP_HPD_P1.c ****     * 
  49:Generated_Source\PSoC4/DP_HPD_P1.c ****     * <b>Note</b> This affects all pins in the Pins component instance. Use the
  50:Generated_Source\PSoC4/DP_HPD_P1.c ****     * Per-Pin APIs if you wish to control individual pin's drive modes.
  51:Generated_Source\PSoC4/DP_HPD_P1.c ****     *
  52:Generated_Source\PSoC4/DP_HPD_P1.c ****     * <b>Note</b> USBIOs have limited drive functionality. Refer to the Drive Mode
  53:Generated_Source\PSoC4/DP_HPD_P1.c ****     * parameter for more information.
  54:Generated_Source\PSoC4/DP_HPD_P1.c ****     *
  55:Generated_Source\PSoC4/DP_HPD_P1.c ****     * \param mode
  56:Generated_Source\PSoC4/DP_HPD_P1.c ****     *  Mode for the selected signals. Valid options are documented in 
  57:Generated_Source\PSoC4/DP_HPD_P1.c ****     *  \ref driveMode.
  58:Generated_Source\PSoC4/DP_HPD_P1.c ****     *
  59:Generated_Source\PSoC4/DP_HPD_P1.c ****     * \return
  60:Generated_Source\PSoC4/DP_HPD_P1.c ****     *  None
  61:Generated_Source\PSoC4/DP_HPD_P1.c ****     *
  62:Generated_Source\PSoC4/DP_HPD_P1.c ****     * \sideeffect
  63:Generated_Source\PSoC4/DP_HPD_P1.c ****     *  If you use read-modify-write operations that are not atomic, the ISR can
  64:Generated_Source\PSoC4/DP_HPD_P1.c ****     *  cause corruption of this function. An ISR that interrupts this function 
  65:Generated_Source\PSoC4/DP_HPD_P1.c ****     *  and performs writes to the Pins component Drive Mode registers can cause 
  66:Generated_Source\PSoC4/DP_HPD_P1.c ****     *  corrupted port data. To avoid this issue, you should either use the Per-Pin
  67:Generated_Source\PSoC4/DP_HPD_P1.c ****     *  APIs (primary method) or disable interrupts around this function.
  68:Generated_Source\PSoC4/DP_HPD_P1.c ****     *
  69:Generated_Source\PSoC4/DP_HPD_P1.c ****     * \funcusage
  70:Generated_Source\PSoC4/DP_HPD_P1.c ****     *  \snippet DP_HPD_P1_SUT.c usage_DP_HPD_P1_SetDriveMode
  71:Generated_Source\PSoC4/DP_HPD_P1.c ****     *******************************************************************************/
  72:Generated_Source\PSoC4/DP_HPD_P1.c ****     void DP_HPD_P1_SetDriveMode(uint8 mode)
  73:Generated_Source\PSoC4/DP_HPD_P1.c ****     {
 318              		.loc 1 73 0
 319              		.cfi_startproc
 320              		@ args = 0, pretend = 0, frame = 0
 321              		@ frame_needed = 0, uses_anonymous_args = 0
 322              		@ link register save eliminated.
 323              	.LVL0:
  74:Generated_Source\PSoC4/DP_HPD_P1.c **** 		DP_HPD_P1_SetP4PinDriveMode(DP_HPD_P1__0__SHIFT, mode);
 324              		.loc 1 74 0
 325 0000 0721     		movs	r1, #7
 326 0002 034A     		ldr	r2, .L2
  75:Generated_Source\PSoC4/DP_HPD_P1.c ****     }
 327              		.loc 1 75 0
 328              		@ sp needed
  74:Generated_Source\PSoC4/DP_HPD_P1.c **** 		DP_HPD_P1_SetP4PinDriveMode(DP_HPD_P1__0__SHIFT, mode);
ARM GAS  e:\temp\ccQSLkZi.s 			page 23


 329              		.loc 1 74 0
 330 0004 1368     		ldr	r3, [r2]
 331 0006 8B43     		bics	r3, r1
 332 0008 1843     		orrs	r0, r3
 333              	.LVL1:
 334 000a 1060     		str	r0, [r2]
 335              		.loc 1 75 0
 336 000c 7047     		bx	lr
 337              	.L3:
 338 000e C046     		.align	2
 339              	.L2:
 340 0010 08030440 		.word	1074004744
 341              		.cfi_endproc
 342              	.LFE0:
 343              		.size	DP_HPD_P1_SetDriveMode, .-DP_HPD_P1_SetDriveMode
 344              		.section	.text.DP_HPD_P1_Write,"ax",%progbits
 345              		.align	1
 346              		.global	DP_HPD_P1_Write
 347              		.code	16
 348              		.thumb_func
 349              		.type	DP_HPD_P1_Write, %function
 350              	DP_HPD_P1_Write:
 351              	.LFB1:
  76:Generated_Source\PSoC4/DP_HPD_P1.c **** #endif
  77:Generated_Source\PSoC4/DP_HPD_P1.c **** 
  78:Generated_Source\PSoC4/DP_HPD_P1.c **** 
  79:Generated_Source\PSoC4/DP_HPD_P1.c **** /*******************************************************************************
  80:Generated_Source\PSoC4/DP_HPD_P1.c **** * Function Name: DP_HPD_P1_Write
  81:Generated_Source\PSoC4/DP_HPD_P1.c **** ****************************************************************************//**
  82:Generated_Source\PSoC4/DP_HPD_P1.c **** *
  83:Generated_Source\PSoC4/DP_HPD_P1.c **** * \brief Writes the value to the physical port (data output register), masking
  84:Generated_Source\PSoC4/DP_HPD_P1.c **** *  and shifting the bits appropriately. 
  85:Generated_Source\PSoC4/DP_HPD_P1.c **** *
  86:Generated_Source\PSoC4/DP_HPD_P1.c **** * The data output register controls the signal applied to the physical pin in 
  87:Generated_Source\PSoC4/DP_HPD_P1.c **** * conjunction with the drive mode parameter. This function avoids changing 
  88:Generated_Source\PSoC4/DP_HPD_P1.c **** * other bits in the port by using the appropriate method (read-modify-write or
  89:Generated_Source\PSoC4/DP_HPD_P1.c **** * bit banding).
  90:Generated_Source\PSoC4/DP_HPD_P1.c **** *
  91:Generated_Source\PSoC4/DP_HPD_P1.c **** * <b>Note</b> This function should not be used on a hardware digital output pin 
  92:Generated_Source\PSoC4/DP_HPD_P1.c **** * as it is driven by the hardware signal attached to it.
  93:Generated_Source\PSoC4/DP_HPD_P1.c **** *
  94:Generated_Source\PSoC4/DP_HPD_P1.c **** * \param value
  95:Generated_Source\PSoC4/DP_HPD_P1.c **** *  Value to write to the component instance.
  96:Generated_Source\PSoC4/DP_HPD_P1.c **** *
  97:Generated_Source\PSoC4/DP_HPD_P1.c **** * \return 
  98:Generated_Source\PSoC4/DP_HPD_P1.c **** *  None 
  99:Generated_Source\PSoC4/DP_HPD_P1.c **** *
 100:Generated_Source\PSoC4/DP_HPD_P1.c **** * \sideeffect
 101:Generated_Source\PSoC4/DP_HPD_P1.c **** *  If you use read-modify-write operations that are not atomic; the Interrupt 
 102:Generated_Source\PSoC4/DP_HPD_P1.c **** *  Service Routines (ISR) can cause corruption of this function. An ISR that 
 103:Generated_Source\PSoC4/DP_HPD_P1.c **** *  interrupts this function and performs writes to the Pins component data 
 104:Generated_Source\PSoC4/DP_HPD_P1.c **** *  register can cause corrupted port data. To avoid this issue, you should 
 105:Generated_Source\PSoC4/DP_HPD_P1.c **** *  either use the Per-Pin APIs (primary method) or disable interrupts around 
 106:Generated_Source\PSoC4/DP_HPD_P1.c **** *  this function.
 107:Generated_Source\PSoC4/DP_HPD_P1.c **** *
 108:Generated_Source\PSoC4/DP_HPD_P1.c **** * \funcusage
 109:Generated_Source\PSoC4/DP_HPD_P1.c **** *  \snippet DP_HPD_P1_SUT.c usage_DP_HPD_P1_Write
ARM GAS  e:\temp\ccQSLkZi.s 			page 24


 110:Generated_Source\PSoC4/DP_HPD_P1.c **** *******************************************************************************/
 111:Generated_Source\PSoC4/DP_HPD_P1.c **** void DP_HPD_P1_Write(uint8 value)
 112:Generated_Source\PSoC4/DP_HPD_P1.c **** {
 352              		.loc 1 112 0
 353              		.cfi_startproc
 354              		@ args = 0, pretend = 0, frame = 0
 355              		@ frame_needed = 0, uses_anonymous_args = 0
 356              		@ link register save eliminated.
 357              	.LVL2:
 113:Generated_Source\PSoC4/DP_HPD_P1.c ****     uint8 drVal = (uint8)(DP_HPD_P1_DR & (uint8)(~DP_HPD_P1_MASK));
 358              		.loc 1 113 0
 359 0000 0123     		movs	r3, #1
 360 0002 0449     		ldr	r1, .L5
 114:Generated_Source\PSoC4/DP_HPD_P1.c ****     drVal = (drVal | ((uint8)(value << DP_HPD_P1_SHIFT) & DP_HPD_P1_MASK));
 115:Generated_Source\PSoC4/DP_HPD_P1.c ****     DP_HPD_P1_DR = (uint32)drVal;
 116:Generated_Source\PSoC4/DP_HPD_P1.c **** }
 361              		.loc 1 116 0
 362              		@ sp needed
 113:Generated_Source\PSoC4/DP_HPD_P1.c ****     uint8 drVal = (uint8)(DP_HPD_P1_DR & (uint8)(~DP_HPD_P1_MASK));
 363              		.loc 1 113 0
 364 0004 0A68     		ldr	r2, [r1]
 365 0006 9A43     		bics	r2, r3
 366 0008 D2B2     		uxtb	r2, r2
 367              	.LVL3:
 115:Generated_Source\PSoC4/DP_HPD_P1.c **** }
 368              		.loc 1 115 0
 369 000a 0340     		ands	r3, r0
 370 000c 1343     		orrs	r3, r2
 371 000e 0B60     		str	r3, [r1]
 372              		.loc 1 116 0
 373 0010 7047     		bx	lr
 374              	.L6:
 375 0012 C046     		.align	2
 376              	.L5:
 377 0014 00030440 		.word	1074004736
 378              		.cfi_endproc
 379              	.LFE1:
 380              		.size	DP_HPD_P1_Write, .-DP_HPD_P1_Write
 381              		.section	.text.DP_HPD_P1_Read,"ax",%progbits
 382              		.align	1
 383              		.global	DP_HPD_P1_Read
 384              		.code	16
 385              		.thumb_func
 386              		.type	DP_HPD_P1_Read, %function
 387              	DP_HPD_P1_Read:
 388              	.LFB2:
 117:Generated_Source\PSoC4/DP_HPD_P1.c **** 
 118:Generated_Source\PSoC4/DP_HPD_P1.c **** 
 119:Generated_Source\PSoC4/DP_HPD_P1.c **** /*******************************************************************************
 120:Generated_Source\PSoC4/DP_HPD_P1.c **** * Function Name: DP_HPD_P1_Read
 121:Generated_Source\PSoC4/DP_HPD_P1.c **** ****************************************************************************//**
 122:Generated_Source\PSoC4/DP_HPD_P1.c **** *
 123:Generated_Source\PSoC4/DP_HPD_P1.c **** * \brief Reads the associated physical port (pin status register) and masks 
 124:Generated_Source\PSoC4/DP_HPD_P1.c **** *  the required bits according to the width and bit position of the component
 125:Generated_Source\PSoC4/DP_HPD_P1.c **** *  instance. 
 126:Generated_Source\PSoC4/DP_HPD_P1.c **** *
 127:Generated_Source\PSoC4/DP_HPD_P1.c **** * The pin's status register returns the current logic level present on the 
ARM GAS  e:\temp\ccQSLkZi.s 			page 25


 128:Generated_Source\PSoC4/DP_HPD_P1.c **** * physical pin.
 129:Generated_Source\PSoC4/DP_HPD_P1.c **** *
 130:Generated_Source\PSoC4/DP_HPD_P1.c **** * \return 
 131:Generated_Source\PSoC4/DP_HPD_P1.c **** *  The current value for the pins in the component as a right justified number.
 132:Generated_Source\PSoC4/DP_HPD_P1.c **** *
 133:Generated_Source\PSoC4/DP_HPD_P1.c **** * \funcusage
 134:Generated_Source\PSoC4/DP_HPD_P1.c **** *  \snippet DP_HPD_P1_SUT.c usage_DP_HPD_P1_Read  
 135:Generated_Source\PSoC4/DP_HPD_P1.c **** *******************************************************************************/
 136:Generated_Source\PSoC4/DP_HPD_P1.c **** uint8 DP_HPD_P1_Read(void)
 137:Generated_Source\PSoC4/DP_HPD_P1.c **** {
 389              		.loc 1 137 0
 390              		.cfi_startproc
 391              		@ args = 0, pretend = 0, frame = 0
 392              		@ frame_needed = 0, uses_anonymous_args = 0
 393              		@ link register save eliminated.
 138:Generated_Source\PSoC4/DP_HPD_P1.c ****     return (uint8)((DP_HPD_P1_PS & DP_HPD_P1_MASK) >> DP_HPD_P1_SHIFT);
 394              		.loc 1 138 0
 395 0000 024B     		ldr	r3, .L8
 139:Generated_Source\PSoC4/DP_HPD_P1.c **** }
 396              		.loc 1 139 0
 397              		@ sp needed
 138:Generated_Source\PSoC4/DP_HPD_P1.c ****     return (uint8)((DP_HPD_P1_PS & DP_HPD_P1_MASK) >> DP_HPD_P1_SHIFT);
 398              		.loc 1 138 0
 399 0002 1868     		ldr	r0, [r3]
 400 0004 0123     		movs	r3, #1
 401 0006 1840     		ands	r0, r3
 402              		.loc 1 139 0
 403 0008 7047     		bx	lr
 404              	.L9:
 405 000a C046     		.align	2
 406              	.L8:
 407 000c 04030440 		.word	1074004740
 408              		.cfi_endproc
 409              	.LFE2:
 410              		.size	DP_HPD_P1_Read, .-DP_HPD_P1_Read
 411              		.section	.text.DP_HPD_P1_ReadDataReg,"ax",%progbits
 412              		.align	1
 413              		.global	DP_HPD_P1_ReadDataReg
 414              		.code	16
 415              		.thumb_func
 416              		.type	DP_HPD_P1_ReadDataReg, %function
 417              	DP_HPD_P1_ReadDataReg:
 418              	.LFB3:
 140:Generated_Source\PSoC4/DP_HPD_P1.c **** 
 141:Generated_Source\PSoC4/DP_HPD_P1.c **** 
 142:Generated_Source\PSoC4/DP_HPD_P1.c **** /*******************************************************************************
 143:Generated_Source\PSoC4/DP_HPD_P1.c **** * Function Name: DP_HPD_P1_ReadDataReg
 144:Generated_Source\PSoC4/DP_HPD_P1.c **** ****************************************************************************//**
 145:Generated_Source\PSoC4/DP_HPD_P1.c **** *
 146:Generated_Source\PSoC4/DP_HPD_P1.c **** * \brief Reads the associated physical port's data output register and masks 
 147:Generated_Source\PSoC4/DP_HPD_P1.c **** *  the correct bits according to the width and bit position of the component 
 148:Generated_Source\PSoC4/DP_HPD_P1.c **** *  instance. 
 149:Generated_Source\PSoC4/DP_HPD_P1.c **** *
 150:Generated_Source\PSoC4/DP_HPD_P1.c **** * The data output register controls the signal applied to the physical pin in 
 151:Generated_Source\PSoC4/DP_HPD_P1.c **** * conjunction with the drive mode parameter. This is not the same as the 
 152:Generated_Source\PSoC4/DP_HPD_P1.c **** * preferred DP_HPD_P1_Read() API because the 
 153:Generated_Source\PSoC4/DP_HPD_P1.c **** * DP_HPD_P1_ReadDataReg() reads the data register instead of the status 
ARM GAS  e:\temp\ccQSLkZi.s 			page 26


 154:Generated_Source\PSoC4/DP_HPD_P1.c **** * register. For output pins this is a useful function to determine the value 
 155:Generated_Source\PSoC4/DP_HPD_P1.c **** * just written to the pin.
 156:Generated_Source\PSoC4/DP_HPD_P1.c **** *
 157:Generated_Source\PSoC4/DP_HPD_P1.c **** * \return 
 158:Generated_Source\PSoC4/DP_HPD_P1.c **** *  The current value of the data register masked and shifted into a right 
 159:Generated_Source\PSoC4/DP_HPD_P1.c **** *  justified number for the component instance.
 160:Generated_Source\PSoC4/DP_HPD_P1.c **** *
 161:Generated_Source\PSoC4/DP_HPD_P1.c **** * \funcusage
 162:Generated_Source\PSoC4/DP_HPD_P1.c **** *  \snippet DP_HPD_P1_SUT.c usage_DP_HPD_P1_ReadDataReg 
 163:Generated_Source\PSoC4/DP_HPD_P1.c **** *******************************************************************************/
 164:Generated_Source\PSoC4/DP_HPD_P1.c **** uint8 DP_HPD_P1_ReadDataReg(void)
 165:Generated_Source\PSoC4/DP_HPD_P1.c **** {
 419              		.loc 1 165 0
 420              		.cfi_startproc
 421              		@ args = 0, pretend = 0, frame = 0
 422              		@ frame_needed = 0, uses_anonymous_args = 0
 423              		@ link register save eliminated.
 166:Generated_Source\PSoC4/DP_HPD_P1.c ****     return (uint8)((DP_HPD_P1_DR & DP_HPD_P1_MASK) >> DP_HPD_P1_SHIFT);
 424              		.loc 1 166 0
 425 0000 024B     		ldr	r3, .L11
 167:Generated_Source\PSoC4/DP_HPD_P1.c **** }
 426              		.loc 1 167 0
 427              		@ sp needed
 166:Generated_Source\PSoC4/DP_HPD_P1.c ****     return (uint8)((DP_HPD_P1_DR & DP_HPD_P1_MASK) >> DP_HPD_P1_SHIFT);
 428              		.loc 1 166 0
 429 0002 1868     		ldr	r0, [r3]
 430 0004 0123     		movs	r3, #1
 431 0006 1840     		ands	r0, r3
 432              		.loc 1 167 0
 433 0008 7047     		bx	lr
 434              	.L12:
 435 000a C046     		.align	2
 436              	.L11:
 437 000c 00030440 		.word	1074004736
 438              		.cfi_endproc
 439              	.LFE3:
 440              		.size	DP_HPD_P1_ReadDataReg, .-DP_HPD_P1_ReadDataReg
 441              		.section	.text.DP_HPD_P1_SetInterruptMode,"ax",%progbits
 442              		.align	1
 443              		.global	DP_HPD_P1_SetInterruptMode
 444              		.code	16
 445              		.thumb_func
 446              		.type	DP_HPD_P1_SetInterruptMode, %function
 447              	DP_HPD_P1_SetInterruptMode:
 448              	.LFB4:
 168:Generated_Source\PSoC4/DP_HPD_P1.c **** 
 169:Generated_Source\PSoC4/DP_HPD_P1.c **** 
 170:Generated_Source\PSoC4/DP_HPD_P1.c **** /*******************************************************************************
 171:Generated_Source\PSoC4/DP_HPD_P1.c **** * Function Name: DP_HPD_P1_SetInterruptMode
 172:Generated_Source\PSoC4/DP_HPD_P1.c **** ****************************************************************************//**
 173:Generated_Source\PSoC4/DP_HPD_P1.c **** *
 174:Generated_Source\PSoC4/DP_HPD_P1.c **** * \brief Configures the interrupt mode for each of the Pins component's
 175:Generated_Source\PSoC4/DP_HPD_P1.c **** *  pins. Alternatively you may set the interrupt mode for all the pins
 176:Generated_Source\PSoC4/DP_HPD_P1.c **** *  specified in the Pins component.
 177:Generated_Source\PSoC4/DP_HPD_P1.c **** *
 178:Generated_Source\PSoC4/DP_HPD_P1.c **** *  <b>Note</b> The interrupt is port-wide and therefore any enabled pin
 179:Generated_Source\PSoC4/DP_HPD_P1.c **** *  interrupt may trigger it.
ARM GAS  e:\temp\ccQSLkZi.s 			page 27


 180:Generated_Source\PSoC4/DP_HPD_P1.c **** *
 181:Generated_Source\PSoC4/DP_HPD_P1.c **** * \param position
 182:Generated_Source\PSoC4/DP_HPD_P1.c **** *  The pin position as listed in the Pins component. You may OR these to be 
 183:Generated_Source\PSoC4/DP_HPD_P1.c **** *  able to configure the interrupt mode of multiple pins within a Pins 
 184:Generated_Source\PSoC4/DP_HPD_P1.c **** *  component. Or you may use DP_HPD_P1_INTR_ALL to configure the
 185:Generated_Source\PSoC4/DP_HPD_P1.c **** *  interrupt mode of all the pins in the Pins component.       
 186:Generated_Source\PSoC4/DP_HPD_P1.c **** *  - DP_HPD_P1_0_INTR       (First pin in the list)
 187:Generated_Source\PSoC4/DP_HPD_P1.c **** *  - DP_HPD_P1_1_INTR       (Second pin in the list)
 188:Generated_Source\PSoC4/DP_HPD_P1.c **** *  - ...
 189:Generated_Source\PSoC4/DP_HPD_P1.c **** *  - DP_HPD_P1_INTR_ALL     (All pins in Pins component)
 190:Generated_Source\PSoC4/DP_HPD_P1.c **** *
 191:Generated_Source\PSoC4/DP_HPD_P1.c **** * \param mode
 192:Generated_Source\PSoC4/DP_HPD_P1.c **** *  Interrupt mode for the selected pins. Valid options are documented in
 193:Generated_Source\PSoC4/DP_HPD_P1.c **** *  \ref intrMode.
 194:Generated_Source\PSoC4/DP_HPD_P1.c **** *
 195:Generated_Source\PSoC4/DP_HPD_P1.c **** * \return 
 196:Generated_Source\PSoC4/DP_HPD_P1.c **** *  None
 197:Generated_Source\PSoC4/DP_HPD_P1.c **** *  
 198:Generated_Source\PSoC4/DP_HPD_P1.c **** * \sideeffect
 199:Generated_Source\PSoC4/DP_HPD_P1.c **** *  It is recommended that the interrupt be disabled before calling this 
 200:Generated_Source\PSoC4/DP_HPD_P1.c **** *  function to avoid unintended interrupt requests. Note that the interrupt
 201:Generated_Source\PSoC4/DP_HPD_P1.c **** *  type is port wide, and therefore will trigger for any enabled pin on the 
 202:Generated_Source\PSoC4/DP_HPD_P1.c **** *  port.
 203:Generated_Source\PSoC4/DP_HPD_P1.c **** *
 204:Generated_Source\PSoC4/DP_HPD_P1.c **** * \funcusage
 205:Generated_Source\PSoC4/DP_HPD_P1.c **** *  \snippet DP_HPD_P1_SUT.c usage_DP_HPD_P1_SetInterruptMode
 206:Generated_Source\PSoC4/DP_HPD_P1.c **** *******************************************************************************/
 207:Generated_Source\PSoC4/DP_HPD_P1.c **** void DP_HPD_P1_SetInterruptMode(uint16 position, uint16 mode)
 208:Generated_Source\PSoC4/DP_HPD_P1.c **** {
 449              		.loc 1 208 0
 450              		.cfi_startproc
 451              		@ args = 0, pretend = 0, frame = 0
 452              		@ frame_needed = 0, uses_anonymous_args = 0
 453              		@ link register save eliminated.
 454              	.LVL4:
 209:Generated_Source\PSoC4/DP_HPD_P1.c ****     uint32 intrCfg;
 210:Generated_Source\PSoC4/DP_HPD_P1.c ****     
 211:Generated_Source\PSoC4/DP_HPD_P1.c ****     intrCfg =  DP_HPD_P1_INTCFG & (uint32)(~(uint32)position);
 455              		.loc 1 211 0
 456 0000 034A     		ldr	r2, .L14
 212:Generated_Source\PSoC4/DP_HPD_P1.c ****     DP_HPD_P1_INTCFG = intrCfg | ((uint32)position & (uint32)mode);
 213:Generated_Source\PSoC4/DP_HPD_P1.c **** }
 457              		.loc 1 213 0
 458              		@ sp needed
 211:Generated_Source\PSoC4/DP_HPD_P1.c ****     DP_HPD_P1_INTCFG = intrCfg | ((uint32)position & (uint32)mode);
 459              		.loc 1 211 0
 460 0002 1368     		ldr	r3, [r2]
 461              	.LVL5:
 212:Generated_Source\PSoC4/DP_HPD_P1.c ****     DP_HPD_P1_INTCFG = intrCfg | ((uint32)position & (uint32)mode);
 462              		.loc 1 212 0
 463 0004 8343     		bics	r3, r0
 464              	.LVL6:
 465 0006 0840     		ands	r0, r1
 466              	.LVL7:
 467 0008 1843     		orrs	r0, r3
 468 000a 1060     		str	r0, [r2]
 469              		.loc 1 213 0
ARM GAS  e:\temp\ccQSLkZi.s 			page 28


 470 000c 7047     		bx	lr
 471              	.L15:
 472 000e C046     		.align	2
 473              	.L14:
 474 0010 0C030440 		.word	1074004748
 475              		.cfi_endproc
 476              	.LFE4:
 477              		.size	DP_HPD_P1_SetInterruptMode, .-DP_HPD_P1_SetInterruptMode
 478              		.section	.text.DP_HPD_P1_ClearInterrupt,"ax",%progbits
 479              		.align	1
 480              		.global	DP_HPD_P1_ClearInterrupt
 481              		.code	16
 482              		.thumb_func
 483              		.type	DP_HPD_P1_ClearInterrupt, %function
 484              	DP_HPD_P1_ClearInterrupt:
 485              	.LFB5:
 214:Generated_Source\PSoC4/DP_HPD_P1.c **** 
 215:Generated_Source\PSoC4/DP_HPD_P1.c **** 
 216:Generated_Source\PSoC4/DP_HPD_P1.c **** /*******************************************************************************
 217:Generated_Source\PSoC4/DP_HPD_P1.c **** * Function Name: DP_HPD_P1_ClearInterrupt
 218:Generated_Source\PSoC4/DP_HPD_P1.c **** ****************************************************************************//**
 219:Generated_Source\PSoC4/DP_HPD_P1.c **** *
 220:Generated_Source\PSoC4/DP_HPD_P1.c **** * \brief Clears any active interrupts attached with the component and returns 
 221:Generated_Source\PSoC4/DP_HPD_P1.c **** *  the value of the interrupt status register allowing determination of which
 222:Generated_Source\PSoC4/DP_HPD_P1.c **** *  pins generated an interrupt event.
 223:Generated_Source\PSoC4/DP_HPD_P1.c **** *
 224:Generated_Source\PSoC4/DP_HPD_P1.c **** * \return 
 225:Generated_Source\PSoC4/DP_HPD_P1.c **** *  The right-shifted current value of the interrupt status register. Each pin 
 226:Generated_Source\PSoC4/DP_HPD_P1.c **** *  has one bit set if it generated an interrupt event. For example, bit 0 is 
 227:Generated_Source\PSoC4/DP_HPD_P1.c **** *  for pin 0 and bit 1 is for pin 1 of the Pins component.
 228:Generated_Source\PSoC4/DP_HPD_P1.c **** *  
 229:Generated_Source\PSoC4/DP_HPD_P1.c **** * \sideeffect
 230:Generated_Source\PSoC4/DP_HPD_P1.c **** *  Clears all bits of the physical port's interrupt status register, not just
 231:Generated_Source\PSoC4/DP_HPD_P1.c **** *  those associated with the Pins component.
 232:Generated_Source\PSoC4/DP_HPD_P1.c **** *
 233:Generated_Source\PSoC4/DP_HPD_P1.c **** * \funcusage
 234:Generated_Source\PSoC4/DP_HPD_P1.c **** *  \snippet DP_HPD_P1_SUT.c usage_DP_HPD_P1_ClearInterrupt
 235:Generated_Source\PSoC4/DP_HPD_P1.c **** *******************************************************************************/
 236:Generated_Source\PSoC4/DP_HPD_P1.c **** uint8 DP_HPD_P1_ClearInterrupt(void)
 237:Generated_Source\PSoC4/DP_HPD_P1.c **** {
 486              		.loc 1 237 0
 487              		.cfi_startproc
 488              		@ args = 0, pretend = 0, frame = 0
 489              		@ frame_needed = 0, uses_anonymous_args = 0
 490              		@ link register save eliminated.
 238:Generated_Source\PSoC4/DP_HPD_P1.c **** 	uint8 maskedStatus = (uint8)(DP_HPD_P1_INTSTAT & DP_HPD_P1_MASK);
 491              		.loc 1 238 0
 492 0000 0123     		movs	r3, #1
 493 0002 024A     		ldr	r2, .L17
 239:Generated_Source\PSoC4/DP_HPD_P1.c **** 	DP_HPD_P1_INTSTAT = maskedStatus;
 240:Generated_Source\PSoC4/DP_HPD_P1.c ****     return maskedStatus >> DP_HPD_P1_SHIFT;
 241:Generated_Source\PSoC4/DP_HPD_P1.c **** }
 494              		.loc 1 241 0
 495              		@ sp needed
 238:Generated_Source\PSoC4/DP_HPD_P1.c **** 	uint8 maskedStatus = (uint8)(DP_HPD_P1_INTSTAT & DP_HPD_P1_MASK);
 496              		.loc 1 238 0
 497 0004 1068     		ldr	r0, [r2]
ARM GAS  e:\temp\ccQSLkZi.s 			page 29


 498 0006 1840     		ands	r0, r3
 499              	.LVL8:
 239:Generated_Source\PSoC4/DP_HPD_P1.c **** 	DP_HPD_P1_INTSTAT = maskedStatus;
 500              		.loc 1 239 0
 501 0008 1060     		str	r0, [r2]
 502              		.loc 1 241 0
 503 000a 7047     		bx	lr
 504              	.L18:
 505              		.align	2
 506              	.L17:
 507 000c 10030440 		.word	1074004752
 508              		.cfi_endproc
 509              	.LFE5:
 510              		.size	DP_HPD_P1_ClearInterrupt, .-DP_HPD_P1_ClearInterrupt
 511              		.text
 512              	.Letext0:
 513              		.file 2 "Generated_Source\\PSoC4\\cytypes.h"