ARM GAS  e:\temp\ccY6p1se.s 			page 1


   1              		.syntax unified
   2              		.cpu cortex-m0
   3              		.fpu softvfp
   4              		.eabi_attribute 20, 1
   5              		.eabi_attribute 21, 1
   6              		.eabi_attribute 23, 3
   7              		.eabi_attribute 24, 1
   8              		.eabi_attribute 25, 1
   9              		.eabi_attribute 26, 1
  10              		.eabi_attribute 30, 4
  11              		.eabi_attribute 34, 0
  12              		.eabi_attribute 18, 4
  13              		.thumb
  14              		.syntax unified
  15              		.file	"HPI_IF.c"
  16              		.text
  17              	.Ltext0:
  18              		.section	.gnu.lto_.profile.624119b1,"",%progbits
  19 0000 789C6361 		.ascii	"x\234ca`d`a`\000\222\225\232\000\001\205\000\255"
  19      60646061 
  19      60009295 
  19      9A000185 
  19      00AD
  20              		.text
  21              		.section	.gnu.lto_.icf.624119b1,"",%progbits
  22 0000 789C6361 		.ascii	"x\234ca`d\000\001[\006\004\340b\350\277\374\266\211"
  22      60640001 
  22      5B0604E0 
  22      62E8BFFC 
  22      B689
  23 0012 8571FECC 		.ascii	"\205q\376\314C\307\270\230\036\335Xz\204\213\371\327"
  23      43C7B898 
  23      1EDD587A 
  23      848BF9D7 
  24 0022 EC3B2D4C 		.ascii	"\354;-L,k\376\336\270\316\306:\243\2459\217\355\371"
  24      2C6BFEDE 
  24      B8CEC63A 
  24      A3A5398F 
  24      EDF9
  25 0034 8F03B798 		.ascii	"\217\003\267\230\330{7\177\234\317\311q\264\347\364"
  25      D87B377F 
  25      9CCFC971 
  25      B4E7F4
  26 0043 2B4ECEED 		.ascii	"+N\316\355_/7\3633\000\000\246I\036\034"
  26      5F2F37F3 
  26      330000A6 
  26      491E1C
  27              		.text
  28              		.section	.gnu.lto_.jmpfuncs.624119b1,"",%progbits
  29 0000 789C6361 		.ascii	"x\234ca`d\000\001\037\006\004\340\000b&\306\277@\364"
  29      60640001 
  29      1F0604E0 
  29      006226C6 
  29      BF40F4
  30 0013 E1C25F9E 		.ascii	"\341\302_\236/L\255\314\014\214\\\214\313\031e\030\300"
  30      2F4CADCC 
  30      0C8C5C8C 
ARM GAS  e:\temp\ccY6p1se.s 			page 2


  30      CB196518 
  30      C0
  31 0024 8A998098 		.ascii	"\212\231\200\230\031\244\216\025\244\014\"\016g\260"
  31      19A48E15 
  31      A40C220E 
  31      67B0
  32 0032 313232D6 		.ascii	"122\326\263\203\010\016\020\301\000\000\030\303\012"
  32      B383080E 
  32      10C10000 
  32      18C30A
  33 0041 A7       		.ascii	"\247"
  34              		.text
  35              		.section	.gnu.lto_.inline.624119b1,"",%progbits
  36 0000 789C7D8E 		.ascii	"x\234}\216\253\021\200@\014D7\367\3478\006A\001\240"
  36      AB118040 
  36      0C4437F7 
  36      E7380641 
  36      01A0
  37 0012 902834B5 		.ascii	"\220(4\265R\012%\340h\003\215\"A\034s\010\"\362y\273"
  37      520A25E0 
  37      68038D22 
  37      411C7308 
  37      22F279BB 
  38 0026 93C48020 		.ascii	"\223\304\200 q\340\215\000\330\206\240\270uk/\005\252"
  38      71E08D00 
  38      D886A0B8 
  38      756B2F05 
  38      AA
  39 0037 061B0926 		.ascii	"\006\033\011&\225\234\242\210\360-cwN%\327\250:\346"
  39      959CA288 
  39      F02D6377 
  39      4E25D7A8 
  39      3AE6
  40 0049 E19A4BFE 		.ascii	"\341\232K\376$\2134\212\270-\337#1\267\016\301\023a"
  40      248B348A 
  40      B82DDF23 
  40      31B70EC1 
  40      1361
  41 005b E0177536 		.ascii	"\340\027u6\252\2755\342\366\177b\200\321\274\235\307"
  41      AABD35E2 
  41      F67F6280 
  41      D1BC9DC7 
  42 006b BC1D3799 		.ascii	"\274\0357\231<\020\276"
  42      3C10BE
  43              		.text
  44              		.section	.gnu.lto_.pureconst.624119b1,"",%progbits
  45 0000 789C6361 		.ascii	"x\234ca`d\020d``\340`\220`\224`\222b\226`\225b\223b"
  45      60641064 
  45      6060E060 
  45      90609460 
  45      92629660 
  46 0018 97E29000 		.ascii	"\227\342\220\000\000\011q\001\007"
  46      00097101 
  46      07
  47              		.text
  48              		.section	.gnu.lto_HPI_IF_ScbEnableIntr.624119b1,"",%progbits
  49 0000 789C6361 		.ascii	"x\234ca`d\000\201}@\254\004\304\322@\314\310\314\300"
ARM GAS  e:\temp\ccY6p1se.s 			page 3


  49      60640081 
  49      7D40AC04 
  49      C4D240CC 
  49      C8CCC0
  50 0013 C834E11C 		.ascii	"\3104\341\034\003C#\007\023##\210\321\300\301\310P\317"
  50      03432307 
  50      13232388 
  50      D1C0C1C8 
  50      50CF
  51 0025 C458CFF8 		.ascii	"\304X\317\370\225\351/\023\343\241\366g;\2314\2277\000"
  51      95E92F13 
  51      E3A1F667 
  51      3B993497 
  51      3700
  52 0037 C183D6CF 		.ascii	"\301\203\326\317Y\215\015\255\022\255\314\014\014\377"
  52      598D0DAD 
  52      12ADCC0C 
  52      0CFF
  53 0045 99C02631 		.ascii	"\231\300&10.g\324d\000*{\264\361\337T^\266\026\2202"
  53      302E67D4 
  53      64002A7B 
  53      B4F1DF54 
  53      5EB61690 
  54 005a 058824E3 		.ascii	"\005\210$\343\012F6\220u\353\203\0164\374\377\337\334"
  54      0A463690 
  54      75EB830E 
  54      34FCFFDF 
  54      DC
  55 006b 7060B6F8 		.ascii	"p`\266\370\301k\342@\255\037\200\262 {>21\201h\346\027"
  55      C16BE240 
  55      AD1F80B2 
  55      207B3E32 
  55      318168E6 
  56 0080 8C2D07F6 		.ascii	"\214-\007\366_\347\001\251\007\231\264s\347\233\333"
  56      5FE701A9 
  56      0799B473 
  56      E79BDB
  57 008f ECF57F1B 		.ascii	"\354\365\177\033:\032\032\004Z\231\031\3773\001\015"
  57      3A1A1A04 
  57      5A9919FF 
  57      33010D
  58 009e 615CC958 		.ascii	"a\\\311X\017\222\373\373\341\302_\236/L\255\314L\214"
  58      0F92FBFB 
  58      E1C25F9E 
  58      2F4CADCC 
  58      4C8C
  59 00b0 5C8CAB18 		.ascii	"\\\214\253\030eZ\231\231\031^16\035\270\036\016\326"
  59      655A9999 
  59      195E3136 
  59      1DB81E0E 
  59      D6
  60 00c1 0D021F80 		.ascii	"\015\002\037\200\352\201\246\002\355PpO\315K-J,IM\211"
  60      EA81A602 
  60      ED50704F 
  60      CD4B2D4A 
  60      2C494D89 
  61 00d5 0FCE2F2D 		.ascii	"\017\316/-JN\215\011\010\316w6\211\361\010\360\214\367"
ARM GAS  e:\temp\ccY6p1se.s 			page 4


  61      4A4E8D09 
  61      08CE7736 
  61      89F108F0 
  61      8CF7
  62 00e7 74D34B66 		.ascii	"t\323Kf\000\000\2737R\014"
  62      0000BB37 
  62      520C
  63              		.text
  64              		.section	.gnu.lto_HPI_IF_Init.624119b1,"",%progbits
  65 0000 789C6361 		.ascii	"x\234ca`d\000\201\325@\254\004\304\322@\314\310\314"
  65      60640081 
  65      D540AC04 
  65      C4D240CC 
  65      C8CC
  66 0012 C0C834E1 		.ascii	"\300\3104\341\034\003C#\007\023##\210\321\300\301\310"
  66      1C034323 
  66      07132323 
  66      88D1C0C1 
  66      C8
  67 0023 50CFC458 		.ascii	"P\317\304X\317\370\225\351/\023\343\241\366g;\2314\227"
  67      CFF895E9 
  67      2F13E3A1 
  67      F6673B99 
  67      3497
  68 0035 3700C183 		.ascii	"7\000\301\203\247\377\014\032V\034`lef`\370\317\004"
  68      A7FF0C1A 
  68      561C606C 
  68      656660F8 
  68      CF04
  69 0047 36898171 		.ascii	"6\211\201q9\243&\003P\331\243\215\377\246\362\262\265"
  69      39A32603 
  69      50D9A38D 
  69      FFA6F2B2 
  69      B5
  70 0058 80942940 		.ascii	"\200\224)@$\031W0\262\201\254[\037t\240\341\377\377"
  70      24195730 
  70      B281AC5B 
  70      1F74A0E1 
  70      FFFF
  71 006a E686033F 		.ascii	"\346\206\003?\331\017\336\340\002j\375\000\224\005\331"
  71      D90FDEE0 
  71      026AFD00 
  71      9405D9
  72 0079 F3918909 		.ascii	"\363\221\211\011D3\277`l>\260\361\024\023H=\310\244"
  72      4433BF60 
  72      6C3EB0F1 
  72      1413483D 
  72      C8A4
  73 008b 9D3BDFDC 		.ascii	"\235;\337\334f\257\377\333\320\321\320 \320\312\314"
  73      66AFFFDB 
  73      D0D1D020 
  73      D0CACC
  74 009a F89F0968 		.ascii	"\370\237\011h\010\343J\306z\206Vf&\206W\214M\007nz\201"
  74      08E34AC6 
  74      7A865666 
  74      2686578C 
  74      4D076E7A 
ARM GAS  e:\temp\ccY6p1se.s 			page 5


  75 00af 9582C007 		.ascii	"\225\202\300\007\240$\320\010\240\201\012\356\251y\251"
  75      A024D008 
  75      A0810AEE 
  75      A979A9
  76 00be 458925A9 		.ascii	"E\211%\251)\361\301\371\245E\311\2511\001\301\371\316"
  76      29F1C1F9 
  76      A545C9A9 
  76      3101C1F9 
  76      CE
  77 00cf 26311E01 		.ascii	"&1\036\001\236\361\236nz\311\014\000\306~Km"
  77      9EF19E6E 
  77      7AC90C00 
  77      C67E4B6D 
  78              		.text
  79              		.section	.gnu.lto_HPI_IF_Enable.624119b1,"",%progbits
  80 0000 789C7D4F 		.ascii	"x\234}OMKBA\024\275g\306\236R\024\355s!\355\334\004"
  80      4D4B4241 
  80      14BD67C6 
  80      9E5214ED 
  80      7321EDDC 
  81 0015 41FF20A8 		.ascii	"A\377 \250\334\204\344\256\004\011{\333\004\251\365"
  81      DC84E4AE 
  81      04097BDB 
  81      04A9F5
  82 0024 1B7B3E92 		.ascii	"\033{>\222V\006%\024\204K\355SZ$\274\335K\202\240\300"
  82      56062514 
  82      844BED53 
  82      5A24BCDD 
  82      4B82A0C0 
  83 0038 7E408B22 		.ascii	"~@\213\"H\"Z\030\024E\240\257;\332\272\0133gf\356\231"
  83      48225A18 
  83      1445A0AF 
  83      3BDABA0B 
  83      336766EE 
  84 004d 73CE0D10 		.ascii	"s\316\015\020H\327\022\3038\343\030/H\202(6\211r!\001"
  84      48D712C3 
  84      38E3182F 
  84      48822836 
  84      89722101 
  85 0061 E8830A81 		.ascii	"\350\203\012\201,\001\013\237\242#\320\330l\271\"ZQ"
  85      2C010B9F 
  85      A223D0D8 
  85      6CB9225A 
  85      51
  86 0072 5C8FCFF5 		.ascii	"\\\217\317\365IU\365\340H\"_\364\224\010\025D\211iO"
  86      4955F5E0 
  86      48225FF4 
  86      94081544 
  86      89694F
  87 0085 E7DDDD61 		.ascii	"\347\335\335a#\257i\221~\023U\030\332\256\266\340)\337"
  87      23AF6991 
  87      7E135518 
  87      DAAEB6E0 
  87      29DF
  88 0097 B795E70E 		.ascii	"\267\225\347\016]\026G\014A\216dO\336\210\332\314\323"
  88      5D16470C 
  88      418E644F 
ARM GAS  e:\temp\ccY6p1se.s 			page 6


  88      DE88DACC 
  88      D3
  89 00a8 8EEF4268 		.ascii	"\216\357Bh\224-4~\266\232\265E\375\325\226\332\275\344"
  89      942D347E 
  89      B69AB545 
  89      FDD596DA 
  89      BDE4
  90 00ba 34EE821F 		.ascii	"4\356\202\037\302\221\002\332\345\341b\357\306\350_"
  90      C29102DA 
  90      E5E162EF 
  90      C6E85F
  91 00c9 95DA5101 		.ascii	"\225\332Q\001~\252_\333W\203e\034\344\362\234K\342\010"
  91      7EAA5FDB 
  91      5783651C 
  91      E4F29C4B 
  91      E208
  92 00db 611C22CC 		.ascii	"a\034\"\314\366\307(\203Z\260\277\215\276\234\374S\354"
  92      F6C72883 
  92      5AB0BF8D 
  92      BE9CFC53 
  92      EC
  93 00ec 16F68596 		.ascii	"\026\366\205\226\000t\330\020N\230\315\306%h\332\177"
  93      0074D810 
  93      4E98CDC6 
  93      2568DA7F 
  94 00fc 82A72CC8 		.ascii	"\202\247,\3102\364\002\333\373\272\025\232\2563\271"
  94      32F402DB 
  94      FBBA159A 
  94      AE33B9
  95 010b EEDB7DD0 		.ascii	"\356\333}\320\352\250\202R\243\216\014\370\234\224p"
  95      EAA88252 
  95      A38E0CF8 
  95      9C9470
  96 011a 068B471C 		.ascii	"\006\213G\034\240Wlx\333\363=\252\25667yP\036;2k\256"
  96      A0576C78 
  96      DBF33DAA 
  96      AE363779 
  96      501E3B32 
  97 0130 9AD9E535 		.ascii	"\232\331\3455s%\225\310\254g\323f2\236\310LO%\347\342"
  97      732595C8 
  97      AC67D366 
  97      329EC84C 
  97      4F25E7E2 
  98 0144 B1546C66 		.ascii	"\261Tlf\"M\2775u\201#"
  98      224DBF35 
  98      758123
  99              		.text
 100              		.section	.gnu.lto_HPI_IF_Start.624119b1,"",%progbits
 101 0000 789C9591 		.ascii	"x\234\225\221\273/\004a\024\305\357\271\337\330\225"
 101      BB2F0461 
 101      14C5EFB9 
 101      DFD895
 102 000f 0DA29588 		.ascii	"\015\242\225\210\210NC$\376\003\211G#B+\021\217mI\204"
 102      884E4324 
 102      FE038947 
 102      23422B11 
 102      8F6D4984 
ARM GAS  e:\temp\ccY6p1se.s 			page 7


 103 0023 7A3FC606 		.ascii	"z?\306\006\235\206N\224\336\326\020\305\322\214W#B\205"
 103      9D864E94 
 103      DED610C5 
 103      D28C5723 
 103      4285
 104 0035 8406C546 		.ascii	"\204\006\305F6\212\225xD\301\270wV\210\320\270\311\314"
 104      368A9578 
 104      44C1B877 
 104      5688D0B8 
 104      C9CC
 105 0047 9DDCEFCC 		.ascii	"\235\334\357\314=\3477\343\020H\353EZ\225\364z\271P"
 105      3DE737E3 
 105      1048EB45 
 105      5A95F47A 
 105      B950
 106 0059 40E0A913 		.ascii	"@\340\251\023\242\221Bf\263]A6\346\234\327\222-2p\362"
 106      A2914266 
 106      B35D4136 
 106      E69CD792 
 106      2D3270F2 
 107 006d 6307D007 		.ascii	"c\007\320\007[\010J\260q\220\300\023\2771\366\3063i"
 107      5B084AB0 
 107      7190C013 
 107      BF31F6C6 
 107      3369
 108 007f AE9EB752 		.ascii	"\256\236\267R\327\207\331:\273\340#i\210\002\016-\010"
 108      D787D93A 
 108      BBE02369 
 108      88020E2D 
 108      08
 109 0090 F3A82691 		.ascii	"\363\250&\221\335z\357\323\305\2211\225U\346\017\261"
 109      DD7AEFD3 
 109      C5913195 
 109      55E60FB1 
 110 00a0 8088E648 		.ascii	"\200\210\346H\265\3736\010\\\353_\224\354>\227D\015"
 110      B5FB3608 
 110      5CEB5F94 
 110      EC3E9744 
 110      0D
 111 00b1 258D8C73 		.ascii	"%\215\214s\"Q\273\007f\355&\203\321\031\357|\337\350"
 111      2251BB07 
 111      66ED2683 
 111      D119EF7C 
 111      DFE8
 112 00c3 5BAE31B2 		.ascii	"[\2561\262q&\271w\032}\344\244a\250A:}\177\025M\274"
 112      7126B977 
 112      1A7DE4A4 
 112      61A8413A 
 112      7D7F154D 
 113 00d8 D9096B4B 		.ascii	"\331\011kKe6)\031t\234=>;\210\315av\304\206s\203%\011"
 113      65362919 
 113      749C3D3E 
 113      3B88CD61 
 113      76C48673 
 114 00ef BE8872F1 		.ascii	"\276\210r\361_\306\034\350\006c\227n\317\367\326\324"
 114      5FC61CE8 
 114      0663976E 
ARM GAS  e:\temp\ccY6p1se.s 			page 8


 114      CFF7D6D4 
 115 00ff 7DFAB558 		.ascii	"}\372\265X\267\002\204\025\325\221\2060\264]a\356\340"
 115      B7028415 
 115      D5918630 
 115      B45D61EE 
 115      E0
 116 0110 FADE11FF 		.ascii	"\372\336\021\377\244\261;\263e!K\220\317\361\003\024"
 116      A4B13BB3 
 116      65214B90 
 116      CFF10314 
 117 0120 AB8888D3 		.ascii	"\253\210\210\323\232\334\177Et\002\346\360\034)$\004"
 117      9ADC7F45 
 117      7402E6F0 
 117      1C292404 
 118 0130 BA8084F1 		.ascii	"\272\200\204\3611w\341Fu\333?\210\326\277\210<!\022"
 118      3177E146 
 118      75DB3F88 
 118      D6BF883C 
 118      2112
 119 0142 C5D6F8B1 		.ascii	"\305\326\370\261\027S\006\201\300F\310\360\300N\370"
 119      17530681 
 119      C046C8F0 
 119      C04EF8
 120 0151 1915E1E9 		.ascii	"\031\025\341\351\204\325\341\317D\342\201\315\3178Y"
 120      84D5E1CF 
 120      44E281CD 
 120      CF3859
 121 0160 8CFA2FAD 		.ascii	"\214\372/\255\241T+'|\262B\376KeS\274?>\330=\024\357"
 121      A1542B27 
 121      7CB242FE 
 121      4B6553BC 
 121      3F3ED83D 
 122 0176 EBEA1818 		.ascii	"\353\352\030\030\036\354\215w\266u\0144\324w6\267\265"
 122      1EEC8D77 
 122      B6750C34 
 122      D47736B7 
 122      B5
 123 0187 74B534D6 		.ascii	"t\2654\326\364\322\007\335\323\301\353"
 123      F4D207DD 
 123      D3C1EB
 124              		.text
 125              		.section	.gnu.lto_HPI_IF_Stop.624119b1,"",%progbits
 126 0000 789C7D91 		.ascii	"x\234}\221\317K\024a\030\307\237\357\373\316\316\254"
 126      CF4B1461 
 126      18C79FEF 
 126      FBCECEAC 
 127 0010 8BA27875 		.ascii	"\213\242xu!\361\346%\010\372\017\202\314\203 \352)\204"
 127      21F1E625 
 127      08FA0F82 
 127      CC8320EA 
 127      2984
 128 0022 256CAF09 		.ascii	"%l\257\011R\347}uvH\204 \244\224@\331\243?\312vWS\230"
 128      52E77D75 
 128      76488420 
 128      A49440D9 
 128      A33FCA76 
 129 0039 53D35204 		.ascii	"S\323R\004\025\3768t\362\240\011\212\204\207\015\014"
ARM GAS  e:\temp\ccY6p1se.s 			page 9


 129      15FE3874 
 129      F2A0098A 
 129      84870D0C 
 130 0049 355CC7E7 		.ascii	"5\\\307\347\331)CQ\037\230ygx\276\317\347\373\345},"
 130      D9294351 
 130      1F987967 
 130      78BECFE7 
 130      FBE57D2C 
 131 005d 02497528 		.ascii	"\002Iu(\242\026>\233\370\201&\250\347\313D\203q\005"
 131      A2163E9B 
 131      F88126A8 
 131      E7CB4483 
 131      7105
 132 006f C8878983 		.ascii	"\310\207\211\2032\012\031\374V\025\205\322\323\035_"
 132      320A19FC 
 132      561585D2 
 132      D31D5F
 133 007e B54E19AE 		.ascii	"\265N\031\256\315\355\203[f:\200\247\211BU%\021\246"
 133      CDED835B 
 133      663A80A7 
 133      89425525 
 133      11A6
 134 0090 D04A2CDB 		.ascii	"\320J,\333*\236\274\254\263\263\"k\216\232\230\206-"
 134      2A9EBCAC 
 134      B3B3226B 
 134      8E9A9886 
 134      2D
 135 00a1 76F9AEC0 		.ascii	"v\371\256\300\204\241k\202\265\372\017\205\306\032\213"
 135      84A16B82 
 135      B5FA0F85 
 135      C61A8B
 136 00b0 3C8D98BC 		.ascii	"<\215\230\274\210\312\254\023\307_J\311\251w\221\015"
 136      88CAAC13 
 136      C75F4AC9 
 136      A977910D 
 137 00c0 BEAF2899 		.ascii	"\276\257(\231\024\246\357\357\255;\231\212\0316\246"
 137      14A6EFEF 
 137      AD3B998A 
 137      1936A6
 138 00cf C1D32A54 		.ascii	"\301\323*T<\202\031d\244W)\257Vj\367\225\2475\022\230"
 138      3C821964 
 138      A45729AF 
 138      566AF795 
 138      A7351298 
 139 00e3 45D2D316 		.ascii	"E\322\323\026\355\302\015\016\233\316\2071\376\215j"
 139      EDC20D0E 
 139      9BCE8731 
 139      FE8D6A
 140 00f2 92902D2E 		.ascii	"\222\220-.\306\304k\366!\274\271\314-\026*]\355c\216"
 140      C6C46BF6 
 140      21BCB9CC 
 140      2D162A5D 
 140      ED638E
 141 0105 0D3D6DD3 		.ascii	"\015=m\323\016J\177F\226\337\337\027\232\253-\236\030"
 141      0E4A7F46 
 141      96DFDF17 
 141      9AAB2D9E 
ARM GAS  e:\temp\ccY6p1se.s 			page 10


 141      18
 142 0116 F34A2B8E 		.ascii	"\363J+\216dp \200\215\305W_\354\350\327\230\027F\024"
 142      64702080 
 142      8DC5575F 
 142      ECE8D798 
 142      174614
 143 0129 4B9FDD8F 		.ascii	"K\237\335\217\211\034&\007\263|iq\344\221\304[$\331"
 143      891C2607 
 143      B37C6971 
 143      E491C45B 
 143      24D9
 144 013b B3801C98 		.ascii	"\263\200\034\230\350\036\333\021.\026\021\275gs\343"
 144      E81EDB11 
 144      2E1611BD 
 144      6773E3
 145 014a 09410021 		.ascii	"\011A\000!\227\203\"\253\331x\014\"\273\0168\317@\306"
 145      978322AB 
 145      D9780C22 
 145      BB0E38CF 
 145      40C6
 146 015c 8878BFFC 		.ascii	"\210x\277\374\251\347\257\374\307h\251X\033E\032\316"
 146      A9E7AFFC 
 146      C768A958 
 146      1B451ACE 
 147 016c 4591BE7E 		.ascii	"E\221\276~\313\0368\377\011\013g\204wL\340~~\317?\252"
 147      CB1E38FF 
 147      090B6784 
 147      774CE07E 
 147      7ECF3FAA 
 148 0180 8B221016 		.ascii	"\213\"\020\026\271#K\231h\274r'\026\217.\361\025\375"
 148      B9234B99 
 148      68BC7227 
 148      168F2EF1 
 148      15FD
 149 0192 5BC24F0C 		.ascii	"[\302O\014\005\305\256\252\\\252\314K\343\325\362\242"
 149      05C5AEAA 
 149      5CAACC4B 
 149      E3D5F2A2 
 150 01a2 9BDBD28F 		.ascii	"\233\333\322\217\322\003\017\036\247\037\246\272\373"
 150      D2030F1E 
 150      A71FA6BA 
 150      FB
 151 01af 9F0CF4A5 		.ascii	"\237\014\364\245{;\273\373\357\334\356\275\327\331\236"
 151      7B3BBBFB 
 151      EFDCEEBD 
 151      D7D99E
 152 01be 6ABF7BB3 		.ascii	"j\277{\263\217N\001D\234\330\336"
 152      8F4E0144 
 152      9CD8DE
 153              		.text
 154              		.section	.gnu.lto_HPI_IF_SetRxFifoLevel.624119b1,"",%progbits
 155 0000 789C5D51 		.ascii	"x\234]Q\317k\023Q\020\236\357\275\3156\2664\005=\332"
 155      CF6B1351 
 155      109EEFBD 
 155      CD36B634 
 155      053DDA
 156 0013 43404AC9 		.ascii	"C@J\311\305\203\372\037\024\252\305Kl\020<\024\212\324"
ARM GAS  e:\temp\ccY6p1se.s 			page 11


 156      C583FA1F 
 156      14AAC54B 
 156      6C103C14 
 156      8AD4
 157 0025 15846020 		.ascii	"\025\204` T\361\326\227d\023\301\202H\265\365\007J\241"
 157      54F1D697 
 157      6413C182 
 157      48B5F507 
 157      4AA1
 158 0037 22A9D6A6 		.ascii	"\"\251\326\246\215z\011xX\203x)*\202z\360 \222\332\010"
 158      8D7A0978 
 158      58837829 
 158      2A827AF0 
 158      2092DA08 
 159 004b C543A255 		.ascii	"\305C\242U\252\250\353\314\356A\342\300\333\367f\370"
 159      AAA8EBCC 
 159      EE41E2C0 
 159      DBF766F8 
 160 005b BE6FBE99 		.ascii	"\276o\276\231\265\010$1\252\210\366\363\275\233\017"
 160      B5082431 
 160      AA88F6F3 
 160      BD9B0F
 161 006a 34415D7A 		.ascii	"4A]zA\224\213*@\036&\012\232R\230\3027\365[\241~\276"
 161      41948B2A 
 161      401E260A 
 161      9A5298C2 
 161      37F55BA1 
 162 0080 595389B2 		.ascii	"YS\211\262\341\370\260\261\264\317,z(j\"_\005J\2042"
 162      E1F8B0B1 
 162      B4CF2C7A 
 162      286A225F 
 162      054A8432 
 163 0094 128C7AE5 		.ascii	"\022\214z\345\256\336\324[\252\250\001\213\323\366\363"
 163      AEDED45B 
 163      AAA8018B 
 163      D3F6F3
 164 00a3 1BEB3149 		.ascii	"\033\3531I\025\342\234\276\231\365\2331\275\007\304"
 164      15E29CBE 
 164      99F59B31 
 164      BD07C4
 165 00b2 EFE972F9 		.ascii	"\357\351r\371bt\360\2161yc\256:fGQk\334\203f=\334E?"
 165      6274F08E 
 165      317963AE 
 165      3A664751 
 165      6BDC8366 
 166 00ca 16D14F5C 		.ascii	"\026\321O\\\",aP\340\217\337\255\277\215\351D@\375q"
 166      222C6150 
 166      E08FDFAD 
 166      BF8DE944 
 166      40FD71
 167 00dd ED59A367 		.ascii	"\355Y\243g\340\266P\275\2573\261\353\306s\343B\277\337"
 167      E0B650BD 
 167      AF33B1EB 
 167      C673E342 
 167      BFDF
 168 00ef 49976074 		.ascii	"I\227`t\243\372g\266\327v\305x\034\313\030\010-\243"
 168      A3FA67B6 
ARM GAS  e:\temp\ccY6p1se.s 			page 12


 168      D776C578 
 168      1CCB1808 
 168      2DA3
 169 0101 029B9700 		.ascii	"\002\233\227\000\251\254\214z\306\367\013\306k\357|"
 169      A9AC8C7A 
 169      C6F70BC6 
 169      6BEF7C
 170 0110 32B32BCA 		.ascii	"2\263+\312\022\\\324\301\327\202\030\210\260\025\313"
 170      125CD4C1 
 170      D7821888 
 170      B015CB
 171 011f 0E0A442D 		.ascii	"\016\012D-\246\313z\332J\311\255\233\250\377\274\360"
 171      A6CB7ADA 
 171      4AC9AD9B 
 171      A8FFBCF0 
 172 012f 7E2D298A 		.ascii	"~-)\212\005-\253\232+\326_v\311\324\221\300\256\267"
 172      052DAB9A 
 172      2BD65F76 
 172      C9D491C0 
 172      AEB7
 173 0141 BCB0DD1B 		.ascii	"\274\260\335\033\246n\351\212\221\275\270\237>/t\317"
 173      A66EE98A 
 173      91BDB89F 
 173      3E2F74CF 
 174 0151 E356CECD 		.ascii	"\343V\316\315\031s\224\325m\254\262\353\025q\215*\346"
 174      197394D5 
 174      6DACB2EB 
 174      15718D2A 
 174      E6
 175 0162 410DE4CD 		.ascii	"A\015\344\315\221\300$7eYj\242\360\253\264y8\354\242"
 175      91C02437 
 175      65596AA2 
 175      F0ABB479 
 175      38ECA2
 176 0175 C346B5DA 		.ascii	"\303F\265\332\364F\240l\241\345\373~\037\036\260@\003"
 176      F446A06C 
 176      A1E5FB7E 
 176      1F1EB040 
 176      03
 177 0186 EA1F4F87 		.ascii	"\352\037O\207\274\357k\307Bb\244\240\245\177\345\313"
 177      BCEF6BC7 
 177      4262A4A0 
 177      A57FE5CB 
 178 0196 56C50E89 		.ascii	"V\305\016\211}x\310$Fm\227\236\252\020\0246\210t*\331"
 178      7D78C824 
 178      466D979E 
 178      AA101436 
 178      88742AD9 
 179 01aa 8CA9CF55 		.ascii	"\214\251\317U?\276\356\222\332\3773\364t\216\360\210"
 179      3FBEEE92 
 179      DAFF33F4 
 179      748EF088 
 180 01ba 4710CA26 		.ascii	"G\020\312&\362\336\345\224\020\202\277\321R\220\225"
 180      F2DEE594 
 180      1082BFD1 
 180      529095
 181 01c9 F102E307 		.ascii	"\361\002\343\007\235\323N\366\370\244sb<\2259\223\235"
ARM GAS  e:\temp\ccY6p1se.s 			page 13


 181      9DD34EF6 
 181      F8A47362 
 181      3C953993 
 181      9D
 182 01da 70C692A9 		.ascii	"p\306\222\251\314\320\201\261C\311\221\361\221\341\275"
 182      CCD081B1 
 182      43C991F1 
 182      91E1BD
 183 01e9 1314493B 		.ascii	"\023\024I;g\235tw\366\334\360\251\223\231\241\311l\372"
 183      679D7477 
 183      F6DCF0A9 
 183      9399A1C9 
 183      6CFA
 184 01fb 2FE170D6 		.ascii	"/\341p\326\006"
 184      06
 185              		.text
 186              		.section	.gnu.lto_HPI_IF_SetTxFifoLevel.624119b1,"",%progbits
 187 0000 789C5D51 		.ascii	"x\234]Q\317k\023Q\020~\337{\273\233\2504=\364h\017\001"
 187      CF6B1351 
 187      107EDF7B 
 187      BB9BA834 
 187      3DF4680F 
 188 0015 2925170F 		.ascii	")%\027\017\352\177P\250\366\"\261A\360P(RW\020\202\201"
 188      EA7F50A8 
 188      F622B141 
 188      F0502852 
 188      57108281 
 189 0029 10C55B5F 		.ascii	"\020\305[_6\233\026\254\224\202\266\242(ADR\253\246"
 189      369B16AC 
 189      9482B6A2 
 189      28414452 
 189      ABA6
 190 003b AD7A8920 		.ascii	"\255z\211 \254A\017\202F\374\321\273D\334\203\247\244"
 190      AC410F82 
 190      46FCD1BB 
 190      44DC83A7 
 190      A4
 191 004c 2428D276 		.ascii	"$(\322v\235\331=\2248\360\366\275\031\276\357\233of"
 191      9DD93D94 
 191      38F0F6BD 
 191      19BEEF9B 
 191      6F66
 192 005e 0D01C131 		.ascii	"\015\001\3011)\2058N\367a:P\002r\251)D1.\001~\3508\304"
 192      2985384E 
 192      F7613A50 
 192      0272A929 
 192      44312E01 
 193 0076 ACC42C7A 		.ascii	"\254\304,zrW\2421\357\327e\252\252)\276\227_\035\323"
 193      7257A231 
 193      EFD765AA 
 193      AA29BE97 
 193      5F1DD3
 194 0089 AB1ECA4A 		.ascii	"\253\036\312J\210@\206J\002U\244\010\365\331\335\270"
 194      8840864A 
 194      0255A408 
 194      F5D9DDB8 
 195 0099 A7BAB2AC 		.ascii	"\247\272\262\254\000\203\322\316\307\273?\022\234J$"
ARM GAS  e:\temp\ccY6p1se.s 			page 14


 195      0083D2CE 
 195      C7BB3F12 
 195      9C4A24
 196 00a8 29DD5A0E 		.ascii	")\335Z\016\374\204:\002A\357\205ju1>\372HkG\353\333"
 196      FC843A02 
 196      41EF856A 
 196      75313EFA 
 196      486B47EB 
 197 00bd B63E5056 		.ascii	"\266>PV\012kP\244\207\307\030\306*\206\005\225\004\236"
 197      0A6B50A4 
 197      87C718C6 
 197      2A860595 
 197      049E
 198 00cf 6094E137 		.ascii	"`\224\3417\326\3369J\245Bj\357\303b\317\034y\310To\353"
 198      D6DE394A 
 198      A5426AEF 
 198      C362CF1C 
 198      79C8546F 
 199 00e4 66E28EF6 		.ascii	"f\342\216\366\334$\323\237\366\3239\010\335\332\334"
 199      DC24D39F 
 199      F6D33908 
 199      DDDADC
 200 00f3 5B1EB05C 		.ascii	"[\036\260\\6\236\3043\214D\226Q\203EK\000W\326'=\035"
 200      369EC433 
 200      8C449651 
 200      83454B00 
 200      57D6273D 
 201 0108 0425ED7D 		.ascii	"\004%\355}\035z\323\035\212\223\004\025U\3705\300\006"
 201      1D7AD31D 
 201      8A930415 
 201      55F835C0 
 201      06
 202 0119 4CB26258 		.ascii	"L\262bXaA\2106\321y=\035)\371V>\032\177\257\373\315"
 202      61418836 
 202      D1793D1D 
 202      29F9563E 
 202      1A7FAFFB 
 203 012e 342B9614 		.ascii	"4+\226\024\257j\245\334\370\024\343\251\315\320\356"
 203      AF6AA5DC 
 203      F814E3A9 
 203      CDD0EE
 204 013d 97F7BB0F 		.ascii	"\227\367\273\017T\224\272\356-\315{\371]y\355\304*\270"
 204      5494BAEE 
 204      2DCD7BF9 
 204      5D79EDC4 
 204      2AB8
 205 014f 5F748B5A 		.ascii	"_t\213Z\237%u\013\033\344z\235]c\023\025\210\026\034"
 205      9F25750B 
 205      1BE47A9D 
 205      5D631315 
 205      88161C
 206 0162 7D263449 		.ascii	"}&4IMIV\370(\355\314m\237\216\272\250\250Q\275\276\360"
 206      4D4956F8 
 206      28EDCC6D 
 206      9F8EBAA8 
 206      A851BDBE 
 207 0177 7380950D 		.ascii	"s\200\225\015\264\203 \030\304s\022hA\356\363T\304\333"
ARM GAS  e:\temp\ccY6p1se.s 			page 15


 207      B4832018 
 207      C4731268 
 207      41EEF354 
 207      C4DB
 208 0189 6B9E8B88 		.ascii	"k\236\213\210fIq\377\332v\267fE\304A\274 \022\241\376"
 208      664971FF 
 208      DA76B766 
 208      45C441BC 
 208      2012A1FE 
 209 019d CCBD9511 		.ascii	"\314\275\225\021(j`\366+Y\204i\254tv\276\305\270\366"
 209      286A60F6 
 209      2B598469 
 209      AC7476BE 
 209      C5B8F6
 210 01b0 FF0C87FA 		.ascii	"\377\014\207\372GxI#0\345\027\034\257\227aB\3707\332"
 210      47784923 
 210      30E5171C 
 210      AF976142 
 210      F837DA
 211 01c3 12BC325A 		.ascii	"\022\2742Z`\362\244}\331\316\237/\330\027\2463\271+"
 211      60F2A47D 
 211      D9CE9F2F 
 211      D817A633 
 211      B92B
 212 01d5 F9197B2A 		.ascii	"\371\031{*\235\311\215\235\230:\225\236\230\236\030"
 212      9DC98D9D 
 212      983A959E 
 212      989E18
 213 01e4 3F3A23CC 		.ascii	"?:#\314\254}\325\316\036,\\\033\277t17V\310g\377\001"
 213      AC7DD5CE 
 213      1E2C5C1B 
 213      BF743137 
 213      56C867FF 
 214 01f9 FC67D5BA 		.ascii	"\374g\325\272"
 215              		.text
 216              		.section	.gnu.lto_HPI_IF_SetCustomInterruptHandler.624119b1,"",%progbits
 217 0000 789C2550 		.ascii	"x\234%P\273K\302Q\024>\337\275?|\004E\223\0049\010\015"
 217      BB4BC251 
 217      143EDFBD 
 217      3F7C0445 
 217      93043908 
 218 0015 E2D2547F 		.ascii	"\342\322T\177AP\271\211\016-\202\204\375\032\025$g\257"
 218      4150B989 
 218      0E2D8284 
 218      FD1A1524 
 218      67AF
 219 0027 8F1FE556 		.ascii	"\217\037\345VC\015R8\211=,st\023\251\255\007\016\266"
 219      430D5238 
 219      893D2C73 
 219      7413A9AD 
 219      070EB6
 220 003a B4949185 		.ascii	"\264\224\221\2054h\217\321\354\\;p9\347|\234\363}\337"
 220      34688FD1 
 220      EC5C3B70 
 220      39E77C9C 
 220      F37DDF
 221 004d B9068174 		.ascii	"\271\006\201t,r\362r\236\345\007I\020\273wDi\207\000"
ARM GAS  e:\temp\ccY6p1se.s 			page 16


 221      2C72F272 
 221      9EE50749 
 221      10BB7744 
 221      698700
 222 0060 74A11CA0 		.ascii	"t\241\034\240\224@\012?b(\320\334\356\326\205\257\254"
 222      94400A3F 
 222      6228D0DC 
 222      EED685AF 
 222      AC
 223 0071 389E5EDF 		.ascii	"8\236^\337\202ie\315X\222h$\306L\2042|<\325\312]\036"
 223      826965CD 
 223      58926824 
 223      C64C8432 
 223      7C3CD5CA 
 224 0087 CA6F6149 		.ascii	"\312oaI\300\340vp[x\231\322\255\200\207\333\347J3o\223"
 224      C0E07670 
 224      5B7899D2 
 224      AD8087DB 
 224      E74A336F 
 225 009c 7320AEF7 		.ascii	"s \256\367\336;k\336\222R\031\245\332\246rZR\342\024"
 225      DE3B6BDE 
 225      925219A5 
 225      DAA6725A 
 225      52E214
 226 00af 92E97002 		.ascii	"\222\351p\0027\216\341&\206\010g\360\352\351N\355w\177"
 226      378EE126 
 226      860867F0 
 226      EAE94EED 
 226      777F
 227 00c1 D296D3EA 		.ascii	"\322\226\323\352\236\177MT`\323WT\203\0155\032eU\243"
 227      9E7F4D54 
 227      60D35754 
 227      830D351A 
 227      6555A3
 228 00d4 E5BAFE74 		.ascii	"\345\272\376t\031\354]\257P\237g\364\021\003!t\226]"
 228      19EC5DAF 
 228      509F67F4 
 228      11032174 
 228      965D
 229 00e6 640AB576 		.ascii	"d\012\265v\311\251\327\230\357\300j\336\333\2651cl\246"
 229      C9A9D798 
 229      EFC06ADE 
 229      DBB53163 
 229      6CA6
 230 00f8 5EFF78B4 		.ascii	"^\377x\264\247\206jG\251i\306\362|\230\206{7\355\253"
 230      A7866A47 
 230      A969C6F2 
 230      7C98867B 
 230      37EDAB
 231 010b 89228ED2 		.ascii	"\211\"\216\322j\214K\\\360o\234\2635B\025Ed\245\240"
 231      6A8C4B5C 
 231      F06F9CB3 
 231      35421545 
 231      64A5A0
 232 011e 1E328DAF 		.ascii	"\0362\215\257\007\241i\307\377\320\027\320z\254\356"
 232      07A169C7 
 232      FFD017D0 
ARM GAS  e:\temp\ccY6p1se.s 			page 17


 232      7AACEE
 233 012d 59316366 		.ascii	"Y1cfb}\313\334\210\204\342\311D\324\014\007B\361\245"
 233      627DCBDC 
 233      8884E2C9 
 233      44D40C07 
 233      42F1A5
 234 0140 85F06AC0 		.ascii	"\205\360j\300\037\361/\317G\311\330L\306\242\177\222"
 234      1FF12FCF 
 234      47C9D84C 
 234      C6A27F92 
 235 0150 797AAD   		.ascii	"yz\255"
 236              		.text
 237              		.section	.gnu.lto_.symbol_nodes.624119b1,"",%progbits
 238 0000 789C558C 		.ascii	"x\234U\214\313\015\302@\014\005\237\327\331\374\023"
 238      CB0DC240 
 238      0C059FD7 
 238      D9FC13
 239 000f 1015C099 		.ascii	"\020\025\300\231+\375\275\205\012h\001D\011\\\340\314"
 239      2BFDBD85 
 239      0A680144 
 239      095CE0CC 
 240 001f 991A404A 		.ascii	"\231\032@J\035\010'\021\022>\215fl\275\014\202\255\000"
 240      1D082711 
 240      123E8D66 
 240      6CBD0C82 
 240      AD00
 241 0031 081581E3 		.ascii	"\010\025\201\343\0230\334\322)\251\245@\371\245{\332"
 241      1330DCD2 
 241      29A9A540 
 241      F9A57BDA 
 242 0041 5850061F 		.ascii	"XP\006\0372\252\013\021\330\257\306\265\310\314\177"
 242      32AA0B11 
 242      D8AFC6B5 
 242      C8CC7F
 243 0050 E68C3E14 		.ascii	"\346\214>\024\314}(Y\370-\221iK:\226\323\001Him\336"
 243      CC7D2859 
 243      F82D9169 
 243      4B3A96D3 
 243      0148696D 
 244 0065 B272BE60 		.ascii	"\262r\276`\355|\311\306y\317\366\337\0255.\257\217\250"
 244      ED7CC9C6 
 244      79CFF6DF 
 244      15352EAF 
 244      8FA8
 245 0077 34330370 		.ascii	"43\003px\033\265\301p\335\251\371y\324\330\317\347\330"
 245      781BB5C1 
 245      70DDA9F9 
 245      79D4D8CF 
 245      E7D8
 246 0089 E131B1C5 		.ascii	"\3411\261\305`\035_U<C\375"
 246      601D5F55 
 246      3C43FD
 247              		.text
 248              		.section	.gnu.lto_.refs.624119b1,"",%progbits
 249 0000 789C6361 		.ascii	"x\234ca`d\340c```bf`addaa\344`\344dd\000\000\002\213"
 249      6064E063 
 249      60606062 
ARM GAS  e:\temp\ccY6p1se.s 			page 18


 249      66606164 
 249      646161E4 
 250 001c 003B     		.ascii	"\000;"
 251              		.text
 252              		.section	.gnu.lto_.decls.624119b1,"",%progbits
 253 0000 789C9595 		.ascii	"x\234\225\225kL\024W\024\200\347\316,\013\354\003Zb"
 253      6B4C1457 
 253      1480E7CE 
 253      2C0BEC03 
 253      5A62
 254 0012 0D3F3629 		.ascii	"\015?6)51\2204\301\252M\323\376k\263\025%AC\252\345"
 254      35319034 
 254      C1AA4DD3 
 254      FE6BB315 
 254      254143AA 
 255 0027 4F4D088F 		.ascii	"OM\010\217QI\350B\326\245)\377\006\320\212H\313\303"
 255      5149E842 
 255      D6A529FF 
 255      06D08A48 
 255      CBC3
 256 0039 CA435141 		.ascii	"\312CQAR\005E^\213\340\023V\020\001\225\347\202 (\254"
 256      5205455E 
 256      8BE01356 
 256      100195E7 
 256      822028AC 
 257 004d F250AB6D 		.ascii	"\362P\253mi\213P\032\225\236\373\230\235\001\241io8"
 257      698B501A 
 257      959EFB98 
 257      9D01A169 
 257      6F38
 258 005f 3B73EF9C 		.ascii	";s\357\234\363\235\347\014\032\016qx\255\366\346\270"
 258      F39DE70C 
 258      1A0E7178 
 258      ADF6E6B8 
 259 006f 66B84DE4 		.ascii	"f\270M\3449n\001\026l\271\010\020\374\324\304\321e\004"
 259      396E0116 
 259      6CB90810 
 259      FCD4C4D1 
 259      6504
 260 0081 390F5205 		.ascii	"9\017R\005R\003b\007\271\000\342\000i\006i\003\351\001"
 260      52036207 
 260      B900E200 
 260      69066903 
 260      E901
 261 0093 E903E907 		.ascii	"\351\003\351\007\271\0132\004\002Hn\004d\224[\2740K"
 261      B90B3204 
 261      02486E04 
 261      64945BBC 
 261      304B
 262 00a5 C3FC8C31 		.ascii	"\303\374\2141?\335\354\031\317\236\367po.\354_`v7@*"
 262      3FDDEC19 
 262      CF9EF770 
 262      6F2EEC5F 
 262      60763740 
 263 00ba 543655CC 		.ascii	"T6U\314\377\322\205\343\3252\233@\220\011\220\361e\354"
 263      FFD285E3 
 263      D5329B40 
ARM GAS  e:\temp\ccY6p1se.s 			page 19


 263      900990F1 
 263      65EC
 264 00cc 6B98DFA5 		.ascii	"k\230\337\245\313\256\262\307qN\202t.\261\3270=9\006"
 264      CBAEB2C7 
 264      714E8274 
 264      2EB1D730 
 264      3D3906
 265 00df CC422C77 		.ascii	"\314B,w\365\3025\223\353\033\270$w\231'\307\207\227"
 265      F5C23593 
 265      EB1BB824 
 265      779927C7 
 265      8797
 266 00f1 07B3C1B5 		.ascii	"\007\263\301\265|\314\321\272\366/\023\243\003\304\223"
 266      7CCCD1BA 
 266      F62F13A3 
 266      03C493
 267 0100 71FD4056 		.ascii	"q\375@V\201\\]\222/\307br,c\337\374?\354\233\227\261"
 267      815C5D92 
 267      2FC76272 
 267      2C63DFFC 
 267      3FEC9B97 
 268 0115 6F63B1AA 		.ascii	"oc\261\252\355q>OTvm\354\272t\026^\361h\341xe\231\367"
 268      ED713E4F 
 268      54766DEC 
 268      BA74165E 
 268      F168E178 
 269 012c 08BA8778 		.ascii	"\010\272\207x\304\206\222C\210\376\"\"\034\025\262\205"
 269      C4869243 
 269      88FE2222 
 269      1C15B285 
 270 013c 1B9EFC72 		.ascii	"\033\236\374r\356#\367\205\303\277\034\325'g\012\214"
 270      EE23F785 
 270      C3BF1CD5 
 270      27670A8C 
 271 014c FCC9D705 		.ascii	"\374\311\327\005y\021\210BG\314\010\271#\240V\3649\317"
 271      79118842 
 271      47CC08B9 
 271      23A056F4 
 271      39CF
 272 015e D4380AE7 		.ascii	"\3248\012\347\025\003\025\217\206\253\212\011-\316\011"
 272      1503158F 
 272      86AB8A09 
 272      2DCE09
 273 016d C949BF48 		.ascii	"\311I\277H\277|S/\000\023\356\307\346\313B\202+$X\331"
 273      BF7C532F 
 273      0013EEC7 
 273      E6CB4282 
 273      2B2458D9 
 274 0181 92C4AF53 		.ascii	"\222\304\257S*\323\2720\347\360\235\341\221\237\016"
 274      2AD3BA30 
 274      E7F09DE1 
 274      919F0E
 275 0190 F1B0ED9B 		.ascii	"\361\260\355\233\276s\\\017\333U:\364\026l\2375\026"
 275      BE735C0F 
 275      DB553AF4 
 275      166C9F35 
 275      16
ARM GAS  e:\temp\ccY6p1se.s 			page 20


 276 01a1 2E18FDF3 		.ascii	".\030\375\363\260\235\224&\005\360(b5:\207L\350,\202"
 276      B09D9426 
 276      05F02862 
 276      353A874C 
 276      E82C82
 277 01b4 A14215C8 		.ascii	"\241B\025\310\037~\2435\224\32487\230\245YS,9\252%W"
 277      1F7EA335 
 277      94D43837 
 277      98A55953 
 277      2C39AA25 
 278 01c9 4E4DF0F1 		.ascii	"NM\360\361ZI\332\017f\032\254\206\312\220\200\312Q0"
 278      5A49DA0F 
 278      661AAC86 
 278      CA9080CA 
 278      5130
 279 01db 0E0F6EF1 		.ascii	"\016\017n\361\345\014\032\201\270\317\2435`\372\270"
 279      E50C1A81 
 279      B8CFA335 
 279      60FAB8
 280 01ea 347BC820 		.ascii	"4{\310 |F\"\355H\351\266{\002\306U-9\346\016\010\205"
 280      7C4622ED 
 280      48E9B67B 
 280      02C6552D 
 280      39E60E08 
 281 01ff 92235592 		.ascii	"\222#U\222RxB\251T(\225jJ\025\241\214\346\337\237@\302"
 281      527842A9 
 281      5428956A 
 281      4A15A18C 
 281      E6DF9F40 
 282 0214 5642C96A 		.ascii	"VB\311ji\272\350\313(\365\267\015R\017D\362)aT+\214"
 282      69BAE8CB 
 282      28F5B70D 
 282      520F44F2 
 282      2961542B 
 283 0229 6A35A386 		.ascii	"j5\243\2060Z3\033\317z\010_\021\306\311\227\263\000"
 283      305A331B 
 283      CF7A085F 
 283      11C6C997 
 283      B300
 284 023b 2E968A81 		.ascii	".\226\212\201\321\337\245f\324*\214Z5\303N\030\2319"
 284      D1DFA566 
 284      D42A8C5A 
 284      35C34E18 
 284      9939
 285 024d F6021F61 		.ascii	"\366\002\037a\017a\224\277xd\3273Fc\267\232Q\2470\352"
 285      0F6194BF 
 285      7864D733 
 285      4663B79A 
 285      51A730EA 
 286 0261 D48C0B84 		.ascii	"\324\214\013\204q\372X[>\022l\204\361\240\275\374\234"
 286      71FA585B 
 286      3E126C84 
 286      F1A0BDFC 
 286      9C
 287 0272 003D09D4 		.ascii	"\000=\011\324!<\001\276pT\365\374\322\274\221\036a\215"
 287      213C01BE 
 287      7054F5FC 
ARM GAS  e:\temp\ccY6p1se.s 			page 21


 287      D2BC911E 
 287      618D
 288 0284 5B63937F 		.ascii	"[c\223\177x\013\031\210lz\367U\027\011\264\243\032\330"
 288      780B1988 
 288      6C7AF755 
 288      1709B4A3 
 288      1AD8
 289 0296 FEDE7974 		.ascii	"\376\336yt\334\207v4\340\025\317\367\025>\037\323\""
 289      DC877634 
 289      E015CFF7 
 289      153E1FD3 
 289      22
 290 02a7 5D50BA24 		.ascii	"]P\272$\245J\331i\222\337\026\016]\201\216^\206\216"
 290      A54AD969 
 290      92DF160E 
 290      5D818E5E 
 290      868E
 291 02b9 A26B2808 		.ascii	"\242k(\010#qX\350\"\0346\300\341i\334{\2273cw\376\001"
 291      237158E8 
 291      221C36C0 
 291      E169DC7B 
 291      97336377 
 292 02cf 981C7415 		.ascii	"\230\034t\025\351\320%%\364@\035{\301\\u\331\274\006"
 292      E9D02525 
 292      F4401D7B 
 292      C15C75D9 
 292      BC06
 293 02e1 BE724401 		.ascii	"\276rD\001F\002\316\006\212\246\235\372\025\207\247"
 293      4602CE06 
 293      8AA69DFA 
 293      1587A7
 294 02f0 890C4F23 		.ascii	"\211\014O#b\323\2239~\243FK\013\345\312\271\2666/M*"
 294      62D39339 
 294      7EA3464B 
 294      0BE5CAB9 
 294      B6362F4D 
 295 0305 03B300AC 		.ascii	"\003\263\000\254\206\352\025\177\365\352R9H\251~\255"
 295      86EA157F 
 295      F5EA5239 
 295      48A97EAD 
 296 0315 FFEDBE4E 		.ascii	"\377\355\276N\260\323\344\347\353\306\207<Y\275{\234"
 296      B0D3E4E7 
 296      EBC6873C 
 296      59BD7B9C 
 297 0325 72BD31E4 		.ascii	"r\2751\344\272\002\271\256\2064\023H\327\221\202\367"
 297      BA02B9AE 
 297      86341348 
 297      D79182F7 
 298 0335 850ECAC8 		.ascii	"\205\016\312\310=\222v\306\323\220\341.\020i\227\\#"
 298      3D9276C6 
 298      D390E12E 
 298      1069975C 
 298      23
 299 0346 0EDD4006 		.ascii	"\016\335@\006\006\002\335\347-\265G\215$o|L\363\256"
 299      0602DDE7 
 299      2DB5478D 
 299      246F7C4C 
ARM GAS  e:\temp\ccY6p1se.s 			page 22


 299      F3AE
 300 0358 296E29F6 		.ascii	")n)\366^1\357\233$\357V9\357\301\251)'\313\333\321\224"
 300      5E31EF9B 
 300      24EF5639 
 300      EFC1A929 
 300      27CBDBD1 
 301 036d 67A4E30E 		.ascii	"g\244\343\016u\0065\324\242\204\334\242\016\271\215"
 301      750635D4 
 301      A284DCA2 
 301      0EB98D
 302 037c 847C6238 		.ascii	"\204|b8\275\301K\370\231\306\\\265\177\242\334\013\272"
 302      BDC14BF8 
 302      99C65CB5 
 302      7FA2DC0B 
 302      BA
 303 038d 6C821941 		.ascii	"l\202\031A\252\0011\321\001)\314\031\177\255\027f\211"
 303      AA0131D1 
 303      0129CC19 
 303      7FAD1766 
 303      89
 304 039e 2EEF1C3F 		.ascii	".\357\034?\367T\203\202trgw\321\316vB\343n+\036M\270"
 304      F7548382 
 304      74726777 
 304      D1CE7642 
 304      E36E2B1E 
 305 03b4 B3644AA6 		.ascii	"\263dJ\246OIZ\177\016m4\241\017`F\356\300\214\230\330"
 305      4F495A7F 
 305      0E6D34A1 
 305      0F6046EE 
 305      C08C98D8 
 306 03c8 8CDC82AC 		.ascii	"\214\334\202\254: +\3600\231\177\362\231\226\024\242"
 306      3A202BF0 
 306      30997FF2 
 306      999614A2 
 307 03d8 D33D005D 		.ascii	"\323=\000]?\336\353C+\026\242\233\024\242K.\304\350"
 307      3FDEEB43 
 307      2B16A29B 
 307      14A24B2E 
 307      C4E8
 308 03ea 2FAF6778 		.ascii	"/\257gx\374\306BL\363\335\233\322J\277s\204\023%\324"
 308      FCC6424C 
 308      F3DD9BD2 
 308      4ABF7384 
 308      1325D4
 309 03fd AE04D54E 		.ascii	"\256\004\325N\312\0007=\244\004/\017\347\266\353\205"
 309      CA00373D 
 309      A4042F0F 
 309      E7B6EB85 
 310 040d 22FA896B 		.ascii	"\"\372\211k\3158qP\317\000\015\316\260\022\012\300\275"
 310      CD387150 
 310      CF000DCE 
 310      B0120AC0 
 310      BD
 311 041e EB5500BD 		.ascii	"\353U\000\2752\240\217\000z\312K\032|\205~\012\350\036"
 311      32A08F00 
 311      7ACA4B1A 
 311      7C857E0A 
ARM GAS  e:\temp\ccY6p1se.s 			page 23


 311      E81E
 312 0430 CA2BD5CA 		.ascii	"\312+\325\312\021d\205\251\"p*\000\247\014\350'\200"
 312      116485A9 
 312      22702A00 
 312      A70CE827 
 312      80
 313 0441 12576F87 		.ascii	"\022Wo\207\2470E\001\317*\027\332\275\344\010\016o{"
 313      A7304501 
 313      CF2A17DA 
 313      BDE4080E 
 313      6F7B
 314 0453 582BEDF3 		.ascii	"X+\355\363 \001\014(\366\003\262\375]b\2373\237[(\010"
 314      20010C28 
 314      F603B2FD 
 314      5D629F33 
 314      9F5B2808 
 315 0467 2FA87D41 		.ascii	"/\250}Acq\236\267\273\004!\252\000\006\025\300\240\014"
 315      63719EB7 
 315      BB0421AA 
 315      000615C0 
 315      A00C
 316 0479 18A2833B 		.ascii	"\030\242\203;\322\376\311\014m\036F4U\264\375 \010\251"
 316      D2FEC90C 
 316      6D1E4634 
 316      55B4FD20 
 316      08A9
 317 048b 02D994B8 		.ascii	"\002\331\224\270\006\232}\326\226J\305\247\340\235\372"
 317      069A7DD6 
 317      964AC5A7 
 317      E09DFA
 318 049a C938972A 		.ascii	"\3118\227*\371\023\305aJc\035\345\310\376\036~\377G"
 318      F913C561 
 318      4A631DE5 
 318      C8FE1E7E 
 318      FF47
 319 04ac D05AFCC5 		.ascii	"\320Z\374\305\350\251z\212\200\211'\032cf.8\263\264"
 319      E8A97A8A 
 319      8089271A 
 319      63662E38 
 319      B3B4
 320 04be 420E654E 		.ascii	"B\016eN_\031\0323R\246\343\360\001\037\230W\015Q|\300"
 320      5F191A33 
 320      52A6E3F0 
 320      011F9857 
 320      0D517CC0 
 321 04d2 98CA7B82 		.ascii	"\230\312{\202O\356c\352(\241J\247\377\266{\253\337\252"
 321      4FEE63EA 
 321      28A14AA7 
 321      FFB67BAB 
 321      DFAA
 322 04e4 EE456FD5 		.ascii	"\356Eo\325\0302\220\254\340\012\312\007\037\036\031"
 322      183290AC 
 322      E00ACA07 
 322      1F1E19
 323 04f3 F6D0A5E3 		.ascii	"\366\320\245\343\261\371/\337(\260\270<*\025y\010gI"
 323      B1F92FDF 
 323      28B0B83C 
ARM GAS  e:\temp\ccY6p1se.s 			page 24


 323      2A157908 
 323      6749
 324 0505 90FCC0A1 		.ascii	"\220\374\300\241\206\002A5\341;\216\346\246\300\267"
 324      86024135 
 324      E13B8EE6 
 324      A6C0B7
 325 0514 641C727F 		.ascii	"d\034r\177\250T\322\205\330\210\277\351\344\321\362"
 325      A854D285 
 325      D888BFE9 
 325      E4D1F2
 326 0523 4E66FFEA 		.ascii	"Nf\377\352\3104\250s\300D%\207\011\226\303\004\311!"
 326      C834A873 
 326      C0442587 
 326      0996C304 
 326      C921
 327 0535 E55849AE 		.ascii	"\345XI\256\257Z\271s\221\362$S\236$\312\031\177\016"
 327      AF5AB973 
 327      91F22453 
 327      9E24CA19 
 327      7F0E
 328 0547 DD12846A 		.ascii	"\335\022\204jZ\343\271\341kc\236\362\177\322\362\217"
 328      5AE3B9E1 
 328      6B639EF2 
 328      7FD2F28F 
 329 0557 D87FD254 		.ascii	"\330\177\322T\372\237tJI`J\375QxL\306\341\373C\245\263"
 329      FA9F744A 
 329      49604AFD 
 329      51784CC6 
 329      E1FB43A5 
 330 056c 5AB553DC 		.ascii	"Z\265S\334\033\305\351\023\346\024_Wm\011\017\215\014"
 330      1BC5E913 
 330      E6145F57 
 330      6D090F8D 
 330      0C
 331 057d 0D89DC1E 		.ascii	"\015\211\334\036\023\275\311\022\025\035/\206ZlV\257"
 331      13BDC912 
 331      151D2F86 
 331      5A6C56AF 
 332 058d CDDBBE0C 		.ascii	"\315\333\276\0140\257_\317\005l\026-\2425\312&\306F"
 332      30AF5FCF 
 332      056C162D 
 332      A235CA26 
 332      C646
 333 059f 6E4F48B2 		.ascii	"nOH\262\306\210;\303\267'\230?\334I\215\202c8=3\017"
 333      C6883BC3 
 333      B727983F 
 333      DC498D82 
 333      63383D33 
 334 05b4 B5C4D98C 		.ascii	"\265\304\331\214\354\236r\0142\330\026e\265\351\335"
 334      EC9E720C 
 334      32D81665 
 334      B5E9DD
 335 05c3 9B84C477 		.ascii	"\233\204\304w\344{\321\366\305\267!q\273\022\302\304"
 335      E47BD1F6 
 335      C5B72171 
 335      BB12C2C4 
 336 05d3 6FC4786D 		.ascii	"o\304xmR\234\305\266q\303{\313;\\\027\223lKN\024\367"
ARM GAS  e:\temp\ccY6p1se.s 			page 25


 336      529CC5B6 
 336      71C37BCB 
 336      3B5C1793 
 336      6C4B4E14 
 337 05e8 06EFE154 		.ascii	"\006\357\341T\346;\024\363\000\345\324\234\264\327\226"
 337      E63B14F3 
 337      00E5D49C 
 337      B4D796
 338 05f7 F035A421 		.ascii	"\3605\244!Z\255I\211\266-Q\226\330x\321\2527'\303\021"
 338      5AAD4989 
 338      B62D5196 
 338      D878D1AA 
 338      3727C311 
 339 060b 0DCD03FB 		.ascii	"\015\315\003\373\372\370\335\025\\\231\223\303\342\242"
 339      FAF8DD15 
 339      5C9993C3 
 339      E2A2
 340 0619 C1918F9C 		.ascii	"\301\221\217\234\332\0063\316.\350_K\201\265\"\303#"
 340      DA0633CE 
 340      2EE85F4B 
 340      81B522C3 
 340      23
 341 062a 7680DDDB 		.ascii	"v\200\335\333\304\2239^\214\262\206\213\226\3308\313"
 341      C493395E 
 341      8CB2868B 
 341      96D838CB 
 342 063a 6E150917 		.ascii	"n\025\011\027\300@\024>\217\333\213c\221\237\305\201"
 342      C040143E 
 342      8FDB8B63 
 342      919FC581 
 343 064a 8B8828AB 		.ascii	"\213\210(\253?\333\306\310IXY\374\036Vq\367\306\015"
 343      3FDBC6C8 
 343      495859FC 
 343      1E5671F7 
 343      C60D
 344 065c 7E4AB7B6 		.ascii	"~J\267\266&\304\212\230\366\017\207\257\201\303"
 344      26C48A98 
 344      F60F87AF 
 344      81C3
 345              		.text
 346              		.section	.gnu.lto_.symtab.624119b1,"",%progbits
 347 0000 4850495F 		.ascii	"HPI_IF_Init\000"
 347      49465F49 
 347      6E697400 
 348 000c 00       		.ascii	"\000"
 349 000d 00       		.ascii	"\000"
 350 000e 00       		.ascii	"\000"
 351 000f 00000000 		.ascii	"\000\000\000\000\000\000\000\000"
 351      00000000 
 352 0017 AF000000 		.ascii	"\257\000\000\000"
 353 001b 4850495F 		.ascii	"HPI_IF_Enable\000"
 353      49465F45 
 353      6E61626C 
 353      6500
 354 0029 00       		.ascii	"\000"
 355 002a 00       		.ascii	"\000"
 356 002b 00       		.ascii	"\000"
ARM GAS  e:\temp\ccY6p1se.s 			page 26


 357 002c 00000000 		.ascii	"\000\000\000\000\000\000\000\000"
 357      00000000 
 358 0034 B1000000 		.ascii	"\261\000\000\000"
 359 0038 4850495F 		.ascii	"HPI_IF_Start\000"
 359      49465F53 
 359      74617274 
 359      00
 360 0045 00       		.ascii	"\000"
 361 0046 00       		.ascii	"\000"
 362 0047 00       		.ascii	"\000"
 363 0048 00000000 		.ascii	"\000\000\000\000\000\000\000\000"
 363      00000000 
 364 0050 B3000000 		.ascii	"\263\000\000\000"
 365 0054 4850495F 		.ascii	"HPI_IF_initVar\000"
 365      49465F69 
 365      6E697456 
 365      617200
 366 0063 00       		.ascii	"\000"
 367 0064 00       		.ascii	"\000"
 368 0065 00       		.ascii	"\000"
 369 0066 00000000 		.ascii	"\000\000\000\000\000\000\000\000"
 369      00000000 
 370 006e DB000000 		.ascii	"\333\000\000\000"
 371 0072 4850495F 		.ascii	"HPI_IF_Stop\000"
 371      49465F53 
 371      746F7000 
 372 007e 00       		.ascii	"\000"
 373 007f 00       		.ascii	"\000"
 374 0080 00       		.ascii	"\000"
 375 0081 00000000 		.ascii	"\000\000\000\000\000\000\000\000"
 375      00000000 
 376 0089 B5000000 		.ascii	"\265\000\000\000"
 377 008d 4850495F 		.ascii	"HPI_IF_SetRxFifoLevel\000"
 377      49465F53 
 377      65745278 
 377      4669666F 
 377      4C657665 
 378 00a3 00       		.ascii	"\000"
 379 00a4 00       		.ascii	"\000"
 380 00a5 00       		.ascii	"\000"
 381 00a6 00000000 		.ascii	"\000\000\000\000\000\000\000\000"
 381      00000000 
 382 00ae C0000000 		.ascii	"\300\000\000\000"
 383 00b2 4850495F 		.ascii	"HPI_IF_SetTxFifoLevel\000"
 383      49465F53 
 383      65745478 
 383      4669666F 
 383      4C657665 
 384 00c8 00       		.ascii	"\000"
 385 00c9 00       		.ascii	"\000"
 386 00ca 00       		.ascii	"\000"
 387 00cb 00000000 		.ascii	"\000\000\000\000\000\000\000\000"
 387      00000000 
 388 00d3 C2000000 		.ascii	"\302\000\000\000"
 389 00d7 4850495F 		.ascii	"HPI_IF_SetCustomInterruptHandler\000"
 389      49465F53 
 389      65744375 
ARM GAS  e:\temp\ccY6p1se.s 			page 27


 389      73746F6D 
 389      496E7465 
 390 00f8 00       		.ascii	"\000"
 391 00f9 00       		.ascii	"\000"
 392 00fa 00       		.ascii	"\000"
 393 00fb 00000000 		.ascii	"\000\000\000\000\000\000\000\000"
 393      00000000 
 394 0103 C7000000 		.ascii	"\307\000\000\000"
 395 0107 4850495F 		.ascii	"HPI_IF_customIntrHandler\000"
 395      49465F63 
 395      7573746F 
 395      6D496E74 
 395      7248616E 
 396 0120 00       		.ascii	"\000"
 397 0121 00       		.ascii	"\000"
 398 0122 00       		.ascii	"\000"
 399 0123 00000000 		.ascii	"\000\000\000\000\000\000\000\000"
 399      00000000 
 400 012b DE000000 		.ascii	"\336\000\000\000"
 401 012f 4379496E 		.ascii	"CyIntEnable\000"
 401      74456E61 
 401      626C6500 
 402 013b 00       		.ascii	"\000"
 403 013c 02       		.ascii	"\002"
 404 013d 00       		.ascii	"\000"
 405 013e 00000000 		.ascii	"\000\000\000\000\000\000\000\000"
 405      00000000 
 406 0146 D0000000 		.ascii	"\320\000\000\000"
 407 014a 4850495F 		.ascii	"HPI_IF_I2CInit\000"
 407      49465F49 
 407      3243496E 
 407      697400
 408 0159 00       		.ascii	"\000"
 409 015a 02       		.ascii	"\002"
 410 015b 00       		.ascii	"\000"
 411 015c 00000000 		.ascii	"\000\000\000\000\000\000\000\000"
 411      00000000 
 412 0164 D2000000 		.ascii	"\322\000\000\000"
 413 0168 4379496E 		.ascii	"CyIntClearPending\000"
 413      74436C65 
 413      61725065 
 413      6E64696E 
 413      6700
 414 017a 00       		.ascii	"\000"
 415 017b 02       		.ascii	"\002"
 416 017c 00       		.ascii	"\000"
 417 017d 00000000 		.ascii	"\000\000\000\000\000\000\000\000"
 417      00000000 
 418 0185 D4000000 		.ascii	"\324\000\000\000"
 419 0189 4850495F 		.ascii	"HPI_IF_I2CStop\000"
 419      49465F49 
 419      32435374 
 419      6F7000
 420 0198 00       		.ascii	"\000"
 421 0199 02       		.ascii	"\002"
 422 019a 00       		.ascii	"\000"
 423 019b 00000000 		.ascii	"\000\000\000\000\000\000\000\000"
ARM GAS  e:\temp\ccY6p1se.s 			page 28


 423      00000000 
 424 01a3 D6000000 		.ascii	"\326\000\000\000"
 425 01a7 4379496E 		.ascii	"CyIntDisable\000"
 425      74446973 
 425      61626C65 
 425      00
 426 01b4 00       		.ascii	"\000"
 427 01b5 02       		.ascii	"\002"
 428 01b6 00       		.ascii	"\000"
 429 01b7 00000000 		.ascii	"\000\000\000\000\000\000\000\000"
 429      00000000 
 430 01bf D8000000 		.ascii	"\330\000\000\000"
 431              		.text
 432              		.section	.gnu.lto_.opts,"",%progbits
 433 0000 272D666D 		.ascii	"'-fmath-errno' '-fsigned-zeros' '-ftrapping-math' '"
 433      6174682D 
 433      6572726E 
 433      6F272027 
 433      2D667369 
 434 0033 2D666E6F 		.ascii	"-fno-trapv' '-fno-openmp' '-fno-openacc' '-mcpu=cor"
 434      2D747261 
 434      70762720 
 434      272D666E 
 434      6F2D6F70 
 435 0066 7465782D 		.ascii	"tex-m0' '-mthumb' '-g' '-Os' '-Werror' '-ffunction-"
 435      6D302720 
 435      272D6D74 
 435      68756D62 
 435      2720272D 
 436 0099 73656374 		.ascii	"sections' '-ffat-lto-objects' '-finline-functions' "
 436      696F6E73 
 436      2720272D 
 436      66666174 
 436      2D6C746F 
 437 00cc 272D666C 		.ascii	"'-flto' '-fno-strict-aliasing'\000"
 437      746F2720 
 437      272D666E 
 437      6F2D7374 
 437      72696374 
 438              		.text
 439              		.cfi_sections	.debug_frame
 440              		.section	.text.HPI_IF_Init,"ax",%progbits
 441              		.align	1
 442              		.global	HPI_IF_Init
 443              		.code	16
 444              		.thumb_func
 445              		.type	HPI_IF_Init, %function
 446              	HPI_IF_Init:
 447              	.LFB0:
 448              		.file 1 "Generated_Source\\PSoC4\\HPI_IF.c"
   1:Generated_Source\PSoC4/HPI_IF.c **** /***************************************************************************//**
   2:Generated_Source\PSoC4/HPI_IF.c **** * \file HPI_IF.c
   3:Generated_Source\PSoC4/HPI_IF.c **** * \version 4.0
   4:Generated_Source\PSoC4/HPI_IF.c **** *
   5:Generated_Source\PSoC4/HPI_IF.c **** * \brief
   6:Generated_Source\PSoC4/HPI_IF.c **** *  This file provides the source code to the API for the SCB Component.
   7:Generated_Source\PSoC4/HPI_IF.c **** *
ARM GAS  e:\temp\ccY6p1se.s 			page 29


   8:Generated_Source\PSoC4/HPI_IF.c **** * Note:
   9:Generated_Source\PSoC4/HPI_IF.c **** *
  10:Generated_Source\PSoC4/HPI_IF.c **** *******************************************************************************
  11:Generated_Source\PSoC4/HPI_IF.c **** * \copyright
  12:Generated_Source\PSoC4/HPI_IF.c **** * Copyright 2013-2017, Cypress Semiconductor Corporation.  All rights reserved.
  13:Generated_Source\PSoC4/HPI_IF.c **** * You may use this file only in accordance with the license, terms, conditions,
  14:Generated_Source\PSoC4/HPI_IF.c **** * disclaimers, and limitations in the end user license agreement accompanying
  15:Generated_Source\PSoC4/HPI_IF.c **** * the software package with which this file was provided.
  16:Generated_Source\PSoC4/HPI_IF.c **** *******************************************************************************/
  17:Generated_Source\PSoC4/HPI_IF.c **** 
  18:Generated_Source\PSoC4/HPI_IF.c **** #include "HPI_IF_PVT.h"
  19:Generated_Source\PSoC4/HPI_IF.c **** 
  20:Generated_Source\PSoC4/HPI_IF.c **** #if (HPI_IF_SCB_MODE_I2C_INC)
  21:Generated_Source\PSoC4/HPI_IF.c ****     #include "HPI_IF_I2C_PVT.h"
  22:Generated_Source\PSoC4/HPI_IF.c **** #endif /* (HPI_IF_SCB_MODE_I2C_INC) */
  23:Generated_Source\PSoC4/HPI_IF.c **** 
  24:Generated_Source\PSoC4/HPI_IF.c **** #if (HPI_IF_SCB_MODE_EZI2C_INC)
  25:Generated_Source\PSoC4/HPI_IF.c ****     #include "HPI_IF_EZI2C_PVT.h"
  26:Generated_Source\PSoC4/HPI_IF.c **** #endif /* (HPI_IF_SCB_MODE_EZI2C_INC) */
  27:Generated_Source\PSoC4/HPI_IF.c **** 
  28:Generated_Source\PSoC4/HPI_IF.c **** #if (HPI_IF_SCB_MODE_SPI_INC || HPI_IF_SCB_MODE_UART_INC)
  29:Generated_Source\PSoC4/HPI_IF.c ****     #include "HPI_IF_SPI_UART_PVT.h"
  30:Generated_Source\PSoC4/HPI_IF.c **** #endif /* (HPI_IF_SCB_MODE_SPI_INC || HPI_IF_SCB_MODE_UART_INC) */
  31:Generated_Source\PSoC4/HPI_IF.c **** 
  32:Generated_Source\PSoC4/HPI_IF.c **** 
  33:Generated_Source\PSoC4/HPI_IF.c **** /***************************************
  34:Generated_Source\PSoC4/HPI_IF.c **** *    Run Time Configuration Vars
  35:Generated_Source\PSoC4/HPI_IF.c **** ***************************************/
  36:Generated_Source\PSoC4/HPI_IF.c **** 
  37:Generated_Source\PSoC4/HPI_IF.c **** /* Stores internal component configuration for Unconfigured mode */
  38:Generated_Source\PSoC4/HPI_IF.c **** #if (HPI_IF_SCB_MODE_UNCONFIG_CONST_CFG)
  39:Generated_Source\PSoC4/HPI_IF.c ****     /* Common configuration variables */
  40:Generated_Source\PSoC4/HPI_IF.c ****     uint8 HPI_IF_scbMode = HPI_IF_SCB_MODE_UNCONFIG;
  41:Generated_Source\PSoC4/HPI_IF.c ****     uint8 HPI_IF_scbEnableWake;
  42:Generated_Source\PSoC4/HPI_IF.c ****     uint8 HPI_IF_scbEnableIntr;
  43:Generated_Source\PSoC4/HPI_IF.c **** 
  44:Generated_Source\PSoC4/HPI_IF.c ****     /* I2C configuration variables */
  45:Generated_Source\PSoC4/HPI_IF.c ****     uint8 HPI_IF_mode;
  46:Generated_Source\PSoC4/HPI_IF.c ****     uint8 HPI_IF_acceptAddr;
  47:Generated_Source\PSoC4/HPI_IF.c **** 
  48:Generated_Source\PSoC4/HPI_IF.c ****     /* SPI/UART configuration variables */
  49:Generated_Source\PSoC4/HPI_IF.c ****     volatile uint8 * HPI_IF_rxBuffer;
  50:Generated_Source\PSoC4/HPI_IF.c ****     uint8  HPI_IF_rxDataBits;
  51:Generated_Source\PSoC4/HPI_IF.c ****     uint32 HPI_IF_rxBufferSize;
  52:Generated_Source\PSoC4/HPI_IF.c **** 
  53:Generated_Source\PSoC4/HPI_IF.c ****     volatile uint8 * HPI_IF_txBuffer;
  54:Generated_Source\PSoC4/HPI_IF.c ****     uint8  HPI_IF_txDataBits;
  55:Generated_Source\PSoC4/HPI_IF.c ****     uint32 HPI_IF_txBufferSize;
  56:Generated_Source\PSoC4/HPI_IF.c **** 
  57:Generated_Source\PSoC4/HPI_IF.c ****     /* EZI2C configuration variables */
  58:Generated_Source\PSoC4/HPI_IF.c ****     uint8 HPI_IF_numberOfAddr;
  59:Generated_Source\PSoC4/HPI_IF.c ****     uint8 HPI_IF_subAddrSize;
  60:Generated_Source\PSoC4/HPI_IF.c **** #endif /* (HPI_IF_SCB_MODE_UNCONFIG_CONST_CFG) */
  61:Generated_Source\PSoC4/HPI_IF.c **** 
  62:Generated_Source\PSoC4/HPI_IF.c **** 
  63:Generated_Source\PSoC4/HPI_IF.c **** /***************************************
  64:Generated_Source\PSoC4/HPI_IF.c **** *     Common SCB Vars
ARM GAS  e:\temp\ccY6p1se.s 			page 30


  65:Generated_Source\PSoC4/HPI_IF.c **** ***************************************/
  66:Generated_Source\PSoC4/HPI_IF.c **** /**
  67:Generated_Source\PSoC4/HPI_IF.c **** * \addtogroup group_general
  68:Generated_Source\PSoC4/HPI_IF.c **** * \{
  69:Generated_Source\PSoC4/HPI_IF.c **** */
  70:Generated_Source\PSoC4/HPI_IF.c **** 
  71:Generated_Source\PSoC4/HPI_IF.c **** /** HPI_IF_initVar indicates whether the HPI_IF 
  72:Generated_Source\PSoC4/HPI_IF.c **** *  component has been initialized. The variable is initialized to 0 
  73:Generated_Source\PSoC4/HPI_IF.c **** *  and set to 1 the first time SCB_Start() is called. This allows 
  74:Generated_Source\PSoC4/HPI_IF.c **** *  the component to restart without reinitialization after the first 
  75:Generated_Source\PSoC4/HPI_IF.c **** *  call to the HPI_IF_Start() routine.
  76:Generated_Source\PSoC4/HPI_IF.c **** *
  77:Generated_Source\PSoC4/HPI_IF.c **** *  If re-initialization of the component is required, then the 
  78:Generated_Source\PSoC4/HPI_IF.c **** *  HPI_IF_Init() function can be called before the 
  79:Generated_Source\PSoC4/HPI_IF.c **** *  HPI_IF_Start() or HPI_IF_Enable() function.
  80:Generated_Source\PSoC4/HPI_IF.c **** */
  81:Generated_Source\PSoC4/HPI_IF.c **** uint8 HPI_IF_initVar = 0u;
  82:Generated_Source\PSoC4/HPI_IF.c **** 
  83:Generated_Source\PSoC4/HPI_IF.c **** 
  84:Generated_Source\PSoC4/HPI_IF.c **** #if (! (HPI_IF_SCB_MODE_I2C_CONST_CFG || \
  85:Generated_Source\PSoC4/HPI_IF.c ****         HPI_IF_SCB_MODE_EZI2C_CONST_CFG))
  86:Generated_Source\PSoC4/HPI_IF.c ****     /** This global variable stores TX interrupt sources after 
  87:Generated_Source\PSoC4/HPI_IF.c ****     * HPI_IF_Stop() is called. Only these TX interrupt sources 
  88:Generated_Source\PSoC4/HPI_IF.c ****     * will be restored on a subsequent HPI_IF_Enable() call.
  89:Generated_Source\PSoC4/HPI_IF.c ****     */
  90:Generated_Source\PSoC4/HPI_IF.c ****     uint16 HPI_IF_IntrTxMask = 0u;
  91:Generated_Source\PSoC4/HPI_IF.c **** #endif /* (! (HPI_IF_SCB_MODE_I2C_CONST_CFG || \
  92:Generated_Source\PSoC4/HPI_IF.c ****               HPI_IF_SCB_MODE_EZI2C_CONST_CFG)) */
  93:Generated_Source\PSoC4/HPI_IF.c **** /** \} globals */
  94:Generated_Source\PSoC4/HPI_IF.c **** 
  95:Generated_Source\PSoC4/HPI_IF.c **** #if (HPI_IF_SCB_IRQ_INTERNAL)
  96:Generated_Source\PSoC4/HPI_IF.c **** #if !defined (CY_REMOVE_HPI_IF_CUSTOM_INTR_HANDLER)
  97:Generated_Source\PSoC4/HPI_IF.c ****     void (*HPI_IF_customIntrHandler)(void) = NULL;
  98:Generated_Source\PSoC4/HPI_IF.c **** #endif /* !defined (CY_REMOVE_HPI_IF_CUSTOM_INTR_HANDLER) */
  99:Generated_Source\PSoC4/HPI_IF.c **** #endif /* (HPI_IF_SCB_IRQ_INTERNAL) */
 100:Generated_Source\PSoC4/HPI_IF.c **** 
 101:Generated_Source\PSoC4/HPI_IF.c **** 
 102:Generated_Source\PSoC4/HPI_IF.c **** /***************************************
 103:Generated_Source\PSoC4/HPI_IF.c **** *    Private Function Prototypes
 104:Generated_Source\PSoC4/HPI_IF.c **** ***************************************/
 105:Generated_Source\PSoC4/HPI_IF.c **** 
 106:Generated_Source\PSoC4/HPI_IF.c **** static void HPI_IF_ScbEnableIntr(void);
 107:Generated_Source\PSoC4/HPI_IF.c **** static void HPI_IF_ScbModeStop(void);
 108:Generated_Source\PSoC4/HPI_IF.c **** static void HPI_IF_ScbModePostEnable(void);
 109:Generated_Source\PSoC4/HPI_IF.c **** 
 110:Generated_Source\PSoC4/HPI_IF.c **** 
 111:Generated_Source\PSoC4/HPI_IF.c **** /*******************************************************************************
 112:Generated_Source\PSoC4/HPI_IF.c **** * Function Name: HPI_IF_Init
 113:Generated_Source\PSoC4/HPI_IF.c **** ****************************************************************************//**
 114:Generated_Source\PSoC4/HPI_IF.c **** *
 115:Generated_Source\PSoC4/HPI_IF.c **** *  Initializes the HPI_IF component to operate in one of the selected
 116:Generated_Source\PSoC4/HPI_IF.c **** *  configurations: I2C, SPI, UART or EZI2C.
 117:Generated_Source\PSoC4/HPI_IF.c **** *  When the configuration is set to "Unconfigured SCB", this function does
 118:Generated_Source\PSoC4/HPI_IF.c **** *  not do any initialization. Use mode-specific initialization APIs instead:
 119:Generated_Source\PSoC4/HPI_IF.c **** *  HPI_IF_I2CInit, HPI_IF_SpiInit, 
 120:Generated_Source\PSoC4/HPI_IF.c **** *  HPI_IF_UartInit or HPI_IF_EzI2CInit.
 121:Generated_Source\PSoC4/HPI_IF.c **** *
ARM GAS  e:\temp\ccY6p1se.s 			page 31


 122:Generated_Source\PSoC4/HPI_IF.c **** *******************************************************************************/
 123:Generated_Source\PSoC4/HPI_IF.c **** void HPI_IF_Init(void)
 124:Generated_Source\PSoC4/HPI_IF.c **** {
 449              		.loc 1 124 0
 450              		.cfi_startproc
 451              		@ args = 0, pretend = 0, frame = 0
 452              		@ frame_needed = 0, uses_anonymous_args = 0
 453 0000 10B5     		push	{r4, lr}
 454              		.cfi_def_cfa_offset 8
 455              		.cfi_offset 4, -8
 456              		.cfi_offset 14, -4
 125:Generated_Source\PSoC4/HPI_IF.c **** #if (HPI_IF_SCB_MODE_UNCONFIG_CONST_CFG)
 126:Generated_Source\PSoC4/HPI_IF.c ****     if (HPI_IF_SCB_MODE_UNCONFIG_RUNTM_CFG)
 127:Generated_Source\PSoC4/HPI_IF.c ****     {
 128:Generated_Source\PSoC4/HPI_IF.c ****         HPI_IF_initVar = 0u;
 129:Generated_Source\PSoC4/HPI_IF.c ****     }
 130:Generated_Source\PSoC4/HPI_IF.c ****     else
 131:Generated_Source\PSoC4/HPI_IF.c ****     {
 132:Generated_Source\PSoC4/HPI_IF.c ****         /* Initialization was done before this function call */
 133:Generated_Source\PSoC4/HPI_IF.c ****     }
 134:Generated_Source\PSoC4/HPI_IF.c **** 
 135:Generated_Source\PSoC4/HPI_IF.c **** #elif (HPI_IF_SCB_MODE_I2C_CONST_CFG)
 136:Generated_Source\PSoC4/HPI_IF.c ****     HPI_IF_I2CInit();
 457              		.loc 1 136 0
 458 0002 FFF7FEFF 		bl	HPI_IF_I2CInit
 459              	.LVL0:
 137:Generated_Source\PSoC4/HPI_IF.c **** 
 138:Generated_Source\PSoC4/HPI_IF.c **** #elif (HPI_IF_SCB_MODE_SPI_CONST_CFG)
 139:Generated_Source\PSoC4/HPI_IF.c ****     HPI_IF_SpiInit();
 140:Generated_Source\PSoC4/HPI_IF.c **** 
 141:Generated_Source\PSoC4/HPI_IF.c **** #elif (HPI_IF_SCB_MODE_UART_CONST_CFG)
 142:Generated_Source\PSoC4/HPI_IF.c ****     HPI_IF_UartInit();
 143:Generated_Source\PSoC4/HPI_IF.c **** 
 144:Generated_Source\PSoC4/HPI_IF.c **** #elif (HPI_IF_SCB_MODE_EZI2C_CONST_CFG)
 145:Generated_Source\PSoC4/HPI_IF.c ****     HPI_IF_EzI2CInit();
 146:Generated_Source\PSoC4/HPI_IF.c **** 
 147:Generated_Source\PSoC4/HPI_IF.c **** #endif /* (HPI_IF_SCB_MODE_UNCONFIG_CONST_CFG) */
 148:Generated_Source\PSoC4/HPI_IF.c **** }
 460              		.loc 1 148 0
 461              		@ sp needed
 462 0006 10BD     		pop	{r4, pc}
 463              		.cfi_endproc
 464              	.LFE0:
 465              		.size	HPI_IF_Init, .-HPI_IF_Init
 466              		.section	.text.HPI_IF_Enable,"ax",%progbits
 467              		.align	1
 468              		.global	HPI_IF_Enable
 469              		.code	16
 470              		.thumb_func
 471              		.type	HPI_IF_Enable, %function
 472              	HPI_IF_Enable:
 473              	.LFB1:
 149:Generated_Source\PSoC4/HPI_IF.c **** 
 150:Generated_Source\PSoC4/HPI_IF.c **** 
 151:Generated_Source\PSoC4/HPI_IF.c **** /*******************************************************************************
 152:Generated_Source\PSoC4/HPI_IF.c **** * Function Name: HPI_IF_Enable
 153:Generated_Source\PSoC4/HPI_IF.c **** ****************************************************************************//**
ARM GAS  e:\temp\ccY6p1se.s 			page 32


 154:Generated_Source\PSoC4/HPI_IF.c **** *
 155:Generated_Source\PSoC4/HPI_IF.c **** *  Enables HPI_IF component operation: activates the hardware and 
 156:Generated_Source\PSoC4/HPI_IF.c **** *  internal interrupt. It also restores TX interrupt sources disabled after the 
 157:Generated_Source\PSoC4/HPI_IF.c **** *  HPI_IF_Stop() function was called (note that level-triggered TX 
 158:Generated_Source\PSoC4/HPI_IF.c **** *  interrupt sources remain disabled to not cause code lock-up).
 159:Generated_Source\PSoC4/HPI_IF.c **** *  For I2C and EZI2C modes the interrupt is internal and mandatory for 
 160:Generated_Source\PSoC4/HPI_IF.c **** *  operation. For SPI and UART modes the interrupt can be configured as none, 
 161:Generated_Source\PSoC4/HPI_IF.c **** *  internal or external.
 162:Generated_Source\PSoC4/HPI_IF.c **** *  The HPI_IF configuration should be not changed when the component
 163:Generated_Source\PSoC4/HPI_IF.c **** *  is enabled. Any configuration changes should be made after disabling the 
 164:Generated_Source\PSoC4/HPI_IF.c **** *  component.
 165:Generated_Source\PSoC4/HPI_IF.c **** *  When configuration is set to Unconfigured HPI_IF, the component 
 166:Generated_Source\PSoC4/HPI_IF.c **** *  must first be initialized to operate in one of the following configurations: 
 167:Generated_Source\PSoC4/HPI_IF.c **** *  I2C, SPI, UART or EZ I2C, using the mode-specific initialization API. 
 168:Generated_Source\PSoC4/HPI_IF.c **** *  Otherwise this function does not enable the component.
 169:Generated_Source\PSoC4/HPI_IF.c **** *
 170:Generated_Source\PSoC4/HPI_IF.c **** *******************************************************************************/
 171:Generated_Source\PSoC4/HPI_IF.c **** void HPI_IF_Enable(void)
 172:Generated_Source\PSoC4/HPI_IF.c **** {
 474              		.loc 1 172 0
 475              		.cfi_startproc
 476              		@ args = 0, pretend = 0, frame = 0
 477              		@ frame_needed = 0, uses_anonymous_args = 0
 173:Generated_Source\PSoC4/HPI_IF.c **** #if (HPI_IF_SCB_MODE_UNCONFIG_CONST_CFG)
 174:Generated_Source\PSoC4/HPI_IF.c ****     /* Enable SCB block, only if it is already configured */
 175:Generated_Source\PSoC4/HPI_IF.c ****     if (!HPI_IF_SCB_MODE_UNCONFIG_RUNTM_CFG)
 176:Generated_Source\PSoC4/HPI_IF.c ****     {
 177:Generated_Source\PSoC4/HPI_IF.c ****         HPI_IF_CTRL_REG |= HPI_IF_CTRL_ENABLED;
 178:Generated_Source\PSoC4/HPI_IF.c **** 
 179:Generated_Source\PSoC4/HPI_IF.c ****         HPI_IF_ScbEnableIntr();
 180:Generated_Source\PSoC4/HPI_IF.c **** 
 181:Generated_Source\PSoC4/HPI_IF.c ****         /* Call PostEnable function specific to current operation mode */
 182:Generated_Source\PSoC4/HPI_IF.c ****         HPI_IF_ScbModePostEnable();
 183:Generated_Source\PSoC4/HPI_IF.c ****     }
 184:Generated_Source\PSoC4/HPI_IF.c **** #else
 185:Generated_Source\PSoC4/HPI_IF.c ****     HPI_IF_CTRL_REG |= HPI_IF_CTRL_ENABLED;
 478              		.loc 1 185 0
 479 0000 8021     		movs	r1, #128
 172:Generated_Source\PSoC4/HPI_IF.c **** #if (HPI_IF_SCB_MODE_UNCONFIG_CONST_CFG)
 480              		.loc 1 172 0
 481 0002 10B5     		push	{r4, lr}
 482              		.cfi_def_cfa_offset 8
 483              		.cfi_offset 4, -8
 484              		.cfi_offset 14, -4
 485              		.loc 1 185 0
 486 0004 044A     		ldr	r2, .L3
 487 0006 0906     		lsls	r1, r1, #24
 488 0008 1368     		ldr	r3, [r2]
 489              	.LBB10:
 490              	.LBB11:
 186:Generated_Source\PSoC4/HPI_IF.c **** 
 187:Generated_Source\PSoC4/HPI_IF.c ****     HPI_IF_ScbEnableIntr();
 188:Generated_Source\PSoC4/HPI_IF.c **** 
 189:Generated_Source\PSoC4/HPI_IF.c ****     /* Call PostEnable function specific to current operation mode */
 190:Generated_Source\PSoC4/HPI_IF.c ****     HPI_IF_ScbModePostEnable();
 191:Generated_Source\PSoC4/HPI_IF.c **** #endif /* (HPI_IF_SCB_MODE_UNCONFIG_CONST_CFG) */
 192:Generated_Source\PSoC4/HPI_IF.c **** }
ARM GAS  e:\temp\ccY6p1se.s 			page 33


 193:Generated_Source\PSoC4/HPI_IF.c **** 
 194:Generated_Source\PSoC4/HPI_IF.c **** 
 195:Generated_Source\PSoC4/HPI_IF.c **** /*******************************************************************************
 196:Generated_Source\PSoC4/HPI_IF.c **** * Function Name: HPI_IF_Start
 197:Generated_Source\PSoC4/HPI_IF.c **** ****************************************************************************//**
 198:Generated_Source\PSoC4/HPI_IF.c **** *
 199:Generated_Source\PSoC4/HPI_IF.c **** *  Invokes HPI_IF_Init() and HPI_IF_Enable().
 200:Generated_Source\PSoC4/HPI_IF.c **** *  After this function call, the component is enabled and ready for operation.
 201:Generated_Source\PSoC4/HPI_IF.c **** *  When configuration is set to "Unconfigured SCB", the component must first be
 202:Generated_Source\PSoC4/HPI_IF.c **** *  initialized to operate in one of the following configurations: I2C, SPI, UART
 203:Generated_Source\PSoC4/HPI_IF.c **** *  or EZI2C. Otherwise this function does not enable the component.
 204:Generated_Source\PSoC4/HPI_IF.c **** *
 205:Generated_Source\PSoC4/HPI_IF.c **** * \globalvars
 206:Generated_Source\PSoC4/HPI_IF.c **** *  HPI_IF_initVar - used to check initial configuration, modified
 207:Generated_Source\PSoC4/HPI_IF.c **** *  on first function call.
 208:Generated_Source\PSoC4/HPI_IF.c **** *
 209:Generated_Source\PSoC4/HPI_IF.c **** *******************************************************************************/
 210:Generated_Source\PSoC4/HPI_IF.c **** void HPI_IF_Start(void)
 211:Generated_Source\PSoC4/HPI_IF.c **** {
 212:Generated_Source\PSoC4/HPI_IF.c ****     if (0u == HPI_IF_initVar)
 213:Generated_Source\PSoC4/HPI_IF.c ****     {
 214:Generated_Source\PSoC4/HPI_IF.c ****         HPI_IF_Init();
 215:Generated_Source\PSoC4/HPI_IF.c ****         HPI_IF_initVar = 1u; /* Component was initialized */
 216:Generated_Source\PSoC4/HPI_IF.c ****     }
 217:Generated_Source\PSoC4/HPI_IF.c **** 
 218:Generated_Source\PSoC4/HPI_IF.c ****     HPI_IF_Enable();
 219:Generated_Source\PSoC4/HPI_IF.c **** }
 220:Generated_Source\PSoC4/HPI_IF.c **** 
 221:Generated_Source\PSoC4/HPI_IF.c **** 
 222:Generated_Source\PSoC4/HPI_IF.c **** /*******************************************************************************
 223:Generated_Source\PSoC4/HPI_IF.c **** * Function Name: HPI_IF_Stop
 224:Generated_Source\PSoC4/HPI_IF.c **** ****************************************************************************//**
 225:Generated_Source\PSoC4/HPI_IF.c **** *
 226:Generated_Source\PSoC4/HPI_IF.c **** *  Disables the HPI_IF component: disable the hardware and internal 
 227:Generated_Source\PSoC4/HPI_IF.c **** *  interrupt. It also disables all TX interrupt sources so as not to cause an 
 228:Generated_Source\PSoC4/HPI_IF.c **** *  unexpected interrupt trigger because after the component is enabled, the 
 229:Generated_Source\PSoC4/HPI_IF.c **** *  TX FIFO is empty.
 230:Generated_Source\PSoC4/HPI_IF.c **** *  Refer to the function HPI_IF_Enable() for the interrupt 
 231:Generated_Source\PSoC4/HPI_IF.c **** *  configuration details.
 232:Generated_Source\PSoC4/HPI_IF.c **** *  This function disables the SCB component without checking to see if 
 233:Generated_Source\PSoC4/HPI_IF.c **** *  communication is in progress. Before calling this function it may be 
 234:Generated_Source\PSoC4/HPI_IF.c **** *  necessary to check the status of communication to make sure communication 
 235:Generated_Source\PSoC4/HPI_IF.c **** *  is complete. If this is not done then communication could be stopped mid 
 236:Generated_Source\PSoC4/HPI_IF.c **** *  byte and corrupted data could result.
 237:Generated_Source\PSoC4/HPI_IF.c **** *
 238:Generated_Source\PSoC4/HPI_IF.c **** *******************************************************************************/
 239:Generated_Source\PSoC4/HPI_IF.c **** void HPI_IF_Stop(void)
 240:Generated_Source\PSoC4/HPI_IF.c **** {
 241:Generated_Source\PSoC4/HPI_IF.c **** #if (HPI_IF_SCB_IRQ_INTERNAL)
 242:Generated_Source\PSoC4/HPI_IF.c ****     HPI_IF_DisableInt();
 243:Generated_Source\PSoC4/HPI_IF.c **** #endif /* (HPI_IF_SCB_IRQ_INTERNAL) */
 244:Generated_Source\PSoC4/HPI_IF.c **** 
 245:Generated_Source\PSoC4/HPI_IF.c ****     /* Call Stop function specific to current operation mode */
 246:Generated_Source\PSoC4/HPI_IF.c ****     HPI_IF_ScbModeStop();
 247:Generated_Source\PSoC4/HPI_IF.c **** 
 248:Generated_Source\PSoC4/HPI_IF.c ****     /* Disable SCB IP */
 249:Generated_Source\PSoC4/HPI_IF.c ****     HPI_IF_CTRL_REG &= (uint32) ~HPI_IF_CTRL_ENABLED;
ARM GAS  e:\temp\ccY6p1se.s 			page 34


 250:Generated_Source\PSoC4/HPI_IF.c **** 
 251:Generated_Source\PSoC4/HPI_IF.c ****     /* Disable all TX interrupt sources so as not to cause an unexpected
 252:Generated_Source\PSoC4/HPI_IF.c ****     * interrupt trigger after the component will be enabled because the 
 253:Generated_Source\PSoC4/HPI_IF.c ****     * TX FIFO is empty.
 254:Generated_Source\PSoC4/HPI_IF.c ****     * For SCB IP v0, it is critical as it does not mask-out interrupt
 255:Generated_Source\PSoC4/HPI_IF.c ****     * sources when it is disabled. This can cause a code lock-up in the
 256:Generated_Source\PSoC4/HPI_IF.c ****     * interrupt handler because TX FIFO cannot be loaded after the block
 257:Generated_Source\PSoC4/HPI_IF.c ****     * is disabled.
 258:Generated_Source\PSoC4/HPI_IF.c ****     */
 259:Generated_Source\PSoC4/HPI_IF.c ****     HPI_IF_SetTxInterruptMode(HPI_IF_NO_INTR_SOURCES);
 260:Generated_Source\PSoC4/HPI_IF.c **** 
 261:Generated_Source\PSoC4/HPI_IF.c **** #if (HPI_IF_SCB_IRQ_INTERNAL)
 262:Generated_Source\PSoC4/HPI_IF.c ****     HPI_IF_ClearPendingInt();
 263:Generated_Source\PSoC4/HPI_IF.c **** #endif /* (HPI_IF_SCB_IRQ_INTERNAL) */
 264:Generated_Source\PSoC4/HPI_IF.c **** }
 265:Generated_Source\PSoC4/HPI_IF.c **** 
 266:Generated_Source\PSoC4/HPI_IF.c **** 
 267:Generated_Source\PSoC4/HPI_IF.c **** /*******************************************************************************
 268:Generated_Source\PSoC4/HPI_IF.c **** * Function Name: HPI_IF_SetRxFifoLevel
 269:Generated_Source\PSoC4/HPI_IF.c **** ****************************************************************************//**
 270:Generated_Source\PSoC4/HPI_IF.c **** *
 271:Generated_Source\PSoC4/HPI_IF.c **** *  Sets level in the RX FIFO to generate a RX level interrupt.
 272:Generated_Source\PSoC4/HPI_IF.c **** *  When the RX FIFO has more entries than the RX FIFO level an RX level
 273:Generated_Source\PSoC4/HPI_IF.c **** *  interrupt request is generated.
 274:Generated_Source\PSoC4/HPI_IF.c **** *
 275:Generated_Source\PSoC4/HPI_IF.c **** *  \param level: Level in the RX FIFO to generate RX level interrupt.
 276:Generated_Source\PSoC4/HPI_IF.c **** *   The range of valid level values is between 0 and RX FIFO depth - 1.
 277:Generated_Source\PSoC4/HPI_IF.c **** *
 278:Generated_Source\PSoC4/HPI_IF.c **** *******************************************************************************/
 279:Generated_Source\PSoC4/HPI_IF.c **** void HPI_IF_SetRxFifoLevel(uint32 level)
 280:Generated_Source\PSoC4/HPI_IF.c **** {
 281:Generated_Source\PSoC4/HPI_IF.c ****     uint32 rxFifoCtrl;
 282:Generated_Source\PSoC4/HPI_IF.c **** 
 283:Generated_Source\PSoC4/HPI_IF.c ****     rxFifoCtrl = HPI_IF_RX_FIFO_CTRL_REG;
 284:Generated_Source\PSoC4/HPI_IF.c **** 
 285:Generated_Source\PSoC4/HPI_IF.c ****     rxFifoCtrl &= ((uint32) ~HPI_IF_RX_FIFO_CTRL_TRIGGER_LEVEL_MASK); /* Clear level mask bits */
 286:Generated_Source\PSoC4/HPI_IF.c ****     rxFifoCtrl |= ((uint32) (HPI_IF_RX_FIFO_CTRL_TRIGGER_LEVEL_MASK & level));
 287:Generated_Source\PSoC4/HPI_IF.c **** 
 288:Generated_Source\PSoC4/HPI_IF.c ****     HPI_IF_RX_FIFO_CTRL_REG = rxFifoCtrl;
 289:Generated_Source\PSoC4/HPI_IF.c **** }
 290:Generated_Source\PSoC4/HPI_IF.c **** 
 291:Generated_Source\PSoC4/HPI_IF.c **** 
 292:Generated_Source\PSoC4/HPI_IF.c **** /*******************************************************************************
 293:Generated_Source\PSoC4/HPI_IF.c **** * Function Name: HPI_IF_SetTxFifoLevel
 294:Generated_Source\PSoC4/HPI_IF.c **** ****************************************************************************//**
 295:Generated_Source\PSoC4/HPI_IF.c **** *
 296:Generated_Source\PSoC4/HPI_IF.c **** *  Sets level in the TX FIFO to generate a TX level interrupt.
 297:Generated_Source\PSoC4/HPI_IF.c **** *  When the TX FIFO has less entries than the TX FIFO level an TX level
 298:Generated_Source\PSoC4/HPI_IF.c **** *  interrupt request is generated.
 299:Generated_Source\PSoC4/HPI_IF.c **** *
 300:Generated_Source\PSoC4/HPI_IF.c **** *  \param level: Level in the TX FIFO to generate TX level interrupt.
 301:Generated_Source\PSoC4/HPI_IF.c **** *   The range of valid level values is between 0 and TX FIFO depth - 1.
 302:Generated_Source\PSoC4/HPI_IF.c **** *
 303:Generated_Source\PSoC4/HPI_IF.c **** *******************************************************************************/
 304:Generated_Source\PSoC4/HPI_IF.c **** void HPI_IF_SetTxFifoLevel(uint32 level)
 305:Generated_Source\PSoC4/HPI_IF.c **** {
 306:Generated_Source\PSoC4/HPI_IF.c ****     uint32 txFifoCtrl;
ARM GAS  e:\temp\ccY6p1se.s 			page 35


 307:Generated_Source\PSoC4/HPI_IF.c **** 
 308:Generated_Source\PSoC4/HPI_IF.c ****     txFifoCtrl = HPI_IF_TX_FIFO_CTRL_REG;
 309:Generated_Source\PSoC4/HPI_IF.c **** 
 310:Generated_Source\PSoC4/HPI_IF.c ****     txFifoCtrl &= ((uint32) ~HPI_IF_TX_FIFO_CTRL_TRIGGER_LEVEL_MASK); /* Clear level mask bits */
 311:Generated_Source\PSoC4/HPI_IF.c ****     txFifoCtrl |= ((uint32) (HPI_IF_TX_FIFO_CTRL_TRIGGER_LEVEL_MASK & level));
 312:Generated_Source\PSoC4/HPI_IF.c **** 
 313:Generated_Source\PSoC4/HPI_IF.c ****     HPI_IF_TX_FIFO_CTRL_REG = txFifoCtrl;
 314:Generated_Source\PSoC4/HPI_IF.c **** }
 315:Generated_Source\PSoC4/HPI_IF.c **** 
 316:Generated_Source\PSoC4/HPI_IF.c **** 
 317:Generated_Source\PSoC4/HPI_IF.c **** #if (HPI_IF_SCB_IRQ_INTERNAL)
 318:Generated_Source\PSoC4/HPI_IF.c ****     /*******************************************************************************
 319:Generated_Source\PSoC4/HPI_IF.c ****     * Function Name: HPI_IF_SetCustomInterruptHandler
 320:Generated_Source\PSoC4/HPI_IF.c ****     ****************************************************************************//**
 321:Generated_Source\PSoC4/HPI_IF.c ****     *
 322:Generated_Source\PSoC4/HPI_IF.c ****     *  Registers a function to be called by the internal interrupt handler.
 323:Generated_Source\PSoC4/HPI_IF.c ****     *  First the function that is registered is called, then the internal interrupt
 324:Generated_Source\PSoC4/HPI_IF.c ****     *  handler performs any operation such as software buffer management functions
 325:Generated_Source\PSoC4/HPI_IF.c ****     *  before the interrupt returns.  It is the user's responsibility not to break
 326:Generated_Source\PSoC4/HPI_IF.c ****     *  the software buffer operations. Only one custom handler is supported, which
 327:Generated_Source\PSoC4/HPI_IF.c ****     *  is the function provided by the most recent call.
 328:Generated_Source\PSoC4/HPI_IF.c ****     *  At the initialization time no custom handler is registered.
 329:Generated_Source\PSoC4/HPI_IF.c ****     *
 330:Generated_Source\PSoC4/HPI_IF.c ****     *  \param func: Pointer to the function to register.
 331:Generated_Source\PSoC4/HPI_IF.c ****     *        The value NULL indicates to remove the current custom interrupt
 332:Generated_Source\PSoC4/HPI_IF.c ****     *        handler.
 333:Generated_Source\PSoC4/HPI_IF.c ****     *
 334:Generated_Source\PSoC4/HPI_IF.c ****     *******************************************************************************/
 335:Generated_Source\PSoC4/HPI_IF.c ****     void HPI_IF_SetCustomInterruptHandler(void (*func)(void))
 336:Generated_Source\PSoC4/HPI_IF.c ****     {
 337:Generated_Source\PSoC4/HPI_IF.c ****     #if !defined (CY_REMOVE_HPI_IF_CUSTOM_INTR_HANDLER)
 338:Generated_Source\PSoC4/HPI_IF.c ****         HPI_IF_customIntrHandler = func; /* Register interrupt handler */
 339:Generated_Source\PSoC4/HPI_IF.c ****     #else
 340:Generated_Source\PSoC4/HPI_IF.c ****         if (NULL != func)
 341:Generated_Source\PSoC4/HPI_IF.c ****         {
 342:Generated_Source\PSoC4/HPI_IF.c ****             /* Suppress compiler warning */
 343:Generated_Source\PSoC4/HPI_IF.c ****         }
 344:Generated_Source\PSoC4/HPI_IF.c ****     #endif /* !defined (CY_REMOVE_HPI_IF_CUSTOM_INTR_HANDLER) */
 345:Generated_Source\PSoC4/HPI_IF.c ****     }
 346:Generated_Source\PSoC4/HPI_IF.c **** #endif /* (HPI_IF_SCB_IRQ_INTERNAL) */
 347:Generated_Source\PSoC4/HPI_IF.c **** 
 348:Generated_Source\PSoC4/HPI_IF.c **** 
 349:Generated_Source\PSoC4/HPI_IF.c **** /*******************************************************************************
 350:Generated_Source\PSoC4/HPI_IF.c **** * Function Name: HPI_IF_ScbModeEnableIntr
 351:Generated_Source\PSoC4/HPI_IF.c **** ****************************************************************************//**
 352:Generated_Source\PSoC4/HPI_IF.c **** *
 353:Generated_Source\PSoC4/HPI_IF.c **** *  Enables an interrupt for a specific mode.
 354:Generated_Source\PSoC4/HPI_IF.c **** *
 355:Generated_Source\PSoC4/HPI_IF.c **** *******************************************************************************/
 356:Generated_Source\PSoC4/HPI_IF.c **** static void HPI_IF_ScbEnableIntr(void)
 357:Generated_Source\PSoC4/HPI_IF.c **** {
 358:Generated_Source\PSoC4/HPI_IF.c **** #if (HPI_IF_SCB_IRQ_INTERNAL)
 359:Generated_Source\PSoC4/HPI_IF.c ****     /* Enable interrupt in NVIC */
 360:Generated_Source\PSoC4/HPI_IF.c ****     #if (HPI_IF_SCB_MODE_UNCONFIG_CONST_CFG)
 361:Generated_Source\PSoC4/HPI_IF.c ****         if (0u != HPI_IF_scbEnableIntr)
 362:Generated_Source\PSoC4/HPI_IF.c ****         {
 363:Generated_Source\PSoC4/HPI_IF.c ****             HPI_IF_EnableInt();
ARM GAS  e:\temp\ccY6p1se.s 			page 36


 364:Generated_Source\PSoC4/HPI_IF.c ****         }
 365:Generated_Source\PSoC4/HPI_IF.c **** 
 366:Generated_Source\PSoC4/HPI_IF.c ****     #else
 367:Generated_Source\PSoC4/HPI_IF.c ****         HPI_IF_EnableInt();
 491              		.loc 1 367 0
 492 000a 0A20     		movs	r0, #10
 493              	.LBE11:
 494              	.LBE10:
 185:Generated_Source\PSoC4/HPI_IF.c **** 
 495              		.loc 1 185 0
 496 000c 0B43     		orrs	r3, r1
 497 000e 1360     		str	r3, [r2]
 498              	.LBB13:
 499              	.LBB12:
 500              		.loc 1 367 0
 501 0010 FFF7FEFF 		bl	CyIntEnable
 502              	.LVL1:
 503              	.LBE12:
 504              	.LBE13:
 192:Generated_Source\PSoC4/HPI_IF.c **** 
 505              		.loc 1 192 0
 506              		@ sp needed
 507 0014 10BD     		pop	{r4, pc}
 508              	.L4:
 509 0016 C046     		.align	2
 510              	.L3:
 511 0018 00000540 		.word	1074069504
 512              		.cfi_endproc
 513              	.LFE1:
 514              		.size	HPI_IF_Enable, .-HPI_IF_Enable
 515              		.section	.text.HPI_IF_Start,"ax",%progbits
 516              		.align	1
 517              		.global	HPI_IF_Start
 518              		.code	16
 519              		.thumb_func
 520              		.type	HPI_IF_Start, %function
 521              	HPI_IF_Start:
 522              	.LFB2:
 211:Generated_Source\PSoC4/HPI_IF.c ****     if (0u == HPI_IF_initVar)
 523              		.loc 1 211 0
 524              		.cfi_startproc
 525              		@ args = 0, pretend = 0, frame = 0
 526              		@ frame_needed = 0, uses_anonymous_args = 0
 527 0000 10B5     		push	{r4, lr}
 528              		.cfi_def_cfa_offset 8
 529              		.cfi_offset 4, -8
 530              		.cfi_offset 14, -4
 212:Generated_Source\PSoC4/HPI_IF.c ****     {
 531              		.loc 1 212 0
 532 0002 054C     		ldr	r4, .L8
 533 0004 2378     		ldrb	r3, [r4]
 534 0006 002B     		cmp	r3, #0
 535 0008 03D1     		bne	.L6
 536              	.LBB14:
 537              	.LBB15:
 136:Generated_Source\PSoC4/HPI_IF.c **** 
 538              		.loc 1 136 0
ARM GAS  e:\temp\ccY6p1se.s 			page 37


 539 000a FFF7FEFF 		bl	HPI_IF_I2CInit
 540              	.LVL2:
 541              	.LBE15:
 542              	.LBE14:
 215:Generated_Source\PSoC4/HPI_IF.c ****     }
 543              		.loc 1 215 0
 544 000e 0123     		movs	r3, #1
 545 0010 2370     		strb	r3, [r4]
 546              	.L6:
 218:Generated_Source\PSoC4/HPI_IF.c **** }
 547              		.loc 1 218 0
 548 0012 FFF7FEFF 		bl	HPI_IF_Enable
 549              	.LVL3:
 219:Generated_Source\PSoC4/HPI_IF.c **** 
 550              		.loc 1 219 0
 551              		@ sp needed
 552 0016 10BD     		pop	{r4, pc}
 553              	.L9:
 554              		.align	2
 555              	.L8:
 556 0018 00000000 		.word	.LANCHOR0
 557              		.cfi_endproc
 558              	.LFE2:
 559              		.size	HPI_IF_Start, .-HPI_IF_Start
 560              		.section	.text.HPI_IF_Stop,"ax",%progbits
 561              		.align	1
 562              		.global	HPI_IF_Stop
 563              		.code	16
 564              		.thumb_func
 565              		.type	HPI_IF_Stop, %function
 566              	HPI_IF_Stop:
 567              	.LFB3:
 240:Generated_Source\PSoC4/HPI_IF.c **** #if (HPI_IF_SCB_IRQ_INTERNAL)
 568              		.loc 1 240 0
 569              		.cfi_startproc
 570              		@ args = 0, pretend = 0, frame = 0
 571              		@ frame_needed = 0, uses_anonymous_args = 0
 572 0000 10B5     		push	{r4, lr}
 573              		.cfi_def_cfa_offset 8
 574              		.cfi_offset 4, -8
 575              		.cfi_offset 14, -4
 242:Generated_Source\PSoC4/HPI_IF.c **** #endif /* (HPI_IF_SCB_IRQ_INTERNAL) */
 576              		.loc 1 242 0
 577 0002 0A20     		movs	r0, #10
 578 0004 FFF7FEFF 		bl	CyIntDisable
 579              	.LVL4:
 580              	.LBB16:
 581              	.LBB17:
 368:Generated_Source\PSoC4/HPI_IF.c **** 
 369:Generated_Source\PSoC4/HPI_IF.c ****     #endif /* (HPI_IF_SCB_MODE_UNCONFIG_CONST_CFG) */
 370:Generated_Source\PSoC4/HPI_IF.c **** #endif /* (HPI_IF_SCB_IRQ_INTERNAL) */
 371:Generated_Source\PSoC4/HPI_IF.c **** }
 372:Generated_Source\PSoC4/HPI_IF.c **** 
 373:Generated_Source\PSoC4/HPI_IF.c **** 
 374:Generated_Source\PSoC4/HPI_IF.c **** /*******************************************************************************
 375:Generated_Source\PSoC4/HPI_IF.c **** * Function Name: HPI_IF_ScbModePostEnable
 376:Generated_Source\PSoC4/HPI_IF.c **** ****************************************************************************//**
ARM GAS  e:\temp\ccY6p1se.s 			page 38


 377:Generated_Source\PSoC4/HPI_IF.c **** *
 378:Generated_Source\PSoC4/HPI_IF.c **** *  Calls the PostEnable function for a specific operation mode.
 379:Generated_Source\PSoC4/HPI_IF.c **** *
 380:Generated_Source\PSoC4/HPI_IF.c **** *******************************************************************************/
 381:Generated_Source\PSoC4/HPI_IF.c **** static void HPI_IF_ScbModePostEnable(void)
 382:Generated_Source\PSoC4/HPI_IF.c **** {
 383:Generated_Source\PSoC4/HPI_IF.c **** #if (HPI_IF_SCB_MODE_UNCONFIG_CONST_CFG)
 384:Generated_Source\PSoC4/HPI_IF.c **** #if (!HPI_IF_CY_SCBIP_V1)
 385:Generated_Source\PSoC4/HPI_IF.c ****     if (HPI_IF_SCB_MODE_SPI_RUNTM_CFG)
 386:Generated_Source\PSoC4/HPI_IF.c ****     {
 387:Generated_Source\PSoC4/HPI_IF.c ****         HPI_IF_SpiPostEnable();
 388:Generated_Source\PSoC4/HPI_IF.c ****     }
 389:Generated_Source\PSoC4/HPI_IF.c ****     else if (HPI_IF_SCB_MODE_UART_RUNTM_CFG)
 390:Generated_Source\PSoC4/HPI_IF.c ****     {
 391:Generated_Source\PSoC4/HPI_IF.c ****         HPI_IF_UartPostEnable();
 392:Generated_Source\PSoC4/HPI_IF.c ****     }
 393:Generated_Source\PSoC4/HPI_IF.c ****     else
 394:Generated_Source\PSoC4/HPI_IF.c ****     {
 395:Generated_Source\PSoC4/HPI_IF.c ****         /* Unknown mode: do nothing */
 396:Generated_Source\PSoC4/HPI_IF.c ****     }
 397:Generated_Source\PSoC4/HPI_IF.c **** #endif /* (!HPI_IF_CY_SCBIP_V1) */
 398:Generated_Source\PSoC4/HPI_IF.c **** 
 399:Generated_Source\PSoC4/HPI_IF.c **** #elif (HPI_IF_SCB_MODE_SPI_CONST_CFG)
 400:Generated_Source\PSoC4/HPI_IF.c ****     HPI_IF_SpiPostEnable();
 401:Generated_Source\PSoC4/HPI_IF.c **** 
 402:Generated_Source\PSoC4/HPI_IF.c **** #elif (HPI_IF_SCB_MODE_UART_CONST_CFG)
 403:Generated_Source\PSoC4/HPI_IF.c ****     HPI_IF_UartPostEnable();
 404:Generated_Source\PSoC4/HPI_IF.c **** 
 405:Generated_Source\PSoC4/HPI_IF.c **** #else
 406:Generated_Source\PSoC4/HPI_IF.c ****     /* Unknown mode: do nothing */
 407:Generated_Source\PSoC4/HPI_IF.c **** #endif /* (HPI_IF_SCB_MODE_UNCONFIG_CONST_CFG) */
 408:Generated_Source\PSoC4/HPI_IF.c **** }
 409:Generated_Source\PSoC4/HPI_IF.c **** 
 410:Generated_Source\PSoC4/HPI_IF.c **** 
 411:Generated_Source\PSoC4/HPI_IF.c **** /*******************************************************************************
 412:Generated_Source\PSoC4/HPI_IF.c **** * Function Name: HPI_IF_ScbModeStop
 413:Generated_Source\PSoC4/HPI_IF.c **** ****************************************************************************//**
 414:Generated_Source\PSoC4/HPI_IF.c **** *
 415:Generated_Source\PSoC4/HPI_IF.c **** *  Calls the Stop function for a specific operation mode.
 416:Generated_Source\PSoC4/HPI_IF.c **** *
 417:Generated_Source\PSoC4/HPI_IF.c **** *******************************************************************************/
 418:Generated_Source\PSoC4/HPI_IF.c **** static void HPI_IF_ScbModeStop(void)
 419:Generated_Source\PSoC4/HPI_IF.c **** {
 420:Generated_Source\PSoC4/HPI_IF.c **** #if (HPI_IF_SCB_MODE_UNCONFIG_CONST_CFG)
 421:Generated_Source\PSoC4/HPI_IF.c ****     if (HPI_IF_SCB_MODE_I2C_RUNTM_CFG)
 422:Generated_Source\PSoC4/HPI_IF.c ****     {
 423:Generated_Source\PSoC4/HPI_IF.c ****         HPI_IF_I2CStop();
 424:Generated_Source\PSoC4/HPI_IF.c ****     }
 425:Generated_Source\PSoC4/HPI_IF.c ****     else if (HPI_IF_SCB_MODE_EZI2C_RUNTM_CFG)
 426:Generated_Source\PSoC4/HPI_IF.c ****     {
 427:Generated_Source\PSoC4/HPI_IF.c ****         HPI_IF_EzI2CStop();
 428:Generated_Source\PSoC4/HPI_IF.c ****     }
 429:Generated_Source\PSoC4/HPI_IF.c **** #if (!HPI_IF_CY_SCBIP_V1)
 430:Generated_Source\PSoC4/HPI_IF.c ****     else if (HPI_IF_SCB_MODE_SPI_RUNTM_CFG)
 431:Generated_Source\PSoC4/HPI_IF.c ****     {
 432:Generated_Source\PSoC4/HPI_IF.c ****         HPI_IF_SpiStop();
 433:Generated_Source\PSoC4/HPI_IF.c ****     }
ARM GAS  e:\temp\ccY6p1se.s 			page 39


 434:Generated_Source\PSoC4/HPI_IF.c ****     else if (HPI_IF_SCB_MODE_UART_RUNTM_CFG)
 435:Generated_Source\PSoC4/HPI_IF.c ****     {
 436:Generated_Source\PSoC4/HPI_IF.c ****         HPI_IF_UartStop();
 437:Generated_Source\PSoC4/HPI_IF.c ****     }
 438:Generated_Source\PSoC4/HPI_IF.c **** #endif /* (!HPI_IF_CY_SCBIP_V1) */
 439:Generated_Source\PSoC4/HPI_IF.c ****     else
 440:Generated_Source\PSoC4/HPI_IF.c ****     {
 441:Generated_Source\PSoC4/HPI_IF.c ****         /* Unknown mode: do nothing */
 442:Generated_Source\PSoC4/HPI_IF.c ****     }
 443:Generated_Source\PSoC4/HPI_IF.c **** #elif (HPI_IF_SCB_MODE_I2C_CONST_CFG)
 444:Generated_Source\PSoC4/HPI_IF.c ****     HPI_IF_I2CStop();
 582              		.loc 1 444 0
 583 0008 FFF7FEFF 		bl	HPI_IF_I2CStop
 584              	.LVL5:
 585              	.LBE17:
 586              	.LBE16:
 249:Generated_Source\PSoC4/HPI_IF.c **** 
 587              		.loc 1 249 0
 588 000c 054A     		ldr	r2, .L11
 262:Generated_Source\PSoC4/HPI_IF.c **** #endif /* (HPI_IF_SCB_IRQ_INTERNAL) */
 589              		.loc 1 262 0
 590 000e 0A20     		movs	r0, #10
 249:Generated_Source\PSoC4/HPI_IF.c **** 
 591              		.loc 1 249 0
 592 0010 1368     		ldr	r3, [r2]
 264:Generated_Source\PSoC4/HPI_IF.c **** 
 593              		.loc 1 264 0
 594              		@ sp needed
 249:Generated_Source\PSoC4/HPI_IF.c **** 
 595              		.loc 1 249 0
 596 0012 5B00     		lsls	r3, r3, #1
 597 0014 5B08     		lsrs	r3, r3, #1
 598 0016 1360     		str	r3, [r2]
 259:Generated_Source\PSoC4/HPI_IF.c **** 
 599              		.loc 1 259 0
 600 0018 0022     		movs	r2, #0
 601 001a 034B     		ldr	r3, .L11+4
 602 001c 1A60     		str	r2, [r3]
 262:Generated_Source\PSoC4/HPI_IF.c **** #endif /* (HPI_IF_SCB_IRQ_INTERNAL) */
 603              		.loc 1 262 0
 604 001e FFF7FEFF 		bl	CyIntClearPending
 605              	.LVL6:
 264:Generated_Source\PSoC4/HPI_IF.c **** 
 606              		.loc 1 264 0
 607 0022 10BD     		pop	{r4, pc}
 608              	.L12:
 609              		.align	2
 610              	.L11:
 611 0024 00000540 		.word	1074069504
 612 0028 880F0540 		.word	1074073480
 613              		.cfi_endproc
 614              	.LFE3:
 615              		.size	HPI_IF_Stop, .-HPI_IF_Stop
 616              		.section	.text.HPI_IF_SetRxFifoLevel,"ax",%progbits
 617              		.align	1
 618              		.global	HPI_IF_SetRxFifoLevel
 619              		.code	16
ARM GAS  e:\temp\ccY6p1se.s 			page 40


 620              		.thumb_func
 621              		.type	HPI_IF_SetRxFifoLevel, %function
 622              	HPI_IF_SetRxFifoLevel:
 623              	.LFB4:
 280:Generated_Source\PSoC4/HPI_IF.c ****     uint32 rxFifoCtrl;
 624              		.loc 1 280 0
 625              		.cfi_startproc
 626              		@ args = 0, pretend = 0, frame = 0
 627              		@ frame_needed = 0, uses_anonymous_args = 0
 628              		@ link register save eliminated.
 629              	.LVL7:
 285:Generated_Source\PSoC4/HPI_IF.c ****     rxFifoCtrl |= ((uint32) (HPI_IF_RX_FIFO_CTRL_TRIGGER_LEVEL_MASK & level));
 630              		.loc 1 285 0
 631 0000 0F22     		movs	r2, #15
 283:Generated_Source\PSoC4/HPI_IF.c **** 
 632              		.loc 1 283 0
 633 0002 0349     		ldr	r1, .L14
 286:Generated_Source\PSoC4/HPI_IF.c **** 
 634              		.loc 1 286 0
 635 0004 1040     		ands	r0, r2
 636              	.LVL8:
 283:Generated_Source\PSoC4/HPI_IF.c **** 
 637              		.loc 1 283 0
 638 0006 0B68     		ldr	r3, [r1]
 639              	.LVL9:
 289:Generated_Source\PSoC4/HPI_IF.c **** 
 640              		.loc 1 289 0
 641              		@ sp needed
 285:Generated_Source\PSoC4/HPI_IF.c ****     rxFifoCtrl |= ((uint32) (HPI_IF_RX_FIFO_CTRL_TRIGGER_LEVEL_MASK & level));
 642              		.loc 1 285 0
 643 0008 9343     		bics	r3, r2
 644              	.LVL10:
 286:Generated_Source\PSoC4/HPI_IF.c **** 
 645              		.loc 1 286 0
 646 000a 1843     		orrs	r0, r3
 647              	.LVL11:
 288:Generated_Source\PSoC4/HPI_IF.c **** }
 648              		.loc 1 288 0
 649 000c 0860     		str	r0, [r1]
 289:Generated_Source\PSoC4/HPI_IF.c **** 
 650              		.loc 1 289 0
 651 000e 7047     		bx	lr
 652              	.L15:
 653              		.align	2
 654              	.L14:
 655 0010 04030540 		.word	1074070276
 656              		.cfi_endproc
 657              	.LFE4:
 658              		.size	HPI_IF_SetRxFifoLevel, .-HPI_IF_SetRxFifoLevel
 659              		.section	.text.HPI_IF_SetTxFifoLevel,"ax",%progbits
 660              		.align	1
 661              		.global	HPI_IF_SetTxFifoLevel
 662              		.code	16
 663              		.thumb_func
 664              		.type	HPI_IF_SetTxFifoLevel, %function
 665              	HPI_IF_SetTxFifoLevel:
 666              	.LFB5:
ARM GAS  e:\temp\ccY6p1se.s 			page 41


 305:Generated_Source\PSoC4/HPI_IF.c ****     uint32 txFifoCtrl;
 667              		.loc 1 305 0
 668              		.cfi_startproc
 669              		@ args = 0, pretend = 0, frame = 0
 670              		@ frame_needed = 0, uses_anonymous_args = 0
 671              		@ link register save eliminated.
 672              	.LVL12:
 310:Generated_Source\PSoC4/HPI_IF.c ****     txFifoCtrl |= ((uint32) (HPI_IF_TX_FIFO_CTRL_TRIGGER_LEVEL_MASK & level));
 673              		.loc 1 310 0
 674 0000 0F22     		movs	r2, #15
 308:Generated_Source\PSoC4/HPI_IF.c **** 
 675              		.loc 1 308 0
 676 0002 0349     		ldr	r1, .L17
 311:Generated_Source\PSoC4/HPI_IF.c **** 
 677              		.loc 1 311 0
 678 0004 1040     		ands	r0, r2
 679              	.LVL13:
 308:Generated_Source\PSoC4/HPI_IF.c **** 
 680              		.loc 1 308 0
 681 0006 0B68     		ldr	r3, [r1]
 682              	.LVL14:
 314:Generated_Source\PSoC4/HPI_IF.c **** 
 683              		.loc 1 314 0
 684              		@ sp needed
 310:Generated_Source\PSoC4/HPI_IF.c ****     txFifoCtrl |= ((uint32) (HPI_IF_TX_FIFO_CTRL_TRIGGER_LEVEL_MASK & level));
 685              		.loc 1 310 0
 686 0008 9343     		bics	r3, r2
 687              	.LVL15:
 311:Generated_Source\PSoC4/HPI_IF.c **** 
 688              		.loc 1 311 0
 689 000a 1843     		orrs	r0, r3
 690              	.LVL16:
 313:Generated_Source\PSoC4/HPI_IF.c **** }
 691              		.loc 1 313 0
 692 000c 0860     		str	r0, [r1]
 314:Generated_Source\PSoC4/HPI_IF.c **** 
 693              		.loc 1 314 0
 694 000e 7047     		bx	lr
 695              	.L18:
 696              		.align	2
 697              	.L17:
 698 0010 04020540 		.word	1074070020
 699              		.cfi_endproc
 700              	.LFE5:
 701              		.size	HPI_IF_SetTxFifoLevel, .-HPI_IF_SetTxFifoLevel
 702              		.section	.text.HPI_IF_SetCustomInterruptHandler,"ax",%progbits
 703              		.align	1
 704              		.global	HPI_IF_SetCustomInterruptHandler
 705              		.code	16
 706              		.thumb_func
 707              		.type	HPI_IF_SetCustomInterruptHandler, %function
 708              	HPI_IF_SetCustomInterruptHandler:
 709              	.LFB6:
 336:Generated_Source\PSoC4/HPI_IF.c ****     #if !defined (CY_REMOVE_HPI_IF_CUSTOM_INTR_HANDLER)
 710              		.loc 1 336 0
 711              		.cfi_startproc
 712              		@ args = 0, pretend = 0, frame = 0
ARM GAS  e:\temp\ccY6p1se.s 			page 42


 713              		@ frame_needed = 0, uses_anonymous_args = 0
 714              		@ link register save eliminated.
 715              	.LVL17:
 338:Generated_Source\PSoC4/HPI_IF.c ****     #else
 716              		.loc 1 338 0
 717 0000 014B     		ldr	r3, .L20
 345:Generated_Source\PSoC4/HPI_IF.c **** #endif /* (HPI_IF_SCB_IRQ_INTERNAL) */
 718              		.loc 1 345 0
 719              		@ sp needed
 338:Generated_Source\PSoC4/HPI_IF.c ****     #else
 720              		.loc 1 338 0
 721 0002 5860     		str	r0, [r3, #4]
 345:Generated_Source\PSoC4/HPI_IF.c **** #endif /* (HPI_IF_SCB_IRQ_INTERNAL) */
 722              		.loc 1 345 0
 723 0004 7047     		bx	lr
 724              	.L21:
 725 0006 C046     		.align	2
 726              	.L20:
 727 0008 00000000 		.word	.LANCHOR0
 728              		.cfi_endproc
 729              	.LFE6:
 730              		.size	HPI_IF_SetCustomInterruptHandler, .-HPI_IF_SetCustomInterruptHandler
 731              		.global	HPI_IF_customIntrHandler
 732              		.global	HPI_IF_initVar
 733              		.bss
 734              		.align	2
 735              		.set	.LANCHOR0,. + 0
 736              		.type	HPI_IF_initVar, %object
 737              		.size	HPI_IF_initVar, 1
 738              	HPI_IF_initVar:
 739 0000 00       		.space	1
 740 0001 000000   		.space	3
 741              		.type	HPI_IF_customIntrHandler, %object
 742              		.size	HPI_IF_customIntrHandler, 4
 743              	HPI_IF_customIntrHandler:
 744 0004 00000000 		.space	4
 745              		.text
 746              	.Letext0:
 747              		.file 2 "Generated_Source\\PSoC4/cytypes.h"
 748              		.file 3 "Generated_Source\\PSoC4\\HPI_IF_I2C_PVT.h"
 749              		.file 4 "Generated_Source\\PSoC4/CyLib.h"