ARM GAS  e:\temp\cc55DlaG.s 			page 1


   1              		.syntax unified
   2              		.cpu cortex-m0
   3              		.fpu softvfp
   4              		.eabi_attribute 20, 1
   5              		.eabi_attribute 21, 1
   6              		.eabi_attribute 23, 3
   7              		.eabi_attribute 24, 1
   8              		.eabi_attribute 25, 1
   9              		.eabi_attribute 26, 1
  10              		.eabi_attribute 30, 4
  11              		.eabi_attribute 34, 0
  12              		.eabi_attribute 18, 4
  13              		.thumb
  14              		.syntax unified
  15              		.file	"HPI_IF_I2C_SLAVE.c"
  16              		.text
  17              	.Ltext0:
  18              		.section	.gnu.lto_.profile.62410026,"",%progbits
  19 0000 789C6361 		.ascii	"x\234ca`d`e`\000\222\223\031\035\000\002y\000\340"
  19      60646065 
  19      60009293 
  19      191D0002 
  19      7900E0
  20              		.text
  21              		.section	.gnu.lto_.icf.62410026,"",%progbits
  22 0000 789C6361 		.ascii	"x\234ca`d\000\001\177\006\004\340ex\330rj\013/\323\267"
  22      60640001 
  22      7F0604E0 
  22      6578D872 
  22      6A0B2FD3 
  23 0015 C3937399 		.ascii	"\303\223s\231g\277Z\327\306\3052\375\375\363\333L\254"
  23      67BF5AD7 
  23      C6C532FD 
  23      FDF3DB4C 
  23      AC
  24 0026 5B275FB9 		.ascii	"['_\271\317\302\326p\345\326\"~\366\275\017\337\265"
  24      CFC2D670 
  24      E5D6227E 
  24      F6BD0FDF 
  24      B5
  25 0037 B372FFBA 		.ascii	"\263r\377\2727w\007\023\017\230\315\177o\331\227W\274"
  25      37770713 
  25      0F98CD7F 
  25      6FD99757 
  25      BC
  26 0048 026052F0 		.ascii	"\002`R\360\361\377\215[\370\205\300$\003\000[\321)S"
  26      F1FF8D5B 
  26      F885C024 
  26      03005BD1 
  26      2953
  27              		.text
  28              		.section	.gnu.lto_.jmpfuncs.62410026,"",%progbits
  29 0000 789C6361 		.ascii	"x\234ca`d\000\201:\006\004\340\006b& b\374\013D\037"
  29      60640081 
  29      3A0604E0 
  29      06622620 
  29      62FC0B44 
ARM GAS  e:\temp\cc55DlaG.s 			page 2


  30 0015 2EFCE5F9 		.ascii	".\374\345\371\302\324\312\314\300\310\305\270\234Q\006"
  30      C2D4CACC 
  30      C0C8C5B8 
  30      9C5106
  31 0024 240CA199 		.ascii	"$\014\241\231\021L\030\315\302\310\310X\317\012\"\330"
  31      114C18CD 
  31      C2C8C858 
  31      CF0A22D8 
  32 0034 8042CCF5 		.ascii	"\200B\314\365\365\350\012\270\261\013\36330\01000\010"
  32      F5E80AB8 
  32      B10BF333 
  32      30083030 
  32      08
  33 0045 32300801 		.ascii	"20\010\001m\006\000'\371\020\215"
  33      6D060027 
  33      F9108D
  34              		.text
  35              		.section	.gnu.lto_.inline.62410026,"",%progbits
  36 0000 789C6361 		.ascii	"x\234ca`d\000\2014\010\005\006\334\014\014,\314\214"
  36      60640081 
  36      34080506 
  36      DC0C0C2C 
  36      CC8C
  37 0012 0C4C4C17 		.ascii	"\014LL\027\370\031\330\026\3103\201\304\230\030xd\201"
  37      F819D816 
  37      C83381C4 
  37      98187864 
  37      81
  38 0023 425C13FC 		.ascii	"B\\\023\374\020B@u\214P\222\031\2774\013\003'\007##"
  38      10424075 
  38      8C509219 
  38      BF340B03 
  38      27072323 
  39 0037 8302D012 		.ascii	"\203\002\320\022f\216\003v\0205,\013\344Y@\012Y\031"
  39      668E0376 
  39      10352C0B 
  39      E459400A 
  39      5919
  40 0049 38D83124 		.ascii	"8\3301$\201v\203%\331\030x%\030\231\031\024\262\377"
  40      81768325 
  40      D9187825 
  40      18991914 
  40      B2FF
  41 005b 32314E6B 		.ascii	"21Nk=t\236\375\013S+3P5\343rF\031\006\006\205,(\015"
  41      3D749EFD 
  41      0B532B33 
  41      5035E372 
  41      46190606 
  42 0073 D40B520E 		.ascii	"\324\013R\0163W\200\201\343\207\001\013\324\025,\020"
  42      33578081 
  42      E387010B 
  42      D4152C10 
  43 0083 6780286E 		.ascii	"g\200(n\006\036\210i\204\264\263\335R\301\242\235\037"
  43      061E8869 
  43      84B4B3DD 
  43      52C1A29D 
  43      1F
ARM GAS  e:\temp\cc55DlaG.s 			page 3


  44 0094 335C0430 		.ascii	"3\\\0040\205\0041\205\2040\205\030\0000\255#\267"
  44      85043185 
  44      84308518 
  44      0030AD23 
  44      B7
  45              		.text
  46              		.section	.gnu.lto_.pureconst.62410026,"",%progbits
  47 0000 789C6361 		.ascii	"x\234ca`d\020g``\340f\220b\222b\226b\221b\225b\223\342"
  47      60641067 
  47      6060E066 
  47      90629262 
  47      96629162 
  48 0018 96E29712 		.ascii	"\226\342\227\022\220\022\224\022\222\002\000\023F\001"
  48      90129412 
  48      92020013 
  48      4601
  49 0026 A7       		.ascii	"\247"
  50              		.text
  51              		.section	.gnu.lto_HPI_IF_I2CSlaveStatus.62410026,"",%progbits
  52 0000 789C2D50 		.ascii	"x\234-P\277K\202Q\024\275\347\275\257>!\212\246\226"
  52      BF4B8251 
  52      14BDE7BD 
  52      AF3E218A 
  52      A696
  53 0012 1C5C8D68 		.ascii	"\034\\\215h\210\376\200B*\205\006Ih\022>\302\2765Aj"
  53      88FE8042 
  53      2A850649 
  53      68123EC2 
  53      BE35416A 
  54 0026 F6F9E3A3 		.ascii	"\366\371\343\243\334j\310\241\0378\205\375\244\032\335"
  54      DC6AC8A1 
  54      1F3885FD 
  54      A41ADD
  55 0035 D43DA3D6 		.ascii	"\324=\243\326\012\302\300!\0344\212\2060\273\227\272"
  55      0AC2C021 
  55      1C348A86 
  55      30BB97BA 
  56 0045 70B9EFDC 		.ascii	"p\271\357\334w\356\271\347=\213@\022c\\&\271\216sB\023"
  56      77EEB9E7 
  56      3D8B4012 
  56      635C26B9 
  56      8E734213 
  57 0059 D44E8328 		.ascii	"\324N\203(\343S\200\034\214\017\224VH\343S\365\024\356"
  57      E353801C 
  57      8C0F9456 
  57      48E353F5 
  57      14EE
  58 006b F3D787FA 		.ascii	"\363\327\207\372CyL\263\030vo\367_G\004\002\001\206"
  58      43794CB3 
  58      18766FF7 
  58      5F470402 
  58      0186
  59 007d 07E6A160 		.ascii	"\007\346\241`\007\313\306d\315\313\361\367\354n\316"
  59      07CBC664 
  59      CDCBF1F7 
  59      EC6ECE
  60 008c 0B7B5A51 		.ascii	"\013{ZQ_\021N\340G\031~Yq\212 1\271y\363\2637<\2307"
ARM GAS  e:\temp\cc55DlaG.s 			page 4


  60      5F114EE0 
  60      47197E59 
  60      718A2031 
  60      B979F3B3 
  61 00a4 1C01A1F0 		.ascii	"\034\001\241\360\315\031\006\305\322\325r\325\364\373"
  61      CD1906C5 
  61      D2D572D5 
  61      F4FB
  62 00b2 39537DB6 		.ascii	"9S}\266k\035\333R\344i\255I\224\250\303)\256\272JI\325"
  62      6B1DDB52 
  62      E469AD49 
  62      94A8C329 
  62      AEBA4A49 
  63 00c7 2DD48BDD 		.ascii	"-\324\213\335\257\232\226\321\234\026\207E\257~g\213"
  63      AF9A96D1 
  63      9C168745 
  63      AF7E678B 
  64 00d7 250BB2A5 		.ascii	"%\013\262\245Ri?\332\351\236\3316f\224{\005\315\372"
  64      52693FDA 
  64      E99ED936 
  64      66947B05 
  64      CDFA
  65 00e9 DC6EE79B 		.ascii	"\334n\347\233\215\241\022\2162&#\375\001\\\360\013\317"
  65      8DA1128E 
  65      322623FD 
  65      015CF00B 
  65      CF
  66 00fa C51F2E51 		.ascii	"\305\037.Q\002\265\220}\337z\302\237\254fez\203\372"
  66      02B5907D 
  66      DF7AC29F 
  66      AC66657A 
  66      83FA
  67 010c 47F2671D 		.ascii	"G\362g\035\005\331\317n&\026\335u7\265\272\341\2569"
  67      05D9CF6E 
  67      2616DD75 
  67      37B5BAE1 
  67      AE39
  68 011e B1E4662A 		.ascii	"\261\344f*\341\306\243\261dh&\036\216F\234\310\202\023"
  68      E1C6A3B1 
  68      6468261E 
  68      8E469CC8 
  68      8213
  69 0130 990E39B1 		.ascii	"\231\0169\261\245\271\225\371\251\004\375\002\010.n"
  69      A5B995F9 
  69      A904FD02 
  69      082E6E
  70 013f C4       		.ascii	"\304"
  71              		.text
  72              		.section	.gnu.lto_HPI_IF_I2CSlaveClearReadStatus.62410026,"",%progbits
  73 0000 789C9552 		.ascii	"x\234\225RMkSA\024\275g&\357\275&\261\325\275Yd\323"
  73      4D6B5341 
  73      14BD6726 
  73      EFBD26B1 
  73      D5BD5964 
  74 0015 45055DA8 		.ascii	"E\005]\250\177\240\024k\003.\212\001W\205Pj\266\026"
  74      7FA0146B 
  74      032E8A01 
ARM GAS  e:\temp\cc55DlaG.s 			page 5


  74      5785506A 
  74      B616
  75 0027 DA749DC9 		.ascii	"\332t\235\311\307C\353\312\242\006\374\242\013\221\250"
  75      C743EBCA 
  75      A206FCA2 
  75      0B91A8
  76 0036 B569E377 		.ascii	"\265i\343w\027\305g\226\001\253V\350\306\205\022\245"
  76      17C56796 
  76      01AB56E8 
  76      C68512A5 
  77 0046 14E92289 		.ascii	"\024\351\"\211\351\316\030\357\315k\013\"\010\035x3"
  77      E9CE18EF 
  77      CD6B0B22 
  77      081D7833 
  78 0056 7766CE3D 		.ascii	"wf\316=\347\334\271/@ \031\253\212\350\024\257G\371"
  78      E7DCB92F 
  78      402019AB 
  78      8AE814AF 
  78      47F9
  79 0068 8326A86B 		.ascii	"\203&\250kkD\231\036\005H`z@i\2054vT[\341c~\371\256"
  79      6B44991E 
  79      0548607A 
  79      40698534 
  79      76545BE1 
  80 0080 6E299761 		.ascii	"n)\227a\001\3366\336\335\376\326'[ \312\333;f}\326\031"
  80      01DE36DE 
  80      DDFED627 
  80      5B20CADB 
  80      3B667DD6 
  81 0095 281A9335 		.ascii	"(\032\2235_\037\024\007\347r\356\210\253\025u\024\341"
  81      5F1F1407 
  81      E772EE88 
  81      AB157514 
  81      E1
  82 00a6 21222822 		.ascii	"!\"(\"\"\022\2170@\014\336r\315bP\037\207\304\327o\354"
  82      22128F30 
  82      400CDE72 
  82      CD62501F 
  82      87C4D76F 
  83 00bb 54ACFEFB 		.ascii	"T\254\376\373\222\350\275\271\332w\313x\371(g\3421\364"
  83      92E8BDB9 
  83      DA77CB78 
  83      F92867E2 
  83      31F4
  84 00cd DFC924E8 		.ascii	"\337\311$\350Z\371\367\315^;oxD\261\200~\021`\336'\260"
  84      5AF9F7CD 
  84      5E3B6F78 
  84      44B1807E 
  84      1160DE27 
  85 00e2 B920C8C9 		.ascii	"\271 \310\311\322y\317t:9\343\255\206\336\266B!M\256"
  85      D279CF74 
  85      3A39E3AD 
  85      86DEB642 
  85      214DAE
  86 00f5 D601921B 		.ascii	"\326\001\222\033KB[\246\240LDu\316\225:\033J\311\252"
  86      4B425BA6 
  86      A04C4475 
ARM GAS  e:\temp\cc55DlaG.s 			page 6


  86      CE953A1B 
  86      4AC9AA
  87 0108 B790F73E 		.ascii	"\267\220\367>U\225\260\211\326\312\312\366g'\3356W\214"
  87      5595B089 
  87      D6CACAF6 
  87      6727DD36 
  87      578C
  88 011a 39E2EA40 		.ascii	"9\342\352@G\211\304\"\322r\327\256\177h\037\222\352"
  88      4789C422 
  88      D272D7AE 
  88      7F681F92 
  88      EA
  89 012b 35422821 		.ascii	"5B(!\342j\2136Q)\2247\262a\311\317i\315\250\202[y\357"
  89      E26A8B36 
  89      51299437 
  89      B261C9CF 
  89      69CDA882 
  90 0142 08CAC6BF 		.ascii	"\010\312\306\277\204\366\254\366k\332\316\327\326\302"
  90      84F6ACF6 
  90      6BDACED7 
  90      D6C2
  91 0150 F3B89731 		.ascii	"\363\270\2271\0319w\260\314O\276$5\243\214y0o\356\327"
  91      193977B0 
  91      CC4FBE24 
  91      35A38C79 
  91      306FEED7 
  92 0164 30E574D0 		.ascii	"0\345t\320'-5[%\333\227>\214\247\014\333D\266y\371;"
  92      272D355B 
  92      25DB973E 
  92      8CA70CDB 
  92      44B679F9 
  93 0179 7CD900E3 		.ascii	"|\331\000\343\250\206n\021R4\237t\21556\326-\037a\035"
  93      A8866E11 
  93      52349F74 
  93      8D3536D6 
  93      2D1F611D 
  94 018d C0C9B37D 		.ascii	"\300\311\263}'\317\367\234\330>\313.Q\265=\267\020\026"
  94      27CFF79C 
  94      D83ECB2E 
  94      51B53DB7 
  94      1016
  95 019f 330E9AC0 		.ascii	"3\016\232\300\213\256\233J\241\353\345\0002/\367e^\261"
  95      8BAE9B4A 
  95      A1EBE500 
  95      322FF765 
  95      5EB1
  96 01b1 0C9393B4 		.ascii	"\014\223\223\264\342\313\177Z\301\235\303kn\305\336"
  96      E2CB7F5A 
  96      C19DC36B 
  96      6EC5DE
  97 01c0 DBFF40D6 		.ascii	"\333\377@\326\373Y\355\335}\003\371Y\352\334.n*\003"
  97      FB59EDDD 
  97      7D03F959 
  97      EADC2E6E 
  97      2A03
  98 01d2 8F9D4D5E 		.ascii	"\217\235M^JN\215\247\222\027\023\361\311\231\251\211"
  98      4A4E8DA7 
ARM GAS  e:\temp\cc55DlaG.s 			page 7


  98      921713F1 
  98      C999A989 
  99 01e2 E4D8687C 		.ascii	"\344\330h|r\350\364\330\310h,\021\033N\304N\016%\342"
  99      72E8F4D8 
  99      C8682C11 
  99      1B4EC44E 
  99      0E25E2
 100 01f5 E7062F9C 		.ascii	"\347\006/\23491A\366tj<53\375\007\210m\375C"
 100      393141F6 
 100      746A3C35 
 100      33FD0788 
 100      6DFD43
 101              		.text
 102              		.section	.gnu.lto_HPI_IF_I2CSlaveClearWriteStatus.62410026,"",%progbits
 103 0000 789C9552 		.ascii	"x\234\225RMOSA\024\275g\346\365=J\245qo\027\335\260"
 103      4D4F5341 
 103      14BD67E6 
 103      F53D4AA5 
 103      716F17DD 
 104 0015 C0444DD4 		.ascii	"\300DM\324?@\210H\023\027\304&\256H\032\202\335J\002"
 104      3F408848 
 104      1317C426 
 104      AE481A82 
 104      DD4A02
 105 0028 65DD695F 		.ascii	"e\335i_\237J\330H\324\032\277\302\202\005~!\324/da\362"
 105      9F4AD848 
 105      D41ABFC2 
 105      82057E21 
 105      D42F6461 
 106 003d EC968802 		.ascii	"\354\226\210\002\013M\330\230\252\204\030\026\255J\352"
 106      0B4DD898 
 106      AA841816 
 106      AD4AEA
 107 004c C25AEFED 		.ascii	"\302Z\357\355\003\022cb\302$o\346\316\314\271\347\234"
 107      03126362 
 107      C2246FE6 
 107      CECCB9E7 
 107      9C
 108 005d 3BF75904 		.ascii	";\367Y\004\222\361J\021\235\340\365\020\177\320\004"
 108      92F14A11 
 108      9DE0F510 
 108      7FD004
 109 006c 75659928 		.ascii	"ue\231(\327\246\000\011L\033(\253\220\305\266j(\254"
 109      D7A60009 
 109      4C1B28AB 
 109      90C5B66A 
 109      28AC
 110 007e 14E6EFE8 		.ascii	"\024\346\357\350\037\312c\230\305\333\332\233[\237\242"
 110      1FCA6398 
 110      C5DBDA9B 
 110      5B9FA2
 111 008d B205E2BC 		.ascii	"\262\005\342\274\275mV\307\235\256\031c\362\346\343"
 111      BD6D56C7 
 111      9DAE1963 
 111      F2E6E3
 112 009c 9785EE49 		.ascii	"\227\205\356I\327\353\363\264\242\246\"\334C\0143\210"
 112      D7EBF3B4 
ARM GAS  e:\temp\cc55DlaG.s 			page 8


 112      A2A622DC 
 112      430C3388 
 113 00ac 89C47D74 		.ascii	"\211\304}t\021\2037=3\033\326G \361\325k\333\345P\347"
 113      1183373D 
 113      331BD647 
 113      20F1D56B 
 113      DBE550E7 
 114 00c0 B424FA6B 		.ascii	"\264$\372k\023\321\233\306/\3049\023\017\240\377N&A"
 114      13D19BC6 
 114      2FC43913 
 114      0FA0FF4E 
 114      2641
 115 00d2 574ABFAF 		.ascii	"WJ\277\257w\330\005\303#\216\207\350\024\001\346}\004"
 115      77D805C3 
 115      238E87E8 
 115      1401E67D 
 115      04
 116 00e3 9B0B829C 		.ascii	"\233\013\202\234\314\235\365M\263\351\032\177%\362\372"
 116      CC9DF54D 
 116      B3E91A7F 
 116      25F2FA
 117 00f2 67A45D93 		.ascii	"g\244]\223\247\265Er\023\222\320\226),\023Q\225s\245"
 117      A7B54572 
 117      1392D096 
 117      292C1351 
 117      9573A5
 118 0105 CE9A52B2 		.ascii	"\316\232R\262\352M\024\374\367KJ\330Dkqqk\335\3116\314"
 118      EA4D14FC 
 118      F74B4AD8 
 118      446B7171 
 118      6BDDC936 
 119 011a 65630E7A 		.ascii	"ec\016z\332j*\221\230EV\356\032\325w\215\003R\275F;"
 119      DA6A2A91 
 119      984556EE 
 119      1AD5778D 
 119      0352BD46 
 120 012f 1E23E6E9 		.ascii	"\036#\346\351\020m\240\\,\325\363\021\311w\265fT\321"
 120      106DA05C 
 120      2CD5F311 
 120      C977B566 
 120      54D1
 121 0141 2BBF7504 		.ascii	"+\277u\004e\343_B{\\\0075m\025*\313\221)\334\315\231"
 121      65E35F42 
 121      7B5C0735 
 121      6D152ACB 
 121      9129DCCD 
 122 0156 9C9C3B98 		.ascii	"\234\234;\230\347'\237\223\232Q\302\024\230\327\375"
 122      E7279F93 
 122      9A51C214 
 122      98D7FD
 123 0165 D54BAE0E 		.ascii	"\325K\256\016\007\244\027'+\323\321@\272\012<a\334\006"
 123      07A41727 
 123      2BD3D140 
 123      BA0A3C61 
 123      DC06
 124 0177 F2DF2E7D 		.ascii	"\362\337.}F\240k1\220*hU!U\363I\313Y\255\276\032\012"
 124      46A06B31 
ARM GAS  e:\temp\cc55DlaG.s 			page 9


 124      902A6855 
 124      2155F349 
 124      CB59ADBE 
 125 018d 10A17D58 		.ascii	"\020\241}Xy\272g\345\331\256\025;`\331!\272\261\276"
 125      79BA67E5 
 125      D9AE153B 
 125      60D921BA 
 125      B1BE
 126 019f F6C11637 		.ascii	"\366\301\0267\016\216\341y\313L\271\330\262\262\017"
 126      0E8EE179 
 126      CB4CB9D8 
 126      B2B20F
 127 01ae 95177B2A 		.ascii	"\225\027{*\013\254\302\334$\255\370\376\237Vp\347\360"
 127      0BACC2DC 
 127      24ADF8FE 
 127      9F5670E7 
 127      F0
 128 01bf 925BB1FB 		.ascii	"\222[\261\373\366_\221\367\353K\035;O ?K\225\333\305"
 128      F65F91F7 
 128      EB4B1D3B 
 128      4F203F4B 
 128      95DBC5
 129 01d2 4D65E0E1 		.ascii	"Me\340\341\323\351\013\351\221\301L\372|*9<62\224\036"
 129      D3E90BE9 
 129      91C14CFA 
 129      7C2A393C 
 129      3632941E 
 130 01e6 E84F0EF7 		.ascii	"\350O\016\367\234\034\350\353O\244\022\275\251\304\361"
 130      9C1CE8EB 
 130      4FA412BD 
 130      A9C4F1
 131 01f5 9E54F24C 		.ascii	"\236T\362L\367\271SG\207\310\036\315\014f\306F\377\000"
 131      F7B95347 
 131      87C81ECD 
 131      0C66C646 
 131      FF00
 132 0207 E6E1FDB8 		.ascii	"\346\341\375\270"
 133              		.text
 134              		.section	.gnu.lto_HPI_IF_I2CSlaveSetAddress.62410026,"",%progbits
 135 0000 789C5D51 		.ascii	"x\234]QMk\023Q\024}\347\275\311\314\0241\375\001v\221"
 135      4D6B1351 
 135      147DE7BD 
 135      C9CC1431 
 135      FD017691 
 136 0014 4D291514 		.ascii	"M)\025\024\024\335\210]H\361#(R\033pU\010!\031t\243"
 136      14DD885D 
 136      48F12328 
 136      521B7055 
 136      08211974 
 137 0029 85B4820B 		.ascii	"\205\264\202\013\241/\237\242\013)\250EE\011(\322\326"
 137      A12F9FA2 
 137      0B29A845 
 137      450928D2 
 137      D6
 138 003a AA69B42E 		.ascii	"\252i\264.l\021b\220fe\253\265\350FE\242DP\264\211T"
 138      6C116290 
 138      6665ABB5 
ARM GAS  e:\temp\cc55DlaG.s 			page 10


 138      E84645A2 
 138      4450B489 
 139 004f 90A21DEF 		.ascii	"\220\242\035\357\235YH\2740\357\275{9\347\334s\357\030"
 139      9D5948BC 
 139      30EFBD7B 
 139      39E7DC73 
 139      EF18
 140 0061 0282E38C 		.ascii	"\002\202\343\214\024\242\207\356M\364A\011\310\321\005"
 140      14A287EE 
 140      4DF44109 
 140      C8D105
 141 0070 2152B604 		.ascii	"!R\266\004\370\241m\210\021\211\021\374\224\177$*g\353"
 141      F8A16D88 
 141      118911FC 
 141      947F242A 
 141      67EB
 142 0082 8F65F7B8 		.ascii	"\217e\367\270\246\370\220\373\274MO\224\221SB\270\322"
 142      A6F890FB 
 142      BC4D4F94 
 142      915342B8 
 142      D2
 143 0093 53121847 		.ascii	"S\022\030G7\241^f\247\257\253U\231S\200Ai\363\371\265"
 143      37A15E66 
 143      A7AFAB55 
 143      99538041 
 143      69F3F9B5 
 144 00a7 8F414E25 		.ascii	"\217AN%B\224.\227V\026\244\332\002A\357\251\357\363"
 144      42942E97 
 144      5616A4DA 
 144      0241EFA9 
 144      EFF3
 145 00b9 AFECAEDB 		.ascii	"\257\354\256\333Z\247\265.8\272-\247\024\356@\221\036"
 145      5AA7B52E 
 145      38BA2DA7 
 145      14EE4091 
 145      1E
 146 00ca 26D18109 		.ascii	"&\321\201\011t\010*\011L\241\213\341\347\336T\335v\265"
 146      74082A09 
 146      4CA18BE1 
 146      E7DE54DD 
 146      76B5
 147 00dc D3A3565F 		.ascii	"\323\243V_\\9\330y\213\231\345'\027\202Wu9\033b\366"
 147      5C39D879 
 147      8B99E527 
 147      17825775 
 147      391B62F6 
 148 00f0 DD563607 		.ascii	"\335V6\007\201k\245\365\313\033\315,\373\016\341\036"
 148      816BA5F5 
 148      CB1BCD2C 
 148      FB0EE11E 
 149 0100 3A7DC7B8 		.ascii	":}\307\270\017\223v\000\256\024\373\313\332u3\272<\027"
 149      0F937600 
 149      AE14FBCB 
 149      DA7533BA 
 149      3C17
 150 0112 7CFA36D8 		.ascii	"|\3726\330F\022TT\336i\200\373\007\310\211a\362ayU!"
 150      46125454 
ARM GAS  e:\temp\cc55DlaG.s 			page 11


 150      DE6980FB 
 150      07C88961 
 150      F2617955 
 151 0127 1AA4C12B 		.ascii	"\032\244\301+jJ\311\267\252\243\262v~~v7\313f\024\257"
 151      6A4AC9B7 
 151      AAA3B276 
 151      7E7E7637 
 151      CB6614AF 
 152 013b 6B2C5759 		.ascii	"k,WY\264x\362\200g\371\246^\372f\370\351h\376\222\346"
 152      B478F280 
 152      67F9A65E 
 152      FA66F8E9 
 152      68FE92E6 
 153 014f DDFC482D 		.ascii	"\335\374H-\316\231\005\334HeSZ\037!u\023\323d\275\310"
 153      CE9905DC 
 153      4865535A 
 153      1F217513 
 153      D364BDC8 
 154 0163 D6514201 		.ascii	"\326QB\001\242\206\264\356\361\234RS\222\025ud~\347"
 154      A286B4EE 
 154      F19C5253 
 154      92157564 
 154      7EE7
 155 0175 9776F95D 		.ascii	"\227v\371]\224\337\250\266\362u\315\333\270\001\275"
 155      94DFA8B6 
 155      F275CDDB 
 155      B801BD
 156 0184 EEBAED78 		.ascii	"\356\272\355x@\0025\310\177<\305\274F\376\375\354i\237"
 156      400235C8 
 156      7F3CC5BC 
 156      46FEFDEC 
 156      699F
 157 0196 18C828EE 		.ascii	"\030\310(\356?\363\254\232\267\231h\001xH$O}Y\372 \306"
 157      3FF3AC9A 
 157      B7996801 
 157      7848244F 
 157      7D59FA20 
 158 01ab 11A898FB 		.ascii	"\021\250\230\3734i\373\352.0\343\243~\345W\341\243,"
 158      3469FBEA 
 158      2E30E3A3 
 158      7EE557E1 
 158      A32C
 159 01bd CF86D9DA 		.ascii	"\317\206\331\332\317\"Le\254\371\372\242\305\265\377"
 159      CF224C65 
 159      ACF9FAA2 
 159      C5B5FF
 160 01cc 27DDD03A 		.ascii	"'\335\320:\350#\032\224)_\220.\277;\314\004\357\307"
 160      E8231A94 
 160      295F902E 
 160      BF3BCC04 
 160      EFC7
 161 01de 352478B1 		.ascii	"5$x\261\264\346\315\373\235\223N26\354$\242\221\301"
 161      B4E6CDFB 
 161      9D934E32 
 161      36EC24A2 
 161      91C1
 162 01f0 53C9B833 		.ascii	"S\311\2703\320\027\031\354\3351p\240/\034\015\357\213"
ARM GAS  e:\temp\cc55DlaG.s 			page 12


 162      D01719EC 
 162      DD3170A0 
 162      2F1C0DEF 
 162      8B
 163 0201 86B7F746 		.ascii	"\206\267\367F#\207\366\034\335\2735.\254X\"\221t\206"
 163      2387F61C 
 163      DDBB352E 
 163      AC582291 
 163      7486
 164 0213 86EC13B1 		.ascii	"\206\354\023\261\341\370\361~\347\330_\254\303\345\203"
 164      E1F8F17E 
 164      E7D85FAC 
 164      C3E583
 165              		.text
 166              		.section	.gnu.lto_HPI_IF_I2CSlaveSetAddressMask.62410026,"",%progbits
 167 0000 789C5D51 		.ascii	"x\234]QKh\023Q\024}\347\275\311$\022l\334\333E6\245"
 167      4B681351 
 167      147DE7BD 
 167      C924126C 
 167      DCDB4536 
 168 0015 545050DC 		.ascii	"TPP\334\010vQ\212\325\240bM\300U!\204dP\020-$u\335\227"
 168      0876518A 
 168      D5A0624D 
 168      C0552184 
 168      6450102D 
 169 002d AFE8C682 		.ascii	"\257\350\306\202\032\374\225\200RZ\277M\374P?(c@\273"
 169      1AFC9580 
 169      525ABF4D 
 169      FC503F28 
 169      6340BB
 170 0040 51AB5D58 		.ascii	"Q\253]X\334\225\250\021\004KZZ)E\033\357\235\021$^x"
 170      DC95A811 
 170      044B5A5A 
 170      29451BEF 
 170      9D11245E 
 171 0055 F3DEBD9C 		.ascii	"\363\336\275\234s\356\271w\014\001\301\021\226B\364"
 171      73EEB977 
 171      0C01C111 
 171      9642F4
 172 0064 D0BD990E 		.ascii	"\320\275\231\016\224\200\034y'D\332'\001~h\037\304\260"
 172      94801C79 
 172      2744DA27 
 172      017E681F 
 172      C4B0
 173 0076 C43056E4 		.ascii	"\3040V\344o\211\352\351\372\023\3315\256)\346\307~n"
 173      6F89EAE9 
 173      FA13D935 
 173      AE29E6C7 
 173      7E6E
 174 0088 D71336F2 		.ascii	"\327\0236\362J\210\246t\224\004\306\321E\250\017\271"
 174      4A88A674 
 174      9404C6D1 
 174      45A80FB9 
 175 0098 F235B52C 		.ascii	"\3625\265,\363\0120(]|{\345s\033\247\022AJ\257>-}Qj"
 175      F30A3028 
 175      5D7C7BE5 
 175      731BA712 
ARM GAS  e:\temp\cc55DlaG.s 			page 13


 175      414AAF3E 
 176 00b0 2B04BDBF 		.ascii	"+\004\275\277=..\005:\307\264\316h=e\351\015y\245p\013"
 176      3D2E2E05 
 176      3AC7B4CE 
 176      683D65E9 
 176      0D79A570 
 177 00c5 8AF47013 		.ascii	"\212\364p\023\355\230@\273\240\222\300mt2\374\314\334"
 177      ED9840BB 
 177      A092C06D 
 177      7432FCCC 
 177      DC
 178 00d6 7433A076 		.ascii	"t3\240v9\324\351\367\227\366w\334`\246=u\256\355\262"
 178      39D4E9F7 
 178      97F677DC 
 178      60A63D75 
 178      AEEDB2
 179 00e9 B6734166 		.ascii	"\266sAf\337ies\020\270VY\277\270\321\314\261\357 \356"
 179      DF696573 
 179      10B85659 
 179      BFB8D1CC 
 179      B1EF20EE 
 180 00fd A2C3758C 		.ascii	"\242\303u\214{0i\007\340\312d\330\326\315fV\333\217"
 180      7B306907 
 180      E0CA64D8 
 180      D6CD6656 
 180      DB8F
 181 010f 022F3F06 		.ascii	"\002/?\006|$AE\345|\015p\177\01791L\247 D\203\350\274"
 181      7C244145 
 181      E57C0D70 
 181      7F0F3931 
 181      4CA72044 
 182 0126 9D4529F9 		.ascii	"\235E)\371VuT\327\316.<\337\315\212Y\305\233*\346\253"
 182      567554D7 
 182      CE2E3CDF 
 182      CD8A59C5 
 182      9B2AE6AB 
 183 013a 335E1EDA 		.ascii	"3^\036\332\343\270\275\256g\177\030n:R\270\240y-K\351"
 183      E3B8BDAE 
 183      677F186E 
 183      3A52B8A0 
 183      792D4BE9 
 184 014e 99676609 		.ascii	"\231gf\011\243\351\\Z\353\303\244n\242L\256'\3315*("
 184      A3E95C5A 
 184      EBC3A46E 
 184      A24CAE27 
 184      D9352A28 
 185 0162 41D490D1 		.ascii	"A\324\220\321\335\216IjJ\262\242\216\354\257\302Z\267"
 185      DD8E496A 
 185      4AB2A28E 
 185      ECAFC25A 
 185      B7
 186 0173 DB45B98D 		.ascii	"\333E\271\215>}}\265n\262\262\001\362\277\032\300}\022"
 186      3E7D7DB5 
 186      6EB2B201 
 186      F2BF1AC0 
 186      7D12
 187 0185 A841FEE3 		.ascii	"\250A\376\343)\3465\012\257_\224\3412=Y\305\006f\033"
ARM GAS  e:\temp\cc55DlaG.s 			page 14


 187      29E6350A 
 187      AF5F94E1 
 187      323D59C5 
 187      06661B
 188 0198 6F46FDCC 		.ascii	"oF\375\314\364b\023\036\020\213`\253\205\345\277 \267"
 188      F462131E 
 188      108B60AB 
 188      85E5BF20 
 188      B7
 189 01a9 83A755CA 		.ascii	"\203\247U\312$L\265XY9\357\345\332\377C\370[gxH30\345"
 189      244CB558 
 189      5939EFE5 
 189      DAFF43F8 
 189      5B677848 
 190 01c0 3B32F6DC 		.ascii	";2\366\334!&8\277\243!\301;\243\015n\331k\235\264\222"
 190      212638BF 
 190      A321C13B 
 190      A30D6ED9 
 190      6B9DB492 
 191 01d4 B1212B11 		.ascii	"\261!+\021\215\014\236J\306\255\201\376\310`\357\316"
 191      8D0C9E4A 
 191      C6AD81FE 
 191      C860EFCE 
 192 01e4 817DFDA1 		.ascii	"\201}\375\241h\250/\032\332\321\033\215\034\3509\262"
 192      68A82F1A 
 192      DAD11B8D 
 192      1CE839B2 
 193 01f4 675B5CF8 		.ascii	"g[\\\370c\211D\322J\245\016\306R\307}'bC\361ca\353\350"
 193      638944D2 
 193      4AA50EC6 
 193      52C77D27 
 193      6243F163 
 194 020b 1FE871DA 		.ascii	"\037\350q\332\016"
 194      0E
 195              		.text
 196              		.section	.gnu.lto_HPI_IF_I2CSlaveInitReadBuf.62410026,"",%progbits
 197 0000 789C7D91 		.ascii	"x\234}\221=hSQ\024\307\357\377\336\227\357(\2458f\350"
 197      3D685351 
 197      14C7EFFF 
 197      DE97EF28 
 197      A53866E8 
 198 0014 162AE850 		.ascii	"\026*\350P;\011\035\264\370\021p(\0158\025\202\266\257"
 198      3B091DB4 
 198      F8117028 
 198      0D381582 
 198      B6AF
 199 0026 E0622198 		.ascii	"\340b!\230\305%7i\036Zt\250\203\016\251R\004%\3613\255"
 199      C5253769 
 199      1E5A74A8 
 199      830EA952 
 199      0425F133 
 200 003b 559BD80A 		.ascii	"U\233\330\0121\350\246\265*\325\241\212Z\265H\351\220"
 200      31E8A6B5 
 200      2AD5A18A 
 200      5AB548E9 
 200      90
 201 004c 4032C678 		.ascii	"@2\306x\316\253\206\322F/<\336\275\347\236\377\357\234"
ARM GAS  e:\temp\cc55DlaG.s 			page 15


 201      CEAB86D2 
 201      462F3CDE 
 201      BDE79EFF 
 201      EF9C
 202 005e 7BFE8680 		.ascii	"{\376\206\200\340\265K\011\261\237\376\335\364\301!"
 202      E0B54B09 
 202      B19FFEDD 
 202      F4C121
 203 006d 20C71784 		.ascii	" \307\027\204H\270\245T\023=B{\215Z\233\320~\005c#l"
 203      48B8A554 
 203      133D427B 
 203      8D5A9BD0 
 203      7E056323 
 204 0082 00BCD16E 		.ascii	"\000\274\321n\210\270T\006\342\250\311\272D\351\334"
 204      88B85406 
 204      E2A8C9BA 
 204      44E9DC
 205 0091 6A417666 		.ascii	"jAvf4\255/V\246Kg\213\260\210\333\220v\011\201\014:"
 205      34AD2F56 
 205      A64B678B 
 205      B088DB90 
 205      7609810C 
 206 00a6 29EB4D6A 		.ascii	")\353Mj\352\252\252JK\001\006\035+\257\322\337v\362"
 206      EAAAAA4A 
 206      4B01061D 
 206      2BAFD2DF 
 206      76F2
 207 00b8 51A2838E 		.ascii	"Q\242\203\216\331\371\027y\217\332\003A\373\364\205"
 207      D9F91779 
 207      8FDA0341 
 207      FBF485
 208 00c7 D91FEEE0 		.ascii	"\331\037\356\340M\255\223Z\317\230\332c)\205\333P\304"
 208      4DAD935A 
 208      CF98DA63 
 208      2985DB50 
 208      C4
 209 00d8 C32D0490 		.ascii	"\303-\004\220E@PH\340\016\202\224\375\351\373\365\217"
 209      45405048 
 209      E00E8294 
 209      FDE9FBF5 
 209      8F
 210 00e9 1EB5CF56 		.ascii	"\036\265\317V^\314\345\362\352\217\362\263\2554pw\253"
 210      5ECCE5F2 
 210      EA8FF2B3 
 210      AD347077 
 210      AB
 211 00fa D210B887 		.ascii	"\322\020\270\207 \247\257L\377\272\274\303\231\342\306"
 211      20A7AF4C 
 211      FFBABCC3 
 211      99E2C6
 212 0109 3B36DAC5 		.ascii	";6\332\305}8y2\271\376\242n4Fuq\256\375Y\265\335'\301"
 212      7D387932 
 212      B9FEA26E 
 212      34467571 
 212      AEFD59B5 
 213 0120 C59CB085 		.ascii	"\305\234\260\205\242L\231<\207\212\224\374W_\221Z\036"
 213      A24C993C 
ARM GAS  e:\temp\cc55DlaG.s 			page 16


 213      878A94FC 
 213      575F915A 
 213      1E
 214 0131 6DDC70B1 		.ascii	"m\334p\261xT\361D\256X\245\327.~\234\202@\216\252\362"
 214      7854F144 
 214      AE58A5D7 
 214      2E7E9C82 
 214      408EAAF2 
 215 0145 AA482526 		.ascii	"\252H%&z\324O\244\212\357\336\3729\231{(\024\326\227"
 215      7AD44FA4 
 215      8AEFDEFA 
 215      39997B28 
 215      14D697
 216 0158 5DF1BA3E 		.ascii	"]\361\272>\257u\233\245\034\015I\3451\2058\337\325\313"
 216      AF759BA5 
 216      1C0D49E5 
 216      318538DF 
 216      D5CB
 217 016a 8B753F63 		.ascii	"\213u?c\234\360b\032\001K\271\304*\222\351\312R\312"
 217      9CF0621A 
 217      014BB9C4 
 217      2A92E9CA 
 217      52CA
 218 017c C3FACD95 		.ascii	"\303\372\315\225\334\330Ns\217\221\015\034^{\271\364"
 218      DCD84E73 
 218      8F910D1C 
 218      5E7BB9F4 
 219 018c DC3B896B 		.ascii	"\334;\211k\011m\307=\230!\357\036p_x\210IP\323\304-"
 219      096DC73D 
 219      9821EF1E 
 219      705F7888 
 219      4950D3C4 
 220 01a1 A52FBD37 		.ascii	"\245/\2757\266b\275-\260\3361z\026\207\327S+\013>\033"
 220      B662BD2D 
 220      B0DE317A 
 220      1687D753 
 220      2B0B3E1B 
 221 01b5 9BE0B80F 		.ascii	"\233\340\270\017\217\011\373\310\306\316\332X'c\253"
 221      8F09FBC8 
 221      C6CEDA58 
 221      2763AB
 222 01c4 8B4DEC36 		.ascii	"\213M\3546\216l\315\31179\005\342l\356\307G\003}B7\314"
 222      8E6CCDC9 
 222      373905E2 
 222      6CEEC747 
 222      037D4237 
 223 01d9 1DFFF04F 		.ascii	"\035\377\360O\256j\315\235kr\347\211k\203\330\216\312"
 223      AE6ACD9D 
 223      6B72E789 
 223      6B83D88E 
 223      CA
 224 01ea 7FECA00E 		.ascii	"\177\354\240\016\361\224\354\370;\177\366\321\260m_"
 224      F194ECF8 
 224      3B7FF6D1 
 224      B06D5F
 225 01f9 43B258EB 		.ascii	"C\262X\353\267\205\274\312\344\034\205)\177\367\021"
 225      B785BCCA 
ARM GAS  e:\temp\cc55DlaG.s 			page 17


 225      E41C8529 
 225      7FF711
 226 0208 F3B4193D 		.ascii	"\363\264\031=q\306\034\212\204Gb\321As\240/<\322\333"
 226      71C61C8A 
 226      844762D1 
 226      4173A02F 
 226      3CD2DB
 227 021b 3D70B42F 		.ascii	"=p\264/\024\011\035\216\204\272z#\341c\007\216\037\332"
 227      14091D8E 
 227      84BA7A23 
 227      E163078E 
 227      1FDA
 228 022d 3B281CD1 		.ascii	";(\034\321\241\203\261a\327\311\330p\370\324Y\3637H"
 228      A183B161 
 228      D7C9D870 
 228      F8D459F3 
 228      3748
 229 023f 1227DE   		.ascii	"\022'\336"
 230              		.text
 231              		.section	.gnu.lto_HPI_IF_I2CSlaveInitWriteBuf.62410026,"",%progbits
 232 0000 789C7D91 		.ascii	"x\234}\221MHTQ\024\307\357\377\3367_oF\021\202V\263"
 232      4D485451 
 232      14C7EFFF 
 232      DE375F6F 
 232      46118256 
 233 0015 703718D4 		.ascii	"p7\030\324\302\\\005.J\372\030h!\015\270\022\206\262"
 233      C25C052E 
 233      4AFA1868 
 233      210DB812 
 233      86B2
 234 0027 27B44918 		.ascii	"'\264I\030\032\2026s\347\343QB\213iQ\213\321\220\026"
 234      1A823673 
 234      E7E35142 
 234      8B69518B 
 234      D19016
 235 003a 31F6E538 		.ascii	"1\366\3458\225\345(\3014\264\253,\251\026aQYI\210\213"
 235      95E528C1 
 235      34B4AB2C 
 235      A9166151 
 235      5949888B 
 236 004e 19D05DCF 		.ascii	"\031\320]\317\351\234g\206\250t\340\361\356=\367\374"
 236      E99C6786 
 236      A874E0F1 
 236      EE3DF7FC 
 237 005e 7FE7DCFF 		.ascii	"\177\347\334\3775\004\004\307K)\304!\372w\321\007\217"
 237      350404C7 
 237      4B29C421 
 237      FA77D107 
 237      8F
 238 006f 80CCCF09 		.ascii	"\200\314\317\011\221\366K\251F\272\2056\215\2656\241"
 238      91F64BA9 
 238      46BA8536 
 238      8DB536A1 
 239 007f 430AC646 		.ascii	"C\012\306F\332\000x\241\375\020)\251\014\244\260&\035"
 239      DA0078A1 
 239      FD1029A9 
 239      0CA4B026 
ARM GAS  e:\temp\cc55DlaG.s 			page 18


 239      1D
 240 0090 89DAE5A5 		.ascii	"\211\332\345\245\212\354(j\212\257?g:\365x\025\266\022"
 240      8AEC286A 
 240      8AAF3F67 
 240      3AF57815 
 240      B612
 241 00a2 A229DD16 		.ascii	"\242)\335\026\002EtP\325|nrT\255J[\001\006m\033\257"
 241      02457450 
 241      D57C6E72 
 241      54AD4A5B 
 241      01066D1B 
 242 00b7 0BDF5B79 		.ascii	"\013\337[y+\321N\333\211\205\321\337-j?\004\255\355"
 242      2BD14EDB 
 242      8985D1DF 
 242      2D6A3F04 
 242      ADED
 243 00c9 C2B32FAD 		.ascii	"\302\263/\255\221\333Zg\264\236\262t\300V\012w\241\210"
 243      91DB5A67 
 243      B49EB274 
 243      C0560A77 
 243      A188
 244 00db 873B0863 		.ascii	"\207;\010c\034aA)\201{\210P\365\347\037\267>\005\324"
 244      1C614129 
 244      817B8850 
 244      F5E71FB7 
 244      3E05D4
 245 00ee 415779B5 		.ascii	"AWy\265T\232V\177\225\015Wi\340\376v\245!\360\000\021"
 245      549A567F 
 245      950D5769 
 245      E0FE76A5 
 245      21F00011 
 246 0102 2E5F2CAF 		.ascii	"._,\257_o\361\346x\360\366\215q1\001/;S:U\325\315fV"
 246      5F6FF1E6 
 246      78F0F68D 
 246      7131012F 
 246      3B533A55 
 247 011a 573FEE79 		.ascii	"W?\356y\236\337kJp3/\\\241\250S%\373\320\220\222\377"
 247      9EDF6B4A 
 247      70332F5C 
 247      A1A85325 
 247      FBD09092 
 248 012f EA1B720B 		.ascii	"\352\033r\013\331\331\242\217\305Y\305\216\334\260k"
 248      D9D9A28F 
 248      C559C58E 
 248      DCB06B
 249 013e 6F7C7C39 		.ascii	"o||9\005\201\022u\345hH%F\272\325/\344\252\215w!.\346"
 249      05811275 
 249      E5684825 
 249      46BAD52F 
 249      E4AA8D77 
 250 0155 192A9595 		.ascii	"\031*\225\225\005_\312\321W\264n\263\225\247)\251=&"
 250      055FCAD1 
 250      57B46EB3 
 250      95A729A9 
 250      3D26
 251 0167 91E233A7 		.ascii	"\221\3423\247\376\326\0111\306\013\023e\204m\345\023"
 251      FED60931 
ARM GAS  e:\temp\cc55DlaG.s 			page 19


 251      C60B1365 
 251      846DE513 
 252 0177 4BC814CA 		.ascii	"K\310\024\312\316{\267\331\326N~\354\244\371\207\351"
 252      CE7BB7D9 
 252      D64E7EEC 
 252      A4F987E9 
 253 0187 1938BDFC 		.ascii	"\0318\275\374\352\303\013s\0147\323\332\315\007\360"
 253      EAC30B73 
 253      0C37D3DA 
 253      CD07F0
 254 0196 88DEEE21 		.ascii	"\210\336\356!\317\205\307\030\003\015M\334Za\3361\266"
 254      CF85C718 
 254      030D4DDC 
 254      5A61DE31 
 254      B6
 255 01a7 63CD5DB0 		.ascii	"c\315]\260\3460]\213\323+\271\305\271\240\213Ms>\210"
 255      E6305D8B 
 255      D32BB9C5 
 255      B9A08B4D 
 255      733E88
 256 01ba 27849D72 		.ascii	"'\204\235r\261O]\254\227\261\253\371\365M\354\016\216"
 256      B14F5DAC 
 256      97B1ABF9 
 256      F54DEC0E 
 256      8E
 257 01cb DC9D33FD 		.ascii	"\334\2353\375\217S!\316\326y\202d\350\014\235\260\213"
 257      8F5321CE 
 257      D6798264 
 257      E80C9DB0 
 257      8B
 258 01dc CE7F5C24 		.ascii	"\316\177\\$0f\311\305M\333\330~\303}\255ed\252\327\372"
 258      3066C9C5 
 258      4DDBD87E 
 258      C37DAD65 
 258      64AAD7FA 
 259 01f0 5C21479D 		.ascii	"\\!G\235\014\2474\325\357;n\235\267\022\247/Xg\343\261"
 259      0CA734D5 
 259      EF3B6E9D 
 259      B712A72F 
 259      5867E3B1 
 260 0204 A16462C0 		.ascii	"\241db\300\352\357\215\015\365t\365\237\350\215\306"
 260      EAEF8D0D 
 260      F574F59F 
 260      E88DC6
 261 0213 A3C7E2D1 		.ascii	"\243\307\342\321\316\236x\354\344\341\276\243\007\006"
 261      CE9E78EC 
 261      E4E1BEA3 
 261      0706
 262 0221 84E762E2 		.ascii	"\204\347b\342Hr\320w&9\030;w\311\372\003\316\320\017"
 262      4872D077 
 262      2639183B 
 262      77C9FA03 
 262      CED00F
 263 0234 39       		.ascii	"9"
 264              		.text
 265              		.section	.gnu.lto_HPI_IF_I2CSlaveGetReadBufSize.62410026,"",%progbits
 266 0000 789C6361 		.ascii	"x\234ca`d\000\201\377@\254\003\304\322@\314\310\314"
ARM GAS  e:\temp\cc55DlaG.s 			page 20


 266      60640081 
 266      FF40AC03 
 266      C4D240CC 
 266      C8CC
 267 0012 C0C834E1 		.ascii	"\300\3104\341\034\003C#\007\023##\210\321\300\301\310"
 267      1C034323 
 267      07132323 
 267      88D1C0C1 
 267      C8
 268 0023 50CFC458 		.ascii	"P\317\304X\317\370\225\351/\023\343\305\226\015s\230"
 268      CFF895E9 
 268      2F13E3C5 
 268      960D7398 
 269 0033 BF30B502 		.ascii	"\2770\265\002\225\261\000\271\037\317\316z\314\007\342"
 269      95B100B9 
 269      1FCFCE7A 
 269      CC07E2
 270 0042 32322A00 		.ascii	"22*\000\271\263\033.u\262k.ohhjx\260\364\235\323\304"
 270      B9B31B2E 
 270      75B26B2E 
 270      6F68686A 
 270      78B0F49D 
 271 0058 E6568F56 		.ascii	"\346V\217Vf&\206\377L\014\214+\030e\030\2273\312\200"
 271      662686FF 
 271      4C0C8C2B 
 271      18651897 
 271      33CA80
 272 006b AC58C9A8 		.ascii	"\254X\311\250\311\000T\374h\343\277\251\274l-\015@\240"
 272      C90054FC 
 272      68E3BFA9 
 272      BC6C2D0D 
 272      40A0
 273 007d 00520294 		.ascii	"\000R\002\224Y\305\310\006r\322\372\240\003\015\377"
 273      59C5C806 
 273      72D2FAA0 
 273      030DFF
 274 008c FF37371C 		.ascii	"\37777\034\370*v\360\207\030\320\000\220!\014\037\200"
 274      F82A76F0 
 274      8718D000 
 274      90210C1F 
 274      80
 275 009d 18E4A08F 		.ascii	"\030\344\240\217LL \232\371\031\343\241i\037\357ne\006"
 275      4C4C209A 
 275      F919E3A1 
 275      691FEF6E 
 275      6506
 276 00af E96A6606 		.ascii	"\351jf\0069nZ\353\241\363\354 \32703\202,\330\271\363"
 276      396E5AEB 
 276      A1F3EC20 
 276      D7303382 
 276      2CD8B9F3 
 277 00c3 CD6DF6FA 		.ascii	"\315m\366\372\277\015\035\015\015\002@\261Nf\240\321"
 277      BF0D1D0D 
 277      0D0240B1 
 277      4E66A0D1 
 278 00d3 40E1372D 		.ascii	"@\3417-\217\316q\317g\234\333\330\320\010\022ga\\\003"
 278      8FCE71CF 
ARM GAS  e:\temp\cc55DlaG.s 			page 21


 278      679CDBD8 
 278      D0081267 
 278      615C03
 279 00e6 F4DC6A90 		.ascii	"\364\334j\220\323\030\3272\316gdx\305\310\0045\022\024"
 279      D318D732 
 279      CE676478 
 279      C5C80435 
 279      1214
 280 00f8 381F9818 		.ascii	"8\037\230\030A\266\001\331Z\356\251y\251E\211%\251)"
 280      41B601D9 
 280      5AEEA979 
 280      A9458925 
 280      A929
 281 010a F1C1F9A5 		.ascii	"\361\301\371\245E\311\2511\001\301\371\316&1\036\001"
 281      45C9A931 
 281      01C1F9CE 
 281      26311E01 
 282 011a 9EF19E6E 		.ascii	"\236\361\236n\361\236F\316\361\301>\216a\256z\311\014"
 282      F19E46CE 
 282      F1C13E8E 
 282      61AE7AC9 
 282      0C
 283 012b 00197969 		.ascii	"\000\031yi\244"
 283      A4
 284              		.text
 285              		.section	.gnu.lto_HPI_IF_I2CSlaveGetWriteBufSize.62410026,"",%progbits
 286 0000 789C6361 		.ascii	"x\234ca`d\000\201\377@\254\003\304\322@\314\310\314"
 286      60640081 
 286      FF40AC03 
 286      C4D240CC 
 286      C8CC
 287 0012 C0C834E1 		.ascii	"\300\3104\341\034\003C#\007\023##\210\321\300\301\310"
 287      1C034323 
 287      07132323 
 287      88D1C0C1 
 287      C8
 288 0023 50CFC458 		.ascii	"P\317\304X\317\370\225\351/\023\343\305\226\015s\230"
 288      CFF895E9 
 288      2F13E3C5 
 288      960D7398 
 289 0033 BF30B502 		.ascii	"\2770\265\002\225\261\000\271\037\317\316z\314\007\342"
 289      95B100B9 
 289      1FCFCE7A 
 289      CC07E2
 290 0042 32322A00 		.ascii	"22*\000\271\263\033.u\262k.ohhjx\320\372\333ibs\253"
 290      B9B31B2E 
 290      75B26B2E 
 290      6F68686A 
 290      78D0FADB 
 291 005a 472B3313 		.ascii	"G+3\023\303\177&\006\306\025\2142\214\313\031e@V\254"
 291      C37F2606 
 291      C6158C32 
 291      8CCB1965 
 291      4056AC
 292 006d 64D46400 		.ascii	"d\324d\000*~\264\361\337T^\266\226\006 P\000)\001\312"
 292      2A7EB4F1 
 292      DF545EB6 
ARM GAS  e:\temp\cc55DlaG.s 			page 22


 292      96062050 
 292      002901CA 
 293 0081 AC626403 		.ascii	"\254bd\0039i}\320\201\206\377\377\233\033\016\334\026"
 293      39697DD0 
 293      8186FFFF 
 293      9B1B0EDC 
 293      16
 294 0092 3F784F1C 		.ascii	"?xO\034h\000\310\020\206\017@\014r\320G&&\020\315\374"
 294      6800C810 
 294      860F400C 
 294      72D04726 
 294      2610CDFC 
 295 00a6 8CF1D0B4 		.ascii	"\214\361\320\264\215\337\2672\203t53\203\0347\255\365"
 295      8DDFB732 
 295      83743533 
 295      831C37AD 
 295      F5
 296 00b7 D0797690 		.ascii	"\320yv\220k\230\031A\026\354\334\371\3466{\375\337\206"
 296      6B981941 
 296      16ECDCF9 
 296      E6367BFD 
 296      DF86
 297 00c9 8E860601 		.ascii	"\216\206\006\001\240X'3\320h\240\360\233\226G\347\270"
 297      A0582733 
 297      D068A0F0 
 297      9B9647E7 
 297      B8
 298 00da E733CE6D 		.ascii	"\3473\316mlh\004\211\2630\256\001zn5\310i\214k\031\347"
 298      6C680489 
 298      B330AE01 
 298      7A6E35C8 
 298      698C6B19 
 299 00ef 3332BC62 		.ascii	"32\274bd\202\032\011\012\234\017L\214 \333\200l-\367"
 299      64821A09 
 299      0A9C0F4C 
 299      8C20DB80 
 299      6C2DF7
 300 0102 D4BCD4A2 		.ascii	"\324\274\324\242\304\222\324\224\370\340\374\322\242"
 300      C492D494 
 300      F8E0FCD2 
 300      A2
 301 010f E4D49880 		.ascii	"\344\324\230\200\340|g\223\030\217\000\317xO\267xO#"
 301      E07C6793 
 301      188F00CF 
 301      784FB778 
 301      4F23
 302 0121 E7F8601F 		.ascii	"\347\370`\037\3070W\275d\006\000\314~i9"
 302      C73057BD 
 302      640600CC 
 302      7E6939
 303              		.text
 304              		.section	.gnu.lto_HPI_IF_I2CSlaveClearReadBuf.62410026,"",%progbits
 305 0000 789C6361 		.ascii	"x\234ca`d\000\201\347@\254\003\304\322@\314\310\314"
 305      60640081 
 305      E740AC03 
 305      C4D240CC 
 305      C8CC
ARM GAS  e:\temp\cc55DlaG.s 			page 23


 306 0012 C0C834E1 		.ascii	"\300\3104\341\034\003C#\007\023##\210\321\300\301\310"
 306      1C034323 
 306      07132323 
 306      88D1C0C1 
 306      C8
 307 0023 50CFC458 		.ascii	"P\317\304X\317\370\225\351/\023\343\241\366g;\2314\227"
 307      CFF895E9 
 307      2F13E3A1 
 307      F6673B99 
 307      3497
 308 0035 3700C183 		.ascii	"7\000\301\203\243\213\215\033V\034`lef`\370\317\004"
 308      A38B8D1B 
 308      561C606C 
 308      656660F8 
 308      CF04
 309 0047 36898171 		.ascii	"6\211\201q9\243&\003P\331\243\215\377\246\362\262\265"
 309      39A32603 
 309      50D9A38D 
 309      FFA6F2B2 
 309      B5
 310 0058 80942940 		.ascii	"\200\224)@$\031W0\262\201\254[\037t\240\341\377\377"
 310      24195730 
 310      B281AC5B 
 310      1F74A0E1 
 310      FFFF
 311 006a E68603F3 		.ascii	"\346\206\003\363\245\016n\222\002j\375\000\224\005\331"
 311      A50E6E92 
 311      026AFD00 
 311      9405D9
 312 0079 F3918909 		.ascii	"\363\221\211\011D3?c<\364e\303\231i\354 \015@\223\246"
 312      44333F63 
 312      3CF465C3 
 312      9969EC20 
 312      0D4093A6 
 313 008d B51E3ACF 		.ascii	"\265\036:\317\376\205\251\225\231\221\021d\360\316\235"
 313      FE85A995 
 313      99911164 
 313      F0CE9D
 314 009c 6F6EB3D7 		.ascii	"on\263\327\377m\350hh\020\000\212u\002\015\000\011\277"
 314      FF6DE868 
 314      6810008A 
 314      75020D00 
 314      09BF
 315 00ae 6979748E 		.ascii	"iyt\216{>\343\334\306\206F\2208\023\343*\240\203W2\312"
 315      7B3EE3DC 
 315      C6864690 
 315      3813E32A 
 315      A0835732 
 316 00c3 00ED5DCD 		.ascii	"\000\355]\3158\237\021\331\034&F\006\3065@\231W\214"
 316      389F11D9 
 316      1C264606 
 316      C6354099 
 316      578C
 317 00d5 4D073647 		.ascii	"M\0076G\201l\001\273\374\003P\034h=\3201Z\356\251y\251"
 317      816C01BB 
 317      FC03501C 
 317      683DD031 
ARM GAS  e:\temp\cc55DlaG.s 			page 24


 317      5AEEA979 
 318 00ea 458925A9 		.ascii	"E\211%\251)\361\301\371\245E\311\2511\001\301\371\316"
 318      29F1C1F9 
 318      A545C9A9 
 318      3101C1F9 
 318      CE
 319 00fb 26311E01 		.ascii	"&1\036\001\236\361\236n\361\236F\316\361\301>\216a\256"
 319      9EF19E6E 
 319      F19E46CE 
 319      F1C13E8E 
 319      61AE
 320 010d 7AC90C00 		.ascii	"z\311\014\000\3275c "
 320      D7356320 
 321              		.text
 322              		.section	.gnu.lto_HPI_IF_I2CSlaveClearWriteBuf.62410026,"",%progbits
 323 0000 789C6361 		.ascii	"x\234ca`d\000\201\347@\254\003\304\322@\314\310\314"
 323      60640081 
 323      E740AC03 
 323      C4D240CC 
 323      C8CC
 324 0012 C0C834E1 		.ascii	"\300\3104\341\034\003C#\007\023##\210\321\300\301\310"
 324      1C034323 
 324      07132323 
 324      88D1C0C1 
 324      C8
 325 0023 50CFC458 		.ascii	"P\317\304X\317\370\225\351/\023\343\241\366g;\2314\227"
 325      CFF895E9 
 325      2F13E3A1 
 325      F6673B99 
 325      3497
 326 0035 3700C183 		.ascii	"7\000\301\203\326u\306\015+\0160\266230\374g\002\233"
 326      D675C60D 
 326      2B0E30B6 
 326      323330FC 
 326      67029B
 327 0048 C4C0B89C 		.ascii	"\304\300\270\234Q\223\001\250\354\321\306\177Sy\331"
 327      519301A8 
 327      ECD1C67F 
 327      5379D9
 328 0057 5A40CA14 		.ascii	"Z@\312\024 \222\214+\030\331@\326\255\017:\320\360\377"
 328      20928C2B 
 328      18D940D6 
 328      AD0F3AD0 
 328      F0FF
 329 0069 7F73C381 		.ascii	"\177s\303\201\317R\007\277I\001\265~\000\312\202\354"
 329      CF5207BF 
 329      4901B57E 
 329      00CA82EC 
 330 0079 F9C8C404 		.ascii	"\371\310\304\004\242\231\2371\036\372\262\341\3564v"
 330      A2999F31 
 330      1EFAB2E1 
 330      EE3476
 331 0088 9006A049 		.ascii	"\220\006\240I\323Z\017\235g\377\302\324\312\314\310"
 331      D35A0F9D 
 331      67FFC2D4 
 331      CACCC8
 332 0097 083278E7 		.ascii	"\0102x\347\3167\267\331\353\3776t44\010\000\305:\201"
ARM GAS  e:\temp\cc55DlaG.s 			page 25


 332      CE37B7D9 
 332      EBFF3674 
 332      34340800 
 332      C53A81
 333 00aa 068084DF 		.ascii	"\006\200\204\337\264<:\307=\237qncC#H\234\211q\025\320"
 333      B43C3AC7 
 333      3D9F716E 
 333      63432348 
 333      9C897115 
 334 00bf C12B1965 		.ascii	"\301+\031e\200\366\256f\234\317\210l\016\023#\003\343"
 334      80F6AE66 
 334      9CCF886C 
 334      0E132303 
 334      E3
 335 00d0 1AA0CC2B 		.ascii	"\032\240\314+\306\246\003\337\243@\266\200]\376\001"
 335      C6A603DF 
 335      A340B680 
 335      5DFE01
 336 00df 280EB41E 		.ascii	"(\016\264\036\350\030-\367\324\274\324\242\304\222\324"
 336      E8182DF7 
 336      D4BCD4A2 
 336      C492D4
 337 00ee 94F8E0FC 		.ascii	"\224\370\340\374\322\242\344\324\230\200\340|g\223\030"
 337      D2A2E4D4 
 337      9880E07C 
 337      679318
 338 00fd 8F00CF78 		.ascii	"\217\000\317xO\267xO#\347\370`\037\3070W\275d\006\000"
 338      4FB7784F 
 338      23E7F860 
 338      1FC73057 
 338      BD640600 
 339 0111 317A63D8 		.ascii	"1zc\330"
 340              		.text
 341              		.section	.gnu.lto_.symbol_nodes.62410026,"",%progbits
 342 0000 789C558D 		.ascii	"x\234U\215\273\031\3020\014\204O\226\355\274x\006\247"
 342      BB19C230 
 342      0C844F96 
 342      EDBC7806 
 342      A7
 343 0011 0686630E 		.ascii	"\006\206c\016\205\002j\206\310\024\324\251\231\201\""
 343      85026A86 
 343      C814D4A9 
 343      998122
 344 0020 2523001F 		.ascii	"%#\000\037N\234\002U\367\375w\322\235\005\341D\000L"
 344      4E9C0255 
 344      F7FD77D2 
 344      9D05E144 
 344      004C
 345 0032 21C0ED01 		.ascii	"!\300\355\001D\271\267G\300\001\227z\014J!\025\230J"
 345      44B9B747 
 345      C001977A 
 345      0C4A2115 
 345      984A
 346 0044 8C3616C2 		.ascii	"\2146\026\302\332X\212\325\306J\234.\267t\036\313\235"
 346      DA588AD5 
 346      C64A9C2E 
 346      B7741ECB 
ARM GAS  e:\temp\cc55DlaG.s 			page 26


 346      9D
 347 0055 33D388F3 		.ascii	"3\323\210\363\2344\263it-^?\220K\017\306\247C\316\322"
 347      9C34B369 
 347      742D5E3F 
 347      904B0FC6 
 347      A743CED2 
 348 0069 E146323D 		.ascii	"\341F2=\265\225\\\033\265\024\332\330I\251\273\363|"
 348      B5955C1B 
 348      B514DAD8 
 348      49A9BBF3 
 348      7C
 349 007a EAA246AA 		.ascii	"\352\242F\252)\000\332\366\0209\310\342\237\3314\350"
 349      2900DAF6 
 349      1039C8E2 
 349      9FD934E8 
 350 008a 9E5F6213 		.ascii	"\236_b\023\320]_{\346\231yf\337\240\177\017\304>`\370"
 350      D05D5F7B 
 350      E6997966 
 350      DFA07F0F 
 350      C43E60F8 
 351 009e 44AD66AE 		.ascii	"D\255f\256\002\372\310\370\001\302\005K6"
 351      02FAC8F8 
 351      01C2054B 
 351      36
 352              		.text
 353              		.section	.gnu.lto_.refs.62410026,"",%progbits
 354 0000 789C3D86 		.ascii	"x\234=\206\311\015\2000\020\304\306\314f!\034\341\350"
 354      C90D8030 
 354      10C4C6CC 
 354      66211CE1 
 354      E8
 355 0011 8AFE1B62 		.ascii	"\212\376\033b_H\226\355\020z\245\262\300\223(\022\026"
 355      5F4896ED 
 355      107AA5B2 
 355      C0932812 
 355      16
 356 0022 FBDF4866 		.ascii	"\373\337HfW\350\2155\275\261\233#\030\215S\035.\015"
 356      57E88D35 
 356      BDB19B23 
 356      188D531D 
 356      2E0D
 357 0034 B8A97B18 		.ascii	"\270\251{\030\350\003:S\001\205"
 357      E8033A53 
 357      0185
 358              		.text
 359              		.section	.gnu.lto_.decls.62410026,"",%progbits
 360 0000 789CA596 		.ascii	"x\234\245\226kPTG\026\307o\337\036\246\206\231Q\214"
 360      6B505447 
 360      16C76FDF 
 360      1EA68699 
 360      518C
 361 0012 79949B25 		.ascii	"y\224\233%\321X\225\302J\245\314F\363a?\2456a\325P\233"
 361      D15895C2 
 361      4AA5CC46 
 361      F3613FA5 
 361      3661D550 
 362 0027 0725917C 		.ascii	"\007%\221|I\312B\271I\250\260\220\032\0067\356~\271"
ARM GAS  e:\temp\cc55DlaG.s 			page 27


 362      49CA42B9 
 362      49A8B090 
 362      1A0637EE 
 362      7EB9
 363 0039 8A5A6074 		.ascii	"\212Z`tK\315\212@ `\210\012\212\210\250A0\340\210\240"
 363      4BCD8A40 
 363      2060880A 
 363      8A88A841 
 363      30E088A0 
 364 004d 02F21A10 		.ascii	"\002\362\032\020\005y\217\010\010\304A\020\243\331\205"
 364      05798F08 
 364      08C44110 
 364      A3D985
 365 005c 3DFD98B9 		.ascii	"=\375\230\271=\257\304T\2728\367\322\335\347\374\316"
 365      3DAFC454 
 365      BA38F7D2 
 365      DDE7FCCE 
 366 006c FF74F79D 		.ascii	"\377t\367\235{u\022\222H{\302$I\273eI\312\303\2224\007"
 366      7B751292 
 366      487BC224 
 366      49BB6549 
 366      CAC39234 
 367 0081 CD0C63D1 		.ascii	"\315\014c\321`0$\205\202\235\220X\233\007V\001\366\003"
 367      60302485 
 367      829D9058 
 367      9B075601 
 367      F603
 368 0093 58155835 		.ascii	"X\025X5X\015X\035X\003X#X3\230\035\254\035\354\006X"
 368      580D581D 
 368      58035823 
 368      5833981D 
 368      AC1DEC06 
 369 00a8 17583058 		.ascii	"\027X0X\017X?\230\003l\010l\030l\024l\014l\002\354\256"
 369      0F583F98 
 369      036C086C 
 369      186C146C 
 369      0C6C02EC 
 370 00bd E4D9481E 		.ascii	"\344\331H\036=\330B\260\247\300\312\270\226>\260n\356"
 370      3DD842B0 
 370      A7C0CAB8 
 370      963EB06E 
 370      EE
 371 00ce 83B81FE2 		.ascii	"\203\270\037\342|\261\021\215\006?\361N\260\353^\034"
 371      7CB1118D 
 371      063FF14E 
 371      B0EB5E1C 
 372 00de CCFDBBB8 		.ascii	"\314\375\273\270f\177\274\252\337\310\253\372\025^5"
 372      667FBCAA 
 372      DFC8ABFA 
 372      155E35
 373 00ed E7457B31 		.ascii	"\347E{1\303\300\246\301\246\300\336\023\352\254\226"
 373      C3C0A6C1 
 373      A6C0DE13 
 373      EAAC96
 374 00fc 7C5BCD6F 		.ascii	"|[\315od\324\370a\220\2753{1Np\216\223\327H\352\273"
 374      64D4F861 
 374      90BD337B 
ARM GAS  e:\temp\cc55DlaG.s 			page 28


 374      314E708E 
 374      93D748EA 
 375 0111 CF6B9C01 		.ascii	"\317k\234\001\033\024\352\254\023\352\324I\276{,\266"
 375      1B14EAAC 
 375      13EAD449 
 375      BE7B2CB6 
 376 0121 86DF99AB 		.ascii	"\206\337\231\253A\310E\372\342\371\021\0339\207A^k\""
 376      41C845FA 
 376      E2F9111B 
 376      3987415E 
 376      6B22
 377 0133 B210F741 		.ascii	"\262\020\367A\\\247\330\232\037#\266\231\337\275\363"
 377      5CA7D89A 
 377      1F23B699 
 377      DFBDF3
 378 0142 DAB9AE68 		.ascii	"\332\271\256h?1\366\000\371\332\177!\246=@\236\377\311"
 378      3F31F600 
 378      F9DA7F21 
 378      A63D409E 
 378      FFC9
 379 0154 A8755B49 		.ascii	"\250u[I6\236\226\321B#\322Aw\2621\3131\037\272O\031"
 379      369E96D1 
 379      4223D241 
 379      77B231CB 
 379      311FBA4F 
 380 0169 D112E89E 		.ascii	"\321\022\350\236\330~\253\320\000\335P#\232C\244?^\376"
 380      D87EABD0 
 380      00DD5023 
 380      9A43A43F 
 380      5EFE
 381 017b 701EEB93 		.ascii	"p\036\353\223\340\276\207\005\253\227\027\251\320\366"
 381      E0BE8705 
 381      AB9717A9 
 381      D0F6
 382 0189 A8AA2C6B 		.ascii	"\250\252,k\324\314\275\216Y\0236\021'\271\315qlT\207"
 382      D4CCBD8E 
 382      59133611 
 382      27B9CD71 
 382      6C5487
 383 019c 96190F13 		.ascii	"\226\031\017\023\277\376\266\222\327\313Uu\001*FFT\204"
 383      BFFEB692 
 383      D7CB5575 
 383      012A4646 
 383      5484
 384 01ae 303A8696 		.ascii	"0:\206\226\023q\241F\270\246\252\352V\325\371\255\252"
 384      1371A146 
 384      B8A6AAEA 
 384      56D5F9AD 
 384      AA
 385 01bf 5F24A195 		.ascii	"_$\241\225\241\350O\241\022:\216\226\221d\304\013\035"
 385      A1E84FA1 
 385      123A8E96 
 385      9164C40B 
 385      1D
 386 01d0 45A1A810 		.ascii	"E\241\250\020\205\022\376\226\257\017\356\0131\357$"
 386      8512FE96 
 386      AF0FEE0B 
ARM GAS  e:\temp\cc55DlaG.s 			page 29


 386      31EF24
 387 01df FE7B52D4 		.ascii	"\376{R\324\205oQ\\\001\314\037\201y\011\235@fZ:\334"
 387      856F515C 
 387      01CC1F81 
 387      79099D40 
 387      665A3ADC 
 388 01f3 C1792EA7 		.ascii	"\301y.\247\270 \370&\352D2\342\277S\022B\354\212\250"
 388      B820F826 
 388      EA4432E2 
 388      BF531242 
 388      EC8AA8
 389 0206 49CC6817 		.ascii	"I\314h\027\376\221\351Ur\017\271o\022\271J\314\237\216"
 389      FE91E955 
 389      720FB96F 
 389      12B94ACC 
 389      9F8E
 390 0218 6930FAE7 		.ascii	"i0\372\347\272\317\271\032\205ht\304\203\220[\001\213"
 390      BACFB91A 
 390      856874C4 
 390      83905B01 
 390      8B
 391 0229 62F33277 		.ascii	"b\3632w\223\030\\\326\002\004\036\223+hB\2365!\327\016"
 391      93185CD6 
 391      02041E93 
 391      2B68429E 
 391      3521D70E 
 392 023d A497F71F 		.ascii	"\244\227\367\0375\343\225t\233j\347\036\330B\330\036"
 392      35E39574 
 392      9B6AE71E 
 392      D842D81E 
 393 024d CBD0B53B 		.ascii	"\313\320\265;\257\346\230\330\036/\200n\317\225\302"
 393      AFE698D8 
 393      1E2F806E 
 393      CF95C2
 394 025c 63E40484 		.ascii	"c\344\004\204\301\036C\013\021\2669\214ms}\337\320\275"
 394      C11E430B 
 394      11B6398C 
 394      6D737DDF 
 394      D0BD
 395 026e 601C4177 		.ascii	"`\034Aw\323\2369\336\247G\306e\251\356\265\227\334\013"
 395      D39E39DE 
 395      A747C665 
 395      A9EEB597 
 395      DC0B
 396 0280 8FCEC26E 		.ascii	"\217\316\302n\205\361\335:\003\203\247a\220n\273-{\261"
 396      85F1DD3A 
 396      0383A761 
 396      906EBB2D 
 396      7BB1
 397 0292 2AA332D8 		.ascii	"*\2432\330\244\357\265=\01732\251\343\343i3\206E\351"
 397      A4EFB53D 
 397      0F3332A9 
 397      E3E36933 
 397      8645E9
 398 02a5 C44F4D51 		.ascii	"\304OMQ\2270\277S\020^J7\263\034-\202\353\006\035s\276"
 398      9730BF53 
 398      105E4A37 
ARM GAS  e:\temp\cc55DlaG.s 			page 30


 398      B31C2D82 
 398      EB061D73 
 399 02ba 3CBBAB03 		.ascii	"<\273\253\003/\315S\363J\324\376\326K\233\266\344\357"
 399      2FCD53F3 
 399      4AD4FED6 
 399      4B9BB6E4 
 399      EF
 400 02cb 505B20EE 		.ascii	"P[ \356/\324\017\235\324\350\360/\271\225\240\233\260"
 400      2FD40F9D 
 400      D4E8F02F 
 400      B995A09B 
 400      B0
 401 02dc 42156829 		.ascii	"B\025h)\304v\236\273\224b\300\377\2425M\337=[*3\216"
 401      C4769EBB 
 401      9462C0FF 
 401      A2354DDF 
 401      3D5B2A33 
 402 02f1 ADA2DECC 		.ascii	"\255\242\336\314 \224qNc\234\023\031?P\306\356\366\222"
 402      2094714E 
 402      639C1319 
 402      3F50C6EE 
 402      F692
 403 0303 ED41380B 		.ascii	"\355A8\013QHi\343`7\027c\253j\020!\225\032\244R\204"
 403      514869E3 
 403      60371763 
 403      AB6A1021 
 403      951AA452 
 404 0318 545148E5 		.ascii	"TQH\345\3013\335!\270\202A\346\372O\357\221u\360\360"
 404      C133DD21 
 404      B88241E6 
 404      FA4FEF91 
 404      75F0F0
 405 032b D0BAA14E 		.ascii	"\320\272\241N\030\273\226\355l3\211K\022\375\214\260"
 405      18BB96ED 
 405      6C33894B 
 405      12FD8CB0 
 406 033b 2217E88A 		.ascii	"\"\027\350\212\330\020_\222\271\343-\223F\256\242\374"
 406      D8105F92 
 406      B9E32D93 
 406      46AEA2FC 
 407 034b DF3853B5 		.ascii	"\3378S\265m\2050\231\270\241\363\232\216\363\242\216"
 407      6D853099 
 407      B8A1F39A 
 407      8EF3A28E 
 408 035b 6AAA63EA 		.ascii	"j\252c\352xs\267\011\2673\035\273:j\377\306)\245\315"
 408      7873B709 
 408      B7331DBB 
 408      3A6AFFC6 
 408      29A5CD
 409 036e AE5A08E3 		.ascii	"\256Z\010\343\242\306\270(2j(#\367\314U\207\031\337"
 409      A2C6B828 
 409      326A2823 
 409      F7CC5587 
 409      19DF
 410 0380 0B5CCB81 		.ascii	"\013\\\313\201\242\274:D\307\340qD\227\020\035\034\335"
 410      A2BC3A44 
 410      C7E07144 
ARM GAS  e:\temp\cc55DlaG.s 			page 31


 410      97101D1C 
 410      DD
 411 0391 991916B0 		.ascii	"\231\031\026\260\276+\264\276\313\256\372\216\246\225"
 411      BE2BB4BE 
 411      CBAEFA8E 
 411      A695
 412 039f 4D98B9B2 		.ascii	"M\230\271\262\263v\2272pB\265\232\262ZQY\035U636f7\341"
 412      B3769732 
 412      7042B59A 
 412      B25A5159 
 412      1D553633 
 413 03b7 DD3255F6 		.ascii	"\3352U\366`\313w\216\020\016\351h\023!\365\032\244^"
 413      60CB778E 
 413      100EE968 
 413      1321F51A 
 413      A45E
 414 03c9 84345048 		.ascii	"\2044PH\326`S\361<\\\310 \003\273\034\265:\016\231J"
 414      D66053F1 
 414      3C5CC820 
 414      03BB1CB5 
 414      3A0E994A 
 415 03dd 37BB579A 		.ascii	"7\273W\232\354\370U\015sU\3044R\314W{\217\214`|\231"
 415      ECF8550D 
 415      7355C434 
 415      52CC577B 
 415      8F8C607C 
 416 03f2 61C6867B 		.ascii	"a\306\206{r\2039\346\306u\361\3304i\220&\021\322\314"
 416      728339E6 
 416      C675F1D8 
 416      34699026 
 416      11D2CC
 417 0405 CEEF9743 		.ascii	"\316\357\227C'\365\3706\207Te\316\315\013\270\204\255"
 417      27F5F836 
 417      875465CE 
 417      CD0BB884 
 417      AD
 418 0416 1E0FCDD1 		.ascii	"\036\017\315\321\013\247\207\365<aN\226vB\300\013\265"
 418      0BA787F5 
 418      3C614E96 
 418      7642C00B 
 418      B5
 419 0427 68295BC4 		.ascii	"h)[\304\224v\232\262\315\331s\335\214\267b\232r\337"
 419      94769AB2 
 419      CDD973DD 
 419      8CB7629A 
 419      72DF
 420 0439 BD41D555 		.ascii	"\275A\325U\276\263\313\245\233@\3324H\233\010i\247\220"
 420      BEB3CBA5 
 420      9B40DA34 
 420      489B0869 
 420      A790
 421 044b 6FBA52CB 		.ascii	"o\272R\313\0148\227A\206\016\344\216\351\351q(v\037"
 421      0C389741 
 421      860EE48E 
 421      E9E97128 
 421      761F
 422 045d 91A6FF74 		.ascii	"\221\246\377t\332Q\300Z\256\323Z:\\\307\241wbv\232<"
ARM GAS  e:\temp\cc55DlaG.s 			page 32


 422      DA51C05A 
 422      AED35A3A 
 422      5CC7A177 
 422      62769A3C 
 423 0471 B9FDF036 		.ascii	"\271\375\3606)\273\271*%\177\207-\222:\241k\232\212"
 423      29BBB92A 
 423      257F872D 
 423      923AA16B 
 423      9A8A
 424 0483 6B5405FC 		.ascii	"kT\005\374s\203*\330\373p_&\306\015LAFU^z0\003\330\262"
 424      73832AD8 
 424      FB705F26 
 424      C60D4C41 
 424      46555E7A 
 425 049b 9ACCB648 		.ascii	"\232\314\266H\032\334\251\005w\272\202\273hpvEze\010"
 425      1ADCA905 
 425      77BA82BB 
 425      68707645 
 425      7A6508
 426 04ae BEC182A7 		.ascii	"\276\301\202\247\267Mu\350\215\251D\347c\275\251\212"
 426      B74D75E8 
 426      8DA944E7 
 426      63BDA98A 
 427 04be 0E9D3962 		.ascii	"\016\2359b|1_\375.\237\374^=WP\014\221\006\324\015\245"
 427      7C315FFD 
 427      2E9FFC5E 
 427      3D57500C 
 427      9106D40D 
 428 04d3 DF640979 		.ascii	"\337d\011y\274D\372p\355A/BT\316Pv\315|<\302\365\356"
 428      BC44FA70 
 428      ED412F42 
 428      54CE5076 
 428      CD7C3CC2 
 429 04e9 3FFC68BE 		.ascii	"?\374h\276\370\262\353\366x\331\365\261\227\035Y\347"
 429      F8B2EBF6 
 429      78D9F5B1 
 429      971D59E7 
 430 04f9 52B5C004 		.ascii	"R\265\300\004\271\362\276Um\007\012\021l\3636\035\231"
 430      B9F2BE55 
 430      6D070A11 
 430      6CF3361D 
 430      99
 431 050a 46BD3C95 		.ascii	"F\275<\225\026\324K\223\365\323d\255]\255\211\370\021"
 431      16D44B93 
 431      F5D364AD 
 431      5DAD89F8 
 431      11
 432 051b CB9536B0 		.ascii	"\313\2256\260\277+\210\225\3678?\356Dj\357\216K!\254"
 432      BF2B8895 
 432      F7383FEE 
 432      446AEF8E 
 432      4B21AC
 433 052e 405B86A2 		.ascii	"@[\206\242\246\031\320 \310\033\360\3118@3:h\306\311"
 433      A619D020 
 433      C81BF0C9 
 433      3840333A 
 433      68C6C9
ARM GAS  e:\temp\cc55DlaG.s 			page 33


 434 0541 ED8D237A 		.ascii	"\355\215#z\274[GSV\357\237\3150p@\226\033p\313\007p"
 434      BC5B4753 
 434      56EF9FCD 
 434      30704096 
 434      1B70CB07 
 435 0556 8B028628 		.ascii	"\213\002\206(\240\246\357`\206\011\037d\200\363\266"
 435      A0A6EF60 
 435      86091F64 
 435      80F3B6
 436 0565 DA53F339 		.ascii	"\332S\3639 \333\015\270\355\003\270M\001\303\024ph\347"
 436      20DB0DB8 
 436      ED03B84D 
 436      01C31470 
 436      68E7
 437 0577 8043C667 		.ascii	"\200C\306g\031\240\340a\312I=_\267\377\306\022\000Y"
 437      19A0E061 
 437      CA493D5F 
 437      B7FFC612 
 437      0059
 438 0589 B4111FC0 		.ascii	"\264\021\037\300\010\005\214\262\022\272\356\344\352"
 438      08058CB2 
 438      12BAEEE4 
 438      EA
 439 0596 713D034C 		.ascii	"q=\003L<\2702k\342\012fc]\012\356\370\000\356P\300\030"
 439      3CB8326B 
 439      E20A6663 
 439      5D0AEEF8 
 439      00EE50C0 
 440 05ab 057416B5 		.ascii	"\005t\026\265\214\231q\017\003TN}Ul\346\200=\356\022"
 440      8C99710F 
 440      03544E7D 
 440      556CE680 
 440      3DEE12
 441 05be C67D00E3 		.ascii	"\306}\000\343\0240A\001\307\363\277~\031O\262\370\234"
 441      14304101 
 441      C7F3BF7E 
 441      194FB2F8 
 441      9C
 442 05cf D1E1EF5D 		.ascii	"\321\341\357]K\360\315G\256\023\366\243\327\011\373"
 442      4BF0CD47 
 442      AE13F6A3 
 442      D709FB
 443 05de 9146DFA5 		.ascii	"\221F\337\245\321\352\341G\247\202\305CE\236\001-\221"
 443      D1EAE147 
 443      A782C543 
 443      459E012D 
 443      91
 444 05ef 937F4139 		.ascii	"\223\177A9\351\027TE\257\232\035\204S\203\350\027\300"
 444      E9175445 
 444      AF9A1D84 
 444      5383E817 
 444      C0
 445 0600 B52FCB32 		.ascii	"\265/\3132\260\366=\227\267no\032\371-\231\202\204\223"
 445      B0F63D97 
 445      B76E6F1A 
 445      F92D9982 
 445      8493
ARM GAS  e:\temp\cc55DlaG.s 			page 34


 446 0612 DA3304FA 		.ascii	"\3323\004\372\331\027\235\357A\272\347\377 \315\374"
 446      D9179DEF 
 446      41BAE7FF 
 446      20CDFC
 447 0621 54B7CB2C 		.ascii	"T\267\313,*\232\3628\346\323\\\3214U\2245\232\226\205"
 447      2A9AF238 
 447      E6D35CD1 
 447      34559435 
 447      9A9685
 448 0634 4567B263 		.ascii	"Eg\262c\232\363}\356|\237:\377|\267\255\323 :\017z\220"
 448      9AF37DEE 
 448      7C9F3AFF 
 448      7CB7ADD3 
 448      203A0F7A 
 449 0649 67B833B9 		.ascii	"g\2703\271\033\326\274\273nI\370\253\257JA\311q\011"
 449      1BD6BCBB 
 449      6E49F8AB 
 449      AF4A41C9 
 449      7109
 450 065b D63FBFB0 		.ascii	"\326?\277\260FIP,1V%v}Tb\262e\243\362adTb\370k\257l"
 450      4649502C 
 450      31562576 
 450      7D5462B2 
 450      65A3F261 
 451 0676 DC6CDDFC 		.ascii	"\334l\335\374\271\222\264\374S\351\351\267\"#\326G\254"
 451      B992B4FC 
 451      53E9E9B7 
 451      2223D647 
 451      AC
 452 0687 5E1FB122 		.ascii	"^\037\261\"<*>f\223\022e\215\261&'\351I\364\312\025"
 452      3C2A3E66 
 452      9312658D 
 452      B12627E9 
 452      49F4CA15 
 453 069b 2FF90FFF 		.ascii	"/\371\017\377P\213Y\037\365\366\033\321\253\226o\224"
 453      508B591F 
 453      F5F61BD1 
 453      AB966F94 
 454 06ab 9EF7E284 		.ascii	"\236\367\342\204\307+1\226\265JL,\003.\3667\375\201"
 454      C72B3196 
 454      B54A4C2C 
 454      032EF637 
 454      FD81
 455 06bd 25CECA13 		.ascii	"%\316\312\023\376\301[\206b}#6\326\242$%=\027p\346\235"
 455      FEC15B86 
 455      627D2336 
 455      D6A22425 
 455      3D1770E6 
 456 06d2 98A4CF9E 		.ascii	"\230\244\317\236\365\232\215H\210\263\222\254o&\177"
 456      F59A8D48 
 456      88B392AC 
 456      6F267F
 457 06e1 FC473F53 		.ascii	"\374G?S4#\314yC\327(\256\250\250\270\177*\336\265\300"
 457      3423CC79 
 457      43D728AE 
 457      A8A8B87F 
 457      2ADEB5C0 
ARM GAS  e:\temp\cc55DlaG.s 			page 35


 458 06f5 AC2B904C 		.ascii	"\254+\220L{\203\335\245\302|h\300:a\322\024\2769\"\301"
 458      7B83DDA5 
 458      C27C68C0 
 458      3A61D214 
 458      BE3922C1 
 459 0709 BA2A2166 		.ascii	"\272*!fC\274\2628\300\316\204o~;n\003\354\213\231\372"
 459      43BCB238 
 459      C0CE846F 
 459      7E3B6E03 
 459      EC8B99FA 
 460 071d FE352E89 		.ascii	"\3765.\2118\207pjR<[\255'\334\375\265$i\244\325\262"
 460      3887706A 
 460      523C5BAD 
 460      27DCFDB5 
 460      2469A4D5 
 461 0732 D07384C8 		.ascii	"\320s\204\310|\322s(\"!V\371\342\031?c\357\377\375s"
 461      7CD27328 
 461      222156F9 
 461      E2193F63 
 461      EFFFFD73 
 462 0746 8DF781C5 		.ascii	"\215\367\201\305\233GG<yt\310\213\367\336&\305\262:"
 462      9B47473C 
 462      7974C88B 
 462      F7DE26C5 
 462      B23A
 463 0758 3EF11FE1 		.ascii	">\361\037\341\211\311\011\326 \213\362\311\312\025\377"
 463      89C909D6 
 463      208BF2C9 
 463      CA15FF
 464 0767 07577C8C 		.ascii	"\007W|\214\357"
 464      EF
 465              		.text
 466              		.section	.gnu.lto_.symtab.62410026,"",%progbits
 467 0000 4850495F 		.ascii	"HPI_IF_I2CSlaveStatus\000"
 467      49465F49 
 467      3243536C 
 467      61766553 
 467      74617475 
 468 0016 00       		.ascii	"\000"
 469 0017 00       		.ascii	"\000"
 470 0018 00       		.ascii	"\000"
 471 0019 00000000 		.ascii	"\000\000\000\000\000\000\000\000"
 471      00000000 
 472 0021 BA000000 		.ascii	"\272\000\000\000"
 473 0025 4850495F 		.ascii	"HPI_IF_slStatus\000"
 473      49465F73 
 473      6C537461 
 473      74757300 
 474 0035 00       		.ascii	"\000"
 475 0036 04       		.ascii	"\004"
 476 0037 00       		.ascii	"\000"
 477 0038 01000000 		.ascii	"\001\000\000\000\000\000\000\000"
 477      00000000 
 478 0040 DD000000 		.ascii	"\335\000\000\000"
 479 0044 4850495F 		.ascii	"HPI_IF_I2CSlaveClearReadStatus\000"
 479      49465F49 
 479      3243536C 
ARM GAS  e:\temp\cc55DlaG.s 			page 36


 479      61766543 
 479      6C656172 
 480 0063 00       		.ascii	"\000"
 481 0064 00       		.ascii	"\000"
 482 0065 00       		.ascii	"\000"
 483 0066 00000000 		.ascii	"\000\000\000\000\000\000\000\000"
 483      00000000 
 484 006e BC000000 		.ascii	"\274\000\000\000"
 485 0072 4850495F 		.ascii	"HPI_IF_I2CSlaveClearWriteStatus\000"
 485      49465F49 
 485      3243536C 
 485      61766543 
 485      6C656172 
 486 0092 00       		.ascii	"\000"
 487 0093 00       		.ascii	"\000"
 488 0094 00       		.ascii	"\000"
 489 0095 00000000 		.ascii	"\000\000\000\000\000\000\000\000"
 489      00000000 
 490 009d BE000000 		.ascii	"\276\000\000\000"
 491 00a1 4850495F 		.ascii	"HPI_IF_I2CSlaveSetAddress\000"
 491      49465F49 
 491      3243536C 
 491      61766553 
 491      65744164 
 492 00bb 00       		.ascii	"\000"
 493 00bc 00       		.ascii	"\000"
 494 00bd 00       		.ascii	"\000"
 495 00be 00000000 		.ascii	"\000\000\000\000\000\000\000\000"
 495      00000000 
 496 00c6 C2000000 		.ascii	"\302\000\000\000"
 497 00ca 4850495F 		.ascii	"HPI_IF_I2CSlaveSetAddressMask\000"
 497      49465F49 
 497      3243536C 
 497      61766553 
 497      65744164 
 498 00e8 00       		.ascii	"\000"
 499 00e9 00       		.ascii	"\000"
 500 00ea 00       		.ascii	"\000"
 501 00eb 00000000 		.ascii	"\000\000\000\000\000\000\000\000"
 501      00000000 
 502 00f3 C4000000 		.ascii	"\304\000\000\000"
 503 00f7 4850495F 		.ascii	"HPI_IF_I2CSlaveInitReadBuf\000"
 503      49465F49 
 503      3243536C 
 503      61766549 
 503      6E697452 
 504 0112 00       		.ascii	"\000"
 505 0113 00       		.ascii	"\000"
 506 0114 00       		.ascii	"\000"
 507 0115 00000000 		.ascii	"\000\000\000\000\000\000\000\000"
 507      00000000 
 508 011d C9000000 		.ascii	"\311\000\000\000"
 509 0121 4850495F 		.ascii	"HPI_IF_slRdBufPtr\000"
 509      49465F73 
 509      6C526442 
 509      75665074 
 509      7200
ARM GAS  e:\temp\cc55DlaG.s 			page 37


 510 0133 00       		.ascii	"\000"
 511 0134 04       		.ascii	"\004"
 512 0135 00       		.ascii	"\000"
 513 0136 04000000 		.ascii	"\004\000\000\000\000\000\000\000"
 513      00000000 
 514 013e E0000000 		.ascii	"\340\000\000\000"
 515 0142 4850495F 		.ascii	"HPI_IF_slRdBufSize\000"
 515      49465F73 
 515      6C526442 
 515      75665369 
 515      7A6500
 516 0155 00       		.ascii	"\000"
 517 0156 04       		.ascii	"\004"
 518 0157 00       		.ascii	"\000"
 519 0158 04000000 		.ascii	"\004\000\000\000\000\000\000\000"
 519      00000000 
 520 0160 E3000000 		.ascii	"\343\000\000\000"
 521 0164 4850495F 		.ascii	"HPI_IF_slRdBufIndex\000"
 521      49465F73 
 521      6C526442 
 521      7566496E 
 521      64657800 
 522 0178 00       		.ascii	"\000"
 523 0179 04       		.ascii	"\004"
 524 017a 00       		.ascii	"\000"
 525 017b 04000000 		.ascii	"\004\000\000\000\000\000\000\000"
 525      00000000 
 526 0183 E5000000 		.ascii	"\345\000\000\000"
 527 0187 4850495F 		.ascii	"HPI_IF_slRdBufIndexTmp\000"
 527      49465F73 
 527      6C526442 
 527      7566496E 
 527      64657854 
 528 019e 00       		.ascii	"\000"
 529 019f 04       		.ascii	"\004"
 530 01a0 00       		.ascii	"\000"
 531 01a1 04000000 		.ascii	"\004\000\000\000\000\000\000\000"
 531      00000000 
 532 01a9 E7000000 		.ascii	"\347\000\000\000"
 533 01ad 4850495F 		.ascii	"HPI_IF_I2CSlaveInitWriteBuf\000"
 533      49465F49 
 533      3243536C 
 533      61766549 
 533      6E697457 
 534 01c9 00       		.ascii	"\000"
 535 01ca 00       		.ascii	"\000"
 536 01cb 00       		.ascii	"\000"
 537 01cc 00000000 		.ascii	"\000\000\000\000\000\000\000\000"
 537      00000000 
 538 01d4 CB000000 		.ascii	"\313\000\000\000"
 539 01d8 4850495F 		.ascii	"HPI_IF_slWrBufPtr\000"
 539      49465F73 
 539      6C577242 
 539      75665074 
 539      7200
 540 01ea 00       		.ascii	"\000"
 541 01eb 04       		.ascii	"\004"
ARM GAS  e:\temp\cc55DlaG.s 			page 38


 542 01ec 00       		.ascii	"\000"
 543 01ed 04000000 		.ascii	"\004\000\000\000\000\000\000\000"
 543      00000000 
 544 01f5 E9000000 		.ascii	"\351\000\000\000"
 545 01f9 4850495F 		.ascii	"HPI_IF_slWrBufSize\000"
 545      49465F73 
 545      6C577242 
 545      75665369 
 545      7A6500
 546 020c 00       		.ascii	"\000"
 547 020d 04       		.ascii	"\004"
 548 020e 00       		.ascii	"\000"
 549 020f 04000000 		.ascii	"\004\000\000\000\000\000\000\000"
 549      00000000 
 550 0217 EB000000 		.ascii	"\353\000\000\000"
 551 021b 4850495F 		.ascii	"HPI_IF_slWrBufIndex\000"
 551      49465F73 
 551      6C577242 
 551      7566496E 
 551      64657800 
 552 022f 00       		.ascii	"\000"
 553 0230 04       		.ascii	"\004"
 554 0231 00       		.ascii	"\000"
 555 0232 04000000 		.ascii	"\004\000\000\000\000\000\000\000"
 555      00000000 
 556 023a ED000000 		.ascii	"\355\000\000\000"
 557 023e 4850495F 		.ascii	"HPI_IF_I2CSlaveGetReadBufSize\000"
 557      49465F49 
 557      3243536C 
 557      61766547 
 557      65745265 
 558 025c 00       		.ascii	"\000"
 559 025d 00       		.ascii	"\000"
 560 025e 00       		.ascii	"\000"
 561 025f 00000000 		.ascii	"\000\000\000\000\000\000\000\000"
 561      00000000 
 562 0267 CD000000 		.ascii	"\315\000\000\000"
 563 026b 4850495F 		.ascii	"HPI_IF_I2CSlaveGetWriteBufSize\000"
 563      49465F49 
 563      3243536C 
 563      61766547 
 563      65745772 
 564 028a 00       		.ascii	"\000"
 565 028b 00       		.ascii	"\000"
 566 028c 00       		.ascii	"\000"
 567 028d 00000000 		.ascii	"\000\000\000\000\000\000\000\000"
 567      00000000 
 568 0295 CF000000 		.ascii	"\317\000\000\000"
 569 0299 4850495F 		.ascii	"HPI_IF_I2CSlaveClearReadBuf\000"
 569      49465F49 
 569      3243536C 
 569      61766543 
 569      6C656172 
 570 02b5 00       		.ascii	"\000"
 571 02b6 00       		.ascii	"\000"
 572 02b7 00       		.ascii	"\000"
 573 02b8 00000000 		.ascii	"\000\000\000\000\000\000\000\000"
ARM GAS  e:\temp\cc55DlaG.s 			page 39


 573      00000000 
 574 02c0 D2000000 		.ascii	"\322\000\000\000"
 575 02c4 4850495F 		.ascii	"HPI_IF_I2CSlaveClearWriteBuf\000"
 575      49465F49 
 575      3243536C 
 575      61766543 
 575      6C656172 
 576 02e1 00       		.ascii	"\000"
 577 02e2 00       		.ascii	"\000"
 578 02e3 00       		.ascii	"\000"
 579 02e4 00000000 		.ascii	"\000\000\000\000\000\000\000\000"
 579      00000000 
 580 02ec D4000000 		.ascii	"\324\000\000\000"
 581 02f0 4850495F 		.ascii	"HPI_IF_slOverFlowCount\000"
 581      49465F73 
 581      6C4F7665 
 581      72466C6F 
 581      77436F75 
 582 0307 00       		.ascii	"\000"
 583 0308 04       		.ascii	"\004"
 584 0309 00       		.ascii	"\000"
 585 030a 01000000 		.ascii	"\001\000\000\000\000\000\000\000"
 585      00000000 
 586 0312 EF000000 		.ascii	"\357\000\000\000"
 587 0316 4379496E 		.ascii	"CyIntEnable\000"
 587      74456E61 
 587      626C6500 
 588 0322 00       		.ascii	"\000"
 589 0323 02       		.ascii	"\002"
 590 0324 00       		.ascii	"\000"
 591 0325 00000000 		.ascii	"\000\000\000\000\000\000\000\000"
 591      00000000 
 592 032d D8000000 		.ascii	"\330\000\000\000"
 593 0331 4379496E 		.ascii	"CyIntDisable\000"
 593      74446973 
 593      61626C65 
 593      00
 594 033e 00       		.ascii	"\000"
 595 033f 02       		.ascii	"\002"
 596 0340 00       		.ascii	"\000"
 597 0341 00000000 		.ascii	"\000\000\000\000\000\000\000\000"
 597      00000000 
 598 0349 DA000000 		.ascii	"\332\000\000\000"
 599              		.text
 600              		.section	.gnu.lto_.opts,"",%progbits
 601 0000 272D666D 		.ascii	"'-fmath-errno' '-fsigned-zeros' '-ftrapping-math' '"
 601      6174682D 
 601      6572726E 
 601      6F272027 
 601      2D667369 
 602 0033 2D666E6F 		.ascii	"-fno-trapv' '-fno-openmp' '-fno-openacc' '-mcpu=cor"
 602      2D747261 
 602      70762720 
 602      272D666E 
 602      6F2D6F70 
 603 0066 7465782D 		.ascii	"tex-m0' '-mthumb' '-g' '-Os' '-Werror' '-ffunction-"
 603      6D302720 
ARM GAS  e:\temp\cc55DlaG.s 			page 40


 603      272D6D74 
 603      68756D62 
 603      2720272D 
 604 0099 73656374 		.ascii	"sections' '-ffat-lto-objects' '-finline-functions' "
 604      696F6E73 
 604      2720272D 
 604      66666174 
 604      2D6C746F 
 605 00cc 272D666C 		.ascii	"'-flto' '-fno-strict-aliasing'\000"
 605      746F2720 
 605      272D666E 
 605      6F2D7374 
 605      72696374 
 606              		.text
 607              		.cfi_sections	.debug_frame
 608              		.section	.text.HPI_IF_I2CSlaveStatus,"ax",%progbits
 609              		.align	1
 610              		.global	HPI_IF_I2CSlaveStatus
 611              		.code	16
 612              		.thumb_func
 613              		.type	HPI_IF_I2CSlaveStatus, %function
 614              	HPI_IF_I2CSlaveStatus:
 615              	.LFB0:
 616              		.file 1 "Generated_Source\\PSoC4\\HPI_IF_I2C_SLAVE.c"
   1:Generated_Source\PSoC4/HPI_IF_I2C_SLAVE.c **** /***************************************************************************//**
   2:Generated_Source\PSoC4/HPI_IF_I2C_SLAVE.c **** * \file HPI_IF_I2C_SLAVE.c
   3:Generated_Source\PSoC4/HPI_IF_I2C_SLAVE.c **** * \version 4.0
   4:Generated_Source\PSoC4/HPI_IF_I2C_SLAVE.c **** *
   5:Generated_Source\PSoC4/HPI_IF_I2C_SLAVE.c **** * \brief
   6:Generated_Source\PSoC4/HPI_IF_I2C_SLAVE.c **** *  This file provides the source code to the API for the SCB Component in
   7:Generated_Source\PSoC4/HPI_IF_I2C_SLAVE.c **** *  I2C Slave mode.
   8:Generated_Source\PSoC4/HPI_IF_I2C_SLAVE.c **** *
   9:Generated_Source\PSoC4/HPI_IF_I2C_SLAVE.c **** * Note:
  10:Generated_Source\PSoC4/HPI_IF_I2C_SLAVE.c **** *
  11:Generated_Source\PSoC4/HPI_IF_I2C_SLAVE.c **** *******************************************************************************
  12:Generated_Source\PSoC4/HPI_IF_I2C_SLAVE.c **** * \copyright
  13:Generated_Source\PSoC4/HPI_IF_I2C_SLAVE.c **** * Copyright 2013-2017, Cypress Semiconductor Corporation.  All rights reserved.
  14:Generated_Source\PSoC4/HPI_IF_I2C_SLAVE.c **** * You may use this file only in accordance with the license, terms, conditions,
  15:Generated_Source\PSoC4/HPI_IF_I2C_SLAVE.c **** * disclaimers, and limitations in the end user license agreement accompanying
  16:Generated_Source\PSoC4/HPI_IF_I2C_SLAVE.c **** * the software package with which this file was provided.
  17:Generated_Source\PSoC4/HPI_IF_I2C_SLAVE.c **** *******************************************************************************/
  18:Generated_Source\PSoC4/HPI_IF_I2C_SLAVE.c **** 
  19:Generated_Source\PSoC4/HPI_IF_I2C_SLAVE.c **** #include "HPI_IF_I2C_PVT.h"
  20:Generated_Source\PSoC4/HPI_IF_I2C_SLAVE.c **** 
  21:Generated_Source\PSoC4/HPI_IF_I2C_SLAVE.c **** #if(HPI_IF_I2C_SLAVE_CONST)
  22:Generated_Source\PSoC4/HPI_IF_I2C_SLAVE.c **** 
  23:Generated_Source\PSoC4/HPI_IF_I2C_SLAVE.c **** /***************************************
  24:Generated_Source\PSoC4/HPI_IF_I2C_SLAVE.c **** *      I2C Slave Private Vars
  25:Generated_Source\PSoC4/HPI_IF_I2C_SLAVE.c **** ***************************************/
  26:Generated_Source\PSoC4/HPI_IF_I2C_SLAVE.c **** 
  27:Generated_Source\PSoC4/HPI_IF_I2C_SLAVE.c **** volatile uint8 HPI_IF_slStatus;          /* Slave Status */
  28:Generated_Source\PSoC4/HPI_IF_I2C_SLAVE.c **** 
  29:Generated_Source\PSoC4/HPI_IF_I2C_SLAVE.c **** /* Receive buffer variables */
  30:Generated_Source\PSoC4/HPI_IF_I2C_SLAVE.c **** volatile uint8 * HPI_IF_slWrBufPtr;      /* Pointer to Receive buffer  */
  31:Generated_Source\PSoC4/HPI_IF_I2C_SLAVE.c **** volatile uint32  HPI_IF_slWrBufSize;     /* Slave Receive buffer size  */
  32:Generated_Source\PSoC4/HPI_IF_I2C_SLAVE.c **** volatile uint32  HPI_IF_slWrBufIndex;    /* Slave Receive buffer Index */
  33:Generated_Source\PSoC4/HPI_IF_I2C_SLAVE.c **** 
ARM GAS  e:\temp\cc55DlaG.s 			page 41


  34:Generated_Source\PSoC4/HPI_IF_I2C_SLAVE.c **** /* Transmit buffer variables */
  35:Generated_Source\PSoC4/HPI_IF_I2C_SLAVE.c **** volatile uint8 * HPI_IF_slRdBufPtr;      /* Pointer to Transmit buffer  */
  36:Generated_Source\PSoC4/HPI_IF_I2C_SLAVE.c **** volatile uint32  HPI_IF_slRdBufSize;     /* Slave Transmit buffer size  */
  37:Generated_Source\PSoC4/HPI_IF_I2C_SLAVE.c **** volatile uint32  HPI_IF_slRdBufIndex;    /* Slave Transmit buffer Index */
  38:Generated_Source\PSoC4/HPI_IF_I2C_SLAVE.c **** volatile uint32  HPI_IF_slRdBufIndexTmp; /* Slave Transmit buffer Index Tmp */
  39:Generated_Source\PSoC4/HPI_IF_I2C_SLAVE.c **** volatile uint8   HPI_IF_slOverFlowCount; /* Slave Transmit Overflow counter */
  40:Generated_Source\PSoC4/HPI_IF_I2C_SLAVE.c **** 
  41:Generated_Source\PSoC4/HPI_IF_I2C_SLAVE.c **** #if (HPI_IF_I2C_CUSTOM_ADDRESS_HANDLER_CONST)
  42:Generated_Source\PSoC4/HPI_IF_I2C_SLAVE.c **** 
  43:Generated_Source\PSoC4/HPI_IF_I2C_SLAVE.c ****     uint32 (*HPI_IF_customAddressHandler)(void) = NULL;
  44:Generated_Source\PSoC4/HPI_IF_I2C_SLAVE.c **** 
  45:Generated_Source\PSoC4/HPI_IF_I2C_SLAVE.c ****     /*******************************************************************************
  46:Generated_Source\PSoC4/HPI_IF_I2C_SLAVE.c ****     * Function Name: HPI_IF_SetI2cAddressCustomInterruptHandler
  47:Generated_Source\PSoC4/HPI_IF_I2C_SLAVE.c ****     ****************************************************************************//**
  48:Generated_Source\PSoC4/HPI_IF_I2C_SLAVE.c ****     *
  49:Generated_Source\PSoC4/HPI_IF_I2C_SLAVE.c ****     *  Registers a function to be called by the I2C slave interrupt handler during
  50:Generated_Source\PSoC4/HPI_IF_I2C_SLAVE.c ****     *  the I2C interrupt address processing. This function should be used when
  51:Generated_Source\PSoC4/HPI_IF_I2C_SLAVE.c ****     *  multiple I2C addresses need to be decoded or general call address supported.
  52:Generated_Source\PSoC4/HPI_IF_I2C_SLAVE.c ****     *  The registered function must return decision whether to ACK or NACK address.
  53:Generated_Source\PSoC4/HPI_IF_I2C_SLAVE.c ****     *  Only one I2C address handler is supported, which is the function provided
  54:Generated_Source\PSoC4/HPI_IF_I2C_SLAVE.c ****     *  by the most recent call.
  55:Generated_Source\PSoC4/HPI_IF_I2C_SLAVE.c ****     *  At initialization time no I2C address handler is registered.
  56:Generated_Source\PSoC4/HPI_IF_I2C_SLAVE.c ****     *
  57:Generated_Source\PSoC4/HPI_IF_I2C_SLAVE.c ****     *  \param func: Pointer to the function to register.
  58:Generated_Source\PSoC4/HPI_IF_I2C_SLAVE.c ****     *   The value NULL indicates to remove the current custom interrupt
  59:Generated_Source\PSoC4/HPI_IF_I2C_SLAVE.c ****     *   handler.
  60:Generated_Source\PSoC4/HPI_IF_I2C_SLAVE.c ****     *   The registered function must return decision whether to ACK or NACK 
  61:Generated_Source\PSoC4/HPI_IF_I2C_SLAVE.c ****     *   accepted address: 0  ACK, other values  NACK. The registered 
  62:Generated_Source\PSoC4/HPI_IF_I2C_SLAVE.c ****     *   callback function does not perform the ACK/NACK, this operation is 
  63:Generated_Source\PSoC4/HPI_IF_I2C_SLAVE.c ****     *   performed in the I2C ISR.
  64:Generated_Source\PSoC4/HPI_IF_I2C_SLAVE.c ****     *
  65:Generated_Source\PSoC4/HPI_IF_I2C_SLAVE.c ****     *******************************************************************************/
  66:Generated_Source\PSoC4/HPI_IF_I2C_SLAVE.c ****     void HPI_IF_SetI2cAddressCustomInterruptHandler(uint32 (*func) (void))
  67:Generated_Source\PSoC4/HPI_IF_I2C_SLAVE.c ****     {
  68:Generated_Source\PSoC4/HPI_IF_I2C_SLAVE.c ****         /* Register custom address handler */
  69:Generated_Source\PSoC4/HPI_IF_I2C_SLAVE.c ****         HPI_IF_customAddressHandler = func;
  70:Generated_Source\PSoC4/HPI_IF_I2C_SLAVE.c ****     }
  71:Generated_Source\PSoC4/HPI_IF_I2C_SLAVE.c **** #endif /* (HPI_IF_I2C_CUSTOM_ADDRESS_HANDLER_CONST) */
  72:Generated_Source\PSoC4/HPI_IF_I2C_SLAVE.c **** 
  73:Generated_Source\PSoC4/HPI_IF_I2C_SLAVE.c **** 
  74:Generated_Source\PSoC4/HPI_IF_I2C_SLAVE.c **** /*******************************************************************************
  75:Generated_Source\PSoC4/HPI_IF_I2C_SLAVE.c **** * Function Name: HPI_IF_I2CSlaveStatus
  76:Generated_Source\PSoC4/HPI_IF_I2C_SLAVE.c **** ****************************************************************************//**
  77:Generated_Source\PSoC4/HPI_IF_I2C_SLAVE.c **** *
  78:Generated_Source\PSoC4/HPI_IF_I2C_SLAVE.c **** *  Returns the I2C slave's communication status.
  79:Generated_Source\PSoC4/HPI_IF_I2C_SLAVE.c **** *
  80:Generated_Source\PSoC4/HPI_IF_I2C_SLAVE.c **** * \return
  81:Generated_Source\PSoC4/HPI_IF_I2C_SLAVE.c **** *  Current status of I2C slave.
  82:Generated_Source\PSoC4/HPI_IF_I2C_SLAVE.c **** *  This status incorporates read and write status constants. 
  83:Generated_Source\PSoC4/HPI_IF_I2C_SLAVE.c **** *  Each constant is a bit field value. The value returned may have multiple 
  84:Generated_Source\PSoC4/HPI_IF_I2C_SLAVE.c **** *  bits set to indicate the status of the read or write transfer.
  85:Generated_Source\PSoC4/HPI_IF_I2C_SLAVE.c **** *   - HPI_IF_I2C_SSTAT_RD_CMPLT - Slave read transfer complete. 
  86:Generated_Source\PSoC4/HPI_IF_I2C_SLAVE.c **** *     Set when master indicates it is done reading by sending a NAK.
  87:Generated_Source\PSoC4/HPI_IF_I2C_SLAVE.c **** *     The read error condition status bit must be checked to ensure that 
  88:Generated_Source\PSoC4/HPI_IF_I2C_SLAVE.c **** *     the read transfer was completed successfully.
  89:Generated_Source\PSoC4/HPI_IF_I2C_SLAVE.c **** *   - HPI_IF_I2C_SSTAT_RD_BUSY - Slave read transfer is in progress. 
  90:Generated_Source\PSoC4/HPI_IF_I2C_SLAVE.c **** *     Set when master addresses slave with a read, cleared when 
ARM GAS  e:\temp\cc55DlaG.s 			page 42


  91:Generated_Source\PSoC4/HPI_IF_I2C_SLAVE.c **** *    HPI_IF_I2C_SSTAT_RD_CMPLT is set.
  92:Generated_Source\PSoC4/HPI_IF_I2C_SLAVE.c **** *   - HPI_IF_I2C_SSTAT_RD_OVFL - Master attempted to read more bytes
  93:Generated_Source\PSoC4/HPI_IF_I2C_SLAVE.c **** *     than are in buffer. Slave continually returns 0xFF byte in this case.
  94:Generated_Source\PSoC4/HPI_IF_I2C_SLAVE.c **** *   - HPI_IF_I2C_SSTAT_RD_ERR - Slave captured error on the bus during 
  95:Generated_Source\PSoC4/HPI_IF_I2C_SLAVE.c **** *     a read transfer. The sources of error are: misplaced Start or Stop 
  96:Generated_Source\PSoC4/HPI_IF_I2C_SLAVE.c **** *     condition or lost arbitration while slave drives SDA.
  97:Generated_Source\PSoC4/HPI_IF_I2C_SLAVE.c **** *   - HPI_IF_I2C_SSTAT_WR_CMPLT - Slave write transfer complete. 
  98:Generated_Source\PSoC4/HPI_IF_I2C_SLAVE.c **** *     Set at reception of a Stop or ReStart condition. The write error condition
  99:Generated_Source\PSoC4/HPI_IF_I2C_SLAVE.c **** *     status bit must be checked to ensure that write transfer was completed
 100:Generated_Source\PSoC4/HPI_IF_I2C_SLAVE.c **** *     successfully.
 101:Generated_Source\PSoC4/HPI_IF_I2C_SLAVE.c **** *   - HPI_IF_I2C_SSTAT_WR_BUSY - Slave write transfer is in progress. 
 102:Generated_Source\PSoC4/HPI_IF_I2C_SLAVE.c **** *     Set when the master addresses the slave with a write, cleared when 
 103:Generated_Source\PSoC4/HPI_IF_I2C_SLAVE.c **** *    HPI_IF_I2C_SSTAT_WR_CMPLT is set.
 104:Generated_Source\PSoC4/HPI_IF_I2C_SLAVE.c **** *   - HPI_IF_I2C_SSTAT_WR_OVFL - Master attempted to write past end of 
 105:Generated_Source\PSoC4/HPI_IF_I2C_SLAVE.c **** *     buffer. Further bytes are ignored.
 106:Generated_Source\PSoC4/HPI_IF_I2C_SLAVE.c **** *   - HPI_IF_I2C_SSTAT_WR_ERR - Slave captured error on the bus during
 107:Generated_Source\PSoC4/HPI_IF_I2C_SLAVE.c **** *     write transfer. The sources of error are: misplaced Start or Stop condition
 108:Generated_Source\PSoC4/HPI_IF_I2C_SLAVE.c **** *     or lost arbitration while slave drives SDA.
 109:Generated_Source\PSoC4/HPI_IF_I2C_SLAVE.c **** *     The write buffer may contain invalid bytes or part of the data transfer when 
 110:Generated_Source\PSoC4/HPI_IF_I2C_SLAVE.c **** *     HPI_IF_I2C_SSTAT_WR_ERR is set. It is recommended to discard write 
 111:Generated_Source\PSoC4/HPI_IF_I2C_SLAVE.c **** *     buffer content in this case.
 112:Generated_Source\PSoC4/HPI_IF_I2C_SLAVE.c **** *
 113:Generated_Source\PSoC4/HPI_IF_I2C_SLAVE.c **** * \globalvars
 114:Generated_Source\PSoC4/HPI_IF_I2C_SLAVE.c **** *  HPI_IF_slStatus  - used to store current status of I2C slave.
 115:Generated_Source\PSoC4/HPI_IF_I2C_SLAVE.c **** *
 116:Generated_Source\PSoC4/HPI_IF_I2C_SLAVE.c **** *******************************************************************************/
 117:Generated_Source\PSoC4/HPI_IF_I2C_SLAVE.c **** uint32 HPI_IF_I2CSlaveStatus(void)
 118:Generated_Source\PSoC4/HPI_IF_I2C_SLAVE.c **** {
 617              		.loc 1 118 0
 618              		.cfi_startproc
 619              		@ args = 0, pretend = 0, frame = 0
 620              		@ frame_needed = 0, uses_anonymous_args = 0
 621              		@ link register save eliminated.
 119:Generated_Source\PSoC4/HPI_IF_I2C_SLAVE.c ****     return((uint32) HPI_IF_slStatus);
 622              		.loc 1 119 0
 623 0000 014B     		ldr	r3, .L2
 120:Generated_Source\PSoC4/HPI_IF_I2C_SLAVE.c **** }
 624              		.loc 1 120 0
 625              		@ sp needed
 119:Generated_Source\PSoC4/HPI_IF_I2C_SLAVE.c ****     return((uint32) HPI_IF_slStatus);
 626              		.loc 1 119 0
 627 0002 1878     		ldrb	r0, [r3]
 628 0004 C0B2     		uxtb	r0, r0
 629              		.loc 1 120 0
 630 0006 7047     		bx	lr
 631              	.L3:
 632              		.align	2
 633              	.L2:
 634 0008 00000000 		.word	HPI_IF_slStatus
 635              		.cfi_endproc
 636              	.LFE0:
 637              		.size	HPI_IF_I2CSlaveStatus, .-HPI_IF_I2CSlaveStatus
 638              		.section	.text.HPI_IF_I2CSlaveClearReadStatus,"ax",%progbits
 639              		.align	1
 640              		.global	HPI_IF_I2CSlaveClearReadStatus
 641              		.code	16
 642              		.thumb_func
ARM GAS  e:\temp\cc55DlaG.s 			page 43


 643              		.type	HPI_IF_I2CSlaveClearReadStatus, %function
 644              	HPI_IF_I2CSlaveClearReadStatus:
 645              	.LFB1:
 121:Generated_Source\PSoC4/HPI_IF_I2C_SLAVE.c **** 
 122:Generated_Source\PSoC4/HPI_IF_I2C_SLAVE.c **** 
 123:Generated_Source\PSoC4/HPI_IF_I2C_SLAVE.c **** /*******************************************************************************
 124:Generated_Source\PSoC4/HPI_IF_I2C_SLAVE.c **** * Function Name: HPI_IF_I2CSlaveClearReadStatus
 125:Generated_Source\PSoC4/HPI_IF_I2C_SLAVE.c **** ****************************************************************************//**
 126:Generated_Source\PSoC4/HPI_IF_I2C_SLAVE.c **** *
 127:Generated_Source\PSoC4/HPI_IF_I2C_SLAVE.c **** *  Clears the read status flags and returns their values. No other status flags
 128:Generated_Source\PSoC4/HPI_IF_I2C_SLAVE.c **** *  are affected.
 129:Generated_Source\PSoC4/HPI_IF_I2C_SLAVE.c **** *
 130:Generated_Source\PSoC4/HPI_IF_I2C_SLAVE.c **** * \return
 131:Generated_Source\PSoC4/HPI_IF_I2C_SLAVE.c **** *  Current read status of slave. See the SCB_I2CSlaveStatus() function for 
 132:Generated_Source\PSoC4/HPI_IF_I2C_SLAVE.c **** *  constants.
 133:Generated_Source\PSoC4/HPI_IF_I2C_SLAVE.c **** *
 134:Generated_Source\PSoC4/HPI_IF_I2C_SLAVE.c **** * \sideeffect
 135:Generated_Source\PSoC4/HPI_IF_I2C_SLAVE.c **** *  This function does not clear HPI_IF_I2C_SSTAT_RD_BUSY.
 136:Generated_Source\PSoC4/HPI_IF_I2C_SLAVE.c **** *
 137:Generated_Source\PSoC4/HPI_IF_I2C_SLAVE.c **** * \globalvars
 138:Generated_Source\PSoC4/HPI_IF_I2C_SLAVE.c **** *  HPI_IF_slStatus  - used to store current status of I2C slave.
 139:Generated_Source\PSoC4/HPI_IF_I2C_SLAVE.c **** *
 140:Generated_Source\PSoC4/HPI_IF_I2C_SLAVE.c **** *******************************************************************************/
 141:Generated_Source\PSoC4/HPI_IF_I2C_SLAVE.c **** uint32 HPI_IF_I2CSlaveClearReadStatus(void)
 142:Generated_Source\PSoC4/HPI_IF_I2C_SLAVE.c **** {
 646              		.loc 1 142 0
 647              		.cfi_startproc
 648              		@ args = 0, pretend = 0, frame = 0
 649              		@ frame_needed = 0, uses_anonymous_args = 0
 650 0000 10B5     		push	{r4, lr}
 651              		.cfi_def_cfa_offset 8
 652              		.cfi_offset 4, -8
 653              		.cfi_offset 14, -4
 143:Generated_Source\PSoC4/HPI_IF_I2C_SLAVE.c ****     uint32 status;
 144:Generated_Source\PSoC4/HPI_IF_I2C_SLAVE.c **** 
 145:Generated_Source\PSoC4/HPI_IF_I2C_SLAVE.c ****     HPI_IF_DisableInt();  /* Lock from interruption */
 654              		.loc 1 145 0
 655 0002 0A20     		movs	r0, #10
 656 0004 FFF7FEFF 		bl	CyIntDisable
 657              	.LVL0:
 146:Generated_Source\PSoC4/HPI_IF_I2C_SLAVE.c **** 
 147:Generated_Source\PSoC4/HPI_IF_I2C_SLAVE.c ****     /* Mask of transfer complete flag and error status */
 148:Generated_Source\PSoC4/HPI_IF_I2C_SLAVE.c ****     status = ((uint32) HPI_IF_slStatus & HPI_IF_I2C_SSTAT_RD_MASK);
 149:Generated_Source\PSoC4/HPI_IF_I2C_SLAVE.c ****     HPI_IF_slStatus &= (uint8) ~HPI_IF_I2C_SSTAT_RD_CLEAR;
 658              		.loc 1 149 0
 659 0008 0D21     		movs	r1, #13
 148:Generated_Source\PSoC4/HPI_IF_I2C_SLAVE.c ****     HPI_IF_slStatus &= (uint8) ~HPI_IF_I2C_SSTAT_RD_CLEAR;
 660              		.loc 1 148 0
 661 000a 064B     		ldr	r3, .L5
 150:Generated_Source\PSoC4/HPI_IF_I2C_SLAVE.c **** 
 151:Generated_Source\PSoC4/HPI_IF_I2C_SLAVE.c ****     HPI_IF_EnableInt();   /* Release lock */
 152:Generated_Source\PSoC4/HPI_IF_I2C_SLAVE.c **** 
 153:Generated_Source\PSoC4/HPI_IF_I2C_SLAVE.c ****     return(status);
 154:Generated_Source\PSoC4/HPI_IF_I2C_SLAVE.c **** }
 662              		.loc 1 154 0
 663              		@ sp needed
 148:Generated_Source\PSoC4/HPI_IF_I2C_SLAVE.c ****     HPI_IF_slStatus &= (uint8) ~HPI_IF_I2C_SSTAT_RD_CLEAR;
ARM GAS  e:\temp\cc55DlaG.s 			page 44


 664              		.loc 1 148 0
 665 000c 1878     		ldrb	r0, [r3]
 149:Generated_Source\PSoC4/HPI_IF_I2C_SLAVE.c **** 
 666              		.loc 1 149 0
 667 000e 1A78     		ldrb	r2, [r3]
 148:Generated_Source\PSoC4/HPI_IF_I2C_SLAVE.c ****     HPI_IF_slStatus &= (uint8) ~HPI_IF_I2C_SSTAT_RD_CLEAR;
 668              		.loc 1 148 0
 669 0010 C4B2     		uxtb	r4, r0
 670              	.LVL1:
 149:Generated_Source\PSoC4/HPI_IF_I2C_SLAVE.c **** 
 671              		.loc 1 149 0
 672 0012 8A43     		bics	r2, r1
 151:Generated_Source\PSoC4/HPI_IF_I2C_SLAVE.c **** 
 673              		.loc 1 151 0
 674 0014 0A20     		movs	r0, #10
 149:Generated_Source\PSoC4/HPI_IF_I2C_SLAVE.c **** 
 675              		.loc 1 149 0
 676 0016 1A70     		strb	r2, [r3]
 151:Generated_Source\PSoC4/HPI_IF_I2C_SLAVE.c **** 
 677              		.loc 1 151 0
 678 0018 FFF7FEFF 		bl	CyIntEnable
 679              	.LVL2:
 153:Generated_Source\PSoC4/HPI_IF_I2C_SLAVE.c **** }
 680              		.loc 1 153 0
 681 001c 0F20     		movs	r0, #15
 682 001e 2040     		ands	r0, r4
 683              	.LVL3:
 684              		.loc 1 154 0
 685 0020 10BD     		pop	{r4, pc}
 686              	.L6:
 687 0022 C046     		.align	2
 688              	.L5:
 689 0024 00000000 		.word	HPI_IF_slStatus
 690              		.cfi_endproc
 691              	.LFE1:
 692              		.size	HPI_IF_I2CSlaveClearReadStatus, .-HPI_IF_I2CSlaveClearReadStatus
 693              		.section	.text.HPI_IF_I2CSlaveClearWriteStatus,"ax",%progbits
 694              		.align	1
 695              		.global	HPI_IF_I2CSlaveClearWriteStatus
 696              		.code	16
 697              		.thumb_func
 698              		.type	HPI_IF_I2CSlaveClearWriteStatus, %function
 699              	HPI_IF_I2CSlaveClearWriteStatus:
 700              	.LFB2:
 155:Generated_Source\PSoC4/HPI_IF_I2C_SLAVE.c **** 
 156:Generated_Source\PSoC4/HPI_IF_I2C_SLAVE.c **** 
 157:Generated_Source\PSoC4/HPI_IF_I2C_SLAVE.c **** /*******************************************************************************
 158:Generated_Source\PSoC4/HPI_IF_I2C_SLAVE.c **** * Function Name: HPI_IF_I2CSlaveClearWriteStatus
 159:Generated_Source\PSoC4/HPI_IF_I2C_SLAVE.c **** ****************************************************************************//**
 160:Generated_Source\PSoC4/HPI_IF_I2C_SLAVE.c **** *
 161:Generated_Source\PSoC4/HPI_IF_I2C_SLAVE.c **** *  Clears the write status flags and returns their values. No other status flags
 162:Generated_Source\PSoC4/HPI_IF_I2C_SLAVE.c **** *  are affected.
 163:Generated_Source\PSoC4/HPI_IF_I2C_SLAVE.c **** *
 164:Generated_Source\PSoC4/HPI_IF_I2C_SLAVE.c **** * \return
 165:Generated_Source\PSoC4/HPI_IF_I2C_SLAVE.c **** *  Current write status of slave. See the SCB_I2CSlaveStatus() function 
 166:Generated_Source\PSoC4/HPI_IF_I2C_SLAVE.c **** *  for constants.
 167:Generated_Source\PSoC4/HPI_IF_I2C_SLAVE.c **** *
ARM GAS  e:\temp\cc55DlaG.s 			page 45


 168:Generated_Source\PSoC4/HPI_IF_I2C_SLAVE.c **** * \sideeffect
 169:Generated_Source\PSoC4/HPI_IF_I2C_SLAVE.c **** *  This function does not clear HPI_IF_I2C_SSTAT_WR_BUSY.*
 170:Generated_Source\PSoC4/HPI_IF_I2C_SLAVE.c **** *
 171:Generated_Source\PSoC4/HPI_IF_I2C_SLAVE.c **** * \globalvars
 172:Generated_Source\PSoC4/HPI_IF_I2C_SLAVE.c **** *  HPI_IF_slStatus  - used to store current status of I2C slave.
 173:Generated_Source\PSoC4/HPI_IF_I2C_SLAVE.c **** *
 174:Generated_Source\PSoC4/HPI_IF_I2C_SLAVE.c **** *******************************************************************************/
 175:Generated_Source\PSoC4/HPI_IF_I2C_SLAVE.c **** uint32 HPI_IF_I2CSlaveClearWriteStatus(void)
 176:Generated_Source\PSoC4/HPI_IF_I2C_SLAVE.c **** {
 701              		.loc 1 176 0
 702              		.cfi_startproc
 703              		@ args = 0, pretend = 0, frame = 0
 704              		@ frame_needed = 0, uses_anonymous_args = 0
 705 0000 10B5     		push	{r4, lr}
 706              		.cfi_def_cfa_offset 8
 707              		.cfi_offset 4, -8
 708              		.cfi_offset 14, -4
 177:Generated_Source\PSoC4/HPI_IF_I2C_SLAVE.c ****     uint32 status;
 178:Generated_Source\PSoC4/HPI_IF_I2C_SLAVE.c **** 
 179:Generated_Source\PSoC4/HPI_IF_I2C_SLAVE.c ****     HPI_IF_DisableInt();  /* Lock from interruption */
 709              		.loc 1 179 0
 710 0002 0A20     		movs	r0, #10
 711 0004 FFF7FEFF 		bl	CyIntDisable
 712              	.LVL4:
 180:Generated_Source\PSoC4/HPI_IF_I2C_SLAVE.c **** 
 181:Generated_Source\PSoC4/HPI_IF_I2C_SLAVE.c ****     /* Mask of transfer complete flag and Error status */
 182:Generated_Source\PSoC4/HPI_IF_I2C_SLAVE.c ****     status = ((uint32) HPI_IF_slStatus & HPI_IF_I2C_SSTAT_WR_MASK);
 183:Generated_Source\PSoC4/HPI_IF_I2C_SLAVE.c ****     HPI_IF_slStatus &= (uint8) ~HPI_IF_I2C_SSTAT_WR_CLEAR;
 713              		.loc 1 183 0
 714 0008 2F22     		movs	r2, #47
 182:Generated_Source\PSoC4/HPI_IF_I2C_SLAVE.c ****     HPI_IF_slStatus &= (uint8) ~HPI_IF_I2C_SSTAT_WR_CLEAR;
 715              		.loc 1 182 0
 716 000a 064B     		ldr	r3, .L8
 184:Generated_Source\PSoC4/HPI_IF_I2C_SLAVE.c **** 
 185:Generated_Source\PSoC4/HPI_IF_I2C_SLAVE.c ****     HPI_IF_EnableInt();   /* Release lock */
 717              		.loc 1 185 0
 718 000c 0A20     		movs	r0, #10
 182:Generated_Source\PSoC4/HPI_IF_I2C_SLAVE.c ****     HPI_IF_slStatus &= (uint8) ~HPI_IF_I2C_SSTAT_WR_CLEAR;
 719              		.loc 1 182 0
 720 000e 1C78     		ldrb	r4, [r3]
 183:Generated_Source\PSoC4/HPI_IF_I2C_SLAVE.c **** 
 721              		.loc 1 183 0
 722 0010 1978     		ldrb	r1, [r3]
 182:Generated_Source\PSoC4/HPI_IF_I2C_SLAVE.c ****     HPI_IF_slStatus &= (uint8) ~HPI_IF_I2C_SSTAT_WR_CLEAR;
 723              		.loc 1 182 0
 724 0012 E4B2     		uxtb	r4, r4
 725              	.LVL5:
 183:Generated_Source\PSoC4/HPI_IF_I2C_SLAVE.c **** 
 726              		.loc 1 183 0
 727 0014 0A40     		ands	r2, r1
 728 0016 1A70     		strb	r2, [r3]
 729              		.loc 1 185 0
 730 0018 FFF7FEFF 		bl	CyIntEnable
 731              	.LVL6:
 186:Generated_Source\PSoC4/HPI_IF_I2C_SLAVE.c **** 
 187:Generated_Source\PSoC4/HPI_IF_I2C_SLAVE.c ****     return(status);
 732              		.loc 1 187 0
ARM GAS  e:\temp\cc55DlaG.s 			page 46


 733 001c 0F23     		movs	r3, #15
 734 001e 2000     		movs	r0, r4
 188:Generated_Source\PSoC4/HPI_IF_I2C_SLAVE.c **** }
 735              		.loc 1 188 0
 736              		@ sp needed
 187:Generated_Source\PSoC4/HPI_IF_I2C_SLAVE.c **** }
 737              		.loc 1 187 0
 738 0020 9843     		bics	r0, r3
 739              	.LVL7:
 740              		.loc 1 188 0
 741 0022 10BD     		pop	{r4, pc}
 742              	.L9:
 743              		.align	2
 744              	.L8:
 745 0024 00000000 		.word	HPI_IF_slStatus
 746              		.cfi_endproc
 747              	.LFE2:
 748              		.size	HPI_IF_I2CSlaveClearWriteStatus, .-HPI_IF_I2CSlaveClearWriteStatus
 749              		.section	.text.HPI_IF_I2CSlaveSetAddress,"ax",%progbits
 750              		.align	1
 751              		.global	HPI_IF_I2CSlaveSetAddress
 752              		.code	16
 753              		.thumb_func
 754              		.type	HPI_IF_I2CSlaveSetAddress, %function
 755              	HPI_IF_I2CSlaveSetAddress:
 756              	.LFB3:
 189:Generated_Source\PSoC4/HPI_IF_I2C_SLAVE.c **** 
 190:Generated_Source\PSoC4/HPI_IF_I2C_SLAVE.c **** 
 191:Generated_Source\PSoC4/HPI_IF_I2C_SLAVE.c **** /*******************************************************************************
 192:Generated_Source\PSoC4/HPI_IF_I2C_SLAVE.c **** * Function Name: HPI_IF_I2CSlaveSetAddress
 193:Generated_Source\PSoC4/HPI_IF_I2C_SLAVE.c **** ****************************************************************************//**
 194:Generated_Source\PSoC4/HPI_IF_I2C_SLAVE.c **** *
 195:Generated_Source\PSoC4/HPI_IF_I2C_SLAVE.c **** * Sets the I2C slave address.
 196:Generated_Source\PSoC4/HPI_IF_I2C_SLAVE.c **** *
 197:Generated_Source\PSoC4/HPI_IF_I2C_SLAVE.c **** * \param address: I2C slave address for the primary device.
 198:Generated_Source\PSoC4/HPI_IF_I2C_SLAVE.c **** *  This address is the 7-bit right-justified slave address and does not 
 199:Generated_Source\PSoC4/HPI_IF_I2C_SLAVE.c **** *  include the R/W bit.
 200:Generated_Source\PSoC4/HPI_IF_I2C_SLAVE.c **** *  The address value is not checked to see if it violates the I2C spec. 
 201:Generated_Source\PSoC4/HPI_IF_I2C_SLAVE.c **** *  The preferred addresses are between 8 and 120 (0x08 to 0x78).
 202:Generated_Source\PSoC4/HPI_IF_I2C_SLAVE.c **** *
 203:Generated_Source\PSoC4/HPI_IF_I2C_SLAVE.c **** *******************************************************************************/
 204:Generated_Source\PSoC4/HPI_IF_I2C_SLAVE.c **** void HPI_IF_I2CSlaveSetAddress(uint32 address)
 205:Generated_Source\PSoC4/HPI_IF_I2C_SLAVE.c **** {
 757              		.loc 1 205 0
 758              		.cfi_startproc
 759              		@ args = 0, pretend = 0, frame = 0
 760              		@ frame_needed = 0, uses_anonymous_args = 0
 761              		@ link register save eliminated.
 762              	.LVL8:
 206:Generated_Source\PSoC4/HPI_IF_I2C_SLAVE.c ****     uint32 matchReg;
 207:Generated_Source\PSoC4/HPI_IF_I2C_SLAVE.c **** 
 208:Generated_Source\PSoC4/HPI_IF_I2C_SLAVE.c ****     matchReg = HPI_IF_RX_MATCH_REG;
 209:Generated_Source\PSoC4/HPI_IF_I2C_SLAVE.c **** 
 210:Generated_Source\PSoC4/HPI_IF_I2C_SLAVE.c ****     matchReg &= ((uint32) ~HPI_IF_RX_MATCH_ADDR_MASK); /* Clear address bits */
 763              		.loc 1 210 0
 764 0000 FF22     		movs	r2, #255
 208:Generated_Source\PSoC4/HPI_IF_I2C_SLAVE.c **** 
ARM GAS  e:\temp\cc55DlaG.s 			page 47


 765              		.loc 1 208 0
 766 0002 0449     		ldr	r1, .L11
 211:Generated_Source\PSoC4/HPI_IF_I2C_SLAVE.c ****     matchReg |= ((uint32)  HPI_IF_GET_I2C_8BIT_ADDRESS(address));
 767              		.loc 1 211 0
 768 0004 4000     		lsls	r0, r0, #1
 769              	.LVL9:
 208:Generated_Source\PSoC4/HPI_IF_I2C_SLAVE.c **** 
 770              		.loc 1 208 0
 771 0006 0B68     		ldr	r3, [r1]
 772              	.LVL10:
 773              		.loc 1 211 0
 774 0008 1040     		ands	r0, r2
 210:Generated_Source\PSoC4/HPI_IF_I2C_SLAVE.c ****     matchReg |= ((uint32)  HPI_IF_GET_I2C_8BIT_ADDRESS(address));
 775              		.loc 1 210 0
 776 000a 9343     		bics	r3, r2
 777              	.LVL11:
 778              		.loc 1 211 0
 779 000c 1843     		orrs	r0, r3
 780              	.LVL12:
 212:Generated_Source\PSoC4/HPI_IF_I2C_SLAVE.c **** 
 213:Generated_Source\PSoC4/HPI_IF_I2C_SLAVE.c ****     HPI_IF_RX_MATCH_REG = matchReg;
 781              		.loc 1 213 0
 782 000e 0860     		str	r0, [r1]
 214:Generated_Source\PSoC4/HPI_IF_I2C_SLAVE.c **** }
 783              		.loc 1 214 0
 784              		@ sp needed
 785 0010 7047     		bx	lr
 786              	.L12:
 787 0012 C046     		.align	2
 788              	.L11:
 789 0014 10030540 		.word	1074070288
 790              		.cfi_endproc
 791              	.LFE3:
 792              		.size	HPI_IF_I2CSlaveSetAddress, .-HPI_IF_I2CSlaveSetAddress
 793              		.section	.text.HPI_IF_I2CSlaveSetAddressMask,"ax",%progbits
 794              		.align	1
 795              		.global	HPI_IF_I2CSlaveSetAddressMask
 796              		.code	16
 797              		.thumb_func
 798              		.type	HPI_IF_I2CSlaveSetAddressMask, %function
 799              	HPI_IF_I2CSlaveSetAddressMask:
 800              	.LFB4:
 215:Generated_Source\PSoC4/HPI_IF_I2C_SLAVE.c **** 
 216:Generated_Source\PSoC4/HPI_IF_I2C_SLAVE.c **** 
 217:Generated_Source\PSoC4/HPI_IF_I2C_SLAVE.c **** /*******************************************************************************
 218:Generated_Source\PSoC4/HPI_IF_I2C_SLAVE.c **** * Function Name: HPI_IF_I2CSlaveSetAddressMask
 219:Generated_Source\PSoC4/HPI_IF_I2C_SLAVE.c **** ****************************************************************************//**
 220:Generated_Source\PSoC4/HPI_IF_I2C_SLAVE.c **** *
 221:Generated_Source\PSoC4/HPI_IF_I2C_SLAVE.c **** *  Sets the I2C slave address mask.
 222:Generated_Source\PSoC4/HPI_IF_I2C_SLAVE.c **** *
 223:Generated_Source\PSoC4/HPI_IF_I2C_SLAVE.c **** * \param addressMask: I2C slave address mask.
 224:Generated_Source\PSoC4/HPI_IF_I2C_SLAVE.c **** *  - Bit value 0  excludes bit from address comparison.
 225:Generated_Source\PSoC4/HPI_IF_I2C_SLAVE.c **** *  - Bit value 1  the bit needs to match with the corresponding bit of the 
 226:Generated_Source\PSoC4/HPI_IF_I2C_SLAVE.c **** *  I2C slave address.
 227:Generated_Source\PSoC4/HPI_IF_I2C_SLAVE.c **** *
 228:Generated_Source\PSoC4/HPI_IF_I2C_SLAVE.c **** *  The range of valid values is between 0 and 254 (0x00 to 0xFE). 
 229:Generated_Source\PSoC4/HPI_IF_I2C_SLAVE.c **** *  The LSB of the address mask must be 0 because it corresponds to R/W bit 
ARM GAS  e:\temp\cc55DlaG.s 			page 48


 230:Generated_Source\PSoC4/HPI_IF_I2C_SLAVE.c **** *  within I2C slave address byte.
 231:Generated_Source\PSoC4/HPI_IF_I2C_SLAVE.c **** *
 232:Generated_Source\PSoC4/HPI_IF_I2C_SLAVE.c **** *******************************************************************************/
 233:Generated_Source\PSoC4/HPI_IF_I2C_SLAVE.c **** void HPI_IF_I2CSlaveSetAddressMask(uint32 addressMask)
 234:Generated_Source\PSoC4/HPI_IF_I2C_SLAVE.c **** {
 801              		.loc 1 234 0
 802              		.cfi_startproc
 803              		@ args = 0, pretend = 0, frame = 0
 804              		@ frame_needed = 0, uses_anonymous_args = 0
 805              		@ link register save eliminated.
 806              	.LVL13:
 235:Generated_Source\PSoC4/HPI_IF_I2C_SLAVE.c ****     uint32 matchReg;
 236:Generated_Source\PSoC4/HPI_IF_I2C_SLAVE.c **** 
 237:Generated_Source\PSoC4/HPI_IF_I2C_SLAVE.c ****     matchReg = HPI_IF_RX_MATCH_REG;
 807              		.loc 1 237 0
 808 0000 034A     		ldr	r2, .L14
 238:Generated_Source\PSoC4/HPI_IF_I2C_SLAVE.c **** 
 239:Generated_Source\PSoC4/HPI_IF_I2C_SLAVE.c ****     matchReg &= ((uint32) ~HPI_IF_RX_MATCH_MASK_MASK);
 809              		.loc 1 239 0
 810 0002 044B     		ldr	r3, .L14+4
 237:Generated_Source\PSoC4/HPI_IF_I2C_SLAVE.c **** 
 811              		.loc 1 237 0
 812 0004 1168     		ldr	r1, [r2]
 813              	.LVL14:
 240:Generated_Source\PSoC4/HPI_IF_I2C_SLAVE.c ****     matchReg |= ((uint32) (addressMask << HPI_IF_RX_MATCH_MASK_POS));
 814              		.loc 1 240 0
 815 0006 0004     		lsls	r0, r0, #16
 816              	.LVL15:
 239:Generated_Source\PSoC4/HPI_IF_I2C_SLAVE.c ****     matchReg |= ((uint32) (addressMask << HPI_IF_RX_MATCH_MASK_POS));
 817              		.loc 1 239 0
 818 0008 0B40     		ands	r3, r1
 819              	.LVL16:
 820              		.loc 1 240 0
 821 000a 1843     		orrs	r0, r3
 822              	.LVL17:
 241:Generated_Source\PSoC4/HPI_IF_I2C_SLAVE.c **** 
 242:Generated_Source\PSoC4/HPI_IF_I2C_SLAVE.c ****     HPI_IF_RX_MATCH_REG = matchReg;
 823              		.loc 1 242 0
 824 000c 1060     		str	r0, [r2]
 243:Generated_Source\PSoC4/HPI_IF_I2C_SLAVE.c **** }
 825              		.loc 1 243 0
 826              		@ sp needed
 827 000e 7047     		bx	lr
 828              	.L15:
 829              		.align	2
 830              	.L14:
 831 0010 10030540 		.word	1074070288
 832 0014 FFFF00FF 		.word	-16711681
 833              		.cfi_endproc
 834              	.LFE4:
 835              		.size	HPI_IF_I2CSlaveSetAddressMask, .-HPI_IF_I2CSlaveSetAddressMask
 836              		.section	.text.HPI_IF_I2CSlaveInitReadBuf,"ax",%progbits
 837              		.align	1
 838              		.global	HPI_IF_I2CSlaveInitReadBuf
 839              		.code	16
 840              		.thumb_func
 841              		.type	HPI_IF_I2CSlaveInitReadBuf, %function
ARM GAS  e:\temp\cc55DlaG.s 			page 49


 842              	HPI_IF_I2CSlaveInitReadBuf:
 843              	.LFB5:
 244:Generated_Source\PSoC4/HPI_IF_I2C_SLAVE.c **** 
 245:Generated_Source\PSoC4/HPI_IF_I2C_SLAVE.c **** 
 246:Generated_Source\PSoC4/HPI_IF_I2C_SLAVE.c **** /*******************************************************************************
 247:Generated_Source\PSoC4/HPI_IF_I2C_SLAVE.c **** * Function Name: HPI_IF_I2CSlaveInitReadBuf
 248:Generated_Source\PSoC4/HPI_IF_I2C_SLAVE.c **** ****************************************************************************//**
 249:Generated_Source\PSoC4/HPI_IF_I2C_SLAVE.c **** *
 250:Generated_Source\PSoC4/HPI_IF_I2C_SLAVE.c **** *  Sets the buffer pointer and size of the read buffer. This function also
 251:Generated_Source\PSoC4/HPI_IF_I2C_SLAVE.c **** *  resets the transfer count returned with the 
 252:Generated_Source\PSoC4/HPI_IF_I2C_SLAVE.c **** *  HPI_IF_SlaveGetReadBufSize() function.
 253:Generated_Source\PSoC4/HPI_IF_I2C_SLAVE.c **** *
 254:Generated_Source\PSoC4/HPI_IF_I2C_SLAVE.c **** * \param readBuf: Pointer to the data buffer to be read by the master.
 255:Generated_Source\PSoC4/HPI_IF_I2C_SLAVE.c **** * \param bufSize: Size of the read buffer exposed to the I2C master.
 256:Generated_Source\PSoC4/HPI_IF_I2C_SLAVE.c **** *
 257:Generated_Source\PSoC4/HPI_IF_I2C_SLAVE.c **** * \sideeffect
 258:Generated_Source\PSoC4/HPI_IF_I2C_SLAVE.c **** *  If this function is called during a bus transaction, data from the previous
 259:Generated_Source\PSoC4/HPI_IF_I2C_SLAVE.c **** *  buffer location and the beginning of current buffer may be transmitted.
 260:Generated_Source\PSoC4/HPI_IF_I2C_SLAVE.c **** *
 261:Generated_Source\PSoC4/HPI_IF_I2C_SLAVE.c **** * \globalvars
 262:Generated_Source\PSoC4/HPI_IF_I2C_SLAVE.c **** *  HPI_IF_slRdBufPtr   - used to store pointer to slave read buffer.
 263:Generated_Source\PSoC4/HPI_IF_I2C_SLAVE.c **** *  HPI_IF_slRdBufSize  - used to store salve read buffer size.
 264:Generated_Source\PSoC4/HPI_IF_I2C_SLAVE.c **** *  HPI_IF_slRdBufIndex - used to store current index within slave
 265:Generated_Source\PSoC4/HPI_IF_I2C_SLAVE.c **** *  read buffer.
 266:Generated_Source\PSoC4/HPI_IF_I2C_SLAVE.c **** *
 267:Generated_Source\PSoC4/HPI_IF_I2C_SLAVE.c **** *******************************************************************************/
 268:Generated_Source\PSoC4/HPI_IF_I2C_SLAVE.c **** void HPI_IF_I2CSlaveInitReadBuf(uint8 * rdBuf, uint32 bufSize)
 269:Generated_Source\PSoC4/HPI_IF_I2C_SLAVE.c **** {
 844              		.loc 1 269 0
 845              		.cfi_startproc
 846              		@ args = 0, pretend = 0, frame = 0
 847              		@ frame_needed = 0, uses_anonymous_args = 0
 848              	.LVL18:
 849 0000 70B5     		push	{r4, r5, r6, lr}
 850              		.cfi_def_cfa_offset 16
 851              		.cfi_offset 4, -16
 852              		.cfi_offset 5, -12
 853              		.cfi_offset 6, -8
 854              		.cfi_offset 14, -4
 855              		.loc 1 269 0
 856 0002 0400     		movs	r4, r0
 857 0004 0D00     		movs	r5, r1
 270:Generated_Source\PSoC4/HPI_IF_I2C_SLAVE.c ****     /* Check for proper buffer */
 271:Generated_Source\PSoC4/HPI_IF_I2C_SLAVE.c ****     if(NULL != rdBuf)
 858              		.loc 1 271 0
 859 0006 0028     		cmp	r0, #0
 860 0008 0ED0     		beq	.L16
 272:Generated_Source\PSoC4/HPI_IF_I2C_SLAVE.c ****     {
 273:Generated_Source\PSoC4/HPI_IF_I2C_SLAVE.c ****         HPI_IF_DisableInt();  /* Lock from interruption */
 861              		.loc 1 273 0
 862 000a 0A20     		movs	r0, #10
 863              	.LVL19:
 864 000c FFF7FEFF 		bl	CyIntDisable
 865              	.LVL20:
 274:Generated_Source\PSoC4/HPI_IF_I2C_SLAVE.c **** 
 275:Generated_Source\PSoC4/HPI_IF_I2C_SLAVE.c ****         HPI_IF_slRdBufPtr      = (volatile uint8 *) rdBuf; /* Set buffer pointer  */
 866              		.loc 1 275 0
ARM GAS  e:\temp\cc55DlaG.s 			page 50


 867 0010 064B     		ldr	r3, .L22
 276:Generated_Source\PSoC4/HPI_IF_I2C_SLAVE.c ****         HPI_IF_slRdBufSize     = bufSize;                  /* Set buffer size     */
 277:Generated_Source\PSoC4/HPI_IF_I2C_SLAVE.c ****         HPI_IF_slRdBufIndex    = 0u;                       /* Clear buffer index  */
 868              		.loc 1 277 0
 869 0012 074A     		ldr	r2, .L22+4
 275:Generated_Source\PSoC4/HPI_IF_I2C_SLAVE.c ****         HPI_IF_slRdBufSize     = bufSize;                  /* Set buffer size     */
 870              		.loc 1 275 0
 871 0014 1C60     		str	r4, [r3]
 276:Generated_Source\PSoC4/HPI_IF_I2C_SLAVE.c ****         HPI_IF_slRdBufSize     = bufSize;                  /* Set buffer size     */
 872              		.loc 1 276 0
 873 0016 074B     		ldr	r3, .L22+8
 278:Generated_Source\PSoC4/HPI_IF_I2C_SLAVE.c ****         HPI_IF_slRdBufIndexTmp = 0u;                       /* Clear buffer index  */
 279:Generated_Source\PSoC4/HPI_IF_I2C_SLAVE.c **** 
 280:Generated_Source\PSoC4/HPI_IF_I2C_SLAVE.c ****         HPI_IF_EnableInt();   /* Release lock */
 874              		.loc 1 280 0
 875 0018 0A20     		movs	r0, #10
 276:Generated_Source\PSoC4/HPI_IF_I2C_SLAVE.c ****         HPI_IF_slRdBufIndex    = 0u;                       /* Clear buffer index  */
 876              		.loc 1 276 0
 877 001a 1D60     		str	r5, [r3]
 277:Generated_Source\PSoC4/HPI_IF_I2C_SLAVE.c ****         HPI_IF_slRdBufIndexTmp = 0u;                       /* Clear buffer index  */
 878              		.loc 1 277 0
 879 001c 0023     		movs	r3, #0
 880 001e 1360     		str	r3, [r2]
 278:Generated_Source\PSoC4/HPI_IF_I2C_SLAVE.c ****         HPI_IF_slRdBufIndexTmp = 0u;                       /* Clear buffer index  */
 881              		.loc 1 278 0
 882 0020 054A     		ldr	r2, .L22+12
 883 0022 1360     		str	r3, [r2]
 884              		.loc 1 280 0
 885 0024 FFF7FEFF 		bl	CyIntEnable
 886              	.LVL21:
 887              	.L16:
 281:Generated_Source\PSoC4/HPI_IF_I2C_SLAVE.c ****     }
 282:Generated_Source\PSoC4/HPI_IF_I2C_SLAVE.c **** }
 888              		.loc 1 282 0
 889              		@ sp needed
 890              	.LVL22:
 891              	.LVL23:
 892 0028 70BD     		pop	{r4, r5, r6, pc}
 893              	.L23:
 894 002a C046     		.align	2
 895              	.L22:
 896 002c 00000000 		.word	HPI_IF_slRdBufPtr
 897 0030 00000000 		.word	HPI_IF_slRdBufIndex
 898 0034 00000000 		.word	HPI_IF_slRdBufSize
 899 0038 00000000 		.word	HPI_IF_slRdBufIndexTmp
 900              		.cfi_endproc
 901              	.LFE5:
 902              		.size	HPI_IF_I2CSlaveInitReadBuf, .-HPI_IF_I2CSlaveInitReadBuf
 903              		.section	.text.HPI_IF_I2CSlaveInitWriteBuf,"ax",%progbits
 904              		.align	1
 905              		.global	HPI_IF_I2CSlaveInitWriteBuf
 906              		.code	16
 907              		.thumb_func
 908              		.type	HPI_IF_I2CSlaveInitWriteBuf, %function
 909              	HPI_IF_I2CSlaveInitWriteBuf:
 910              	.LFB6:
 283:Generated_Source\PSoC4/HPI_IF_I2C_SLAVE.c **** 
ARM GAS  e:\temp\cc55DlaG.s 			page 51


 284:Generated_Source\PSoC4/HPI_IF_I2C_SLAVE.c **** 
 285:Generated_Source\PSoC4/HPI_IF_I2C_SLAVE.c **** /*******************************************************************************
 286:Generated_Source\PSoC4/HPI_IF_I2C_SLAVE.c **** * Function Name: HPI_IF_I2CSlaveInitWriteBuf
 287:Generated_Source\PSoC4/HPI_IF_I2C_SLAVE.c **** ****************************************************************************//**
 288:Generated_Source\PSoC4/HPI_IF_I2C_SLAVE.c **** *
 289:Generated_Source\PSoC4/HPI_IF_I2C_SLAVE.c **** *  Sets the buffer pointer and size of the write buffer. This function also 
 290:Generated_Source\PSoC4/HPI_IF_I2C_SLAVE.c **** *  resets the transfer count returned with the 
 291:Generated_Source\PSoC4/HPI_IF_I2C_SLAVE.c **** *  HPI_IF_I2CSlaveGetWriteBufSize() function.
 292:Generated_Source\PSoC4/HPI_IF_I2C_SLAVE.c **** *
 293:Generated_Source\PSoC4/HPI_IF_I2C_SLAVE.c **** * \param writeBuf: Pointer to the data buffer to be written by the master.
 294:Generated_Source\PSoC4/HPI_IF_I2C_SLAVE.c **** * \param bufSize:  Size of the write buffer exposed to the I2C master.
 295:Generated_Source\PSoC4/HPI_IF_I2C_SLAVE.c **** *
 296:Generated_Source\PSoC4/HPI_IF_I2C_SLAVE.c **** * \sideeffect
 297:Generated_Source\PSoC4/HPI_IF_I2C_SLAVE.c **** *  If this function is called during a bus transaction, data may be received in 
 298:Generated_Source\PSoC4/HPI_IF_I2C_SLAVE.c **** *  the previous buffer and the current buffer location.
 299:Generated_Source\PSoC4/HPI_IF_I2C_SLAVE.c **** *
 300:Generated_Source\PSoC4/HPI_IF_I2C_SLAVE.c **** * \globalvars
 301:Generated_Source\PSoC4/HPI_IF_I2C_SLAVE.c **** *  HPI_IF_slWrBufPtr   - used to store pointer to slave write buffer.
 302:Generated_Source\PSoC4/HPI_IF_I2C_SLAVE.c **** *  HPI_IF_slWrBufSize  - used to store salve write buffer size.
 303:Generated_Source\PSoC4/HPI_IF_I2C_SLAVE.c **** *  HPI_IF_slWrBufIndex - used to store current index within slave
 304:Generated_Source\PSoC4/HPI_IF_I2C_SLAVE.c **** *   write buffer.
 305:Generated_Source\PSoC4/HPI_IF_I2C_SLAVE.c **** *
 306:Generated_Source\PSoC4/HPI_IF_I2C_SLAVE.c **** *******************************************************************************/
 307:Generated_Source\PSoC4/HPI_IF_I2C_SLAVE.c **** void HPI_IF_I2CSlaveInitWriteBuf(uint8 * wrBuf, uint32 bufSize)
 308:Generated_Source\PSoC4/HPI_IF_I2C_SLAVE.c **** {
 911              		.loc 1 308 0
 912              		.cfi_startproc
 913              		@ args = 0, pretend = 0, frame = 0
 914              		@ frame_needed = 0, uses_anonymous_args = 0
 915              	.LVL24:
 916 0000 70B5     		push	{r4, r5, r6, lr}
 917              		.cfi_def_cfa_offset 16
 918              		.cfi_offset 4, -16
 919              		.cfi_offset 5, -12
 920              		.cfi_offset 6, -8
 921              		.cfi_offset 14, -4
 922              		.loc 1 308 0
 923 0002 0400     		movs	r4, r0
 924 0004 0D00     		movs	r5, r1
 309:Generated_Source\PSoC4/HPI_IF_I2C_SLAVE.c ****     /* Check buffer pointer */
 310:Generated_Source\PSoC4/HPI_IF_I2C_SLAVE.c ****     if(NULL != wrBuf)
 925              		.loc 1 310 0
 926 0006 0028     		cmp	r0, #0
 927 0008 0CD0     		beq	.L24
 311:Generated_Source\PSoC4/HPI_IF_I2C_SLAVE.c ****     {
 312:Generated_Source\PSoC4/HPI_IF_I2C_SLAVE.c ****         HPI_IF_DisableInt();  /* Lock from interruption */
 928              		.loc 1 312 0
 929 000a 0A20     		movs	r0, #10
 930              	.LVL25:
 931 000c FFF7FEFF 		bl	CyIntDisable
 932              	.LVL26:
 313:Generated_Source\PSoC4/HPI_IF_I2C_SLAVE.c **** 
 314:Generated_Source\PSoC4/HPI_IF_I2C_SLAVE.c ****         HPI_IF_slWrBufPtr   = (volatile uint8 *) wrBuf; /* Set buffer pointer  */
 315:Generated_Source\PSoC4/HPI_IF_I2C_SLAVE.c ****         HPI_IF_slWrBufSize  = bufSize;                  /* Set buffer size     */
 316:Generated_Source\PSoC4/HPI_IF_I2C_SLAVE.c ****         HPI_IF_slWrBufIndex = 0u;                       /* Clear buffer index  */
 933              		.loc 1 316 0
 934 0010 0022     		movs	r2, #0
ARM GAS  e:\temp\cc55DlaG.s 			page 52


 314:Generated_Source\PSoC4/HPI_IF_I2C_SLAVE.c ****         HPI_IF_slWrBufSize  = bufSize;                  /* Set buffer size     */
 935              		.loc 1 314 0
 936 0012 054B     		ldr	r3, .L29
 317:Generated_Source\PSoC4/HPI_IF_I2C_SLAVE.c **** 
 318:Generated_Source\PSoC4/HPI_IF_I2C_SLAVE.c ****         HPI_IF_EnableInt();   /* Release lock */
 937              		.loc 1 318 0
 938 0014 0A20     		movs	r0, #10
 314:Generated_Source\PSoC4/HPI_IF_I2C_SLAVE.c ****         HPI_IF_slWrBufSize  = bufSize;                  /* Set buffer size     */
 939              		.loc 1 314 0
 940 0016 1C60     		str	r4, [r3]
 315:Generated_Source\PSoC4/HPI_IF_I2C_SLAVE.c ****         HPI_IF_slWrBufIndex = 0u;                       /* Clear buffer index  */
 941              		.loc 1 315 0
 942 0018 044B     		ldr	r3, .L29+4
 943 001a 1D60     		str	r5, [r3]
 316:Generated_Source\PSoC4/HPI_IF_I2C_SLAVE.c **** 
 944              		.loc 1 316 0
 945 001c 044B     		ldr	r3, .L29+8
 946 001e 1A60     		str	r2, [r3]
 947              		.loc 1 318 0
 948 0020 FFF7FEFF 		bl	CyIntEnable
 949              	.LVL27:
 950              	.L24:
 319:Generated_Source\PSoC4/HPI_IF_I2C_SLAVE.c ****     }
 320:Generated_Source\PSoC4/HPI_IF_I2C_SLAVE.c **** }
 951              		.loc 1 320 0
 952              		@ sp needed
 953              	.LVL28:
 954              	.LVL29:
 955 0024 70BD     		pop	{r4, r5, r6, pc}
 956              	.L30:
 957 0026 C046     		.align	2
 958              	.L29:
 959 0028 00000000 		.word	HPI_IF_slWrBufPtr
 960 002c 00000000 		.word	HPI_IF_slWrBufSize
 961 0030 00000000 		.word	HPI_IF_slWrBufIndex
 962              		.cfi_endproc
 963              	.LFE6:
 964              		.size	HPI_IF_I2CSlaveInitWriteBuf, .-HPI_IF_I2CSlaveInitWriteBuf
 965              		.section	.text.HPI_IF_I2CSlaveGetReadBufSize,"ax",%progbits
 966              		.align	1
 967              		.global	HPI_IF_I2CSlaveGetReadBufSize
 968              		.code	16
 969              		.thumb_func
 970              		.type	HPI_IF_I2CSlaveGetReadBufSize, %function
 971              	HPI_IF_I2CSlaveGetReadBufSize:
 972              	.LFB7:
 321:Generated_Source\PSoC4/HPI_IF_I2C_SLAVE.c **** 
 322:Generated_Source\PSoC4/HPI_IF_I2C_SLAVE.c **** 
 323:Generated_Source\PSoC4/HPI_IF_I2C_SLAVE.c **** /*******************************************************************************
 324:Generated_Source\PSoC4/HPI_IF_I2C_SLAVE.c **** * Function Name: HPI_IF_I2CSlaveGetReadBufSize
 325:Generated_Source\PSoC4/HPI_IF_I2C_SLAVE.c **** ****************************************************************************//**
 326:Generated_Source\PSoC4/HPI_IF_I2C_SLAVE.c **** *
 327:Generated_Source\PSoC4/HPI_IF_I2C_SLAVE.c **** *  Returns the number of bytes read by the I2C master since an
 328:Generated_Source\PSoC4/HPI_IF_I2C_SLAVE.c **** *  HPI_IF_I2CSlaveInitReadBuf() or 
 329:Generated_Source\PSoC4/HPI_IF_I2C_SLAVE.c **** *  HPI_IF_I2CSlaveClearReadBuf() function was executed.
 330:Generated_Source\PSoC4/HPI_IF_I2C_SLAVE.c **** *  The maximum return value is the size of the read buffer.
 331:Generated_Source\PSoC4/HPI_IF_I2C_SLAVE.c **** *
ARM GAS  e:\temp\cc55DlaG.s 			page 53


 332:Generated_Source\PSoC4/HPI_IF_I2C_SLAVE.c **** * \return
 333:Generated_Source\PSoC4/HPI_IF_I2C_SLAVE.c **** *  Bytes read by master. If the transfer is not yet complete, it returns 
 334:Generated_Source\PSoC4/HPI_IF_I2C_SLAVE.c **** *  zero until transfer completion.
 335:Generated_Source\PSoC4/HPI_IF_I2C_SLAVE.c **** *
 336:Generated_Source\PSoC4/HPI_IF_I2C_SLAVE.c **** * \sideeffect
 337:Generated_Source\PSoC4/HPI_IF_I2C_SLAVE.c **** *  The returned value is not valid if HPI_IF_I2C_SSTAT_RD_ERR was 
 338:Generated_Source\PSoC4/HPI_IF_I2C_SLAVE.c **** *  captured by the slave.
 339:Generated_Source\PSoC4/HPI_IF_I2C_SLAVE.c **** *
 340:Generated_Source\PSoC4/HPI_IF_I2C_SLAVE.c **** * \globalvars
 341:Generated_Source\PSoC4/HPI_IF_I2C_SLAVE.c **** *  HPI_IF_slRdBufIndex - used to store current index within slave
 342:Generated_Source\PSoC4/HPI_IF_I2C_SLAVE.c **** *  read buffer.
 343:Generated_Source\PSoC4/HPI_IF_I2C_SLAVE.c **** *
 344:Generated_Source\PSoC4/HPI_IF_I2C_SLAVE.c **** *******************************************************************************/
 345:Generated_Source\PSoC4/HPI_IF_I2C_SLAVE.c **** uint32 HPI_IF_I2CSlaveGetReadBufSize(void)
 346:Generated_Source\PSoC4/HPI_IF_I2C_SLAVE.c **** {
 973              		.loc 1 346 0
 974              		.cfi_startproc
 975              		@ args = 0, pretend = 0, frame = 0
 976              		@ frame_needed = 0, uses_anonymous_args = 0
 977              		@ link register save eliminated.
 347:Generated_Source\PSoC4/HPI_IF_I2C_SLAVE.c ****     return(HPI_IF_slRdBufIndex);
 978              		.loc 1 347 0
 979 0000 014B     		ldr	r3, .L32
 348:Generated_Source\PSoC4/HPI_IF_I2C_SLAVE.c **** }
 980              		.loc 1 348 0
 981              		@ sp needed
 347:Generated_Source\PSoC4/HPI_IF_I2C_SLAVE.c ****     return(HPI_IF_slRdBufIndex);
 982              		.loc 1 347 0
 983 0002 1868     		ldr	r0, [r3]
 984              		.loc 1 348 0
 985 0004 7047     		bx	lr
 986              	.L33:
 987 0006 C046     		.align	2
 988              	.L32:
 989 0008 00000000 		.word	HPI_IF_slRdBufIndex
 990              		.cfi_endproc
 991              	.LFE7:
 992              		.size	HPI_IF_I2CSlaveGetReadBufSize, .-HPI_IF_I2CSlaveGetReadBufSize
 993              		.section	.text.HPI_IF_I2CSlaveGetWriteBufSize,"ax",%progbits
 994              		.align	1
 995              		.global	HPI_IF_I2CSlaveGetWriteBufSize
 996              		.code	16
 997              		.thumb_func
 998              		.type	HPI_IF_I2CSlaveGetWriteBufSize, %function
 999              	HPI_IF_I2CSlaveGetWriteBufSize:
 1000              	.LFB8:
 349:Generated_Source\PSoC4/HPI_IF_I2C_SLAVE.c **** 
 350:Generated_Source\PSoC4/HPI_IF_I2C_SLAVE.c **** 
 351:Generated_Source\PSoC4/HPI_IF_I2C_SLAVE.c **** /*******************************************************************************
 352:Generated_Source\PSoC4/HPI_IF_I2C_SLAVE.c **** * Function Name: HPI_IF_I2CSlaveGetWriteBufSize
 353:Generated_Source\PSoC4/HPI_IF_I2C_SLAVE.c **** ****************************************************************************//**
 354:Generated_Source\PSoC4/HPI_IF_I2C_SLAVE.c **** *
 355:Generated_Source\PSoC4/HPI_IF_I2C_SLAVE.c **** *  Returns the number of bytes written by the I2C master since an
 356:Generated_Source\PSoC4/HPI_IF_I2C_SLAVE.c **** *  HPI_IF_I2CSlaveInitWriteBuf() or 
 357:Generated_Source\PSoC4/HPI_IF_I2C_SLAVE.c **** *  HPI_IF_I2CSlaveClearWriteBuf() function was executed.
 358:Generated_Source\PSoC4/HPI_IF_I2C_SLAVE.c **** *  The maximum return value is the size of the write buffer.
 359:Generated_Source\PSoC4/HPI_IF_I2C_SLAVE.c **** *
ARM GAS  e:\temp\cc55DlaG.s 			page 54


 360:Generated_Source\PSoC4/HPI_IF_I2C_SLAVE.c **** * \return
 361:Generated_Source\PSoC4/HPI_IF_I2C_SLAVE.c **** *  Bytes written by master.
 362:Generated_Source\PSoC4/HPI_IF_I2C_SLAVE.c **** *
 363:Generated_Source\PSoC4/HPI_IF_I2C_SLAVE.c **** * \sideeffect
 364:Generated_Source\PSoC4/HPI_IF_I2C_SLAVE.c **** *  The returned value is not valid if HPI_IF_I2C_SSTAT_WR_ERR was 
 365:Generated_Source\PSoC4/HPI_IF_I2C_SLAVE.c **** *  captured by the slave.
 366:Generated_Source\PSoC4/HPI_IF_I2C_SLAVE.c **** *
 367:Generated_Source\PSoC4/HPI_IF_I2C_SLAVE.c **** * \globalvars
 368:Generated_Source\PSoC4/HPI_IF_I2C_SLAVE.c **** *  HPI_IF_slWrBufIndex - used to store current index within slave
 369:Generated_Source\PSoC4/HPI_IF_I2C_SLAVE.c **** *   write buffer.
 370:Generated_Source\PSoC4/HPI_IF_I2C_SLAVE.c **** *
 371:Generated_Source\PSoC4/HPI_IF_I2C_SLAVE.c **** *******************************************************************************/
 372:Generated_Source\PSoC4/HPI_IF_I2C_SLAVE.c **** uint32 HPI_IF_I2CSlaveGetWriteBufSize(void)
 373:Generated_Source\PSoC4/HPI_IF_I2C_SLAVE.c **** {
 1001              		.loc 1 373 0
 1002              		.cfi_startproc
 1003              		@ args = 0, pretend = 0, frame = 0
 1004              		@ frame_needed = 0, uses_anonymous_args = 0
 1005              		@ link register save eliminated.
 374:Generated_Source\PSoC4/HPI_IF_I2C_SLAVE.c ****     return(HPI_IF_slWrBufIndex);
 1006              		.loc 1 374 0
 1007 0000 014B     		ldr	r3, .L35
 375:Generated_Source\PSoC4/HPI_IF_I2C_SLAVE.c **** }
 1008              		.loc 1 375 0
 1009              		@ sp needed
 374:Generated_Source\PSoC4/HPI_IF_I2C_SLAVE.c ****     return(HPI_IF_slWrBufIndex);
 1010              		.loc 1 374 0
 1011 0002 1868     		ldr	r0, [r3]
 1012              		.loc 1 375 0
 1013 0004 7047     		bx	lr
 1014              	.L36:
 1015 0006 C046     		.align	2
 1016              	.L35:
 1017 0008 00000000 		.word	HPI_IF_slWrBufIndex
 1018              		.cfi_endproc
 1019              	.LFE8:
 1020              		.size	HPI_IF_I2CSlaveGetWriteBufSize, .-HPI_IF_I2CSlaveGetWriteBufSize
 1021              		.section	.text.HPI_IF_I2CSlaveClearReadBuf,"ax",%progbits
 1022              		.align	1
 1023              		.global	HPI_IF_I2CSlaveClearReadBuf
 1024              		.code	16
 1025              		.thumb_func
 1026              		.type	HPI_IF_I2CSlaveClearReadBuf, %function
 1027              	HPI_IF_I2CSlaveClearReadBuf:
 1028              	.LFB9:
 376:Generated_Source\PSoC4/HPI_IF_I2C_SLAVE.c **** 
 377:Generated_Source\PSoC4/HPI_IF_I2C_SLAVE.c **** 
 378:Generated_Source\PSoC4/HPI_IF_I2C_SLAVE.c **** /*******************************************************************************
 379:Generated_Source\PSoC4/HPI_IF_I2C_SLAVE.c **** * Function Name: HPI_IF_I2CSlaveClearReadBuf
 380:Generated_Source\PSoC4/HPI_IF_I2C_SLAVE.c **** ****************************************************************************//**
 381:Generated_Source\PSoC4/HPI_IF_I2C_SLAVE.c **** *
 382:Generated_Source\PSoC4/HPI_IF_I2C_SLAVE.c **** *  Resets the read pointer to the first byte in the read buffer. The next byte
 383:Generated_Source\PSoC4/HPI_IF_I2C_SLAVE.c **** *  read by the master will be the first byte in the read buffer.
 384:Generated_Source\PSoC4/HPI_IF_I2C_SLAVE.c **** *
 385:Generated_Source\PSoC4/HPI_IF_I2C_SLAVE.c **** * \globalvars
 386:Generated_Source\PSoC4/HPI_IF_I2C_SLAVE.c **** *  HPI_IF_slRdBufIndex - used to store current index within slave
 387:Generated_Source\PSoC4/HPI_IF_I2C_SLAVE.c **** *  read buffer.
ARM GAS  e:\temp\cc55DlaG.s 			page 55


 388:Generated_Source\PSoC4/HPI_IF_I2C_SLAVE.c **** *
 389:Generated_Source\PSoC4/HPI_IF_I2C_SLAVE.c **** *******************************************************************************/
 390:Generated_Source\PSoC4/HPI_IF_I2C_SLAVE.c **** void HPI_IF_I2CSlaveClearReadBuf(void)
 391:Generated_Source\PSoC4/HPI_IF_I2C_SLAVE.c **** {
 1029              		.loc 1 391 0
 1030              		.cfi_startproc
 1031              		@ args = 0, pretend = 0, frame = 0
 1032              		@ frame_needed = 0, uses_anonymous_args = 0
 1033              		@ link register save eliminated.
 392:Generated_Source\PSoC4/HPI_IF_I2C_SLAVE.c ****     HPI_IF_slRdBufIndex = 0u;
 1034              		.loc 1 392 0
 1035 0000 0022     		movs	r2, #0
 1036 0002 014B     		ldr	r3, .L38
 393:Generated_Source\PSoC4/HPI_IF_I2C_SLAVE.c **** }
 1037              		.loc 1 393 0
 1038              		@ sp needed
 392:Generated_Source\PSoC4/HPI_IF_I2C_SLAVE.c ****     HPI_IF_slRdBufIndex = 0u;
 1039              		.loc 1 392 0
 1040 0004 1A60     		str	r2, [r3]
 1041              		.loc 1 393 0
 1042 0006 7047     		bx	lr
 1043              	.L39:
 1044              		.align	2
 1045              	.L38:
 1046 0008 00000000 		.word	HPI_IF_slRdBufIndex
 1047              		.cfi_endproc
 1048              	.LFE9:
 1049              		.size	HPI_IF_I2CSlaveClearReadBuf, .-HPI_IF_I2CSlaveClearReadBuf
 1050              		.section	.text.HPI_IF_I2CSlaveClearWriteBuf,"ax",%progbits
 1051              		.align	1
 1052              		.global	HPI_IF_I2CSlaveClearWriteBuf
 1053              		.code	16
 1054              		.thumb_func
 1055              		.type	HPI_IF_I2CSlaveClearWriteBuf, %function
 1056              	HPI_IF_I2CSlaveClearWriteBuf:
 1057              	.LFB10:
 394:Generated_Source\PSoC4/HPI_IF_I2C_SLAVE.c **** 
 395:Generated_Source\PSoC4/HPI_IF_I2C_SLAVE.c **** 
 396:Generated_Source\PSoC4/HPI_IF_I2C_SLAVE.c **** /*******************************************************************************
 397:Generated_Source\PSoC4/HPI_IF_I2C_SLAVE.c **** * Function Name: HPI_IF_I2CSlaveClearWriteBuf
 398:Generated_Source\PSoC4/HPI_IF_I2C_SLAVE.c **** ****************************************************************************//**
 399:Generated_Source\PSoC4/HPI_IF_I2C_SLAVE.c **** *
 400:Generated_Source\PSoC4/HPI_IF_I2C_SLAVE.c **** *  Resets the write pointer to the first byte in the write buffer. The next byte
 401:Generated_Source\PSoC4/HPI_IF_I2C_SLAVE.c **** *  written by the master will be the first byte in the write buffer.
 402:Generated_Source\PSoC4/HPI_IF_I2C_SLAVE.c **** *
 403:Generated_Source\PSoC4/HPI_IF_I2C_SLAVE.c **** * \globalvars
 404:Generated_Source\PSoC4/HPI_IF_I2C_SLAVE.c **** *  HPI_IF_slWrBufIndex - used to store current index within slave
 405:Generated_Source\PSoC4/HPI_IF_I2C_SLAVE.c **** *  write buffer.
 406:Generated_Source\PSoC4/HPI_IF_I2C_SLAVE.c **** *
 407:Generated_Source\PSoC4/HPI_IF_I2C_SLAVE.c **** *******************************************************************************/
 408:Generated_Source\PSoC4/HPI_IF_I2C_SLAVE.c **** void HPI_IF_I2CSlaveClearWriteBuf(void)
 409:Generated_Source\PSoC4/HPI_IF_I2C_SLAVE.c **** {
 1058              		.loc 1 409 0
 1059              		.cfi_startproc
 1060              		@ args = 0, pretend = 0, frame = 0
 1061              		@ frame_needed = 0, uses_anonymous_args = 0
 1062              		@ link register save eliminated.
ARM GAS  e:\temp\cc55DlaG.s 			page 56


 410:Generated_Source\PSoC4/HPI_IF_I2C_SLAVE.c ****     HPI_IF_slWrBufIndex = 0u;
 1063              		.loc 1 410 0
 1064 0000 0022     		movs	r2, #0
 1065 0002 014B     		ldr	r3, .L41
 411:Generated_Source\PSoC4/HPI_IF_I2C_SLAVE.c **** }
 1066              		.loc 1 411 0
 1067              		@ sp needed
 410:Generated_Source\PSoC4/HPI_IF_I2C_SLAVE.c ****     HPI_IF_slWrBufIndex = 0u;
 1068              		.loc 1 410 0
 1069 0004 1A60     		str	r2, [r3]
 1070              		.loc 1 411 0
 1071 0006 7047     		bx	lr
 1072              	.L42:
 1073              		.align	2
 1074              	.L41:
 1075 0008 00000000 		.word	HPI_IF_slWrBufIndex
 1076              		.cfi_endproc
 1077              	.LFE10:
 1078              		.size	HPI_IF_I2CSlaveClearWriteBuf, .-HPI_IF_I2CSlaveClearWriteBuf
 1079              		.comm	HPI_IF_slOverFlowCount,1,1
 1080              		.comm	HPI_IF_slRdBufIndexTmp,4,4
 1081              		.comm	HPI_IF_slRdBufIndex,4,4
 1082              		.comm	HPI_IF_slRdBufSize,4,4
 1083              		.comm	HPI_IF_slRdBufPtr,4,4
 1084              		.comm	HPI_IF_slWrBufIndex,4,4
 1085              		.comm	HPI_IF_slWrBufSize,4,4
 1086              		.comm	HPI_IF_slWrBufPtr,4,4
 1087              		.comm	HPI_IF_slStatus,1,1
 1088              		.text
 1089              	.Letext0:
 1090              		.file 2 "Generated_Source\\PSoC4/cytypes.h"
 1091              		.file 3 "Generated_Source\\PSoC4/CyLib.h"