ARM GAS  e:\temp\ccXTXBQr.s 			page 1


   1              		.syntax unified
   2              		.cpu cortex-m0
   3              		.fpu softvfp
   4              		.eabi_attribute 20, 1
   5              		.eabi_attribute 21, 1
   6              		.eabi_attribute 23, 3
   7              		.eabi_attribute 24, 1
   8              		.eabi_attribute 25, 1
   9              		.eabi_attribute 26, 1
  10              		.eabi_attribute 30, 4
  11              		.eabi_attribute 34, 0
  12              		.eabi_attribute 18, 4
  13              		.thumb
  14              		.syntax unified
  15              		.file	"HPI_IF_I2C.c"
  16              		.text
  17              	.Ltext0:
  18              		.section	.gnu.lto_.profile.62410ee8,"",%progbits
  19 0000 789C6361 		.ascii	"x\234ca`d`a`\000\222>z\000\0010\000\205"
  19      60646061 
  19      6000923E 
  19      7A000130 
  19      0085
  20              		.text
  21              		.section	.gnu.lto_.icf.62410ee8,"",%progbits
  22 0000 789C6361 		.ascii	"x\234ca`d\000\001a\006\004`f\370u\276g\023/\373\226"
  22      60640001 
  22      61060460 
  22      66F875BE 
  22      67132FFB 
  23 0015 A5973EF3 		.ascii	"\245\227>\363q\3548q7\216\001\000[\252\011&"
  23      71EC3871 
  23      378E0100 
  23      5BAA0926 
  24              		.text
  25              		.section	.gnu.lto_.jmpfuncs.62410ee8,"",%progbits
  26 0000 789C6361 		.ascii	"x\234ca`d\000\2014\006\004`\006b\026\306\277L\214\177"
  26      60640081 
  26      34060460 
  26      066216C6 
  26      BF4C8C7F 
  27 0014 3F5CF8CB 		.ascii	"?\\\370\313\363\205\251\225\231\201\221\213q9\243\014"
  27      F385A995 
  27      9981918B 
  27      7139A30C 
  28 0024 03034874 		.ascii	"\003\003Ht\347\3167\267\331\353\3776t44\010\26423\376"
  28      E7CE37B7 
  28      D9EBFF36 
  28      74343408 
  28      B43233FE 
  29 0038 67022A67 		.ascii	"g\002*g\\\301X\017\322\204Pu\350\323\206\345P\275\314"
  29      5CC1580F 
  29      D2845075 
  29      E8D386E5 
  29      50BDCC
  30 004b 8C2B41A2 		.ascii	"\214+A\242LPYv\006\006\016\240\026\0008\310\032\022"
  30      4C505976 
ARM GAS  e:\temp\ccXTXBQr.s 			page 2


  30      06060EA0 
  30      160038C8 
  30      1A12
  31              		.text
  32              		.section	.gnu.lto_.inline.62410ee8,"",%progbits
  33 0000 789C6361 		.ascii	"x\234ca`d\000\201@\006\004`f`\2205gd`RY0\223\211\201"
  33      60640081 
  33      40060460 
  33      66609035 
  33      67646052 
  34 0019 6D813C13 		.ascii	"m\201<\023X\220\207\201\201\011N1q3\0005\2623\260\261"
  34      58908781 
  34      81094E31 
  34      71330035 
  34      B233B0B1 
  35 002d 02D5B17D 		.ascii	"\002\325\261}\320\203+\343`\020\024\000\012\311<\270"
  35      D0832BE3 
  35      60101400 
  35      0AC93CB8 
  36 003d C5081763 		.ascii	"\305\010\027c\000\0008\255\007\321"
  36      000038AD 
  36      07D1
  37              		.text
  38              		.section	.gnu.lto_.pureconst.62410ee8,"",%progbits
  39 0000 789C6361 		.ascii	"x\234ca`d`g```f\220b\227\342\220\002\000\001\320\000"
  39      60646067 
  39      60606066 
  39      906297E2 
  39      90020001 
  40 0016 6D       		.ascii	"m"
  41              		.text
  42              		.section	.gnu.lto_HPI_IF_I2CInit.62410ee8,"",%progbits
  43 0000 789C75D5 		.ascii	"x\234u\325\313O\023A\034\007\360\371\315\226\266@[\270"
  43      CB4F1341 
  43      1C07F0F9 
  43      CD96B640 
  43      5BB8
  44 0012 69220713 		.ascii	"i\"\007\023\215\211\027\017\352\177`\242rS\271\232\020"
  44      8D89170F 
  44      EA7F60A2 
  44      7253B99A 
  44      10
  45 0023 A35C3521 		.ascii	"\243\\5!z\362\320)t\025\305\230\202\212r@\224\250\210"
  45      7AF2D029 
  45      7415C598 
  45      828A7240 
  45      94A888
  46 0036 821415B1 		.ascii	"\202\024\025\261\"Z\253hyX\220\207\005A\255\250(R\264"
  46      225AAB68 
  46      79589087 
  46      0541ADA8 
  46      2852B4
  47 0049 2A2F1FB5 		.ascii	"*/\037\265\316tf\247\356R7!\205\335\235\317\3577\337"
  47      CE7466A7 
  47      EE523721 
  47      85DD9DCF 
  47      EF37DF
ARM GAS  e:\temp\ccXTXBQr.s 			page 3


  48 005c CE0C2604 		.ascii	"\316\014&\004\210]\253,\010\255\241\237+\350\017(\010"
  48      885DAB2C 
  48      08ADA19F 
  48      2BE80F28 
  48      08
  49 006d B0278490 		.ascii	"\260'\204\220\313\212\001\330/\304\012\310\211\301\011"
  49      CB8A01D8 
  49      2FC40AC8 
  49      89C109
  50 007c 73388E21 		.ascii	"s8\216!px\322\207\327\326\023zE.Nlw\021u\271\252 \224"
  50      7078D287 
  50      D7D6137A 
  50      452E4E6C 
  50      771175B9 
  51 0093 C0490941 		.ascii	"\300I\011A=\254E\364\265\211\226?\247\354f7{m%\177\010"
  51      3DAC45F4 
  51      B589963F 
  51      A7EC6637 
  51      7B6D257F 
  52 00a8 97C1CCCA 		.ascii	"\227\301\314\3125\357\360\223D\242\224\370O9:\177\346"
  52      35EFF093 
  52      44A294F8 
  52      4F393A7F 
  52      E6
  53 00b9 2C432846 		.ascii	",C(F\237\262:_1f\237\312$\004f\275\241A\013\033@\245"
  53      9FB23A5F 
  53      31669FCA 
  53      240466BD 
  53      A1410B1B 
  54 00cf 2A35D067 		.ascii	"*5\320g\231\305\252\002\300\340\327\255\325\335f\376"
  54      99C5AA02 
  54      C0E0D7AD 
  54      D5DD66FE 
  55 00df 27212789 		.ascii	"'!'\211\211\336\272\365\244\364QV-\324\270\334.B6 U"
  55      89DEBAF5 
  55      A4F45156 
  55      2DD4B8DC 
  55      2E423620 
  56 00f4 C17005F2 		.ascii	"\301p\005\362\240\001\362h\325\253P\013\364\235\346"
  56      A001F268 
  56      D5AB500B 
  56      F49DE6
  57 0103 A8EF879D 		.ascii	"\250\357\207\235\015S\000A#}\302\252\304RUBG\217\177"
  57      0D530041 
  57      237DC2AA 
  57      C4525542 
  57      478F7F
  58 0116 37713622 		.ascii	"7q6\"\330\310\310\245\005\253\236m\222\3545\3166\\,"
  58      D8C8C8A5 
  58      05AB9E6D 
  58      92EC35CE 
  58      365C2C
  59 0129 BF029C9D 		.ascii	"\277\002\234\235\252 \304\004\315\202\366\016\235\310"
  59      AA20C404 
  59      CD82F60E 
  59      9DC8
  60 0137 1474F058 		.ascii	"\024t\360X\315\260Ut|\210\3235\2353a\213\236\366J\272"
ARM GAS  e:\temp\ccXTXBQr.s 			page 4


  60      CDB05574 
  60      7C88D335 
  60      9D33618B 
  60      9EF64ABA 
  61 014b 85D3918A 		.ascii	"\205\323\221\212\362\210\203\323\207K\010\375\022\256"
  61      F28883D3 
  61      874B08FD 
  61      12AE
  62 0159 6B5DA768 		.ascii	"k]\247h\177S\335\242\235\323nA\273?D\353\014a\334\220"
  62      7F53DDA2 
  62      9DD36E41 
  62      BB3F44EB 
  62      0C61DC90 
  63 016d F44D4ECB 		.ascii	"\364MN\313H1\015\243U\353\370\271d\353\310\300\214\010"
  63      48310DA3 
  63      55EBF8B9 
  63      64EBC8C0 
  63      8C08
  64 017f C323D86F 		.ascii	"\303#\330o\256\276v\263\236\275%\3316\316\226U\224\222"
  64      AEBE76B3 
  64      9EBD25D9 
  64      36CE9655 
  64      9492
  65 0191 6CDEB187 		.ascii	"l\336\261\207,Z\340\266\326pX\312\344n\230d\210,\334"
  65      2C5AE0B6 
  65      D67058CA 
  65      E46E9864 
  65      882CDC
  66 01a4 5CBEE469 		.ascii	"\\\276\344il\263\351e\237\224\357PYN\334;.\235\201\256"
  66      6CB3E965 
  66      9F94EF50 
  66      594EDC3B 
  66      2E9D81AE 
  67 01b8 F879454C 		.ascii	"\370yEL\\8\013\265\035%\206L\333\245s\2279l\246\037"
  67      5C380BB5 
  67      1D25864C 
  67      DBA57397 
  67      396CA61F 
  68 01cc C1ED9F77 		.ascii	"\301\355\237w0\205-&\237/:fq\306I\031!\271\252bJ\320"
  68      30852D26 
  68      9F2F3A66 
  68      71C64919 
  68      21B9AA62 
  69 01e2 3C107480 		.ascii	"<\020t\200\223=\213\307\372\3436V\"\003\262\340\036"
  69      933D8BC7 
  69      FAE33656 
  69      2203B2E0 
  69      1E
  70 01f3 E4A98A99 		.ascii	"\344\251\212\231\216V\375\213\377\031mI\320\365\213"
  70      8E56FD8B 
  70      FF196D49 
  70      D0F58B
  71 0202 E03E1DCD 		.ascii	"\340>\035\315^g[\345\233\267^\010\012\370\231`M\012"
  71      5E675BE5 
  71      9BB75E08 
  71      0AF89960 
  71      4D0A
ARM GAS  e:\temp\ccXTXBQr.s 			page 5


  72 0214 BFFF2364 		.ascii	"\277\377#d&0\335I\360 %\374\363\234lW\225\254\0046%"
  72      2630DD49 
  72      F02025FC 
  72      F39C6C57 
  72      95AC0436 
  73 0229 8742009C 		.ascii	"\207B\000\234\252\222\315\323}?\250\245ra:8\007<\225"
  73      AA92CDD3 
  73      7D3FA8A5 
  73      72613A38 
  73      073C95
  74 023c 600D4FA5 		.ascii	"`\015O\245\352\314\027?\326\247\362P\246\362\210\245"
  74      EACC173F 
  74      D6A7F250 
  74      A6F288A5 
  75 024c A26D06EF 		.ascii	"\242m\006\357\007\351<~7s\332\306\2352\341\274\036m"
  75      07E93C7E 
  75      3773DAC6 
  75      9D32E1BC 
  75      1E6D
  76 025e EF36A4DB 		.ascii	"\3576\244\333)\235\307\377:\261\224S\335\326\321\221"
  76      299DC7FF 
  76      3AB19453 
  76      DDD6D191 
  77 026e 29FA39CB 		.ascii	")\3729\313\235\306\246\311*\207\336y\"\235 _Gs\341\343"
  77      9DC6A6C9 
  77      2A87DE79 
  77      229D205F 
  77      4773E1E3 
  78 0282 09B1A97A 		.ascii	"\011\261\251z0ti\375E\245[y\350\317A\321\236`'\316\031"
  78      307469FD 
  78      45A55B79 
  78      E8CF41D1 
  78      9E6027CE 
  79 0297 BFFB6EA9 		.ascii	"\277\373n\251\366\350\272K)\323\015]\275b\015\005k9"
  79      F6E8BA4B 
  79      29D30D5D 
  79      BD620D05 
  79      6B39
  80 02a9 33D53FFF 		.ascii	"3\325?\377F\321;\275\322y\252KkF:o*\003-ZZ\302\351\351"
  80      46D13BBD 
  80      D279AA4B 
  80      6B463A6F 
  80      2A032D5A 
  81 02c1 752F18FA 		.ascii	"u/\030\372\011I\247O\327\317\347\267\031\306\203\316"
  81      0949A74F 
  81      D7CFE7B7 
  81      19C683CE 
  82 02d1 064BD786 		.ascii	"\006K\327\206\355\010]\032\354v\324=\021\312f4q\261"
  82      ED085D1A 
  82      EC76D43D 
  82      11CA6634 
  82      71B1
  83 02e3 FB767846 		.ascii	"\373vxFO\346\376$<\300\343k\377\376\273\0073\307\016"
  83      4FE6FE24 
  83      3CC0E36B 
  83      FFFEBB07 
  83      33C70E
ARM GAS  e:\temp\ccXTXBQr.s 			page 6


  84 02f6 B930A8D5 		.ascii	"\2710\250\325\231-\325\372]\002CzxH\302\303\206c\303"
  84      992DD5FA 
  84      5D02437A 
  84      7848C2C3 
  84      8663C3
  85 0309 4E8F8DE7 		.ascii	"N\217\215\347\002\366\314)\306\376\035i\372w\034Qp\272"
  85      02F6CC29 
  85      C6FE1D69 
  85      FA771C51 
  85      70BA
  86 031b 32393042 		.ascii	"290B\313\204\223eF\015erh\231\027\242L\277,\263\304"
  86      CB849365 
  86      460D6572 
  86      689917A2 
  86      4CBF2CB3 
  87 0330 55D2BB63 		.ascii	"U\322\273c\322\035g\201k\220g>=Ds0\245\317\341\245\314"
  87      D21D6781 
  87      6B90673E 
  87      3D447330 
  87      A5CFE1A5 
  88 0345 E11583D8 		.ascii	"\341\025\203\330\304?A\211\377W\037N\356Ev\305\350\301"
  88      C43F4189 
  88      FF571F4E 
  88      EE4576C5 
  88      E8C1
  89 0357 41FF75D1 		.ascii	"A\377u\321\031\256\336R\264\267\250x\327\376\242=\205"
  89      19AEDE52 
  89      B4B7A878 
  89      D7FEA23D 
  89      85
  90 0368 05FB0E14 		.ascii	"\005\373\016\024\357.\332\271\255`\337\246\215;\267"
  90      EF2EDAB9 
  90      AD60DFA6 
  90      8D3BB7
  91 0377 6ECB2FCC 		.ascii	"n\313/\314\337\\\230\277~\323\272\335\350/z\300\243"
  91      DF5C98BF 
  91      7ED3BADD 
  91      E82F7AC0 
  91      A3
  92 0388 4C       		.ascii	"L"
  93              		.text
  94              		.section	.gnu.lto_HPI_IF_I2CStop.62410ee8,"",%progbits
  95 0000 789C5D90 		.ascii	"x\234]\220\317K\002A\024\307\347\315\256\256a\202x\315"
  95      CF4B0241 
  95      14C7E7CD 
  95      AEAE6182 
  95      78CD
  96 0012 438708BC 		.ascii	"C\207\010\274t\220\376\003\241\362&z\025$l\257\011R"
  96      7490FE03 
  96      A1F2267A 
  96      15246CAF 
  96      0952
  97 0024 6767CBED 		.ascii	"gg\313\355'EQy\013/\222V\226?:I`\233\327H\217\035:\024"
  97      27455179 
  97      0B2F9256 
  97      963F3A49 
  97      609BD748 
ARM GAS  e:\temp\ccXTXBQr.s 			page 7


  98 003c 8212B107 		.ascii	"\202\022\261\007#\243Kfov\303~\014\014o\346\2757\237"
  98      23A34B66 
  98      6F76C37E 
  98      0C0C6FE6 
  98      BD379F
  99 004f EF9BAF48 		.ascii	"\357\233\257H\200\360\265\207a\034\343\010n\020\010"
  99      80F0B587 
  99      611CE308 
  99      6E1008
 100 005e D09D3A21 		.ascii	"\320\235:!\212\215\002\360\003\263\001IPH\300\033\355"
 100      8A8D02F0 
 100      03B30149 
 100      5048C01B 
 100      ED
 101 006f 51A8ADB6 		.ascii	"Q\250\255\266+\324\223e\270\036\325#/\313i\240\012\204"
 101      2BD49365 
 101      B81ED523 
 101      2FCB69A0 
 101      0A84
 102 0081 F4A94122 		.ascii	"\364\251A\"\220\005\017\301\266f\351\363\300aM\362\266"
 102      90050FC1 
 102      B666E9F3 
 102      C0614DF2 
 102      B6
 103 0092 51B30839 		.ascii	"Q\263\0109\260r\271BPc\375\3762\323.\\\327U\227\205"
 103      B072B942 
 103      5063FDFE 
 103      32D32E5C 
 103      D7559785 
 104 00a6 900E56B9 		.ascii	"\220\016V\271\316\013\245<\012m\250u;\267]\211?@RJ\255"
 104      CE0BA53C 
 104      0A6DA875 
 104      3BB75D89 
 104      3F40524A 
 105 00bb 35A42E55 		.ascii	"5\244.U\005\000\016\276kU3C\346\365\211\3553\021S\033"
 105      05000EBE 
 105      6B553343 
 105      E6F589ED 
 105      3311531B 
 106 00cf 2DFDDD96 		.ascii	"-\375\335\226\206C%\2510fW\005\012'\340\206cp\243\350"
 106      864325A9 
 106      30665705 
 106      0A27E086 
 106      6370A3E8 
 107 00e3 29A4E137 		.ascii	")\244\3417\204\002\201<V\270H\261>\020)\357\256l:L\252"
 107      8402813C 
 107      56B848B1 
 107      3E1029EF 
 107      AE6C3A4C 
 108 00f8 FE4DDD7A 		.ascii	"\376M\335z\330\316\017\377\241\236\015\250\347H\375"
 108      D8CE0FFF 
 108      A19E0DA8 
 108      E748FD
 109 0107 C1343296 		.ascii	"\30142\226\377\263\012\306\254\225\212~/%zl\2151'\346"
 109      FFB30AC6 
 109      AC958A7E 
 109      2F257A6C 
ARM GAS  e:\temp\ccXTXBQr.s 			page 8


 109      8D3127E6 
 110 011b D6D1279E 		.ascii	"\326\321'\236\326\223\315\272\235\223\231\302\363\""
 110      D693CDBA 
 110      9D9399C2 
 110      F322
 111 0129 14D1DC82 		.ascii	"\024\321\334\202\001.\231\343^\276~\334P\316\021\301"
 111      012E99E3 
 111      5EBE7EDC 
 111      50CE11C1 
 112 0139 0965AC3C 		.ascii	"\011e\254<\303\222v\025\344*\206\313\035\374\006Z\205"
 112      C3927615 
 112      E42A86CB 
 112      1DFC065A 
 112      85
 113 014a C68D4DCB 		.ascii	"\306\215M\313\363r|vA\236\213\204b\213\361\250\034\016"
 113      F3727C76 
 113      419E8B84 
 113      628BF1A8 
 113      1C0E
 114 015c 8462BEC9 		.ascii	"\204b\276\311\360L\300\037\361OE\374^\337D\224|\001"
 114      F04CC01F 
 114      F14F45FC 
 114      5EDF4494 
 114      7C01
 115 016e E3309F8E 		.ascii	"\3430\237\216"
 116              		.text
 117              		.section	.gnu.lto_HPI_IF_I2CFwBlockReset.62410ee8,"",%progbits
 118 0000 789C8D93 		.ascii	"x\234\215\223\317O\023A\024\307\347\315n\273+Pl\364"
 118      CF4F1341 
 118      14C7E7CD 
 118      6EBB2B50 
 118      6CF4
 119 0012 28070FC6 		.ascii	"(\007\017\306\204\213\007\342\177@\2426\361@\354\315"
 119      848B07E2 
 119      7F40A236 
 119      F140ECCD 
 120 0022 9034067B 		.ascii	"\2204\006{\225\204\350\271S\333j\255\201\240\321\032"
 120      9584E8B9 
 120      53DB6AAD 
 120      81A0D11A 
 121 0032 4D4C2FC8 		.ascii	"ML/\310\017\005J\253\240+\212\2451\361GI%\036\300\304"
 121      0F054AAB 
 121      A02B8AA5 
 121      31F14749 
 121      251EC0C4 
 122 0046 430B9106 		.ascii	"C\013\221\006\265\2115\024\253\204R\337\354L\027%\221"
 122      B5893514 
 122      AB8452DF 
 122      EC4C1725 
 122      91
 123 0057 38C9BED9 		.ascii	"8\311\276\331\235}\363\231\357{o\236J\200\360QQ\010"
 123      9D7DF399 
 123      EF7B6F9E 
 123      4A80F051 
 123      5108
 124 0069 398CF301 		.ascii	"9\214\363\001|@!@\373\263\204\370u\012\300_\230\016"
 124      7C402140 
ARM GAS  e:\temp\ccXTXBQr.s 			page 9


 124      FBB384F8 
 124      750AC05F 
 124      980E
 125 007b C447C107 		.ascii	"\304G\301\007\353\264J!}\271`\320\326!\206#\177o\274"
 125      EBB44A21 
 125      7DB960D0 
 125      D6218623 
 125      7F6FBC
 126 008e 8D0DA720 		.ascii	"\215\015\247 \204\333k\324$\021\030\202V\202n\313\211"
 126      84DB6BD4 
 126      24111882 
 126      56826ECB 
 126      89
 127 009f AD9B0E7B 		.ascii	"\255\233\016{\220\273\035\024?a\030\354\374\270\370"
 127      90BB1D14 
 127      3F6118EC 
 127      FCB8F8
 128 00ae A914ABD5 		.ascii	"\251\024\253\325\002,\265\276ova\277\223\222\220\202"
 128      022CB5BE 
 128      6F7661BF 
 128      93929082 
 129 00be 67A2D1B8 		.ascii	"g\242\321\270\321\271qp\323\314\015!%\334\313U|\247"
 129      D1B97170 
 129      D3CC0D21 
 129      25DCCB55 
 129      7CA7
 130 00d0 94CF4A01 		.ascii	"\224\317J\001\322\033\221B\3464\307\005\024\256(\032"
 130      D21B9142 
 130      E634C705 
 130      14AE281A 
 131 00e0 4ABFD3CA 		.ascii	"J\277\323\3124\244P\340'\347&o\277\265\213O\306n0\025"
 131      34A450E0 
 131      27E7266F 
 131      BFB58B4F 
 131      C66E3015 
 132 00f4 97A65E05 		.ascii	"\227\246^\005^6\304\340\256?\210Z\025\270\017-0\002"
 132      5E36C4E0 
 132      AE3F885A 
 132      15B80F2D 
 132      3002
 133 0106 2D28E901 		.ascii	"-(\351\001\304\200\024 \260i\0278E\020C\275c\267\032"
 133      C4801420 
 133      B0691738 
 133      451043BD 
 133      63B71A
 134 0119 3802A086 		.ascii	"8\002\240\206C\203Q\364\306\203\243\300\335v\003\216"
 134      438351F4 
 134      C683A3C0 
 134      DD76038E 
 135 0129 211031DC 		.ascii	"!\0201\334\271\\\312\2255\351\277\27023\260GhZ\225\232"
 135      B95CCA95 
 135      35E9BFB8 
 135      3233B047 
 135      685A959A 
 136 013d 222BC58A 		.ascii	"\"+\305\212n\"\374\2145r\312\270E\211#\345\317\3000"
 136      6E22FC8C 
 136      3572CAB8 
ARM GAS  e:\temp\ccXTXBQr.s 			page 10


 136      458923E5 
 136      CFC030
 137 0150 0F302124 		.ascii	"\0170!$\224'>Y\324\344\265KW\035\202Z\224\324\336\\"
 137      94273E59 
 137      D4E4B54B 
 137      571D825A 
 137      94D4DE5C 
 138 0164 DF68D35F 		.ascii	"\337h\323_\324\204EM\"\265\216\331\210\274?)B\326pW"
 138      D484454D 
 138      22B58ED9 
 138      88BC3F29 
 138      42D67057 
 139 0178 36D2B7A6 		.ascii	"6\322\267\246\012P^\202\362\037\006\245<3\302\207\026"
 139      0A505E82 
 139      F21F06A5 
 139      3C33C287 
 139      16
 140 0189 E5D18E94 		.ascii	"\345\321\216\224\351\0021\030)'U\2312\243Z\333\013\223"
 140      E9023118 
 140      29275599 
 140      32A35ADB 
 140      0B93
 141 019b 3B52F64F 		.ascii	";R\366O\340\224\2312\335\014\256\277\240J\367\245\353"
 141      E0949932 
 141      DD0CAEBF 
 141      A04AF7A5 
 141      EB
 142 01ac E9449390 		.ascii	"\351D\223\220\024\216\011I\231\271`E\333&<\266\010O"
 142      148E0949 
 142      99B96045 
 142      DB263CB6 
 142      084F
 143 01be 44BAE245 		.ascii	"D\272\342E\343\227CH `\310t\315[\304\257#o\346\024A"
 143      E3974348 
 143      2060C874 
 143      CD5BC4AF 
 143      236FE614 
 144 01d3 7C2D899F 		.ascii	"|-\211\237\347\177,)\333\304\247\026q\232\247\252\216"
 144      E77F2C29 
 144      DBC4A716 
 144      719AA7AA 
 144      8E
 145 01e4 287D1BB0 		.ascii	"(}\033\260I\206U\021\325\274j\206Q\374\250\371\252,"
 145      49865511 
 145      D5BC6A86 
 145      51FCA8F9 
 145      AA2C
 146 01f6 CC9813D7 		.ascii	"\314\230\023\327\256`\037\360\345bp9\333\310\261\314"
 146      AE601FF0 
 146      E5627039 
 146      DBC8B1CC 
 147 0206 CFD76DF0 		.ascii	"\317\327m\360\034\233\347\231\011\236\021R\247\3276"
 147      1C9BE799 
 147      099E1152 
 147      A7D736
 148 0215 3394736C 		.ascii	"3\224sl\340\204\027\365\222,d\345\255v\354v\305R\262"
 148      E08417F5 
ARM GAS  e:\temp\ccXTXBQr.s 			page 11


 148      922C64E5 
 148      AD76EC76 
 148      C552B2
 149 0228 003F6501 		.ascii	"\000?e\001\232\205\177t+|\207\212\350y\323\3510\373"
 149      9A857F74 
 149      2B7C878A 
 149      E879D3E9 
 149      30FB
 150 023a BF77366D 		.ascii	"\277w6m\026\240\231|\201\213\251E7\3676;\271\204\355"
 150      16A0997C 
 150      818BA945 
 150      37F7363B 
 150      B984ED
 151 024d 840D87ED 		.ascii	"\204\015\207\355w\350\270\367\234\267\347\314y\357Y"
 151      77E8B8F7 
 151      9CB7E7CC 
 151      79EF59
 152 025c 8FBBFB42 		.ascii	"\217\273\373BO\227\267\263\303\335\335~\264\363D\207"
 152      4F97B7B3 
 152      C3DDDD7E 
 152      B4F34487 
 153 026c CBE33AE6 		.ascii	"\313\343:\346q\265\265\037\351\"\277\001\275\252iI"
 153      71B5B51F 
 153      E922BF01 
 153      BDAA6949 
 154              		.text
 155              		.section	.gnu.lto_.symbol_nodes.62410ee8,"",%progbits
 156 0000 789C558C 		.ascii	"x\234U\2141\016\3020\014\000\317vRh\273\361\001\332"
 156      310EC230 
 156      0C00CF76 
 156      5268BBF1 
 156      01DA
 157 0012 973A03ED 		.ascii	"\227:\003\355\314\023\030\370\000+33/\341\0218\221\220"
 157      CC1318F8 
 157      002B3333 
 157      2FE11138 
 157      9190
 158 0024 8897F359 		.ascii	"\210\227\363Y\362%\204\0071*.\\\337\340\360,+\310!\266"
 158      F2258407 
 158      312A2E5C 
 158      DFE0F02C 
 158      2BC821B6 
 159 0038 7A80725B 		.ascii	"z\200r[ \303v\012\311GY*Fm\230\254aN\025\252\256]D\315"
 159      20C3760A 
 159      C947592A 
 159      466D98AC 
 159      614E15AA 
 160 0050 ADAF0E9E 		.ascii	"\255\257\016\236~\325\022/\222=w\236|\370wc\346\262"
 160      7ED5122F 
 160      923D779E 
 160      7CF87763 
 160      E6B2
 161 0062 7FCEC6C4 		.ascii	"\177\316\306\304\275q\344\025\344\013;\303 Q"
 161      BD71E415 
 161      E40B3BC3 
 161      2051
 162              		.text
ARM GAS  e:\temp\ccXTXBQr.s 			page 12


 163              		.section	.gnu.lto_.refs.62410ee8,"",%progbits
 164 0000 789C05C1 		.ascii	"x\234\005\301\271\021\000 \014\004\261[\333\030\006"
 164      B9110020 
 164      0C04B15B 
 164      DB1806
 165 000f 22BE98FE 		.ascii	"\"\276\230\376\273D\012\241')etl\342\213\330\224C^*"
 165      BB440AA1 
 165      27296574 
 165      6CE28BD8 
 165      94435E2A 
 166 0023 E6346CE8 		.ascii	"\3464l\350\003\020b\000\325"
 166      03106200 
 166      D5
 167              		.text
 168              		.section	.gnu.lto_.decls.62410ee8,"",%progbits
 169 0000 789C8D55 		.ascii	"x\234\215U[L\024W\030\236\177\006vaw]\214m\214\0174"
 169      5B4C1457 
 169      189E7F06 
 169      7661775D 
 169      8C6D8C0F 
 170 0015 A546030F 		.ascii	"\245F\003\017\255\255\332\007\337\332\210A7iZ\"\226"
 170      ADADDA07 
 170      DFDA8841 
 170      37695A22 
 170      96
 171 0026 BEB4A10A 		.ascii	"\276\264\241\012S\273)a\315\356R\313K3\012Zo!\200\005"
 171      53BB2961 
 171      CDEE52CB 
 171      4B330A5A 
 171      6F218005 
 172 003a 59844859 		.ascii	"Y\204HY\303E.^@\251(\272\"\312ED.\242\002*\313e\265"
 172      C3452E5E 
 172      40A928BA 
 172      22CA4544 
 172      2EA2022A 
 173 0051 8AD64BC5 		.ascii	"\212\326K\305z-\375\347\2343;\263*-'\373\315\3549\347"
 173      7A2DFDE7 
 173      9C333BB3 
 173      2A2D27FB 
 173      CDEC39E7 
 174 0065 FBBFFF3B 		.ascii	"\373\277\377;\377\2343\023\304\001'\267\233!\034W\205"
 174      FF9C3313 
 174      C40127B7 
 174      9B211C57 
 174      85
 175 0076 7FBF454C 		.ascii	"\177\277ELb\013\302\261x\004\217\010GTs\264\351\021"
 175      620BC2B1 
 175      78048F08 
 175      475473B4 
 175      E911
 176 0088 FB118710 		.ascii	"\373\021\207\020u\210#\210\323\210VD\007\"\030q\001"
 176      75882388 
 176      D3885644 
 176      07221871 
 176      01
 177 0099 D18DE847 		.ascii	"\321\215\350G\014\"\256q\201M\216\235\311\364\207\021"
 177      0C22AE71 
ARM GAS  e:\temp\ccXTXBQr.s 			page 13


 177      814D8E9D 
 177      C9F48711 
 178 00a9 5E442462 		.ascii	"^D$b\204\345:\207\030E\264 \306X\356&\204\017\321\211"
 178      84E53A87 
 178      1845B420 
 178      C658EE26 
 178      840FD189 
 179 00bd B881B8C2 		.ascii	"\270\201\270\302\264\202\231^\007\363p\232\371\233\216"
 179      B482995E 
 179      07F3709A 
 179      F99B8E
 180 00cc 8F3AC6D3 		.ascii	"\217:\306\323\372Pr\310\015\030\007\230\226\266\311"
 180      FA5072C8 
 180      0D180798 
 180      96B6C9
 181 00db EBD6B1D8 		.ascii	"\353\326\261\330\310\377\210?2E\374K\036\206\236\226"
 181      C8FF883F 
 181      3245FC4B 
 181      1E869E96 
 182 00eb C72CA892 		.ascii	"\307,\250\222\260eI\022\317\253\023\335\031\007\012"
 182      B0654912 
 182      CFAB13DD 
 182      19070A
 183 00fa 85473CCC 		.ascii	"\205G<\3142@\020v\037\234/\0305c\367m\003D`\367\314"
 183      32401076 
 183      1F9C2F18 
 183      3563F76D 
 183      034460F7 
 184 010f E4DF9E30 		.ascii	"\344\337\2360:\313c\267\347~G\221\221\316\316\304\356"
 184      3ACB63B7 
 184      E77E4791 
 184      91CECEC4 
 184      EE
 185 0120 F809D7E4 		.ascii	"\370\011\327\344\2149y\262\252\224.E\360\020?\033*!"
 185      8C3979B2 
 185      AA942E45 
 185      F0103F1B 
 185      2A21
 186 0132 1CF60156 		.ascii	"\034\366\001V\026\252`\016^\327\004\321<9\271\351ez"
 186      16AA600E 
 186      5ED704D1 
 186      3C39B9E9 
 186      657A
 187 0144 D33649DA 		.ascii	"\3236I\332(e\245K\263V\310\323P\201\344rB\256\006\023"
 187      2865A54B 
 187      B356C8D3 
 187      5081E472 
 187      42AE0613 
 188 0158 94C1028E 		.ascii	"\224\301\002\216\376E\376\245\314\335Yz\301\010r\354"
 188      FE45FEA5 
 188      CCDD597A 
 188      C10872EC 
 189 0168 78D1A95C 		.ascii	"x\321\251\\\363\334b\311+I\336\211\343\221\331\351\305"
 189      F3DC62C9 
 189      2B49DE89 
 189      E391D9E9 
 189      C5
ARM GAS  e:\temp\ccXTXBQr.s 			page 14


 190 0179 5124BC06 		.ascii	"Q$\274\006\004%\010\377\3222\354\207\271\0301YTS\036"
 190      042508FF 
 190      D232EC87 
 190      B9183159 
 190      54531E
 191 018c 3A08FDC0 		.ascii	":\010\375\300\003\333s\034\000\275\002\001GA\272\370"
 191      03DB731C 
 191      00BD0201 
 191      4741BAF8 
 192 019c 872757CE 		.ascii	"\207'W\316?\344\277q\362\225\243|2\246\212\221\237r"
 192      3FE4BF71 
 192      F295A37C 
 192      32A68A91 
 192      9F72
 193 01ae 9F541A11 		.ascii	"\237T\032\021Q\325\201\005\201\337\001\215\242\363<"
 193      51D58105 
 193      81DF018D 
 193      A2F33C
 194 01bd A371549C 		.ascii	"\243qT\234W\0034z\324\256\306\023\004\256\011\224G\371"
 194      5703347A 
 194      D4AEC613 
 194      04AE0994 
 194      47F9
 195 01cf 62674EAB 		.ascii	"bgN\253Q\370\204\224\254\350N\336c=\226\254\370\200"
 195      51F88494 
 195      ACE84EDE 
 195      633D96AC 
 195      F880
 196 01e1 E46D3CBB 		.ascii	"\344m<\273\314\355\336,u\341S\372\224<\0268\250\026"
 196      CCEDDE2C 
 196      75E153FA 
 196      943C1638 
 196      A816
 197 01f3 EE20291C 		.ascii	"\356 )\034\034\200AT=D\212\367\233\267\273M/8\210\216"
 197      1C804154 
 197      3D448AF7 
 197      9BB7BB4D 
 197      2F38888E 
 198 0207 AFAF7D8F 		.ascii	"\257\257}\217\221\352x\016\346\010.\311\263\021ex\242"
 198      91EA780E 
 198      E6082EC9 
 198      B3116578 
 198      A2
 199 0218 52ABAAD4 		.ascii	"R\253\252\324jU\352\210J\246\253dH'l\004\"s{\357H\025"
 199      6A55EA88 
 199      4AA6AB64 
 199      48276C04 
 199      22737BEF 
 200 022e CF641EF6 		.ascii	"\317d\036\366\230\250\027\"rX\0259\254\0259BDrG\334"
 200      98A81722 
 200      72581539 
 200      AC153942 
 200      447247DC 
 201 0242 A526C145 		.ascii	"\245&\301EE\356\3726\325\032\205r\322\341\233\217\336"
 201      45EEFA36 
 201      D51A8572 
 201      D2E19B8F 
ARM GAS  e:\temp\ccXTXBQr.s 			page 15


 201      DE
 202 0253 CA358329 		.ascii	"\3125\203)j\212\035\005\015\020\245\331T\245\362\026"
 202      6A8A1D05 
 202      0D10A5D9 
 202      54A5F216 
 203 0263 F50E6E4F 		.ascii	"\365\016nO*\030\220\244\0108\212\023\277\253\211\221"
 203      2A1890A4 
 203      08388A13 
 203      BFAB8991 
 204 0273 472B3898 		.ascii	"G+8\230\377\262D\010\302\323A\030\270uql\377\246\261"
 204      FFB24408 
 204      C2D34118 
 204      B875716C 
 204      FFA6B1
 205 0286 8A10DCF3 		.ascii	"\212\020\334\363\341\006\230\004\271\177\347\350\323"
 205      E1069804 
 205      B97FE7E8 
 205      D3
 206 0293 19B42F4F 		.ascii	"\031\264/O\273\262G\3771\012\227\251\251\336\321\312"
 206      BBB247FF 
 206      310A97A9 
 206      A9DED1CA 
 207 02a3 5B411065 		.ascii	"[A\020e \351<\256\241pI\012\001\017\030\340\204\232"
 207      20E93CAE 
 207      A170490A 
 207      010F18E0 
 207      849A
 208 02b5 2CDC80D7 		.ascii	",\334\200\327-\262\353\373%\222n\016\007\213\303\341"
 208      2DB2EBFB 
 208      25926E0E 
 208      078BC3E1 
 209 02c5 23347C12 		.ascii	"#4|\022\015\243\246\314\202F\\\305q\\\005\352w>\334"
 209      0DA3A6CC 
 209      82465CC5 
 209      715C05EA 
 209      773EDC
 210 02d8 D76E2096 		.ascii	"\327n \226d\235c@<mk.-\326k\017\236lW=yM\344\344\235"
 210      649D6340 
 210      3C6D6B2E 
 210      2DD66B0F 
 210      9E6C573D 
 211 02f1 0276F4C6 		.ascii	"\002v\364\306\2077d\033\331\361y\336\371\363\210{\263"
 211      8737641B 
 211      D9F179DE 
 211      F9F3887B 
 211      B3
 212 0302 279690A0 		.ascii	"'\226\220\240^\265U\257\034\240\323\244\360\225u\367"
 212      5EB555AF 
 212      1CA0D3A4 
 212      F09575F7 
 213 0312 96082F69 		.ascii	"\226\010/i\335}\273\366\214\353\374\026hU\236\034/\032"
 213      DD7DBBF6 
 213      8CEBFC16 
 213      68559E1C 
 213      2F1A
 214 0324 E0FD6367 		.ascii	"\340\375cg\250\255\211\211\276\022\363\224\357\203\026"
 214      A8AD8989 
ARM GAS  e:\temp\ccXTXBQr.s 			page 16


 214      BE12F394 
 214      EF8316
 215 0333 E2EAACE2 		.ascii	"\342\352\254\342\312}\273\274\205\035jOv\246\311%5\361"
 215      CA7DBBBC 
 215      851D6A4F 
 215      76A6C925 
 215      35F1
 216 0345 32059A55 		.ascii	"2\005\232UO\315\212\247V\342)\373i\216K\0202\371)Mu"
 216      4FCD8AA7 
 216      56E229FB 
 216      698E4B10 
 216      32F9294D 
 217 035a FEDADF03 		.ascii	"\376\332\337\003S\346?G\362\267+\371\363O\024\347\205"
 217      53E63F47 
 217      F2B72BF9 
 217      F34F14E7 
 217      85
 218 036b B2FC059D 		.ascii	"\262\374\005\235&O\254L\20065{\233\222\275\203do\375"
 218      264FAC4C 
 218      8036357B 
 218      9B92BD83 
 218      646FFD
 219 037e F364AD5E 		.ascii	"\363d\255^\330M\263?\312\370\353\222\316\260EN3\255"
 219      D84DB33F 
 219      CAF8EB92 
 219      CEB0454E 
 219      33AD
 220 0390 A7F8A46D 		.ascii	"\247\370\244m\247\317<\337-\355u\313\307\361\235\362"
 220      A7CF3CDF 
 220      2DED75CB 
 220      C7F19DF2 
 221 03a0 1A8C0C81 		.ascii	"\032\214\014\201Nt~\236&d\361\234\334\307\353\005\230"
 221      4E747E9E 
 221      2664F19C 
 221      DCC7EB05 
 221      98
 222 03b1 8F51850D 		.ascii	"\217Q\205\015y\215aB9M\331R\337\223\037&K\244K\336\007"
 222      798D6142 
 222      394DD952 
 222      DF931F26 
 222      4BA44BDE 
 223 03c6 BDF38ED5 		.ascii	"\275\363\216\325H\031L\242\353\025\211.\"\321M$\036"
 223      48194CA2 
 223      EB15892E 
 223      22D14D24 
 223      1E
 224 03d7 6C3AFF87 		.ascii	"l:\377\207N\030\246\022\327Z+*\345w}$nela\232\335\034"
 224      4E18A612 
 224      D75A2B2A 
 224      E5777D24 
 224      6E656C61 
 225 03ee 497773FB 		.ascii	"Iws\373\220\357a\2500A\350|\217\353\316\220\016\014"
 225      90EF61A8 
 225      3041E87C 
 225      8FEBCE90 
 225      0E0C
 226 0400 515BFC47 		.ascii	"Q[\374G\214S\317\327e\\h$[\350E\034\354\305A\345\224"
ARM GAS  e:\temp\ccXTXBQr.s 			page 17


 226      8C53CFD7 
 226      655C6824 
 226      5BE8451C 
 226      ECC541E5 
 227 0415 ADDDF58B 		.ascii	"\255\335\365\213\374\216\270\204\336\372\324zF\032h"
 227      FC8EB884 
 227      DEFAD47A 
 227      461A68
 228 0424 E1B70EE7 		.ascii	"\341\267\016\347\016\004\323\332MG\024#\212\333\252"
 228      0E04D3DA 
 228      4D471423 
 228      8ADBAA
 229 0433 DDBC7FE9 		.ascii	"\335\274\177\351\0374\036\2222\266\206\300\025\224\357"
 229      1F341E92 
 229      32B686C0 
 229      1594EF
 230 0442 614B573F 		.ascii	"aKW?$=d\361\375d\361\375U]\343&\341\005]|\372\204\257"
 230      243D64F1 
 230      FD64F1FD 
 230      555DE326 
 230      E1055D7C 
 231 0459 00A888A7 		.ascii	"\000\250\210\247PT\004\006^\023\030 \002\203D\240\332"
 231      50540406 
 231      5E131820 
 231      028344A0 
 231      DA
 232 046a BDFB7D21 		.ascii	"\275\373}!K \361\333\357\336\334\301\352\357i\370F\251"
 232      4B20F1DB 
 232      EFDEDCC1 
 232      EAEF69F8 
 232      46A9
 233 047c FDD5576A 		.ascii	"\375\325Wj\177\225D_#\321\015\327\245\302`\241\214\204"
 233      7F95445F 
 233      23D10DD7 
 233      A5C260A1 
 233      8C84
 234 048e F37DDBEB 		.ascii	"\363}\333\353\363\005\345\325\2005ZU\220\263\001\337"
 234      F305E5D5 
 234      80355A55 
 234      90B301DF 
 235 049e 445ED4B8 		.ascii	"D^\324\270\256\326\010-\321\267\303\353\265\031zsm\036"
 235      AED6082D 
 235      D1B7C3EB 
 235      B5197A73 
 235      6D1E
 236 04b0 3F69DB61 		.ascii	"?i\333a\322~WeEu5\303\344\325F\356H\226J\237\325\206"
 236      D27E5765 
 236      457535C3 
 236      E4D546EE 
 236      48964A9F 
 237 04c6 6AC9E702 		.ascii	"j\311\347\002>\302#\214<B\310\025\256\263eF-\271%\200"
 237      3EC2238C 
 237      3C42C815 
 237      AEB36546 
 237      2DB92580 
 238 04da 3CCAC8A3 		.ascii	"<\312\310\243\204\274\357bCs\300\347\275)\200<\306\310"
 238      84BCEF62 
ARM GAS  e:\temp\ccXTXBQr.s 			page 18


 238      4373C0E7 
 238      BD29803C 
 238      C6C8
 239 04ec 63849C9F 		.ascii	"c\204\234\237[\372\314\254%w\006x\3661\262\217\220\237"
 239      5BFACCAC 
 239      25770678 
 239      F631B28F 
 239      909F
 240 04fe DFEBED0F 		.ascii	"\337\353\355\017\321\222\257\004\220o0\262|\017Y\376"
 240      D192AF04 
 240      906F30B2 
 240      7C0F59FE 
 241 050e F99711D1 		.ascii	"\371\227\021\321\013\027r\346\025\261\226\004KL\202"
 241      0B1772E6 
 241      15B19604 
 241      4B4C82
 242 051d 65517482 		.ascii	"eQt\202%n\345\274\345b\212h_\355\024\223\022\342l\251"
 242      256EE5BC 
 242      E5628A68 
 242      5FED1493 
 242      12E26CA9 
 243 0531 F644F1EB 		.ascii	"\366D\361\353\3308[\364\307_\253\254\005\337kc,)V\347"
 243      D8385BF4 
 243      C75FABAC 
 243      05DF6B63 
 243      2C2956E7 
 244 0545 346212B5 		.ascii	"4b\022\2651qN\333\272\331j7f\375\322d[\342\017+E\207"
 244      31714EDB 
 244      BAD96A37 
 244      66FDD264 
 244      5BE20F2B 
 245 055b E83447A7 		.ascii	"\3504G\247YR\234q\2423^Lt\332\354\246\3044\253\303\276"
 245      59529C71 
 245      A2335E4C 
 245      74DAECA6 
 245      C434ABC3 
 246 0570 3A29C92E 		.ascii	":)\311.:\034\357\2759\315\207\211i\316\264u\242\003"
 246      3A1CEFBD 
 246      39CD8789 
 246      69CEB475 
 246      A203
 247 0582 7D05A75A 		.ascii	"}\005\247ZS\234K\336\235\202\027\235\366\231u\015\262"
 247      539C4BDE 
 247      9D82179D 
 247      F699750D 
 247      B2
 248 0593 662A3962 		.ascii	"f*9b\355V\233\335\352L3\221\201eV\307\3525\311\242\211"
 248      ED569BDD 
 248      EA4C3391 
 248      816556C7 
 248      EA35C9A2 
 249 05a8 19733851 		.ascii	"\031s8Q!L\351$\307a7\325\021\365\277+M\210\215_\205"
 249      214CE924 
 249      C76137D5 
 249      11F5BF2B 
 249      4D888D5F 
 250 05bd 39DEF207 		.ascii	"9\336\362\007\256LZ\232\372\235%%I\374I'\273[\274H\235"
ARM GAS  e:\temp\ccXTXBQr.s 			page 19


 250      AE4C5A9A 
 250      FA9D2525 
 250      49FC4927 
 250      BB5BBC48 
 251 05d2 FACAAE4C 		.ascii	"\372\312\256L\315\366\217}\361\243h\217I\266\255\217"
 251      CDF68F7D 
 251      F1A3688F 
 251      49B6AD8F 
 252 05e2 B6A5A638 		.ascii	"\266\245\2468\203\355\342\332\305\213\376\005\362\325"
 252      83EDE2DA 
 252      C58BFE05 
 252      F2D5
 253 05f0 45F2     		.ascii	"E\362"
 254              		.text
 255              		.section	.gnu.lto_.symtab.62410ee8,"",%progbits
 256 0000 4850495F 		.ascii	"HPI_IF_I2CInit\000"
 256      49465F49 
 256      3243496E 
 256      697400
 257 000f 00       		.ascii	"\000"
 258 0010 00       		.ascii	"\000"
 259 0011 00       		.ascii	"\000"
 260 0012 00000000 		.ascii	"\000\000\000\000\000\000\000\000"
 260      00000000 
 261 001a B2000000 		.ascii	"\262\000\000\000"
 262 001e 4850495F 		.ascii	"HPI_IF_state\000"
 262      49465F73 
 262      74617465 
 262      00
 263 002b 00       		.ascii	"\000"
 264 002c 04       		.ascii	"\004"
 265 002d 00       		.ascii	"\000"
 266 002e 01000000 		.ascii	"\001\000\000\000\000\000\000\000"
 266      00000000 
 267 0036 CF000000 		.ascii	"\317\000\000\000"
 268 003a 4850495F 		.ascii	"HPI_IF_I2CStop\000"
 268      49465F49 
 268      32435374 
 268      6F7000
 269 0049 00       		.ascii	"\000"
 270 004a 00       		.ascii	"\000"
 271 004b 00       		.ascii	"\000"
 272 004c 00000000 		.ascii	"\000\000\000\000\000\000\000\000"
 272      00000000 
 273 0054 B4000000 		.ascii	"\264\000\000\000"
 274 0058 4850495F 		.ascii	"HPI_IF_I2CFwBlockReset\000"
 274      49465F49 
 274      32434677 
 274      426C6F63 
 274      6B526573 
 275 006f 00       		.ascii	"\000"
 276 0070 00       		.ascii	"\000"
 277 0071 00       		.ascii	"\000"
 278 0072 00000000 		.ascii	"\000\000\000\000\000\000\000\000"
 278      00000000 
 279 007a B6000000 		.ascii	"\266\000\000\000"
 280 007e 4850495F 		.ascii	"HPI_IF_I2C_ISR\000"
ARM GAS  e:\temp\ccXTXBQr.s 			page 20


 280      49465F49 
 280      32435F49 
 280      535200
 281 008d 00       		.ascii	"\000"
 282 008e 02       		.ascii	"\002"
 283 008f 00       		.ascii	"\000"
 284 0090 00000000 		.ascii	"\000\000\000\000\000\000\000\000"
 284      00000000 
 285 0098 AF000000 		.ascii	"\257\000\000\000"
 286 009c 4850495F 		.ascii	"HPI_IF_slStatus\000"
 286      49465F73 
 286      6C537461 
 286      74757300 
 287 00ac 00       		.ascii	"\000"
 288 00ad 02       		.ascii	"\002"
 289 00ae 00       		.ascii	"\000"
 290 00af 00000000 		.ascii	"\000\000\000\000\000\000\000\000"
 290      00000000 
 291 00b7 D1000000 		.ascii	"\321\000\000\000"
 292 00bb 4850495F 		.ascii	"HPI_IF_slRdBufIndex\000"
 292      49465F73 
 292      6C526442 
 292      7566496E 
 292      64657800 
 293 00cf 00       		.ascii	"\000"
 294 00d0 02       		.ascii	"\002"
 295 00d1 00       		.ascii	"\000"
 296 00d2 00000000 		.ascii	"\000\000\000\000\000\000\000\000"
 296      00000000 
 297 00da D9000000 		.ascii	"\331\000\000\000"
 298 00de 4850495F 		.ascii	"HPI_IF_slWrBufIndex\000"
 298      49465F73 
 298      6C577242 
 298      7566496E 
 298      64657800 
 299 00f2 00       		.ascii	"\000"
 300 00f3 02       		.ascii	"\002"
 301 00f4 00       		.ascii	"\000"
 302 00f5 00000000 		.ascii	"\000\000\000\000\000\000\000\000"
 302      00000000 
 303 00fd DB000000 		.ascii	"\333\000\000\000"
 304 0101 4850495F 		.ascii	"HPI_IF_slOverFlowCount\000"
 304      49465F73 
 304      6C4F7665 
 304      72466C6F 
 304      77436F75 
 305 0118 00       		.ascii	"\000"
 306 0119 02       		.ascii	"\002"
 307 011a 00       		.ascii	"\000"
 308 011b 00000000 		.ascii	"\000\000\000\000\000\000\000\000"
 308      00000000 
 309 0123 DD000000 		.ascii	"\335\000\000\000"
 310 0127 4379496E 		.ascii	"CyIntSetVector\000"
 310      74536574 
 310      56656374 
 310      6F7200
 311 0136 00       		.ascii	"\000"
ARM GAS  e:\temp\ccXTXBQr.s 			page 21


 312 0137 02       		.ascii	"\002"
 313 0138 00       		.ascii	"\000"
 314 0139 00000000 		.ascii	"\000\000\000\000\000\000\000\000"
 314      00000000 
 315 0141 C3000000 		.ascii	"\303\000\000\000"
 316 0145 4379496E 		.ascii	"CyIntSetPriority\000"
 316      74536574 
 316      5072696F 
 316      72697479 
 316      00
 317 0156 00       		.ascii	"\000"
 318 0157 02       		.ascii	"\002"
 319 0158 00       		.ascii	"\000"
 320 0159 00000000 		.ascii	"\000\000\000\000\000\000\000\000"
 320      00000000 
 321 0161 C8000000 		.ascii	"\310\000\000\000"
 322 0165 4379496E 		.ascii	"CyIntDisable\000"
 322      74446973 
 322      61626C65 
 322      00
 323 0172 00       		.ascii	"\000"
 324 0173 02       		.ascii	"\002"
 325 0174 00       		.ascii	"\000"
 326 0175 00000000 		.ascii	"\000\000\000\000\000\000\000\000"
 326      00000000 
 327 017d CC000000 		.ascii	"\314\000\000\000"
 328              		.text
 329              		.section	.gnu.lto_.opts,"",%progbits
 330 0000 272D666D 		.ascii	"'-fmath-errno' '-fsigned-zeros' '-ftrapping-math' '"
 330      6174682D 
 330      6572726E 
 330      6F272027 
 330      2D667369 
 331 0033 2D666E6F 		.ascii	"-fno-trapv' '-fno-openmp' '-fno-openacc' '-mcpu=cor"
 331      2D747261 
 331      70762720 
 331      272D666E 
 331      6F2D6F70 
 332 0066 7465782D 		.ascii	"tex-m0' '-mthumb' '-g' '-Os' '-Werror' '-ffunction-"
 332      6D302720 
 332      272D6D74 
 332      68756D62 
 332      2720272D 
 333 0099 73656374 		.ascii	"sections' '-ffat-lto-objects' '-finline-functions' "
 333      696F6E73 
 333      2720272D 
 333      66666174 
 333      2D6C746F 
 334 00cc 272D666C 		.ascii	"'-flto' '-fno-strict-aliasing'\000"
 334      746F2720 
 334      272D666E 
 334      6F2D7374 
 334      72696374 
 335              		.text
 336              		.cfi_sections	.debug_frame
 337              		.section	.text.HPI_IF_I2CInit,"ax",%progbits
 338              		.align	1
ARM GAS  e:\temp\ccXTXBQr.s 			page 22


 339              		.global	HPI_IF_I2CInit
 340              		.code	16
 341              		.thumb_func
 342              		.type	HPI_IF_I2CInit, %function
 343              	HPI_IF_I2CInit:
 344              	.LFB0:
 345              		.file 1 "Generated_Source\\PSoC4\\HPI_IF_I2C.c"
   1:Generated_Source\PSoC4/HPI_IF_I2C.c **** /***************************************************************************//**
   2:Generated_Source\PSoC4/HPI_IF_I2C.c **** * \file HPI_IF_I2C.c
   3:Generated_Source\PSoC4/HPI_IF_I2C.c **** * \version 4.0
   4:Generated_Source\PSoC4/HPI_IF_I2C.c **** *
   5:Generated_Source\PSoC4/HPI_IF_I2C.c **** * \brief
   6:Generated_Source\PSoC4/HPI_IF_I2C.c **** *  This file provides the source code to the API for the SCB Component in
   7:Generated_Source\PSoC4/HPI_IF_I2C.c **** *  I2C mode.
   8:Generated_Source\PSoC4/HPI_IF_I2C.c **** *
   9:Generated_Source\PSoC4/HPI_IF_I2C.c **** * Note:
  10:Generated_Source\PSoC4/HPI_IF_I2C.c **** *
  11:Generated_Source\PSoC4/HPI_IF_I2C.c **** *******************************************************************************
  12:Generated_Source\PSoC4/HPI_IF_I2C.c **** * \copyright
  13:Generated_Source\PSoC4/HPI_IF_I2C.c **** * Copyright 2013-2017, Cypress Semiconductor Corporation.  All rights reserved.
  14:Generated_Source\PSoC4/HPI_IF_I2C.c **** * You may use this file only in accordance with the license, terms, conditions,
  15:Generated_Source\PSoC4/HPI_IF_I2C.c **** * disclaimers, and limitations in the end user license agreement accompanying
  16:Generated_Source\PSoC4/HPI_IF_I2C.c **** * the software package with which this file was provided.
  17:Generated_Source\PSoC4/HPI_IF_I2C.c **** *******************************************************************************/
  18:Generated_Source\PSoC4/HPI_IF_I2C.c **** 
  19:Generated_Source\PSoC4/HPI_IF_I2C.c **** #include "HPI_IF_PVT.h"
  20:Generated_Source\PSoC4/HPI_IF_I2C.c **** #include "HPI_IF_I2C_PVT.h"
  21:Generated_Source\PSoC4/HPI_IF_I2C.c **** 
  22:Generated_Source\PSoC4/HPI_IF_I2C.c **** 
  23:Generated_Source\PSoC4/HPI_IF_I2C.c **** /***************************************
  24:Generated_Source\PSoC4/HPI_IF_I2C.c **** *      I2C Private Vars
  25:Generated_Source\PSoC4/HPI_IF_I2C.c **** ***************************************/
  26:Generated_Source\PSoC4/HPI_IF_I2C.c **** 
  27:Generated_Source\PSoC4/HPI_IF_I2C.c **** volatile uint8 HPI_IF_state;  /* Current state of I2C FSM */
  28:Generated_Source\PSoC4/HPI_IF_I2C.c **** 
  29:Generated_Source\PSoC4/HPI_IF_I2C.c **** #if(HPI_IF_SCB_MODE_UNCONFIG_CONST_CFG)
  30:Generated_Source\PSoC4/HPI_IF_I2C.c **** 
  31:Generated_Source\PSoC4/HPI_IF_I2C.c ****     /***************************************
  32:Generated_Source\PSoC4/HPI_IF_I2C.c ****     *  Configuration Structure Initialization
  33:Generated_Source\PSoC4/HPI_IF_I2C.c ****     ***************************************/
  34:Generated_Source\PSoC4/HPI_IF_I2C.c **** 
  35:Generated_Source\PSoC4/HPI_IF_I2C.c ****     /* Constant configuration of I2C */
  36:Generated_Source\PSoC4/HPI_IF_I2C.c ****     const HPI_IF_I2C_INIT_STRUCT HPI_IF_configI2C =
  37:Generated_Source\PSoC4/HPI_IF_I2C.c ****     {
  38:Generated_Source\PSoC4/HPI_IF_I2C.c ****         HPI_IF_I2C_MODE,
  39:Generated_Source\PSoC4/HPI_IF_I2C.c ****         HPI_IF_I2C_OVS_FACTOR_LOW,
  40:Generated_Source\PSoC4/HPI_IF_I2C.c ****         HPI_IF_I2C_OVS_FACTOR_HIGH,
  41:Generated_Source\PSoC4/HPI_IF_I2C.c ****         HPI_IF_I2C_MEDIAN_FILTER_ENABLE,
  42:Generated_Source\PSoC4/HPI_IF_I2C.c ****         HPI_IF_I2C_SLAVE_ADDRESS,
  43:Generated_Source\PSoC4/HPI_IF_I2C.c ****         HPI_IF_I2C_SLAVE_ADDRESS_MASK,
  44:Generated_Source\PSoC4/HPI_IF_I2C.c ****         HPI_IF_I2C_ACCEPT_ADDRESS,
  45:Generated_Source\PSoC4/HPI_IF_I2C.c ****         HPI_IF_I2C_WAKE_ENABLE,
  46:Generated_Source\PSoC4/HPI_IF_I2C.c ****         HPI_IF_I2C_BYTE_MODE_ENABLE,
  47:Generated_Source\PSoC4/HPI_IF_I2C.c ****         HPI_IF_I2C_DATA_RATE,
  48:Generated_Source\PSoC4/HPI_IF_I2C.c ****         HPI_IF_I2C_ACCEPT_GENERAL_CALL,
  49:Generated_Source\PSoC4/HPI_IF_I2C.c ****     };
  50:Generated_Source\PSoC4/HPI_IF_I2C.c **** 
ARM GAS  e:\temp\ccXTXBQr.s 			page 23


  51:Generated_Source\PSoC4/HPI_IF_I2C.c ****     /*******************************************************************************
  52:Generated_Source\PSoC4/HPI_IF_I2C.c ****     * Function Name: HPI_IF_I2CInit
  53:Generated_Source\PSoC4/HPI_IF_I2C.c ****     ****************************************************************************//**
  54:Generated_Source\PSoC4/HPI_IF_I2C.c ****     *
  55:Generated_Source\PSoC4/HPI_IF_I2C.c ****     *
  56:Generated_Source\PSoC4/HPI_IF_I2C.c ****     *  Configures the HPI_IF for I2C operation.
  57:Generated_Source\PSoC4/HPI_IF_I2C.c ****     *
  58:Generated_Source\PSoC4/HPI_IF_I2C.c ****     *  This function is intended specifically to be used when the HPI_IF 
  59:Generated_Source\PSoC4/HPI_IF_I2C.c ****     *  configuration is set to “Unconfigured HPI_IF” in the customizer. 
  60:Generated_Source\PSoC4/HPI_IF_I2C.c ****     *  After initializing the HPI_IF in I2C mode using this function, 
  61:Generated_Source\PSoC4/HPI_IF_I2C.c ****     *  the component can be enabled using the HPI_IF_Start() or 
  62:Generated_Source\PSoC4/HPI_IF_I2C.c ****     * HPI_IF_Enable() function.
  63:Generated_Source\PSoC4/HPI_IF_I2C.c ****     *  This function uses a pointer to a structure that provides the configuration 
  64:Generated_Source\PSoC4/HPI_IF_I2C.c ****     *  settings. This structure contains the same information that would otherwise 
  65:Generated_Source\PSoC4/HPI_IF_I2C.c ****     *  be provided by the customizer settings.
  66:Generated_Source\PSoC4/HPI_IF_I2C.c ****     *
  67:Generated_Source\PSoC4/HPI_IF_I2C.c ****     *  \param config: pointer to a structure that contains the following list of 
  68:Generated_Source\PSoC4/HPI_IF_I2C.c ****     *   fields. These fields match the selections available in the customizer. 
  69:Generated_Source\PSoC4/HPI_IF_I2C.c ****     *   Refer to the customizer for further description of the settings.
  70:Generated_Source\PSoC4/HPI_IF_I2C.c ****     *
  71:Generated_Source\PSoC4/HPI_IF_I2C.c ****     *******************************************************************************/
  72:Generated_Source\PSoC4/HPI_IF_I2C.c ****     void HPI_IF_I2CInit(const HPI_IF_I2C_INIT_STRUCT *config)
  73:Generated_Source\PSoC4/HPI_IF_I2C.c ****     {
  74:Generated_Source\PSoC4/HPI_IF_I2C.c ****         uint32 medianFilter;
  75:Generated_Source\PSoC4/HPI_IF_I2C.c ****         uint32 locEnableWake;
  76:Generated_Source\PSoC4/HPI_IF_I2C.c **** 
  77:Generated_Source\PSoC4/HPI_IF_I2C.c ****         if(NULL == config)
  78:Generated_Source\PSoC4/HPI_IF_I2C.c ****         {
  79:Generated_Source\PSoC4/HPI_IF_I2C.c ****             CYASSERT(0u != 0u); /* Halt execution due to bad function parameter */
  80:Generated_Source\PSoC4/HPI_IF_I2C.c ****         }
  81:Generated_Source\PSoC4/HPI_IF_I2C.c ****         else
  82:Generated_Source\PSoC4/HPI_IF_I2C.c ****         {
  83:Generated_Source\PSoC4/HPI_IF_I2C.c ****             /* Configure pins */
  84:Generated_Source\PSoC4/HPI_IF_I2C.c ****             HPI_IF_SetPins(HPI_IF_SCB_MODE_I2C, HPI_IF_DUMMY_PARAM,
  85:Generated_Source\PSoC4/HPI_IF_I2C.c ****                                      HPI_IF_DUMMY_PARAM);
  86:Generated_Source\PSoC4/HPI_IF_I2C.c **** 
  87:Generated_Source\PSoC4/HPI_IF_I2C.c ****             /* Store internal configuration */
  88:Generated_Source\PSoC4/HPI_IF_I2C.c ****             HPI_IF_scbMode       = (uint8) HPI_IF_SCB_MODE_I2C;
  89:Generated_Source\PSoC4/HPI_IF_I2C.c ****             HPI_IF_scbEnableWake = (uint8) config->enableWake;
  90:Generated_Source\PSoC4/HPI_IF_I2C.c ****             HPI_IF_scbEnableIntr = (uint8) HPI_IF_SCB_IRQ_INTERNAL;
  91:Generated_Source\PSoC4/HPI_IF_I2C.c **** 
  92:Generated_Source\PSoC4/HPI_IF_I2C.c ****             HPI_IF_mode          = (uint8) config->mode;
  93:Generated_Source\PSoC4/HPI_IF_I2C.c ****             HPI_IF_acceptAddr    = (uint8) config->acceptAddr;
  94:Generated_Source\PSoC4/HPI_IF_I2C.c **** 
  95:Generated_Source\PSoC4/HPI_IF_I2C.c ****         #if (HPI_IF_CY_SCBIP_V0)
  96:Generated_Source\PSoC4/HPI_IF_I2C.c ****             /* Adjust SDA filter settings. Ticket ID#150521 */
  97:Generated_Source\PSoC4/HPI_IF_I2C.c ****             HPI_IF_SET_I2C_CFG_SDA_FILT_TRIM(HPI_IF_EC_AM_I2C_CFG_SDA_FILT_TRIM);
  98:Generated_Source\PSoC4/HPI_IF_I2C.c ****         #endif /* (HPI_IF_CY_SCBIP_V0) */
  99:Generated_Source\PSoC4/HPI_IF_I2C.c **** 
 100:Generated_Source\PSoC4/HPI_IF_I2C.c ****             /* Adjust AF and DF filter settings. Ticket ID#176179 */
 101:Generated_Source\PSoC4/HPI_IF_I2C.c ****             if (((HPI_IF_I2C_MODE_SLAVE != config->mode) &&
 102:Generated_Source\PSoC4/HPI_IF_I2C.c ****                  (config->dataRate <= HPI_IF_I2C_DATA_RATE_FS_MODE_MAX)) ||
 103:Generated_Source\PSoC4/HPI_IF_I2C.c ****                  (HPI_IF_I2C_MODE_SLAVE == config->mode))
 104:Generated_Source\PSoC4/HPI_IF_I2C.c ****             {
 105:Generated_Source\PSoC4/HPI_IF_I2C.c ****                 /* AF = 1, DF = 0 */
 106:Generated_Source\PSoC4/HPI_IF_I2C.c ****                 HPI_IF_I2C_CFG_ANALOG_FITER_ENABLE;
 107:Generated_Source\PSoC4/HPI_IF_I2C.c ****                 medianFilter = HPI_IF_DIGITAL_FILTER_DISABLE;
ARM GAS  e:\temp\ccXTXBQr.s 			page 24


 108:Generated_Source\PSoC4/HPI_IF_I2C.c ****             }
 109:Generated_Source\PSoC4/HPI_IF_I2C.c ****             else
 110:Generated_Source\PSoC4/HPI_IF_I2C.c ****             {
 111:Generated_Source\PSoC4/HPI_IF_I2C.c ****                 /* AF = 0, DF = 1 */
 112:Generated_Source\PSoC4/HPI_IF_I2C.c ****                 HPI_IF_I2C_CFG_ANALOG_FITER_DISABLE;
 113:Generated_Source\PSoC4/HPI_IF_I2C.c ****                 medianFilter = HPI_IF_DIGITAL_FILTER_ENABLE;
 114:Generated_Source\PSoC4/HPI_IF_I2C.c ****             }
 115:Generated_Source\PSoC4/HPI_IF_I2C.c **** 
 116:Generated_Source\PSoC4/HPI_IF_I2C.c ****         #if (!HPI_IF_CY_SCBIP_V0)
 117:Generated_Source\PSoC4/HPI_IF_I2C.c ****             locEnableWake = (HPI_IF_I2C_MULTI_MASTER_SLAVE) ? (0u) : (config->enableWake);
 118:Generated_Source\PSoC4/HPI_IF_I2C.c ****         #else
 119:Generated_Source\PSoC4/HPI_IF_I2C.c ****             locEnableWake = config->enableWake;
 120:Generated_Source\PSoC4/HPI_IF_I2C.c ****         #endif /* (!HPI_IF_CY_SCBIP_V0) */
 121:Generated_Source\PSoC4/HPI_IF_I2C.c **** 
 122:Generated_Source\PSoC4/HPI_IF_I2C.c ****             /* Configure I2C interface */
 123:Generated_Source\PSoC4/HPI_IF_I2C.c ****             HPI_IF_CTRL_REG     = HPI_IF_GET_CTRL_BYTE_MODE  (config->enableByteMode) |
 124:Generated_Source\PSoC4/HPI_IF_I2C.c ****                                             HPI_IF_GET_CTRL_ADDR_ACCEPT(config->acceptAddr)     |
 125:Generated_Source\PSoC4/HPI_IF_I2C.c ****                                             HPI_IF_GET_CTRL_EC_AM_MODE (locEnableWake);
 126:Generated_Source\PSoC4/HPI_IF_I2C.c **** 
 127:Generated_Source\PSoC4/HPI_IF_I2C.c ****             HPI_IF_I2C_CTRL_REG = HPI_IF_GET_I2C_CTRL_HIGH_PHASE_OVS(config->oversampleHigh) |
 128:Generated_Source\PSoC4/HPI_IF_I2C.c ****                     HPI_IF_GET_I2C_CTRL_LOW_PHASE_OVS (config->oversampleLow)                      
 129:Generated_Source\PSoC4/HPI_IF_I2C.c ****                     HPI_IF_GET_I2C_CTRL_S_GENERAL_IGNORE((uint32)(0u == config->acceptGeneralAddr))
 130:Generated_Source\PSoC4/HPI_IF_I2C.c ****                     HPI_IF_GET_I2C_CTRL_SL_MSTR_MODE  (config->mode);
 131:Generated_Source\PSoC4/HPI_IF_I2C.c **** 
 132:Generated_Source\PSoC4/HPI_IF_I2C.c ****             /* Configure RX direction */
 133:Generated_Source\PSoC4/HPI_IF_I2C.c ****             HPI_IF_RX_CTRL_REG      = HPI_IF_GET_RX_CTRL_MEDIAN(medianFilter) |
 134:Generated_Source\PSoC4/HPI_IF_I2C.c ****                                                 HPI_IF_I2C_RX_CTRL;
 135:Generated_Source\PSoC4/HPI_IF_I2C.c ****             HPI_IF_RX_FIFO_CTRL_REG = HPI_IF_CLEAR_REG;
 136:Generated_Source\PSoC4/HPI_IF_I2C.c **** 
 137:Generated_Source\PSoC4/HPI_IF_I2C.c ****             /* Set default address and mask */
 138:Generated_Source\PSoC4/HPI_IF_I2C.c ****             HPI_IF_RX_MATCH_REG    = ((HPI_IF_I2C_SLAVE) ?
 139:Generated_Source\PSoC4/HPI_IF_I2C.c ****                                                 (HPI_IF_GET_I2C_8BIT_ADDRESS(config->slaveAddr) |
 140:Generated_Source\PSoC4/HPI_IF_I2C.c ****                                                  HPI_IF_GET_RX_MATCH_MASK(config->slaveAddrMask)) :
 141:Generated_Source\PSoC4/HPI_IF_I2C.c ****                                                 (HPI_IF_CLEAR_REG));
 142:Generated_Source\PSoC4/HPI_IF_I2C.c **** 
 143:Generated_Source\PSoC4/HPI_IF_I2C.c **** 
 144:Generated_Source\PSoC4/HPI_IF_I2C.c ****             /* Configure TX direction */
 145:Generated_Source\PSoC4/HPI_IF_I2C.c ****             HPI_IF_TX_CTRL_REG      = HPI_IF_I2C_TX_CTRL;
 146:Generated_Source\PSoC4/HPI_IF_I2C.c ****             HPI_IF_TX_FIFO_CTRL_REG = HPI_IF_CLEAR_REG;
 147:Generated_Source\PSoC4/HPI_IF_I2C.c **** 
 148:Generated_Source\PSoC4/HPI_IF_I2C.c ****             /* Configure interrupt with I2C handler but do not enable it */
 149:Generated_Source\PSoC4/HPI_IF_I2C.c ****             CyIntDisable    (HPI_IF_ISR_NUMBER);
 150:Generated_Source\PSoC4/HPI_IF_I2C.c ****             CyIntSetPriority(HPI_IF_ISR_NUMBER, HPI_IF_ISR_PRIORITY);
 151:Generated_Source\PSoC4/HPI_IF_I2C.c ****             (void) CyIntSetVector(HPI_IF_ISR_NUMBER, &HPI_IF_I2C_ISR);
 152:Generated_Source\PSoC4/HPI_IF_I2C.c **** 
 153:Generated_Source\PSoC4/HPI_IF_I2C.c ****             /* Configure interrupt sources */
 154:Generated_Source\PSoC4/HPI_IF_I2C.c ****         #if(!HPI_IF_CY_SCBIP_V1)
 155:Generated_Source\PSoC4/HPI_IF_I2C.c ****             HPI_IF_INTR_SPI_EC_MASK_REG = HPI_IF_NO_INTR_SOURCES;
 156:Generated_Source\PSoC4/HPI_IF_I2C.c ****         #endif /* (!HPI_IF_CY_SCBIP_V1) */
 157:Generated_Source\PSoC4/HPI_IF_I2C.c **** 
 158:Generated_Source\PSoC4/HPI_IF_I2C.c ****             HPI_IF_INTR_I2C_EC_MASK_REG = HPI_IF_NO_INTR_SOURCES;
 159:Generated_Source\PSoC4/HPI_IF_I2C.c ****             HPI_IF_INTR_RX_MASK_REG     = HPI_IF_NO_INTR_SOURCES;
 160:Generated_Source\PSoC4/HPI_IF_I2C.c ****             HPI_IF_INTR_TX_MASK_REG     = HPI_IF_NO_INTR_SOURCES;
 161:Generated_Source\PSoC4/HPI_IF_I2C.c **** 
 162:Generated_Source\PSoC4/HPI_IF_I2C.c ****             HPI_IF_INTR_SLAVE_MASK_REG  = ((HPI_IF_I2C_SLAVE) ?
 163:Generated_Source\PSoC4/HPI_IF_I2C.c ****                             (HPI_IF_GET_INTR_SLAVE_I2C_GENERAL(config->acceptGeneralAddr) |
 164:Generated_Source\PSoC4/HPI_IF_I2C.c ****                              HPI_IF_I2C_INTR_SLAVE_MASK) : (HPI_IF_CLEAR_REG));
ARM GAS  e:\temp\ccXTXBQr.s 			page 25


 165:Generated_Source\PSoC4/HPI_IF_I2C.c **** 
 166:Generated_Source\PSoC4/HPI_IF_I2C.c ****             HPI_IF_INTR_MASTER_MASK_REG = HPI_IF_NO_INTR_SOURCES;
 167:Generated_Source\PSoC4/HPI_IF_I2C.c **** 
 168:Generated_Source\PSoC4/HPI_IF_I2C.c ****             /* Configure global variables */
 169:Generated_Source\PSoC4/HPI_IF_I2C.c ****             HPI_IF_state = HPI_IF_I2C_FSM_IDLE;
 170:Generated_Source\PSoC4/HPI_IF_I2C.c **** 
 171:Generated_Source\PSoC4/HPI_IF_I2C.c ****             /* Internal slave variables */
 172:Generated_Source\PSoC4/HPI_IF_I2C.c ****             HPI_IF_slStatus        = 0u;
 173:Generated_Source\PSoC4/HPI_IF_I2C.c ****             HPI_IF_slRdBufIndex    = 0u;
 174:Generated_Source\PSoC4/HPI_IF_I2C.c ****             HPI_IF_slWrBufIndex    = 0u;
 175:Generated_Source\PSoC4/HPI_IF_I2C.c ****             HPI_IF_slOverFlowCount = 0u;
 176:Generated_Source\PSoC4/HPI_IF_I2C.c **** 
 177:Generated_Source\PSoC4/HPI_IF_I2C.c ****             /* Internal master variables */
 178:Generated_Source\PSoC4/HPI_IF_I2C.c ****             HPI_IF_mstrStatus     = 0u;
 179:Generated_Source\PSoC4/HPI_IF_I2C.c ****             HPI_IF_mstrRdBufIndex = 0u;
 180:Generated_Source\PSoC4/HPI_IF_I2C.c ****             HPI_IF_mstrWrBufIndex = 0u;
 181:Generated_Source\PSoC4/HPI_IF_I2C.c ****         }
 182:Generated_Source\PSoC4/HPI_IF_I2C.c ****     }
 183:Generated_Source\PSoC4/HPI_IF_I2C.c **** 
 184:Generated_Source\PSoC4/HPI_IF_I2C.c **** #else
 185:Generated_Source\PSoC4/HPI_IF_I2C.c **** 
 186:Generated_Source\PSoC4/HPI_IF_I2C.c ****     /*******************************************************************************
 187:Generated_Source\PSoC4/HPI_IF_I2C.c ****     * Function Name: HPI_IF_I2CInit
 188:Generated_Source\PSoC4/HPI_IF_I2C.c ****     ****************************************************************************//**
 189:Generated_Source\PSoC4/HPI_IF_I2C.c ****     *
 190:Generated_Source\PSoC4/HPI_IF_I2C.c ****     *  Configures the SCB for the I2C operation.
 191:Generated_Source\PSoC4/HPI_IF_I2C.c ****     *
 192:Generated_Source\PSoC4/HPI_IF_I2C.c ****     *******************************************************************************/
 193:Generated_Source\PSoC4/HPI_IF_I2C.c ****     void HPI_IF_I2CInit(void)
 194:Generated_Source\PSoC4/HPI_IF_I2C.c ****     {
 346              		.loc 1 194 0
 347              		.cfi_startproc
 348              		@ args = 0, pretend = 0, frame = 0
 349              		@ frame_needed = 0, uses_anonymous_args = 0
 350 0000 10B5     		push	{r4, lr}
 351              		.cfi_def_cfa_offset 8
 352              		.cfi_offset 4, -8
 353              		.cfi_offset 14, -4
 195:Generated_Source\PSoC4/HPI_IF_I2C.c ****     #if(HPI_IF_CY_SCBIP_V0)
 196:Generated_Source\PSoC4/HPI_IF_I2C.c ****         /* Adjust SDA filter settings. Ticket ID#150521 */
 197:Generated_Source\PSoC4/HPI_IF_I2C.c ****         HPI_IF_SET_I2C_CFG_SDA_FILT_TRIM(HPI_IF_EC_AM_I2C_CFG_SDA_FILT_TRIM);
 198:Generated_Source\PSoC4/HPI_IF_I2C.c ****     #endif /* (HPI_IF_CY_SCBIP_V0) */
 199:Generated_Source\PSoC4/HPI_IF_I2C.c **** 
 200:Generated_Source\PSoC4/HPI_IF_I2C.c ****         /* Adjust AF and DF filter settings. Ticket ID#176179 */
 201:Generated_Source\PSoC4/HPI_IF_I2C.c ****         HPI_IF_I2C_CFG_ANALOG_FITER_ENABLE_ADJ;
 202:Generated_Source\PSoC4/HPI_IF_I2C.c **** 
 203:Generated_Source\PSoC4/HPI_IF_I2C.c ****         /* Configure I2C interface */
 204:Generated_Source\PSoC4/HPI_IF_I2C.c ****         HPI_IF_CTRL_REG     = HPI_IF_I2C_DEFAULT_CTRL;
 354              		.loc 1 204 0
 355 0002 0024     		movs	r4, #0
 356 0004 1B4B     		ldr	r3, .L2
 205:Generated_Source\PSoC4/HPI_IF_I2C.c ****         HPI_IF_I2C_CTRL_REG = HPI_IF_I2C_DEFAULT_I2C_CTRL;
 357              		.loc 1 205 0
 358 0006 1C4A     		ldr	r2, .L2+4
 204:Generated_Source\PSoC4/HPI_IF_I2C.c ****         HPI_IF_I2C_CTRL_REG = HPI_IF_I2C_DEFAULT_I2C_CTRL;
 359              		.loc 1 204 0
 360 0008 1C60     		str	r4, [r3]
ARM GAS  e:\temp\ccXTXBQr.s 			page 26


 361              		.loc 1 205 0
 362 000a 1C4B     		ldr	r3, .L2+8
 206:Generated_Source\PSoC4/HPI_IF_I2C.c **** 
 207:Generated_Source\PSoC4/HPI_IF_I2C.c ****         /* Configure RX direction */
 208:Generated_Source\PSoC4/HPI_IF_I2C.c ****         HPI_IF_RX_CTRL_REG      = HPI_IF_I2C_DEFAULT_RX_CTRL;
 209:Generated_Source\PSoC4/HPI_IF_I2C.c ****         HPI_IF_RX_FIFO_CTRL_REG = HPI_IF_I2C_DEFAULT_RX_FIFO_CTRL;
 210:Generated_Source\PSoC4/HPI_IF_I2C.c **** 
 211:Generated_Source\PSoC4/HPI_IF_I2C.c ****         /* Set default address and mask */
 212:Generated_Source\PSoC4/HPI_IF_I2C.c ****         HPI_IF_RX_MATCH_REG     = HPI_IF_I2C_DEFAULT_RX_MATCH;
 363              		.loc 1 212 0
 364 000c 1C49     		ldr	r1, .L2+12
 205:Generated_Source\PSoC4/HPI_IF_I2C.c **** 
 365              		.loc 1 205 0
 366 000e 1A60     		str	r2, [r3]
 208:Generated_Source\PSoC4/HPI_IF_I2C.c ****         HPI_IF_RX_FIFO_CTRL_REG = HPI_IF_I2C_DEFAULT_RX_FIFO_CTRL;
 367              		.loc 1 208 0
 368 0010 1C4B     		ldr	r3, .L2+16
 369 0012 1D4A     		ldr	r2, .L2+20
 213:Generated_Source\PSoC4/HPI_IF_I2C.c **** 
 214:Generated_Source\PSoC4/HPI_IF_I2C.c ****         /* Configure TX direction */
 215:Generated_Source\PSoC4/HPI_IF_I2C.c ****         HPI_IF_TX_CTRL_REG      = HPI_IF_I2C_DEFAULT_TX_CTRL;
 216:Generated_Source\PSoC4/HPI_IF_I2C.c ****         HPI_IF_TX_FIFO_CTRL_REG = HPI_IF_I2C_DEFAULT_TX_FIFO_CTRL;
 217:Generated_Source\PSoC4/HPI_IF_I2C.c **** 
 218:Generated_Source\PSoC4/HPI_IF_I2C.c ****         /* Configure interrupt with I2C handler but do not enable it */
 219:Generated_Source\PSoC4/HPI_IF_I2C.c ****         CyIntDisable    (HPI_IF_ISR_NUMBER);
 370              		.loc 1 219 0
 371 0014 0A20     		movs	r0, #10
 208:Generated_Source\PSoC4/HPI_IF_I2C.c ****         HPI_IF_RX_FIFO_CTRL_REG = HPI_IF_I2C_DEFAULT_RX_FIFO_CTRL;
 372              		.loc 1 208 0
 373 0016 1360     		str	r3, [r2]
 209:Generated_Source\PSoC4/HPI_IF_I2C.c **** 
 374              		.loc 1 209 0
 375 0018 1C4A     		ldr	r2, .L2+24
 220:Generated_Source\PSoC4/HPI_IF_I2C.c ****         CyIntSetPriority(HPI_IF_ISR_NUMBER, HPI_IF_ISR_PRIORITY);
 221:Generated_Source\PSoC4/HPI_IF_I2C.c ****     #if(!HPI_IF_I2C_EXTERN_INTR_HANDLER)
 222:Generated_Source\PSoC4/HPI_IF_I2C.c ****         (void) CyIntSetVector(HPI_IF_ISR_NUMBER, &HPI_IF_I2C_ISR);
 223:Generated_Source\PSoC4/HPI_IF_I2C.c ****     #endif /* (HPI_IF_I2C_EXTERN_INTR_HANDLER) */
 224:Generated_Source\PSoC4/HPI_IF_I2C.c **** 
 225:Generated_Source\PSoC4/HPI_IF_I2C.c ****         /* Configure interrupt sources */
 226:Generated_Source\PSoC4/HPI_IF_I2C.c ****     #if(!HPI_IF_CY_SCBIP_V1)
 227:Generated_Source\PSoC4/HPI_IF_I2C.c ****         HPI_IF_INTR_SPI_EC_MASK_REG = HPI_IF_I2C_DEFAULT_INTR_SPI_EC_MASK;
 228:Generated_Source\PSoC4/HPI_IF_I2C.c ****     #endif /* (!HPI_IF_CY_SCBIP_V1) */
 229:Generated_Source\PSoC4/HPI_IF_I2C.c **** 
 230:Generated_Source\PSoC4/HPI_IF_I2C.c ****         HPI_IF_INTR_I2C_EC_MASK_REG = HPI_IF_I2C_DEFAULT_INTR_I2C_EC_MASK;
 231:Generated_Source\PSoC4/HPI_IF_I2C.c ****         HPI_IF_INTR_SLAVE_MASK_REG  = HPI_IF_I2C_DEFAULT_INTR_SLAVE_MASK;
 232:Generated_Source\PSoC4/HPI_IF_I2C.c ****         HPI_IF_INTR_MASTER_MASK_REG = HPI_IF_I2C_DEFAULT_INTR_MASTER_MASK;
 233:Generated_Source\PSoC4/HPI_IF_I2C.c ****         HPI_IF_INTR_RX_MASK_REG     = HPI_IF_I2C_DEFAULT_INTR_RX_MASK;
 234:Generated_Source\PSoC4/HPI_IF_I2C.c ****         HPI_IF_INTR_TX_MASK_REG     = HPI_IF_I2C_DEFAULT_INTR_TX_MASK;
 235:Generated_Source\PSoC4/HPI_IF_I2C.c **** 
 236:Generated_Source\PSoC4/HPI_IF_I2C.c ****         /* Configure global variables */
 237:Generated_Source\PSoC4/HPI_IF_I2C.c ****         HPI_IF_state = HPI_IF_I2C_FSM_IDLE;
 238:Generated_Source\PSoC4/HPI_IF_I2C.c **** 
 239:Generated_Source\PSoC4/HPI_IF_I2C.c ****     #if(HPI_IF_I2C_SLAVE)
 240:Generated_Source\PSoC4/HPI_IF_I2C.c ****         /* Internal slave variable */
 241:Generated_Source\PSoC4/HPI_IF_I2C.c ****         HPI_IF_slStatus        = 0u;
 242:Generated_Source\PSoC4/HPI_IF_I2C.c ****         HPI_IF_slRdBufIndex    = 0u;
 243:Generated_Source\PSoC4/HPI_IF_I2C.c ****         HPI_IF_slWrBufIndex    = 0u;
ARM GAS  e:\temp\ccXTXBQr.s 			page 27


 244:Generated_Source\PSoC4/HPI_IF_I2C.c ****         HPI_IF_slOverFlowCount = 0u;
 245:Generated_Source\PSoC4/HPI_IF_I2C.c ****     #endif /* (HPI_IF_I2C_SLAVE) */
 246:Generated_Source\PSoC4/HPI_IF_I2C.c **** 
 247:Generated_Source\PSoC4/HPI_IF_I2C.c ****     #if(HPI_IF_I2C_MASTER)
 248:Generated_Source\PSoC4/HPI_IF_I2C.c ****     /* Internal master variable */
 249:Generated_Source\PSoC4/HPI_IF_I2C.c ****         HPI_IF_mstrStatus     = 0u;
 250:Generated_Source\PSoC4/HPI_IF_I2C.c ****         HPI_IF_mstrRdBufIndex = 0u;
 251:Generated_Source\PSoC4/HPI_IF_I2C.c ****         HPI_IF_mstrWrBufIndex = 0u;
 252:Generated_Source\PSoC4/HPI_IF_I2C.c ****     #endif /* (HPI_IF_I2C_MASTER) */
 253:Generated_Source\PSoC4/HPI_IF_I2C.c ****     }
 376              		.loc 1 253 0
 377              		@ sp needed
 209:Generated_Source\PSoC4/HPI_IF_I2C.c **** 
 378              		.loc 1 209 0
 379 001a 1460     		str	r4, [r2]
 212:Generated_Source\PSoC4/HPI_IF_I2C.c **** 
 380              		.loc 1 212 0
 381 001c 1C4A     		ldr	r2, .L2+28
 382 001e 1160     		str	r1, [r2]
 215:Generated_Source\PSoC4/HPI_IF_I2C.c ****         HPI_IF_TX_FIFO_CTRL_REG = HPI_IF_I2C_DEFAULT_TX_FIFO_CTRL;
 383              		.loc 1 215 0
 384 0020 1C4A     		ldr	r2, .L2+32
 385 0022 1360     		str	r3, [r2]
 216:Generated_Source\PSoC4/HPI_IF_I2C.c **** 
 386              		.loc 1 216 0
 387 0024 1C4B     		ldr	r3, .L2+36
 388 0026 1C60     		str	r4, [r3]
 219:Generated_Source\PSoC4/HPI_IF_I2C.c ****         CyIntSetPriority(HPI_IF_ISR_NUMBER, HPI_IF_ISR_PRIORITY);
 389              		.loc 1 219 0
 390 0028 FFF7FEFF 		bl	CyIntDisable
 391              	.LVL0:
 220:Generated_Source\PSoC4/HPI_IF_I2C.c ****     #if(!HPI_IF_I2C_EXTERN_INTR_HANDLER)
 392              		.loc 1 220 0
 393 002c 0321     		movs	r1, #3
 394 002e 0A20     		movs	r0, #10
 395 0030 FFF7FEFF 		bl	CyIntSetPriority
 396              	.LVL1:
 222:Generated_Source\PSoC4/HPI_IF_I2C.c ****     #endif /* (HPI_IF_I2C_EXTERN_INTR_HANDLER) */
 397              		.loc 1 222 0
 398 0034 1949     		ldr	r1, .L2+40
 399 0036 0A20     		movs	r0, #10
 400 0038 FFF7FEFF 		bl	CyIntSetVector
 401              	.LVL2:
 231:Generated_Source\PSoC4/HPI_IF_I2C.c ****         HPI_IF_INTR_MASTER_MASK_REG = HPI_IF_I2C_DEFAULT_INTR_MASTER_MASK;
 402              		.loc 1 231 0
 403 003c 4C22     		movs	r2, #76
 227:Generated_Source\PSoC4/HPI_IF_I2C.c ****     #endif /* (!HPI_IF_CY_SCBIP_V1) */
 404              		.loc 1 227 0
 405 003e 184B     		ldr	r3, .L2+44
 231:Generated_Source\PSoC4/HPI_IF_I2C.c ****         HPI_IF_INTR_MASTER_MASK_REG = HPI_IF_I2C_DEFAULT_INTR_MASTER_MASK;
 406              		.loc 1 231 0
 407 0040 FF32     		adds	r2, r2, #255
 227:Generated_Source\PSoC4/HPI_IF_I2C.c ****     #endif /* (!HPI_IF_CY_SCBIP_V1) */
 408              		.loc 1 227 0
 409 0042 1C60     		str	r4, [r3]
 230:Generated_Source\PSoC4/HPI_IF_I2C.c ****         HPI_IF_INTR_SLAVE_MASK_REG  = HPI_IF_I2C_DEFAULT_INTR_SLAVE_MASK;
 410              		.loc 1 230 0
ARM GAS  e:\temp\ccXTXBQr.s 			page 28


 411 0044 174B     		ldr	r3, .L2+48
 412 0046 1C60     		str	r4, [r3]
 231:Generated_Source\PSoC4/HPI_IF_I2C.c ****         HPI_IF_INTR_MASTER_MASK_REG = HPI_IF_I2C_DEFAULT_INTR_MASTER_MASK;
 413              		.loc 1 231 0
 414 0048 174B     		ldr	r3, .L2+52
 415 004a 1A60     		str	r2, [r3]
 232:Generated_Source\PSoC4/HPI_IF_I2C.c ****         HPI_IF_INTR_RX_MASK_REG     = HPI_IF_I2C_DEFAULT_INTR_RX_MASK;
 416              		.loc 1 232 0
 417 004c 174B     		ldr	r3, .L2+56
 237:Generated_Source\PSoC4/HPI_IF_I2C.c **** 
 418              		.loc 1 237 0
 419 004e 3C3A     		subs	r2, r2, #60
 232:Generated_Source\PSoC4/HPI_IF_I2C.c ****         HPI_IF_INTR_RX_MASK_REG     = HPI_IF_I2C_DEFAULT_INTR_RX_MASK;
 420              		.loc 1 232 0
 421 0050 1C60     		str	r4, [r3]
 233:Generated_Source\PSoC4/HPI_IF_I2C.c ****         HPI_IF_INTR_TX_MASK_REG     = HPI_IF_I2C_DEFAULT_INTR_TX_MASK;
 422              		.loc 1 233 0
 423 0052 174B     		ldr	r3, .L2+60
 237:Generated_Source\PSoC4/HPI_IF_I2C.c **** 
 424              		.loc 1 237 0
 425 0054 FF3A     		subs	r2, r2, #255
 233:Generated_Source\PSoC4/HPI_IF_I2C.c ****         HPI_IF_INTR_TX_MASK_REG     = HPI_IF_I2C_DEFAULT_INTR_TX_MASK;
 426              		.loc 1 233 0
 427 0056 1C60     		str	r4, [r3]
 234:Generated_Source\PSoC4/HPI_IF_I2C.c **** 
 428              		.loc 1 234 0
 429 0058 164B     		ldr	r3, .L2+64
 430 005a 1C60     		str	r4, [r3]
 237:Generated_Source\PSoC4/HPI_IF_I2C.c **** 
 431              		.loc 1 237 0
 432 005c 164B     		ldr	r3, .L2+68
 433 005e 1A70     		strb	r2, [r3]
 241:Generated_Source\PSoC4/HPI_IF_I2C.c ****         HPI_IF_slRdBufIndex    = 0u;
 434              		.loc 1 241 0
 435 0060 164B     		ldr	r3, .L2+72
 436 0062 1C70     		strb	r4, [r3]
 242:Generated_Source\PSoC4/HPI_IF_I2C.c ****         HPI_IF_slWrBufIndex    = 0u;
 437              		.loc 1 242 0
 438 0064 164B     		ldr	r3, .L2+76
 439 0066 1C60     		str	r4, [r3]
 243:Generated_Source\PSoC4/HPI_IF_I2C.c ****         HPI_IF_slOverFlowCount = 0u;
 440              		.loc 1 243 0
 441 0068 164B     		ldr	r3, .L2+80
 442 006a 1C60     		str	r4, [r3]
 244:Generated_Source\PSoC4/HPI_IF_I2C.c ****     #endif /* (HPI_IF_I2C_SLAVE) */
 443              		.loc 1 244 0
 444 006c 164B     		ldr	r3, .L2+84
 445 006e 1C70     		strb	r4, [r3]
 446              		.loc 1 253 0
 447 0070 10BD     		pop	{r4, pc}
 448              	.L3:
 449 0072 C046     		.align	2
 450              	.L2:
 451 0074 00000540 		.word	1074069504
 452 0078 E9080040 		.word	1073744105
 453 007c 60000540 		.word	1074069600
 454 0080 1000FE00 		.word	16646160
ARM GAS  e:\temp\ccXTXBQr.s 			page 29


 455 0084 07010080 		.word	-2147483385
 456 0088 00030540 		.word	1074070272
 457 008c 04030540 		.word	1074070276
 458 0090 10030540 		.word	1074070288
 459 0094 00020540 		.word	1074070016
 460 0098 04020540 		.word	1074070020
 461 009c 00000000 		.word	HPI_IF_I2C_ISR
 462 00a0 C80E0540 		.word	1074073288
 463 00a4 880E0540 		.word	1074073224
 464 00a8 480F0540 		.word	1074073416
 465 00ac 080F0540 		.word	1074073352
 466 00b0 C80F0540 		.word	1074073544
 467 00b4 880F0540 		.word	1074073480
 468 00b8 00000000 		.word	HPI_IF_state
 469 00bc 00000000 		.word	HPI_IF_slStatus
 470 00c0 00000000 		.word	HPI_IF_slRdBufIndex
 471 00c4 00000000 		.word	HPI_IF_slWrBufIndex
 472 00c8 00000000 		.word	HPI_IF_slOverFlowCount
 473              		.cfi_endproc
 474              	.LFE0:
 475              		.size	HPI_IF_I2CInit, .-HPI_IF_I2CInit
 476              		.section	.text.HPI_IF_I2CStop,"ax",%progbits
 477              		.align	1
 478              		.global	HPI_IF_I2CStop
 479              		.code	16
 480              		.thumb_func
 481              		.type	HPI_IF_I2CStop, %function
 482              	HPI_IF_I2CStop:
 483              	.LFB1:
 254:Generated_Source\PSoC4/HPI_IF_I2C.c **** #endif /* (HPI_IF_SCB_MODE_UNCONFIG_CONST_CFG) */
 255:Generated_Source\PSoC4/HPI_IF_I2C.c **** 
 256:Generated_Source\PSoC4/HPI_IF_I2C.c **** 
 257:Generated_Source\PSoC4/HPI_IF_I2C.c **** /*******************************************************************************
 258:Generated_Source\PSoC4/HPI_IF_I2C.c **** * Function Name: HPI_IF_I2CStop
 259:Generated_Source\PSoC4/HPI_IF_I2C.c **** ****************************************************************************//**
 260:Generated_Source\PSoC4/HPI_IF_I2C.c **** *
 261:Generated_Source\PSoC4/HPI_IF_I2C.c **** *  Resets the I2C FSM into the default state.
 262:Generated_Source\PSoC4/HPI_IF_I2C.c **** *
 263:Generated_Source\PSoC4/HPI_IF_I2C.c **** *******************************************************************************/
 264:Generated_Source\PSoC4/HPI_IF_I2C.c **** void HPI_IF_I2CStop(void)
 265:Generated_Source\PSoC4/HPI_IF_I2C.c **** {
 484              		.loc 1 265 0
 485              		.cfi_startproc
 486              		@ args = 0, pretend = 0, frame = 0
 487              		@ frame_needed = 0, uses_anonymous_args = 0
 488              		@ link register save eliminated.
 266:Generated_Source\PSoC4/HPI_IF_I2C.c ****     /* Clear command registers because they keep assigned value after IP block was disabled */
 267:Generated_Source\PSoC4/HPI_IF_I2C.c ****     HPI_IF_I2C_MASTER_CMD_REG = 0u;
 489              		.loc 1 267 0
 490 0000 0023     		movs	r3, #0
 491 0002 044A     		ldr	r2, .L5
 268:Generated_Source\PSoC4/HPI_IF_I2C.c ****     HPI_IF_I2C_SLAVE_CMD_REG  = 0u;
 269:Generated_Source\PSoC4/HPI_IF_I2C.c ****     
 270:Generated_Source\PSoC4/HPI_IF_I2C.c ****     HPI_IF_state = HPI_IF_I2C_FSM_IDLE;
 271:Generated_Source\PSoC4/HPI_IF_I2C.c **** }
 492              		.loc 1 271 0
 493              		@ sp needed
ARM GAS  e:\temp\ccXTXBQr.s 			page 30


 267:Generated_Source\PSoC4/HPI_IF_I2C.c ****     HPI_IF_I2C_SLAVE_CMD_REG  = 0u;
 494              		.loc 1 267 0
 495 0004 1360     		str	r3, [r2]
 268:Generated_Source\PSoC4/HPI_IF_I2C.c ****     HPI_IF_I2C_SLAVE_CMD_REG  = 0u;
 496              		.loc 1 268 0
 497 0006 044A     		ldr	r2, .L5+4
 498 0008 1360     		str	r3, [r2]
 270:Generated_Source\PSoC4/HPI_IF_I2C.c **** }
 499              		.loc 1 270 0
 500 000a 1022     		movs	r2, #16
 501 000c 034B     		ldr	r3, .L5+8
 502 000e 1A70     		strb	r2, [r3]
 503              		.loc 1 271 0
 504 0010 7047     		bx	lr
 505              	.L6:
 506 0012 C046     		.align	2
 507              	.L5:
 508 0014 68000540 		.word	1074069608
 509 0018 6C000540 		.word	1074069612
 510 001c 00000000 		.word	HPI_IF_state
 511              		.cfi_endproc
 512              	.LFE1:
 513              		.size	HPI_IF_I2CStop, .-HPI_IF_I2CStop
 514              		.section	.text.HPI_IF_I2CFwBlockReset,"ax",%progbits
 515              		.align	1
 516              		.global	HPI_IF_I2CFwBlockReset
 517              		.code	16
 518              		.thumb_func
 519              		.type	HPI_IF_I2CFwBlockReset, %function
 520              	HPI_IF_I2CFwBlockReset:
 521              	.LFB2:
 272:Generated_Source\PSoC4/HPI_IF_I2C.c **** 
 273:Generated_Source\PSoC4/HPI_IF_I2C.c **** 
 274:Generated_Source\PSoC4/HPI_IF_I2C.c **** /*******************************************************************************
 275:Generated_Source\PSoC4/HPI_IF_I2C.c **** * Function Name: HPI_IF_I2CFwBlockReset
 276:Generated_Source\PSoC4/HPI_IF_I2C.c **** ****************************************************************************//**
 277:Generated_Source\PSoC4/HPI_IF_I2C.c **** *
 278:Generated_Source\PSoC4/HPI_IF_I2C.c **** * Resets the scb IP block and I2C into the known state.
 279:Generated_Source\PSoC4/HPI_IF_I2C.c **** *
 280:Generated_Source\PSoC4/HPI_IF_I2C.c **** *******************************************************************************/
 281:Generated_Source\PSoC4/HPI_IF_I2C.c **** void HPI_IF_I2CFwBlockReset(void)
 282:Generated_Source\PSoC4/HPI_IF_I2C.c **** {
 522              		.loc 1 282 0
 523              		.cfi_startproc
 524              		@ args = 0, pretend = 0, frame = 0
 525              		@ frame_needed = 0, uses_anonymous_args = 0
 526 0000 10B5     		push	{r4, lr}
 527              		.cfi_def_cfa_offset 8
 528              		.cfi_offset 4, -8
 529              		.cfi_offset 14, -4
 283:Generated_Source\PSoC4/HPI_IF_I2C.c ****     /* Disable scb IP: stop respond to I2C traffic */
 284:Generated_Source\PSoC4/HPI_IF_I2C.c ****     HPI_IF_CTRL_REG &= (uint32) ~HPI_IF_CTRL_ENABLED;
 530              		.loc 1 284 0
 531 0002 0E4A     		ldr	r2, .L8
 285:Generated_Source\PSoC4/HPI_IF_I2C.c **** 
 286:Generated_Source\PSoC4/HPI_IF_I2C.c ****     /* Clear command registers they are not cleared after scb IP is disabled */
 287:Generated_Source\PSoC4/HPI_IF_I2C.c ****     HPI_IF_I2C_MASTER_CMD_REG = 0u;
ARM GAS  e:\temp\ccXTXBQr.s 			page 31


 532              		.loc 1 287 0
 533 0004 0E49     		ldr	r1, .L8+4
 284:Generated_Source\PSoC4/HPI_IF_I2C.c **** 
 534              		.loc 1 284 0
 535 0006 1368     		ldr	r3, [r2]
 288:Generated_Source\PSoC4/HPI_IF_I2C.c ****     HPI_IF_I2C_SLAVE_CMD_REG  = 0u;
 289:Generated_Source\PSoC4/HPI_IF_I2C.c **** 
 290:Generated_Source\PSoC4/HPI_IF_I2C.c ****     HPI_IF_DISABLE_AUTO_DATA;
 536              		.loc 1 290 0
 537 0008 0E48     		ldr	r0, .L8+8
 284:Generated_Source\PSoC4/HPI_IF_I2C.c **** 
 538              		.loc 1 284 0
 539 000a 5B00     		lsls	r3, r3, #1
 540 000c 5B08     		lsrs	r3, r3, #1
 541 000e 1360     		str	r3, [r2]
 287:Generated_Source\PSoC4/HPI_IF_I2C.c ****     HPI_IF_I2C_SLAVE_CMD_REG  = 0u;
 542              		.loc 1 287 0
 543 0010 0023     		movs	r3, #0
 544 0012 0B60     		str	r3, [r1]
 288:Generated_Source\PSoC4/HPI_IF_I2C.c ****     HPI_IF_I2C_SLAVE_CMD_REG  = 0u;
 545              		.loc 1 288 0
 546 0014 0C49     		ldr	r1, .L8+12
 291:Generated_Source\PSoC4/HPI_IF_I2C.c **** 
 292:Generated_Source\PSoC4/HPI_IF_I2C.c ****     HPI_IF_SetTxInterruptMode(HPI_IF_NO_INTR_SOURCES);
 293:Generated_Source\PSoC4/HPI_IF_I2C.c ****     HPI_IF_SetRxInterruptMode(HPI_IF_NO_INTR_SOURCES);
 294:Generated_Source\PSoC4/HPI_IF_I2C.c ****     
 295:Generated_Source\PSoC4/HPI_IF_I2C.c **** #if(HPI_IF_CY_SCBIP_V0)
 296:Generated_Source\PSoC4/HPI_IF_I2C.c ****     /* Clear interrupt sources as they are not cleared after scb IP is disabled */
 297:Generated_Source\PSoC4/HPI_IF_I2C.c ****     HPI_IF_ClearTxInterruptSource    (HPI_IF_INTR_TX_ALL);
 298:Generated_Source\PSoC4/HPI_IF_I2C.c ****     HPI_IF_ClearRxInterruptSource    (HPI_IF_INTR_RX_ALL);
 299:Generated_Source\PSoC4/HPI_IF_I2C.c ****     HPI_IF_ClearSlaveInterruptSource (HPI_IF_INTR_SLAVE_ALL);
 300:Generated_Source\PSoC4/HPI_IF_I2C.c ****     HPI_IF_ClearMasterInterruptSource(HPI_IF_INTR_MASTER_ALL);
 301:Generated_Source\PSoC4/HPI_IF_I2C.c **** #endif /* (HPI_IF_CY_SCBIP_V0) */
 302:Generated_Source\PSoC4/HPI_IF_I2C.c **** 
 303:Generated_Source\PSoC4/HPI_IF_I2C.c ****     HPI_IF_state = HPI_IF_I2C_FSM_IDLE;
 304:Generated_Source\PSoC4/HPI_IF_I2C.c **** 
 305:Generated_Source\PSoC4/HPI_IF_I2C.c ****     /* Enable scb IP: start respond to I2C traffic */
 306:Generated_Source\PSoC4/HPI_IF_I2C.c ****     HPI_IF_CTRL_REG |= (uint32) HPI_IF_CTRL_ENABLED;
 307:Generated_Source\PSoC4/HPI_IF_I2C.c **** }
 547              		.loc 1 307 0
 548              		@ sp needed
 288:Generated_Source\PSoC4/HPI_IF_I2C.c **** 
 549              		.loc 1 288 0
 550 0016 0B60     		str	r3, [r1]
 290:Generated_Source\PSoC4/HPI_IF_I2C.c **** 
 551              		.loc 1 290 0
 552 0018 0468     		ldr	r4, [r0]
 553 001a 0C49     		ldr	r1, .L8+16
 554 001c 2140     		ands	r1, r4
 555 001e 0160     		str	r1, [r0]
 292:Generated_Source\PSoC4/HPI_IF_I2C.c ****     HPI_IF_SetRxInterruptMode(HPI_IF_NO_INTR_SOURCES);
 556              		.loc 1 292 0
 557 0020 0B49     		ldr	r1, .L8+20
 558 0022 0B60     		str	r3, [r1]
 293:Generated_Source\PSoC4/HPI_IF_I2C.c ****     
 559              		.loc 1 293 0
 560 0024 0B49     		ldr	r1, .L8+24
ARM GAS  e:\temp\ccXTXBQr.s 			page 32


 561 0026 0B60     		str	r3, [r1]
 303:Generated_Source\PSoC4/HPI_IF_I2C.c **** 
 562              		.loc 1 303 0
 563 0028 1021     		movs	r1, #16
 564 002a 0B4B     		ldr	r3, .L8+28
 565 002c 1970     		strb	r1, [r3]
 306:Generated_Source\PSoC4/HPI_IF_I2C.c **** }
 566              		.loc 1 306 0
 567 002e 8021     		movs	r1, #128
 568 0030 1368     		ldr	r3, [r2]
 569 0032 0906     		lsls	r1, r1, #24
 570 0034 0B43     		orrs	r3, r1
 571 0036 1360     		str	r3, [r2]
 572              		.loc 1 307 0
 573 0038 10BD     		pop	{r4, pc}
 574              	.L9:
 575 003a C046     		.align	2
 576              	.L8:
 577 003c 00000540 		.word	1074069504
 578 0040 68000540 		.word	1074069608
 579 0044 60000540 		.word	1074069600
 580 0048 6C000540 		.word	1074069612
 581 004c FF5CFFFF 		.word	-41729
 582 0050 880F0540 		.word	1074073480
 583 0054 C80F0540 		.word	1074073544
 584 0058 00000000 		.word	HPI_IF_state
 585              		.cfi_endproc
 586              	.LFE2:
 587              		.size	HPI_IF_I2CFwBlockReset, .-HPI_IF_I2CFwBlockReset
 588              		.comm	HPI_IF_state,1,1
 589              		.text
 590              	.Letext0:
 591              		.file 2 "Generated_Source\\PSoC4/cytypes.h"
 592              		.file 3 "Generated_Source\\PSoC4\\HPI_IF_I2C_PVT.h"
 593              		.file 4 "Generated_Source\\PSoC4/CyLib.h"