ARM GAS  e:\temp\ccnXhP3b.s 			page 1


   1              		.syntax unified
   2              		.cpu cortex-m0
   3              		.fpu softvfp
   4              		.eabi_attribute 20, 1
   5              		.eabi_attribute 21, 1
   6              		.eabi_attribute 23, 3
   7              		.eabi_attribute 24, 1
   8              		.eabi_attribute 25, 1
   9              		.eabi_attribute 26, 1
  10              		.eabi_attribute 30, 4
  11              		.eabi_attribute 34, 0
  12              		.eabi_attribute 18, 4
  13              		.thumb
  14              		.syntax unified
  15              		.file	"I2C_CFG.c"
  16              		.text
  17              	.Ltext0:
  18              		.section	.gnu.lto_.profile.624104a6,"",%progbits
  19 0000 789C6361 		.ascii	"x\234ca`d`a`\000\222J2\000\000\312\000I"
  19      60646061 
  19      6000924A 
  19      320000CA 
  19      0049
  20              		.text
  21              		.section	.gnu.lto_.icf.624104a6,"",%progbits
  22 0000 789C6361 		.ascii	"x\234ca`d\000\0015\006\004`cx\3375\257\227\205q\323"
  22      60640001 
  22      35060460 
  22      6378DF35 
  22      AF978571 
  23 0015 9ADE27EC 		.ascii	"\232\336'\354L;6-\233\304\310\374\340\365\245C\214,"
  23      4C3B362D 
  23      9BC4C8FC 
  23      E0F5A543 
  23      8C2C
  24 0027 0FEF7D3D 		.ascii	"\017\357}=\301\302\332\362z\315-6\006\000\\\203\022"
  24      C1C2DAF2 
  24      7ACD2D36 
  24      06005C83 
  24      12
  25 0038 3D       		.ascii	"="
  26              		.text
  27              		.section	.gnu.lto_.jmpfuncs.624104a6,"",%progbits
  28 0000 789C45C9 		.ascii	"x\234E\311\261\001\000 \010\300\260\026\320+\374\225"
  28      B1010020 
  28      08C0B016 
  28      D02BFC95 
  29 0010 D795C90C 		.ascii	"\327\225\311\014]Z\3108|\033\265\235\004$Thv\257\367"
  29      5D5AC838 
  29      7C1BB59D 
  29      04245468 
  29      76AFF7
  30 0023 2E215502 		.ascii	".!U\002@"
  30      40
  31              		.text
  32              		.section	.gnu.lto_.inline.624104a6,"",%progbits
  33 0000 789C658C 		.ascii	"x\234e\214\313\015\2000\014C\2354M\213\204\004\033t"
ARM GAS  e:\temp\ccnXhP3b.s 			page 2


  33      CB0D8030 
  33      0C439D34 
  33      4D8B8404 
  33      1B74
  34 0012 0346E89A 		.ascii	"\003F\350\232\\;\012#0\012#\220H(\010\341\203\017\317"
  34      5C3B0A23 
  34      300A2390 
  34      482808E1 
  34      830FCF
  35 0025 1F01C1B5 		.ascii	"\037\001\301\265\343\225\002E\211P-\342zt\350h\354\201"
  35      E3950245 
  35      89502DE2 
  35      7A74E868 
  35      EC81
  36 0037 A1F2F014 		.ascii	"\241\362\360\024\234\317E<dd!\260\214\026\375\364G\202"
  36      9CCF453C 
  36      646421B0 
  36      8C16FDF4 
  36      4782
  37 0049 A91263B5 		.ascii	"\251\022c\265\013r\223\357\217\331\354\265\014\315\266"
  37      0B7293EF 
  37      8FD9ECB5 
  37      0CCDB6
  38 0058 D46B8B25 		.ascii	"\324k\213%n2B\016g"
  38      6E32420E 
  38      67
  39              		.text
  40              		.section	.gnu.lto_.pureconst.624104a6,"",%progbits
  41 0000 789C6361 		.ascii	"x\234ca`d\340e```c\220b\224b\222b\226b\221b\225\002"
  41      6064E065 
  41      60606063 
  41      90629462 
  41      92629662 
  42 0018 00059500 		.ascii	"\000\005\225\000\304"
  42      C4
  43              		.text
  44              		.section	.gnu.lto_I2C_CFG_SetDriveMode.624104a6,"",%progbits
  45 0000 789C7D50 		.ascii	"x\234}PM+Da\024>\317\373\336\2713\022\266\312,(\205"
  45      4D2B4461 
  45      143ECFFB 
  45      DEB93312 
  45      B6CA2C28 
  46 0015 8D847F30 		.ascii	"\215\204\1770Evb;\232\304]2%\326\336\371\270\221\205"
  46      4576623B 
  46      9AC45D32 
  46      25D6DEF9 
  46      B89185
  47 0028 94284DB2 		.ascii	"\224(M\2621\371&M\221\3354EV\243$K\311\342.\330\214"
  47      31F9264D 
  47      91DD3445 
  47      56A3244B 
  47      C9E22ED8 
  48 003d AF92709D 		.ascii	"\257\222p\2353\327\332\251\363\361\236\236\3479\347"
  48      33D7DAA9 
  48      F3F19E9E 
  48      E739E7
  49 004c BC1681C4 		.ascii	"\274\026\201\304r\234\33297\261C\023\324R\231(\025Q"
ARM GAS  e:\temp\ccnXhP3b.s 			page 3


  49      729CDA39 
  49      37B14313 
  49      D4529928 
  49      1551
  50 005e 80142602 		.ascii	"\200\024&\002\232U\230\305\273\372V(\315yg\252c\313"
  50      9A5598C5 
  50      BBFA5628 
  50      CD7967AA 
  50      63CB
  51 0070 B0DDBBDE 		.ascii	"\260\335\273\336`\312\270\215\256&\362UU\211\260\205"
  51      60CAB88D 
  51      AE26F255 
  51      5589B085 
  52 0080 0E46BD16 		.ascii	"\016F\275\026\362\313\265\272\025\304\365s\271rW\337"
  52      F2CBB5BA 
  52      15C4F573 
  52      B97257DF 
  53 0090 9637266D 		.ascii	"\2267&mLn\304hW\003\333\320\314@O\024]Q\342\006a\007"
  53      4C6EC468 
  53      5703DBD0 
  53      CC404F14 
  53      5D51E206 
  54 00a6 6D027E38 		.ascii	"m\002~8\376Y\251\263\263\"\337\034\210b\027\266\254"
  54      FE59A9B3 
  54      B322DF1C 
  54      886217B6 
  54      AC
  55 00b7 79345434 		.ascii	"y4T4\276\2371\305\202}~bG\024\323\224\226`A\310!)m\011"
  55      BE9F31C5 
  55      827D7E62 
  55      4714D394 
  55      966041C8 
  56 00cf 441576D9 		.ascii	"D\025v\331\374Y)\311\332C\351s\341v\315\026\251\214"
  56      FC5929C9 
  56      DA43E973 
  56      E176CD16 
  56      A98C
  57 00e1 962B56DD 		.ascii	"\226+V\335\322U\370M\271ZWW,,^\377\324\006\317\371\364"
  57      D255F84D 
  57      B95A5757 
  57      2C2C5EFF 
  57      D406CFF9 
  58 00f6 92B1B8F5 		.ascii	"\222\261\270\365\224/_\2067\260\236\312\302\325\026"
  58      942F5F86 
  58      37B09ECA 
  58      C2D516
  59 0105 F611C51E 		.ascii	"\366\021\305\036\242\274\316\0016@\0362_\177r:P\274"
  59      A2BCCE01 
  59      36401E32 
  59      5F7F723A 
  59      50BC
  60 0117 C96EDED5 		.ascii	"\311n\336\325\210\204\302\207\357\373\0158d\264\207"
  60      8884C287 
  60      EFFB0D38 
  60      64B487
  61 0126 F44B3880 		.ascii	"\364K8\200\2052\332\022\332\307\037-`\206\270UZ\205"
  61      8532DA12 
ARM GAS  e:\temp\ccnXhP3b.s 			page 4


  61      DAC71F2D 
  61      6086B855 
  61      5A85
  62 0138 B4FE9B79 		.ascii	"\264\376\233y\3043\231B\217H\027O/\224\300\253\277]"
  62      C4339942 
  62      8F48174F 
  62      2F94C0AB 
  62      BF5D
  63 014a 519003F9 		.ascii	"Q\220\003\371\334\226~g\322\231\032\235v\306\023\303"
  63      DC967E67 
  63      D2991A9D 
  63      76C613C3 
  64 015a C999A931 		.ascii	"\311\231\2511'>8\234\214\365\306\007\272c\211X_\177"
  64      273E389C 
  64      8CF5C607 
  64      BA638958 
  64      5F7F
  65 016c E7185913 		.ascii	"\347\030Y\023\311q\347\027\026\237\223\033"
  65      C971E717 
  65      169F931B 
  66              		.text
  67              		.section	.gnu.lto_I2C_CFG_Write.624104a6,"",%progbits
  68 0000 789C5551 		.ascii	"x\234UQ\317KTQ\030\375\316\275\357\307\340 m\3325\204"
  68      CF4B5451 
  68      18FDCEBD 
  68      EFC7E020 
  68      6DDA3584 
  69 0014 4122B628 		.ascii	"A\"\266(\261\376\200`\300\241]d\264\032\220A\337nP\030"
  69      B1FE8060 
  69      C0A15D64 
  69      B41A9041 
  69      DF6E5018 
  70 0028 D2AD7766 		.ascii	"\322\255wf\034\007r\243\013u\225\022\021\332O\233\240"
  70      1C0772A3 
  70      0B759512 
  70      11DA4F9B 
  70      A0
  71 0039 226AF17A 		.ascii	"\"j\361z\033\221\302\310Z\030H\204\320\210\265\231\242"
  71      1B91C2C8 
  71      5A184884 
  71      D088B599 
  71      A2
  72 004a 218972FC 		.ascii	"!\211r\374\276w7\315\307\273\357\336w\3369\347\235\357"
  72      BE7737CD 
  72      C7BBEFDE 
  72      77DE39E7 
  72      9DEF
  73 005c 7B0E81A4 		.ascii	"{\016\201\244.*\242s\274\237\340\005MP\263\233D\305"
  73      2E2AA273 
  73      BC9FE005 
  73      4D50B39B 
  73      44C5
  74 006e 8402E460 		.ascii	"\204\002\344`\022\240I\205I4\325?\205\250Z\177\241z"
  74      12A04985 
  74      4934D53F 
  74      85A85A7F 
  74      A17A
ARM GAS  e:\temp\ccnXhP3b.s 			page 5


  75 0080 570CD797 		.ascii	"W\014\327\227\257\277\373\314j\210\212&j\251\330\211"
  75      AFBFFBCC 
  75      6A888A26 
  75      6AA9D889 
  76 0090 B0825E66 		.ascii	"\260\202^f\355\275\252~\204>\015\342\363t\324l${\356"
  76      EDBDAA7E 
  76      843E0DE2 
  76      F374D46C 
  76      247BEE
  77 00a3 185332A6 		.ascii	"\030S2\246\2315\272\242\201UhV\340|\012})b\200p\027"
  77      9935BAA2 
  77      81556856 
  77      E07C0A7D 
  77      29628070 
  78 00b8 3D42DE8F 		.ascii	"=B\336\217f\362\372L\254[\1776\327B\367m\321\205\037"
  78      66F2FA4C 
  78      AC5B7F36 
  78      D742F76D 
  78      D1851F
  79 00cb D63B174D 		.ascii	"\326;\027MX\354\022\355\275\377\265R\314\335\255\035"
  79      58EC12ED 
  79      BDFFB552 
  79      CCDDAD1D 
  80 00db CE777A53 		.ascii	"\316wzS\222\252\013\367\321m\363\340\001<\356\020\202"
  80      92AA0BF7 
  80      D16DF3E0 
  80      013CEE10 
  80      82
  81 00ec AC5D094D 		.ascii	"\254]\011M\253U6\341{\377\365\266\337\241\370\253J\363"
  81      AB5536E1 
  81      7BFFF5B6 
  81      DFA1F8AB 
  81      4AF3
  82 00fe 4D3B24AF 		.ascii	"M;$\257]H\002O\000?\006\022B j\360\222!\374PJv]G\364"
  82      5D48024F 
  82      003F0612 
  82      42206AF0 
  82      9221FC50 
  83 0117 E7C6E6D2 		.ascii	"\347\306\346\322\204X\227\265\014d\241\022\275\363\177"
  83      845897B5 
  83      0C64A112 
  83      BDF37F
  84 0126 A98A76E2 		.ascii	"\251\212v\342\324/\017\302E\327>\232\322\254qd\030{"
  84      D42F0FC2 
  84      45D73E9A 
  84      D2AC7164 
  84      187B
  85 0138 CF378E2D 		.ascii	"\3177\216-\343fq\212G\345\342\021Rx\010\216\2165,\203"
  85      E366718A 
  85      47E5E211 
  85      5278088E 
  85      8E352C83 
  86 014c EA28FDAC 		.ascii	"\352(\375\254\356(k\250\331\223\221\362\337\351\035"
  86      EE286BA8 
  86      D99391F2 
  86      DFE91D
  87 015b 58C46190 		.ascii	"X\304a\220=\266\277o\275I\212\255\306!\360\230\345\273"
ARM GAS  e:\temp\ccnXhP3b.s 			page 6


  87      3DB6BF6F 
  87      BD498AAD 
  87      C621F098 
  87      E5BB
  88 016d 88359295 		.ascii	"\2105\222\225YV\264u\322\212\370rY\364\264\372\266\326"
  88      5956B475 
  88      D28AF872 
  88      59F4B4FA 
  88      B6D6
  89 017f 212270D5 		.ascii	"!\"p\325X\303\244\003\317R\374\330\332k\267\361m\232"
  89      58C3A403 
  89      CF52FCD8 
  89      DA6BB7F1 
  89      6D9A
  90 0191 CF4B572D 		.ascii	"\317KW-)a\241h\341\326q\001\332z)\032\223lo\347\011"
  90      2961A168 
  90      E1D67101 
  90      DA7A291A 
  90      936C6FE7 
  91 01a6 B7C31AFA 		.ascii	"\267\303\032\372\206R\370)#\202\370\3674\024dt<\310"
  91      8652F829 
  91      2382F8F7 
  91      34146474 
  91      3CC8
  92 01b8 53996034 		.ascii	"S\231`4(\344\256\007#C\203c\343\205\341 {yp,}!{\251"
  92      28E4AE07 
  92      23438363 
  92      E385E120 
  92      7B79702C 
  93 01d0 3F3D941E 		.ascii	"?=\224\036\310\234\035&w\"\227\037\017\334\221\302\265"
  93      C89C1D26 
  93      7722971F 
  93      0FDC91C2 
  93      B5
  94 01e1 5CFE08D5 		.ascii	"\\\376\010\325\353\307\001"
  94      EBC701
  95              		.text
  96              		.section	.gnu.lto_I2C_CFG_Read.624104a6,"",%progbits
  97 0000 789C2D4E 		.ascii	"x\234-N;H\003Q\020\334y\357\214\341$\275`\012\305*\215"
  97      3B480351 
  97      10DC79EF 
  97      8CE124BD 
  97      600AC52A 
  98 0015 88DA5807 		.ascii	"\210\332X\007\014vb:\011\004\211\327\032\010Z\347\345"
  98      0C76623A 
  98      090489D7 
  98      1A085AE7 
  98      E5
  99 0026 2E47402C 		.ascii	".G@,\322\250 H*\315GA\202hau\246\012(\332Y\253H\012"
  99      D2A82048 
  99      2ACD4741 
  99      82686175 
  99      A60A28DA 
 100 003e 2B154510 		.ascii	"+\025E\020\365\3345.<vw\336\354\314X\004\222\032\346"
 100      F5DC352E 
 100      3C7677DE 
 100      ECCC5804 
ARM GAS  e:\temp\ccnXhP3b.s 			page 7


 100      921AE6
 101 0051 36CE7D84 		.ascii	"6\316}\204\0374AU\257\211JQ\005\310`\242\240\242B\021"
 101      1F344155 
 101      AF894A51 
 101      05C860A2 
 101      A0A24211 
 102 0065 EFEA5BE1 		.ascii	"\357\352[\341\362\243\273i'\352\306\270\346\316?\230"
 102      F2A3BB69 
 102      27EAC6B8 
 102      E6CE3F98 
 103 0075 DD6904F0 		.ascii	"\335i\004\3605Q\250\010\323qL\306E\242\216\0041\365"
 103      3551A808 
 103      D3714CC6 
 103      45A28E04 
 103      31F5
 104 0087 A1FDB315 		.ascii	"\241\375\263\025\213\224\015\327\250\020\370\247\201"
 104      8B940DD7 
 104      A810F8A7 
 104      81
 105 0094 88581E2F 		.ascii	"\210X\036/\006&\014=\023\234\330\027g\366\200\"_\263"
 105      06260C3D 
 105      139CD817 
 105      67F68022 
 105      5FB3
 106 00a6 AFAF9545 		.ascii	"\257\257\225E\"F\317L\026\353\027\245\244\353\036:\237"
 106      2246CF4C 
 106      16EB17A5 
 106      A4EB1E3A 
 106      9F
 107 00b7 1BB7CD25 		.ascii	"\033\267\315%\271\367\264\304\330\366;7\203o\312\327"
 107      B9F7B4C4 
 107      D8F63B37 
 107      836FCAD7 
 108 00c7 1A62E556 		.ascii	"\032b\345V\273\367\261\376Zv\253\306b\250\262\177\276"
 108      BBF7B1FE 
 108      5A76ABC6 
 108      62A8B27F 
 108      BE
 109 00d8 3B54C35E 		.ascii	";T\303^\251\314\001-\264\020G\023\034\017\207\250\201"
 109      A9CC012D 
 109      B4104713 
 109      1C0F87A8 
 109      81
 110 00e9 7A705F2B 		.ascii	"zp_+\217\350\013j\326d\304\373\212\364w\213!V8\255\\"
 110      8FE80B6A 
 110      D664C4FB 
 110      8AF4778B 
 110      215638AD 
 111 00fe B56D1125 		.ascii	"\265m\021%\000G|\373\004\365O\240\277\220\220p\034u"
 111      00477CFB 
 111      04F54FA0 
 111      BF909070 
 111      1C75
 112 0110 2CE5AC3A 		.ascii	",\345\254:\205\3455g%\233\316\257\027rNf!\235O\316d"
 112      85E53567 
 112      259BCEAF 
 112      17724E66 
ARM GAS  e:\temp\ccnXhP3b.s 			page 8


 112      219D4FCE 
 113 0125 E6A792D9 		.ascii	"\346\247\222\331\344\\j\"G\277GHg\005"
 113      E45C6A22 
 113      47BF4748 
 113      6705
 114              		.text
 115              		.section	.gnu.lto_I2C_CFG_ReadDataReg.624104a6,"",%progbits
 116 0000 789C2D4E 		.ascii	"x\234-N\277KBa\024\275\347\373\236&J\264\0069\024M."
 116      BF4B4261 
 116      14BDE7FB 
 116      9E264AB4 
 116      0639144D 
 117 0015 11D5D22C 		.ascii	"\021\325\322,$m\241[\010\022\366\326\004\251\331O\237"
 117      246DA15B 
 117      0812F6D6 
 117      04A9D94F 
 117      9F
 118 0026 0F211A5C 		.ascii	"\017!\032\\\312!\312Q+!$\242\241\345\345T\024\365/D"
 118      CA21CA51 
 118      2B2124A2 
 118      A1E5E554 
 118      14F52F44 
 119 003a 84425345 		.ascii	"\204BSE\277\210\352uov\341\343\336{\276s\3179\026\201"
 119      BF88EA75 
 119      6F76E1E3 
 119      DE7BBE73 
 119      CF391681 
 120 004e A486B98D 		.ascii	"\244\206\271\215s\037\341\007MP\325k\242bH\0012\230"
 120      731FE107 
 120      4D50D56B 
 120      A2624801 
 120      3298
 121 0060 10A8A050 		.ascii	"\020\250\240P\300\253\372V\270|?\337\010\307\032\306"
 121      C0ABFA56 
 121      B87C3FDF 
 121      08C71AC6 
 122 0070 94CCAD7B 		.ascii	"\224\314\255{4[kzp5\221\257\010\323QLFE\242\201\030"
 122      345B6B7A 
 122      703591AF 
 122      08D3514C 
 122      4645A281 
 123 0085 31F5AEFD 		.ascii	"1\365\256\375\2639\030,\033\256Q!\360O\023A\261<Lz\306"
 123      B339182C 
 123      1BAE5121 
 123      F04F1341 
 123      B13C4C7A 
 124 009a F71DE36D 		.ascii	"\367\035\343mG\316v#\001E\256f_W+\213D\214\036\231,"
 124      47CE7623 
 124      0145AE66 
 124      5F572B8B 
 124      448C1E99 
 125 00af D64F4A49 		.ascii	"\326OJI\327]t>\327\337Z\213r\357h\211\261\345vn\006"
 125      D75D743E 
 125      D7DF5A8B 
 125      72EF6889 
 125      B1E5766E 
 126 00c4 5E94AB35 		.ascii	"^\224\2535\304\352\364\303\253\005\372\253)U\215\305"
ARM GAS  e:\temp\ccnXhP3b.s 			page 9


 126      C4EAF4C3 
 126      AB05FAAB 
 126      29558DC5 
 127 00d4 50AF7772 		.ascii	"P\257wr1T\307N\261\314\001-\354#\212=p<\034\240\016"
 127      3154C74E 
 127      B1CC012D 
 127      EC238A3D 
 127      703C1CA0 
 128 00e9 EAA2F45C 		.ascii	"\352\242\364\\\271G_P\263&#\316W\260\277[\014\261\302"
 128      B9475F50 
 128      B32623CE 
 128      57B0BF5B 
 128      0CB1C2
 129 00fc 71E5AA1D 		.ascii	"q\345\252\035\026Q\002\320\342\333\007\250\177\002\375"
 129      165102D0 
 129      E2DB07A8 
 129      7F02FD
 130 010b 858484E3 		.ascii	"\205\204\204\343\250c\011{\305\316/\255\332\313\231"
 130      A863097B 
 130      C5CE2FAD 
 130      DACB99
 131 011a 546E2D9F 		.ascii	"Tn-\237\265\323\013\251\\|&=?\025\317\304\347\022\023"
 131      B5D30BA9 
 131      5C7C263D 
 131      3F15CFC4 
 131      E71213
 132 012d 59FA05E4 		.ascii	"Y\372\005\344$h\034"
 132      24681C
 133              		.text
 134              		.section	.gnu.lto_I2C_CFG_SetInterruptMode.624104a6,"",%progbits
 135 0000 789C6D91 		.ascii	"x\234m\221Mh\023A\024\307\347\315l\262\233\244\331z"
 135      4D681341 
 135      14C7E7CD 
 135      6CB29BA4 
 135      D97A
 136 0012 F2620F11 		.ascii	"\362b\017\021,\241\007\005\213\027\317\201\026/R\354"
 136      2CA10705 
 136      8B17CF81 
 136      162F52EC 
 137 0022 B5504A1B 		.ascii	"\265PJ\033%\007\263\022\343\271\223l\222B\021)\212\001"
 137      2507B312 
 137      E3B9936C 
 137      92421129 
 137      8A01
 138 0034 4B43D1B2 		.ascii	"KC\321\2624Z\265mZ\205\366\264\006\274U\245~ ~\240R"
 138      345AB56D 
 138      5A85F6B4 
 138      06BC55A5 
 138      7E207EA0 
 139 0049 3585AA98 		.ascii	"5\205\252\230\326\212E\264\361\275\235\\\012\016\354"
 139      D68A45B4 
 139      F1BD9D5C 
 139      0A0EEC
 140 0058 CEBC1FEF 		.ascii	"\316\274\037\357\375\347\377\336h\014\030\2552g\354"
 140      FDE7FFDE 
 140      680C18AD 
 140      3267EC
ARM GAS  e:\temp\ccnXhP3b.s 			page 10


 141 0067 38EE07F0 		.ascii	"8\356\007\360\003\301\200\217=f,cp\000:H\003\3300\207"
 141      03C1808F 
 141      3D662C63 
 141      70003A48 
 141      03D83087 
 142 007b 61F8C9FF 		.ascii	"a\370\311\377r\250\216\324\226x\307\264\304\365\341"
 142      72A88ED4 
 142      9678C7B4 
 142      C4F5E1
 143 008a F3FA5159 		.ascii	"\363\372QYv!/\030kpO\211\3014t`\326\303\306/\267u\233"
 143      76212F18 
 143      6B704F89 
 143      C1347460 
 143      D6C3C62F 
 144 00a1 E7050015 		.ascii	"\347\005\000\025=\255\257\224B\024r\330\207\341\370"
 144      3DADAF94 
 144      421472D8 
 144      87E1F8
 145 00b0 865334C5 		.ascii	"\206S4\305!`x^_\274\3612\030u\244\314JY\032\220\276"
 145      2160785E 
 145      5FBCF132 
 145      1875A4CC 
 145      4A591A90 
 146 00c5 BC10700B 		.ascii	"\274\020p\013\004\352\301Mh\2032\2641D\014f \212\331"
 146      04EAC14D 
 146      688332B4 
 146      31440C66 
 146      208AD9
 147 00d8 3F169C2B 		.ascii	"?\026\234+!q\330\253\334\262\035\273\245Y\371\276Yy"
 147      2171D8AB 
 147      DCB21DBB 
 147      A559F9BE 
 147      5979
 148 00ea FB3F9577 		.ascii	"\373?\225w J\351\253\271\271\011\241,i\030n>\032\377"
 148      204AE9AB 
 148      B9B909A1 
 148      2C69186E 
 148      3E1AFF
 149 00fd 682A4B11 		.ascii	"h*K\021\014g\234\027\016\027\235\236\360\350\253\313"
 149      0C679C17 
 149      0E179D9E 
 149      F0E8ABCB 
 150 010d 9570FB14 		.ascii	"\225p\373\024\011\273\317.\231\327\244\233\213\344\205"
 150      09BBCF2E 
 150      99D7A49B 
 150      8BE485
 151 011c 06734A7C 		.ascii	"\006sJ|\026\305\357\2428-\314^\233\337\275\032\366\347"
 151      16C5EFA2 
 151      382DCC5E 
 151      9BDFBD1A 
 151      F6E7
 152 012e 68201198 		.ascii	"h \021\230\207v5\012\250\200\037\207\013DfO\271\262"
 152      8776350A 
 152      A8801F87 
 152      0B44664F 
 152      B9B2
 153 0140 D1B0A5BB 		.ascii	"\321\260\245\273j>xm\266p\264\345C\027\330\221FG\037"
ARM GAS  e:\temp\ccnXhP3b.s 			page 11


 153      6A3E786D 
 153      B670B4E5 
 153      4317D891 
 153      46471F
 154 0153 FDFC8C32 		.ascii	"\375\374\2142u \267\006\002\177\200h\220~\214\325Q\221"
 154      7520B706 
 154      027F8068 
 154      907E8CD5 
 154      5191
 155 0165 5E629373 		.ascii	"^b\223s\332E\015\252\277G\337-\367\320%\266\240\001"
 155      DA450DAA 
 155      BF47DF2D 
 155      F7D025B6 
 155      A001
 156 0177 17F3D527 		.ascii	"\027\363\325':u\243{\035|\373\2764\021V\341\305\354"
 156      3A75A37B 
 156      1D7CFBBE 
 156      341156E1 
 156      C5EC
 157 0189 98A47E2B 		.ascii	"\230\244~+S_>\265NB)\223\303\3672`\021\233X\240&\340"
 157      535F3EB5 
 157      4E422993 
 157      C3F73260 
 157      119B58A0 
 158 019f 1E4C02AB 		.ascii	"\036L\002\253Avk\344\255O\011j6\216\015\311naES\304"
 158      41766BE4 
 158      AD4F096A 
 158      368E0DC9 
 158      6E614553 
 159 01b4 871089FD 		.ascii	"\207\020\211\375\247\360\025\024\241{\221\2635\340^"
 159      A7F01514 
 159      A17B91B3 
 159      35E05E
 160 01c3 AB681EA1 		.ascii	"\253h\036\241\312\251-?of\031\250d\013\335\223\327\025"
 160      CAA92D3F 
 160      6F6619A8 
 160      640BDD93 
 160      D715
 161 01d5 0A20A5B4 		.ascii	"\012 \245\264\235\302\266P$\350\251\005\020V\213\327"
 161      9DC2B650 
 161      24E8A905 
 161      10568BD7 
 162 01e5 F713DB63 		.ascii	"\367\023\333c7#eh\257\343\373\350\030\313\330\006d\335"
 162      37236568 
 162      AFE3FBE8 
 162      18CBD806 
 162      64DD
 163 01f7 3727A9C0 		.ascii	"7'\251\300{\213:\007\232\016\316\352`w<\031O\015\244"
 163      7B8B3A07 
 163      9A0ECEEA 
 163      60773C19 
 163      4F0DA4
 164 020a E343FDBD 		.ascii	"\343C\375\275\326\205\324`\274\257\247\327\212\035\353"
 164      D685D460 
 164      BCAFA7D7 
 164      8A1DEB
 165 0219 3BD119EB 		.ascii	";\321\031\353\217uu\037\031d\3069\353|\"\235\260\222"
ARM GAS  e:\temp\ccnXhP3b.s 			page 12


 165      8F75751F 
 165      1964C639 
 165      EB7C229D 
 165      B092
 166 022b DA596B28 		.ascii	"\332Yk(\256'\222\351T\354\364\231\177\264=\355\243"
 166      AE2792E9 
 166      54ECF499 
 166      7FB43DED 
 166      A3
 167              		.text
 168              		.section	.gnu.lto_I2C_CFG_ClearInterrupt.624104a6,"",%progbits
 169 0000 789C5590 		.ascii	"x\234U\220\315K[A\024\305\357\231y\321 &\376\001\315"
 169      CD4B5B41 
 169      14C5EF99 
 169      79D12026 
 169      FE01CD
 170 0013 4241176E 		.ascii	"BA\027n$\324n\272\016\030\272+\215KAB|\253\242\201$"
 170      24D46EBA 
 170      0E18BA2B 
 170      8D4B4142 
 170      7CABA281 
 171 0028 6E7592F8 		.ascii	"nu\222\370\024\244`6\325UqQh\374h\015B\333EK\344\031"
 171      14A46036 
 171      D5557151 
 171      68FC680D 
 171      42DB454B 
 172 003e 84164A95 		.ascii	"\204\026J\225\266[A\211\220\205P\210\3226\340G\322{"
 172      B65B4189 
 172      90855088 
 172      D236E047 
 172      D27B
 173 0050 F35C9881 		.ascii	"\363\\\230\201\307\314\234w\317o\316\275\026\201d}\344"
 173      C7CC9C77 
 173      CF6FCEBD 
 173      1681647D 
 173      E4
 174 0061 2DCCFB03 		.ascii	"-\314\373\003\376\240\011\252pH\224\365+@\016\306\017"
 174      FEA009AA 
 174      704894F5 
 174      2B400EC6 
 174      0F
 175 0072 9A5798C7 		.ascii	"\232W\230\307_u\253\360\255\361\365E\317p\321\230\234"
 175      5F75ABF0 
 175      ADF1F545 
 175      CF70D198 
 175      9C
 176 0083 39751A8F 		.ascii	"9u\032\217\3276\\8\232\250\245\010\243!\204C\202(b\230"
 176      D7365C38 
 176      9AA8A508 
 176      A3218443 
 176      82286298 
 177 0097 B8F46CE7 		.ascii	"\270\364l\347\272\030\320\203\220\363\3677\277?`\350"
 177      BA18D083 
 177      90F3F737 
 177      BF3F60E8 
 178 00a7 B5D8DCF2 		.ascii	"\265\330\334\362J\357\232q\263\375\354\303\006\364}"
 178      4AEF9A71 
ARM GAS  e:\temp\ccnXhP3b.s 			page 13


 178      B3FDECC3 
 178      06F47D
 179 00b6 2B496D75 		.ascii	"+Imu\267\3712\320\265`x\365c\023C\002g\352\026\2728"
 179      B7F932D0 
 179      B56078F5 
 179      63134302 
 179      67EA16BA 
 180 00cb 2744293D 		.ascii	"'D)=sM\253\2257\356\347\276\375\237}\335\212\034\315"
 180      734DAB95 
 180      37EEE7BE 
 180      FD9F7DDD 
 180      8A1CCD
 181 00de B91DAD2C 		.ascii	"\271\035\255,\222\337>\271\023\325\331&\015\\(%\273"
 181      92DF3EB9 
 181      13D5D926 
 181      0D5C2825 
 181      BB
 182 00ef AEA172B5 		.ascii	"\256\241r\265\374\257<'\244\274\226fV\235\312Q\367\037"
 182      FCAF3C27 
 182      A4BC9666 
 182      569DCA51 
 182      F71F
 183 0101 E568DD0E 		.ascii	"\345h\335\016y\272\367\351\304\357]\013\271\202\261"
 183      79BAF7E9 
 183      C4EF5D0B 
 183      B982B1
 184 0110 583AFED5 		.ascii	"X:\376\325\330\016\256\343Uv\201\333\264\360\026!l\203"
 184      D80EAEE3 
 184      557681DB 
 184      B4F01621 
 184      6C83
 185 0122 93E21DD6 		.ascii	"\223\342\035\326A5\344.\227n\224\007\324\314d%\177\263"
 185      4135E42E 
 185      976E9407 
 185      D4CC6425 
 185      7FB3
 186 0134 78004FB1 		.ascii	"x\000O\261Xd\306\373\203/\213m,\017\024;\354\256\242"
 186      5864C6FB 
 186      832F8B6D 
 186      2C0F143B 
 186      ECAEA2
 187 0147 6D91A85C 		.ascii	"m\221\250\\\344Q\232\345q\317\344\363\244\312j\033\322"
 187      E4519AE5 
 187      71CFE4F3 
 187      A4CA6A1B 
 187      D2
 188 0158 11216B8C 		.ascii	"\021!k\214\2573E\211S\260\205\316\221s\177\254\004\357"
 188      AF334589 
 188      53B085CE 
 188      91737FAC 
 188      04EF
 189 016a 9E9539D6 		.ascii	"\236\2259\326\025\244i\036\301@\324\236\261S\361\214"
 189      15A4691E 
 189      C140D49E 
 189      B153F18C 
 190 017a 3D35194B 		.ascii	"=5\031K\316\246\022\366\304\323X2\362h\342\311\303\310"
 190      CEA612F6 
ARM GAS  e:\temp\ccnXhP3b.s 			page 14


 190      C4D35832 
 190      F268E2C9 
 190      C3C8
 191 018c 64642C3A 		.ascii	"dd,:\222\240\336\351x\372\271=\025\313\3043\263\351"
 191      92A0DEE9 
 191      78FAB93D 
 191      15CBC433 
 191      B3E9
 192 019e FFFF48A0 		.ascii	"\377\377H\240\356"
 192      EE
 193              		.text
 194              		.section	.gnu.lto_.symbol_nodes.624104a6,"",%progbits
 195 0000 789C6361 		.ascii	"x\234ca`d\310`\000\002&\206z\006\206\011\347\030@\324"
 195      6064C860 
 195      00022686 
 195      7A068609 
 195      E71840D4 
 196 0014 AE0645A0 		.ascii	"\256\006E\240\000c=#\252\000S=\023\252\000s=3\252\000"
 196      00633D23 
 196      AA00533D 
 196      13AA0073 
 196      3D33AA00 
 197 0028 4B3D0BAA 		.ascii	"K=\013\252\000k=+\212\000\003\000\305\333\026\342"
 197      006B3D2B 
 197      8A000300 
 197      C5DB16E2 
 198              		.text
 199              		.section	.gnu.lto_.refs.624104a6,"",%progbits
 200 0000 789C6361 		.ascii	"x\234ca`\004B \000\000\0009\000\007"
 200      60044220 
 200      00000039 
 200      0007
 201              		.text
 202              		.section	.gnu.lto_.decls.624104a6,"",%progbits
 203 0000 789C8D54 		.ascii	"x\234\215TolSU\024\277\347\275\266\262\267\326\221\271"
 203      6F6C5355 
 203      14BFE7BD 
 203      B6B2B7D6 
 203      91B9
 204 0012 907DE887 		.ascii	"\220}\350\207\311\207\266\237\246\333\324\370\311\230"
 204      C987B69F 
 204      A6DBD4F8 
 204      C998
 205 0020 943048FC 		.ascii	"\2240H\374\027\026\341\013\311R\266\027\2341\033\251"
 205      1716E10B 
 205      C952B617 
 205      9C311BA9 
 206 0030 9D916F37 		.ascii	"\235\221o7\373\007*\211#q\262\031\346\006\213\2721\326"
 206      FB072A89 
 206      2371B219 
 206      E6068BBA 
 206      31D6
 207 0042 FDEDD616 		.ascii	"\375\355\326\026\265E\266\002\335\200\255\3068D(81 "
 207      B545B602 
 207      DD80ADC6 
 207      38442838 
 207      3120
ARM GAS  e:\temp\ccnXhP3b.s 			page 15


 208 0054 0B99C60C 		.ascii	"\013\231\306\014\201`=\367\336\367\372\036R\314nz\356"
 208      81603DF7 
 208      DEF7FA1E 
 208      52CC6E7A 
 208      EE
 209 0065 BDE7DC73 		.ascii	"\275\347\334s~\347\234\337;\251\205\000a\353\201\225"
 209      7EE79CDF 
 209      3BA98500 
 209      61EB8195 
 210 0075 909FF1EC 		.ascii	"\220\237\361\354E5\203\353\011\274o'\306\262\241\214"
 210      453583EB 
 210      09BC6F27 
 210      C6B2A18C 
 211 0085 A38450C2 		.ascii	"\243\204P\302(Q\224i\224\004yt1?\253\026\037Dq\243\244"
 211      28519469 
 211      94047974 
 211      313FAB16 
 211      1F4471A3 
 212 009a 5016B477 		.ascii	"P\026\264w\320|\376\273BZ\036s\2343Gl(GlX\313\371\177"
 212      D07CFEBB 
 212      425A1E73 
 212      9C33476C 
 212      28476C58 
 213 00b1 71E11C71 		.ascii	"q\341\034q\3215\304Es\304\261\336\363\264Z\013Q\212"
 213      D135C445 
 213      73C4B1DE 
 213      F3B45A0B 
 213      518A
 214 00c3 50622873 		.ascii	"Pb(s\032\216+\007\316t\016\234\304\032\362\347\342\370"
 214      1A8E2B07 
 214      CE740E9C 
 214      C41AF2E7 
 214      E2F8
 215 00d5 810499EE 		.ascii	"\201\004\231\356`\177\336%\270\010\022h\037\221\000"
 215      607FDE25 
 215      B8081268 
 215      1F9100
 216 00e4 881DB810 		.ascii	"\210\035\270\020!\\\305\213\304w\2225e\017\302v\"\374"
 216      215CC58B 
 216      C4779235 
 216      650FC276 
 216      22FC
 217 00f6 B9CD00E3 		.ascii	"\271\315\000\343?\375\314\350\213\203\030\350\240\005"
 217      3FFDCCE8 
 217      8B8318E8 
 217      A005
 218 0104 41B60211 		.ascii	"A\266\002\021%\336%\315\215\010p\311\0100\341\211rM"
 218      25DE25CD 
 218      8D0870C9 
 218      0830E189 
 218      724D
 219 0116 35C1C33D 		.ascii	"5\301\303=\201\336\364j\354\363\305\002\0311\361\236"
 219      81DEF46A 
 219      ECF3C502 
 219      1931F19E 
 220 0126 BEDBBFB9 		.ascii	"\276\333\277\271\3648\305\325N\251\364\214\301\314p"
 220      F438C5D5 
ARM GAS  e:\temp\ccnXhP3b.s 			page 16


 220      4EA9F48C 
 220      C1CC70
 221 0135 EBAF03EB 		.ascii	"\353\257\003\353\376\222\300\251@\006\230\276\034\271"
 221      FE92C0A9 
 221      400698BE 
 221      1CB9
 222 0143 EB103A7B 		.ascii	"\353\020:{\356:\270\364O\276\\\302\356\322\367K\203"
 222      EE3AB8F4 
 222      4FBE5CC2 
 222      EED2F74B 
 222      83
 223 0154 372DE051 		.ascii	"7-\340Q\276d0W\273G_\212P\272\036\202\240\300q\220a"
 223      BE643057 
 223      BB475F8A 
 223      50BA1E82 
 223      A0C07190 
 224 0169 004A5972 		.ascii	"\000JYr\247\202\373~J\233\350\312Qj+&P\341\204g\235"
 224      A782FB7E 
 224      4A9BE8CA 
 224      516A2B26 
 224      50E18467 
 225 017e 0486C0C3 		.ascii	"\004\206\300\3030\231\027\014\202\023\216\201\223\341"
 225      3099170C 
 225      82138E81 
 225      93E1
 226 018c 5F3FD473 		.ascii	"_?\324s\313f\2210\220\341\354\2620\333L\346N\274\000"
 226      CB669130 
 226      90E1ECB2 
 226      30DB4CE6 
 226      4EBC00
 227 019f 4B285440 		.ascii	"K(T@B5\2652\327\235\217j\221\002\353Q=\377\311\305\024"
 227      4235B532 
 227      D79D8F6A 
 227      9102EB51 
 227      3DFFC9C5 
 228 01b4 147FCA6A 		.ascii	"\024\177\312j\240\315\264D\202\355\033`\024\001G\020"
 228      A0CDB444 
 228      82ED1B60 
 228      14014710 
 229 01c4 90C01814 		.ascii	"\220\300\030\024\343>\014\026\321]r\271c\307\306^\332"
 229      E33E0C16 
 229      D15D72B9 
 229      63C7C65E 
 229      DA
 230 01d5 3B42AF8E 		.ascii	";B\257\216\266\275r\244\257\215\316c\330\313\334\017"
 230      B6BD72A4 
 230      AF8DCE63 
 230      D8CBDC0F 
 231 01e5 FA8DAAF1 		.ascii	"\372\215\252\361\312\216\257\340\022r9\016\0331t\337"
 231      CA8EAFE0 
 231      1272390E 
 231      1B3174DF 
 232 01f5 6ADB0D87 		.ascii	"j\333\015\207\3746g\341^G\372y\001\023\217\355\223\273"
 232      FC3667E1 
 232      5E47FA79 
 232      01138FED 
 232      93BB
ARM GAS  e:\temp\ccnXhP3b.s 			page 17


 233 0207 68BC0951 		.ascii	"h\274\011Q$\0162a\200L\230AB\034dq\370\316\024\310\357"
 233      240E3261 
 233      804C9841 
 233      421C6471 
 233      F8CE14C8 
 234 021c 7390EEF6 		.ascii	"s\220\356\366\276c\371\346\302Y\307F\345S\274\362]Z"
 234      BE63F9E6 
 234      C259C746 
 234      E553BCF2 
 234      5D5A
 235 022e E1077F19 		.ascii	"\341\007\177\031\357\261h)G\223FJ\364\202I#\345\244"
 235      EFB16829 
 235      4793464A 
 235      F4824923 
 235      E5A4
 236 0240 396598A7 		.ascii	"9e\230\247\\\356\2719\353\220[\201\347\014&o\307$\015"
 236      5CEEB939 
 236      EB905B81 
 236      E70C266F 
 236      C7240D
 237 0253 A673D62E 		.ascii	"\246s\326.\272\347 \021\003$b\006\211r\220S\351\003"
 237      BAE72011 
 237      03246206 
 237      89729053 
 237      E903
 238 0265 2BB2DC25 		.ascii	"+\262\334%@\276\270w\177E\306\017\340\302\021\311\310"
 238      40BEB877 
 238      7F45C60F 
 238      E0C211C9 
 238      C8
 239 0276 A6197189 		.ascii	"\246\031q\211\031\351?\222\030W\3441\356,\335\2368\275"
 239      19E93F92 
 239      1857E431 
 239      EE2CDD9E 
 239      38BD
 240 0288 E800C5C3 		.ascii	"\350\000\305\303G\000\373T<$\333$\304q\010\\\332\020"
 240      4700FB54 
 240      3C24DB24 
 240      C471085C 
 240      DA10
 241 029a 7C83C6AF 		.ascii	"|\203\306\257\321\250MSHLS\0149\371\326(\315\245\010"
 241      D1A84D53 
 241      484C530C 
 241      39F9D628 
 241      CDA508
 242 02ad 3A3AFB3E 		.ascii	"::\373>\366\360)\211e\247\344\344\320osJ\326v\022\270"
 242      F6F02989 
 242      65A7E4E4 
 242      D06F734A 
 242      D67612B8 
 243 02c1 F1E88D5B 		.ascii	"\361\350\215[\223\216\307\016\307)N\361w\372p\364]i"
 243      938EC70E 
 243      C7294EF1 
 243      77FA70F4 
 243      5D69
 244 02d3 6E51F4E9 		.ascii	"nQ\364\351H\274\2764Fi+\306Y\230\037\2340\2128a\346"
 244      48BCBE34 
ARM GAS  e:\temp\ccnXhP3b.s 			page 18


 244      46692BC6 
 244      59981F9C 
 244      308A3861 
 245 02e8 679AF373 		.ascii	"g\232\363sh\250\351\276,G\004?\327\302\301\313V\215"
 245      68A8E9BE 
 245      2C47043F 
 245      D7C2C1CB 
 245      568D
 246 02fa E4C88587 		.ascii	"\344\310\205\207\277\325\214\0013c\206Ip\230\205\226"
 246      BFD58C01 
 246      33638649 
 246      70988596 
 247 030a 91C3B298 		.ascii	"\221\303\262\230t\013\252\177\234\373l\351I1\351%\250"
 247      740BAA7F 
 247      9CFB6CE9 
 247      4931E925 
 247      A8
 248 031b 5E3E3330 		.ascii	"^>30\310^\335\214\367L\246\300\304\274[0\237L_\3773"
 248      C85EDD8C 
 248      F74CA6C0 
 248      C4BC5B30 
 248      9F4C5FFF 
 249 0330 4F9E17CC 		.ascii	"O\236\027\314\247\272\226\3236\235\371\366fZ\270\205"
 249      A7BA96D3 
 249      369DF9F6 
 249      665AB885 
 250 0340 C019ECFD 		.ascii	"\300\031\354\3754c\376\0342\357\326\230O\242\361\254"
 250      3463FE1C 
 250      32EFD698 
 250      4FA2F1AC 
 251 0350 C17C4430 		.ascii	"\301|D0?\207,\316\032\325\2725\346?\270\326\361\223"
 251      3F872CCE 
 251      1AD5BA35 
 251      E63FB8D6 
 251      F193
 252 0362 55D9CFE8 		.ascii	"U\331\317\350\\\013&FD\257\320\303V\371GQ\324\017\037"
 252      5C0B2646 
 252      44AFD0C3 
 252      56F94751 
 252      D40F1F
 253 0375 4D75CAFA 		.ascii	"Mu\312\372\177F|\341\367--\224\002,`\256\013F\256\363"
 253      7F467CE1 
 253      F72D2D94 
 253      022C60AE 
 253      0B46AEF3 
 254 0389 A0FD693C 		.ascii	"\240\375i<\232c>w\216\325\277\317\036\260\333?\314v"
 254      9A633E77 
 254      8ED5BFCF 
 254      1EB0DB3F 
 254      CC76
 255 039b CA11F520 		.ascii	"\312\021\365 \002)\260\363\277Cv\026m-\367V{7WVW\251"
 255      0229B0F3 
 255      BF437616 
 255      6D2DF756 
 255      7B375756 
 256 03b1 814DFEBA 		.ascii	"\201M\376\272\367\324W\033j\325u\225\257\275Y\342-+"
 256      F7D4571B 
ARM GAS  e:\temp\ccnXhP3b.s 			page 19


 256      6AD57595 
 256      AFBD59E2 
 256      2D2B
 257 03c3 23D6C6BA 		.ascii	"#\326\306\272\372\300\213OW\252\365\252\337\027Pk\253"
 257      FAC08B4F 
 257      57AAF5AA 
 257      DF17506B 
 257      AB
 258 03d4 AB1A1AFD 		.ascii	"\253\032\032\3755\352\3167\252\032\274\317\355\254\331"
 258      35EACE37 
 258      AA1ABCCF 
 258      EDACD9
 259 03e3 1BD8BB47 		.ascii	"\033\330\273G}\267\364-\3628\017\015\274\264\2068\364"
 259      7DB7F42D 
 259      F2380F0D 
 259      BCB48638 
 259      F4
 260 03f4 3C3BFC75 		.ascii	"<;\374u\001\325\256k\333T_\355Sfe\223/\340\333\246\356"
 260      01D5AE6B 
 260      DB545FED 
 260      53666593 
 260      2FE0DBA6 
 261 0409 2E3695B5 		.ascii	".6\225\265\265>\240\372\375\215{\002\2544\033\253\250"
 261      B53EA0FA 
 261      FD8D7B02 
 261      AC341BAB 
 261      A8
 262 041a EC850DFA 		.ascii	"\354\205\015\372\273\367\035\325\347\317z\360\327\212"
 262      BBF71DD5 
 262      E7CF7AF0 
 262      D78A
 263 0428 72AB5FDD 		.ascii	"r\253_\335]Q\376/\017\012\025\244"
 263      5D51FE2F 
 263      0F0A15A4 
 264              		.text
 265              		.section	.gnu.lto_.symtab.624104a6,"",%progbits
 266 0000 4932435F 		.ascii	"I2C_CFG_SetDriveMode\000"
 266      4346475F 
 266      53657444 
 266      72697665 
 266      4D6F6465 
 267 0015 00       		.ascii	"\000"
 268 0016 00       		.ascii	"\000"
 269 0017 00       		.ascii	"\000"
 270 0018 00000000 		.ascii	"\000\000\000\000\000\000\000\000"
 270      00000000 
 271 0020 B3000000 		.ascii	"\263\000\000\000"
 272 0024 4932435F 		.ascii	"I2C_CFG_Write\000"
 272      4346475F 
 272      57726974 
 272      6500
 273 0032 00       		.ascii	"\000"
 274 0033 00       		.ascii	"\000"
 275 0034 00       		.ascii	"\000"
 276 0035 00000000 		.ascii	"\000\000\000\000\000\000\000\000"
 276      00000000 
 277 003d B5000000 		.ascii	"\265\000\000\000"
ARM GAS  e:\temp\ccnXhP3b.s 			page 20


 278 0041 4932435F 		.ascii	"I2C_CFG_Read\000"
 278      4346475F 
 278      52656164 
 278      00
 279 004e 00       		.ascii	"\000"
 280 004f 00       		.ascii	"\000"
 281 0050 00       		.ascii	"\000"
 282 0051 00000000 		.ascii	"\000\000\000\000\000\000\000\000"
 282      00000000 
 283 0059 B8000000 		.ascii	"\270\000\000\000"
 284 005d 4932435F 		.ascii	"I2C_CFG_ReadDataReg\000"
 284      4346475F 
 284      52656164 
 284      44617461 
 284      52656700 
 285 0071 00       		.ascii	"\000"
 286 0072 00       		.ascii	"\000"
 287 0073 00       		.ascii	"\000"
 288 0074 00000000 		.ascii	"\000\000\000\000\000\000\000\000"
 288      00000000 
 289 007c BA000000 		.ascii	"\272\000\000\000"
 290 0080 4932435F 		.ascii	"I2C_CFG_SetInterruptMode\000"
 290      4346475F 
 290      53657449 
 290      6E746572 
 290      72757074 
 291 0099 00       		.ascii	"\000"
 292 009a 00       		.ascii	"\000"
 293 009b 00       		.ascii	"\000"
 294 009c 00000000 		.ascii	"\000\000\000\000\000\000\000\000"
 294      00000000 
 295 00a4 C4000000 		.ascii	"\304\000\000\000"
 296 00a8 4932435F 		.ascii	"I2C_CFG_ClearInterrupt\000"
 296      4346475F 
 296      436C6561 
 296      72496E74 
 296      65727275 
 297 00bf 00       		.ascii	"\000"
 298 00c0 00       		.ascii	"\000"
 299 00c1 00       		.ascii	"\000"
 300 00c2 00000000 		.ascii	"\000\000\000\000\000\000\000\000"
 300      00000000 
 301 00ca C6000000 		.ascii	"\306\000\000\000"
 302              		.text
 303              		.section	.gnu.lto_.opts,"",%progbits
 304 0000 272D666D 		.ascii	"'-fmath-errno' '-fsigned-zeros' '-ftrapping-math' '"
 304      6174682D 
 304      6572726E 
 304      6F272027 
 304      2D667369 
 305 0033 2D666E6F 		.ascii	"-fno-trapv' '-fno-openmp' '-fno-openacc' '-mcpu=cor"
 305      2D747261 
 305      70762720 
 305      272D666E 
 305      6F2D6F70 
 306 0066 7465782D 		.ascii	"tex-m0' '-mthumb' '-g' '-Os' '-Werror' '-ffunction-"
 306      6D302720 
ARM GAS  e:\temp\ccnXhP3b.s 			page 21


 306      272D6D74 
 306      68756D62 
 306      2720272D 
 307 0099 73656374 		.ascii	"sections' '-ffat-lto-objects' '-finline-functions' "
 307      696F6E73 
 307      2720272D 
 307      66666174 
 307      2D6C746F 
 308 00cc 272D666C 		.ascii	"'-flto' '-fno-strict-aliasing'\000"
 308      746F2720 
 308      272D666E 
 308      6F2D7374 
 308      72696374 
 309              		.text
 310              		.cfi_sections	.debug_frame
 311              		.section	.text.I2C_CFG_SetDriveMode,"ax",%progbits
 312              		.align	1
 313              		.global	I2C_CFG_SetDriveMode
 314              		.code	16
 315              		.thumb_func
 316              		.type	I2C_CFG_SetDriveMode, %function
 317              	I2C_CFG_SetDriveMode:
 318              	.LFB0:
 319              		.file 1 "Generated_Source\\PSoC4\\I2C_CFG.c"
   1:Generated_Source\PSoC4/I2C_CFG.c **** /*******************************************************************************
   2:Generated_Source\PSoC4/I2C_CFG.c **** * File Name: I2C_CFG.c  
   3:Generated_Source\PSoC4/I2C_CFG.c **** * Version 2.20
   4:Generated_Source\PSoC4/I2C_CFG.c **** *
   5:Generated_Source\PSoC4/I2C_CFG.c **** * Description:
   6:Generated_Source\PSoC4/I2C_CFG.c **** *  This file contains API to enable firmware control of a Pins component.
   7:Generated_Source\PSoC4/I2C_CFG.c **** *
   8:Generated_Source\PSoC4/I2C_CFG.c **** ********************************************************************************
   9:Generated_Source\PSoC4/I2C_CFG.c **** * Copyright 2008-2015, Cypress Semiconductor Corporation.  All rights reserved.
  10:Generated_Source\PSoC4/I2C_CFG.c **** * You may use this file only in accordance with the license, terms, conditions, 
  11:Generated_Source\PSoC4/I2C_CFG.c **** * disclaimers, and limitations in the end user license agreement accompanying 
  12:Generated_Source\PSoC4/I2C_CFG.c **** * the software package with which this file was provided.
  13:Generated_Source\PSoC4/I2C_CFG.c **** *******************************************************************************/
  14:Generated_Source\PSoC4/I2C_CFG.c **** 
  15:Generated_Source\PSoC4/I2C_CFG.c **** #include "cytypes.h"
  16:Generated_Source\PSoC4/I2C_CFG.c **** #include "I2C_CFG.h"
  17:Generated_Source\PSoC4/I2C_CFG.c **** 
  18:Generated_Source\PSoC4/I2C_CFG.c **** 
  19:Generated_Source\PSoC4/I2C_CFG.c **** #if defined(I2C_CFG__PC)
  20:Generated_Source\PSoC4/I2C_CFG.c ****     #define I2C_CFG_SetP4PinDriveMode(shift, mode)  \
  21:Generated_Source\PSoC4/I2C_CFG.c ****     do { \
  22:Generated_Source\PSoC4/I2C_CFG.c ****         I2C_CFG_PC =   (I2C_CFG_PC & \
  23:Generated_Source\PSoC4/I2C_CFG.c ****                                 (uint32)(~(uint32)(I2C_CFG_DRIVE_MODE_IND_MASK << \
  24:Generated_Source\PSoC4/I2C_CFG.c ****                                 (I2C_CFG_DRIVE_MODE_BITS * (shift))))) | \
  25:Generated_Source\PSoC4/I2C_CFG.c ****                                 (uint32)((uint32)(mode) << \
  26:Generated_Source\PSoC4/I2C_CFG.c ****                                 (I2C_CFG_DRIVE_MODE_BITS * (shift))); \
  27:Generated_Source\PSoC4/I2C_CFG.c ****     } while (0)
  28:Generated_Source\PSoC4/I2C_CFG.c **** #else
  29:Generated_Source\PSoC4/I2C_CFG.c ****     #if (CY_PSOC4_4200L)
  30:Generated_Source\PSoC4/I2C_CFG.c ****         #define I2C_CFG_SetP4PinDriveMode(shift, mode)  \
  31:Generated_Source\PSoC4/I2C_CFG.c ****         do { \
  32:Generated_Source\PSoC4/I2C_CFG.c ****             I2C_CFG_USBIO_CTRL_REG = (I2C_CFG_USBIO_CTRL_REG & \
  33:Generated_Source\PSoC4/I2C_CFG.c ****                                     (uint32)(~(uint32)(I2C_CFG_DRIVE_MODE_IND_MASK << \
ARM GAS  e:\temp\ccnXhP3b.s 			page 22


  34:Generated_Source\PSoC4/I2C_CFG.c ****                                     (I2C_CFG_DRIVE_MODE_BITS * (shift))))) | \
  35:Generated_Source\PSoC4/I2C_CFG.c ****                                     (uint32)((uint32)(mode) << \
  36:Generated_Source\PSoC4/I2C_CFG.c ****                                     (I2C_CFG_DRIVE_MODE_BITS * (shift))); \
  37:Generated_Source\PSoC4/I2C_CFG.c ****         } while (0)
  38:Generated_Source\PSoC4/I2C_CFG.c ****     #endif
  39:Generated_Source\PSoC4/I2C_CFG.c **** #endif
  40:Generated_Source\PSoC4/I2C_CFG.c ****   
  41:Generated_Source\PSoC4/I2C_CFG.c **** 
  42:Generated_Source\PSoC4/I2C_CFG.c **** #if defined(I2C_CFG__PC) || (CY_PSOC4_4200L) 
  43:Generated_Source\PSoC4/I2C_CFG.c ****     /*******************************************************************************
  44:Generated_Source\PSoC4/I2C_CFG.c ****     * Function Name: I2C_CFG_SetDriveMode
  45:Generated_Source\PSoC4/I2C_CFG.c ****     ****************************************************************************//**
  46:Generated_Source\PSoC4/I2C_CFG.c ****     *
  47:Generated_Source\PSoC4/I2C_CFG.c ****     * \brief Sets the drive mode for each of the Pins component's pins.
  48:Generated_Source\PSoC4/I2C_CFG.c ****     * 
  49:Generated_Source\PSoC4/I2C_CFG.c ****     * <b>Note</b> This affects all pins in the Pins component instance. Use the
  50:Generated_Source\PSoC4/I2C_CFG.c ****     * Per-Pin APIs if you wish to control individual pin's drive modes.
  51:Generated_Source\PSoC4/I2C_CFG.c ****     *
  52:Generated_Source\PSoC4/I2C_CFG.c ****     * <b>Note</b> USBIOs have limited drive functionality. Refer to the Drive Mode
  53:Generated_Source\PSoC4/I2C_CFG.c ****     * parameter for more information.
  54:Generated_Source\PSoC4/I2C_CFG.c ****     *
  55:Generated_Source\PSoC4/I2C_CFG.c ****     * \param mode
  56:Generated_Source\PSoC4/I2C_CFG.c ****     *  Mode for the selected signals. Valid options are documented in 
  57:Generated_Source\PSoC4/I2C_CFG.c ****     *  \ref driveMode.
  58:Generated_Source\PSoC4/I2C_CFG.c ****     *
  59:Generated_Source\PSoC4/I2C_CFG.c ****     * \return
  60:Generated_Source\PSoC4/I2C_CFG.c ****     *  None
  61:Generated_Source\PSoC4/I2C_CFG.c ****     *
  62:Generated_Source\PSoC4/I2C_CFG.c ****     * \sideeffect
  63:Generated_Source\PSoC4/I2C_CFG.c ****     *  If you use read-modify-write operations that are not atomic, the ISR can
  64:Generated_Source\PSoC4/I2C_CFG.c ****     *  cause corruption of this function. An ISR that interrupts this function 
  65:Generated_Source\PSoC4/I2C_CFG.c ****     *  and performs writes to the Pins component Drive Mode registers can cause 
  66:Generated_Source\PSoC4/I2C_CFG.c ****     *  corrupted port data. To avoid this issue, you should either use the Per-Pin
  67:Generated_Source\PSoC4/I2C_CFG.c ****     *  APIs (primary method) or disable interrupts around this function.
  68:Generated_Source\PSoC4/I2C_CFG.c ****     *
  69:Generated_Source\PSoC4/I2C_CFG.c ****     * \funcusage
  70:Generated_Source\PSoC4/I2C_CFG.c ****     *  \snippet I2C_CFG_SUT.c usage_I2C_CFG_SetDriveMode
  71:Generated_Source\PSoC4/I2C_CFG.c ****     *******************************************************************************/
  72:Generated_Source\PSoC4/I2C_CFG.c ****     void I2C_CFG_SetDriveMode(uint8 mode)
  73:Generated_Source\PSoC4/I2C_CFG.c ****     {
 320              		.loc 1 73 0
 321              		.cfi_startproc
 322              		@ args = 0, pretend = 0, frame = 0
 323              		@ frame_needed = 0, uses_anonymous_args = 0
 324              		@ link register save eliminated.
 325              	.LVL0:
  74:Generated_Source\PSoC4/I2C_CFG.c **** 		I2C_CFG_SetP4PinDriveMode(I2C_CFG__0__SHIFT, mode);
 326              		.loc 1 74 0
 327 0000 0721     		movs	r1, #7
 328 0002 034A     		ldr	r2, .L2
  75:Generated_Source\PSoC4/I2C_CFG.c ****     }
 329              		.loc 1 75 0
 330              		@ sp needed
  74:Generated_Source\PSoC4/I2C_CFG.c **** 		I2C_CFG_SetP4PinDriveMode(I2C_CFG__0__SHIFT, mode);
 331              		.loc 1 74 0
 332 0004 1368     		ldr	r3, [r2]
 333 0006 8B43     		bics	r3, r1
ARM GAS  e:\temp\ccnXhP3b.s 			page 23


 334 0008 1843     		orrs	r0, r3
 335              	.LVL1:
 336 000a 1060     		str	r0, [r2]
 337              		.loc 1 75 0
 338 000c 7047     		bx	lr
 339              	.L3:
 340 000e C046     		.align	2
 341              	.L2:
 342 0010 08010440 		.word	1074004232
 343              		.cfi_endproc
 344              	.LFE0:
 345              		.size	I2C_CFG_SetDriveMode, .-I2C_CFG_SetDriveMode
 346              		.section	.text.I2C_CFG_Write,"ax",%progbits
 347              		.align	1
 348              		.global	I2C_CFG_Write
 349              		.code	16
 350              		.thumb_func
 351              		.type	I2C_CFG_Write, %function
 352              	I2C_CFG_Write:
 353              	.LFB1:
  76:Generated_Source\PSoC4/I2C_CFG.c **** #endif
  77:Generated_Source\PSoC4/I2C_CFG.c **** 
  78:Generated_Source\PSoC4/I2C_CFG.c **** 
  79:Generated_Source\PSoC4/I2C_CFG.c **** /*******************************************************************************
  80:Generated_Source\PSoC4/I2C_CFG.c **** * Function Name: I2C_CFG_Write
  81:Generated_Source\PSoC4/I2C_CFG.c **** ****************************************************************************//**
  82:Generated_Source\PSoC4/I2C_CFG.c **** *
  83:Generated_Source\PSoC4/I2C_CFG.c **** * \brief Writes the value to the physical port (data output register), masking
  84:Generated_Source\PSoC4/I2C_CFG.c **** *  and shifting the bits appropriately. 
  85:Generated_Source\PSoC4/I2C_CFG.c **** *
  86:Generated_Source\PSoC4/I2C_CFG.c **** * The data output register controls the signal applied to the physical pin in 
  87:Generated_Source\PSoC4/I2C_CFG.c **** * conjunction with the drive mode parameter. This function avoids changing 
  88:Generated_Source\PSoC4/I2C_CFG.c **** * other bits in the port by using the appropriate method (read-modify-write or
  89:Generated_Source\PSoC4/I2C_CFG.c **** * bit banding).
  90:Generated_Source\PSoC4/I2C_CFG.c **** *
  91:Generated_Source\PSoC4/I2C_CFG.c **** * <b>Note</b> This function should not be used on a hardware digital output pin 
  92:Generated_Source\PSoC4/I2C_CFG.c **** * as it is driven by the hardware signal attached to it.
  93:Generated_Source\PSoC4/I2C_CFG.c **** *
  94:Generated_Source\PSoC4/I2C_CFG.c **** * \param value
  95:Generated_Source\PSoC4/I2C_CFG.c **** *  Value to write to the component instance.
  96:Generated_Source\PSoC4/I2C_CFG.c **** *
  97:Generated_Source\PSoC4/I2C_CFG.c **** * \return 
  98:Generated_Source\PSoC4/I2C_CFG.c **** *  None 
  99:Generated_Source\PSoC4/I2C_CFG.c **** *
 100:Generated_Source\PSoC4/I2C_CFG.c **** * \sideeffect
 101:Generated_Source\PSoC4/I2C_CFG.c **** *  If you use read-modify-write operations that are not atomic; the Interrupt 
 102:Generated_Source\PSoC4/I2C_CFG.c **** *  Service Routines (ISR) can cause corruption of this function. An ISR that 
 103:Generated_Source\PSoC4/I2C_CFG.c **** *  interrupts this function and performs writes to the Pins component data 
 104:Generated_Source\PSoC4/I2C_CFG.c **** *  register can cause corrupted port data. To avoid this issue, you should 
 105:Generated_Source\PSoC4/I2C_CFG.c **** *  either use the Per-Pin APIs (primary method) or disable interrupts around 
 106:Generated_Source\PSoC4/I2C_CFG.c **** *  this function.
 107:Generated_Source\PSoC4/I2C_CFG.c **** *
 108:Generated_Source\PSoC4/I2C_CFG.c **** * \funcusage
 109:Generated_Source\PSoC4/I2C_CFG.c **** *  \snippet I2C_CFG_SUT.c usage_I2C_CFG_Write
 110:Generated_Source\PSoC4/I2C_CFG.c **** *******************************************************************************/
 111:Generated_Source\PSoC4/I2C_CFG.c **** void I2C_CFG_Write(uint8 value)
 112:Generated_Source\PSoC4/I2C_CFG.c **** {
ARM GAS  e:\temp\ccnXhP3b.s 			page 24


 354              		.loc 1 112 0
 355              		.cfi_startproc
 356              		@ args = 0, pretend = 0, frame = 0
 357              		@ frame_needed = 0, uses_anonymous_args = 0
 358              		@ link register save eliminated.
 359              	.LVL2:
 113:Generated_Source\PSoC4/I2C_CFG.c ****     uint8 drVal = (uint8)(I2C_CFG_DR & (uint8)(~I2C_CFG_MASK));
 360              		.loc 1 113 0
 361 0000 0123     		movs	r3, #1
 362 0002 0449     		ldr	r1, .L5
 114:Generated_Source\PSoC4/I2C_CFG.c ****     drVal = (drVal | ((uint8)(value << I2C_CFG_SHIFT) & I2C_CFG_MASK));
 115:Generated_Source\PSoC4/I2C_CFG.c ****     I2C_CFG_DR = (uint32)drVal;
 116:Generated_Source\PSoC4/I2C_CFG.c **** }
 363              		.loc 1 116 0
 364              		@ sp needed
 113:Generated_Source\PSoC4/I2C_CFG.c ****     uint8 drVal = (uint8)(I2C_CFG_DR & (uint8)(~I2C_CFG_MASK));
 365              		.loc 1 113 0
 366 0004 0A68     		ldr	r2, [r1]
 367 0006 9A43     		bics	r2, r3
 368 0008 D2B2     		uxtb	r2, r2
 369              	.LVL3:
 115:Generated_Source\PSoC4/I2C_CFG.c **** }
 370              		.loc 1 115 0
 371 000a 0340     		ands	r3, r0
 372 000c 1343     		orrs	r3, r2
 373 000e 0B60     		str	r3, [r1]
 374              		.loc 1 116 0
 375 0010 7047     		bx	lr
 376              	.L6:
 377 0012 C046     		.align	2
 378              	.L5:
 379 0014 00010440 		.word	1074004224
 380              		.cfi_endproc
 381              	.LFE1:
 382              		.size	I2C_CFG_Write, .-I2C_CFG_Write
 383              		.section	.text.I2C_CFG_Read,"ax",%progbits
 384              		.align	1
 385              		.global	I2C_CFG_Read
 386              		.code	16
 387              		.thumb_func
 388              		.type	I2C_CFG_Read, %function
 389              	I2C_CFG_Read:
 390              	.LFB2:
 117:Generated_Source\PSoC4/I2C_CFG.c **** 
 118:Generated_Source\PSoC4/I2C_CFG.c **** 
 119:Generated_Source\PSoC4/I2C_CFG.c **** /*******************************************************************************
 120:Generated_Source\PSoC4/I2C_CFG.c **** * Function Name: I2C_CFG_Read
 121:Generated_Source\PSoC4/I2C_CFG.c **** ****************************************************************************//**
 122:Generated_Source\PSoC4/I2C_CFG.c **** *
 123:Generated_Source\PSoC4/I2C_CFG.c **** * \brief Reads the associated physical port (pin status register) and masks 
 124:Generated_Source\PSoC4/I2C_CFG.c **** *  the required bits according to the width and bit position of the component
 125:Generated_Source\PSoC4/I2C_CFG.c **** *  instance. 
 126:Generated_Source\PSoC4/I2C_CFG.c **** *
 127:Generated_Source\PSoC4/I2C_CFG.c **** * The pin's status register returns the current logic level present on the 
 128:Generated_Source\PSoC4/I2C_CFG.c **** * physical pin.
 129:Generated_Source\PSoC4/I2C_CFG.c **** *
 130:Generated_Source\PSoC4/I2C_CFG.c **** * \return 
ARM GAS  e:\temp\ccnXhP3b.s 			page 25


 131:Generated_Source\PSoC4/I2C_CFG.c **** *  The current value for the pins in the component as a right justified number.
 132:Generated_Source\PSoC4/I2C_CFG.c **** *
 133:Generated_Source\PSoC4/I2C_CFG.c **** * \funcusage
 134:Generated_Source\PSoC4/I2C_CFG.c **** *  \snippet I2C_CFG_SUT.c usage_I2C_CFG_Read  
 135:Generated_Source\PSoC4/I2C_CFG.c **** *******************************************************************************/
 136:Generated_Source\PSoC4/I2C_CFG.c **** uint8 I2C_CFG_Read(void)
 137:Generated_Source\PSoC4/I2C_CFG.c **** {
 391              		.loc 1 137 0
 392              		.cfi_startproc
 393              		@ args = 0, pretend = 0, frame = 0
 394              		@ frame_needed = 0, uses_anonymous_args = 0
 395              		@ link register save eliminated.
 138:Generated_Source\PSoC4/I2C_CFG.c ****     return (uint8)((I2C_CFG_PS & I2C_CFG_MASK) >> I2C_CFG_SHIFT);
 396              		.loc 1 138 0
 397 0000 024B     		ldr	r3, .L8
 139:Generated_Source\PSoC4/I2C_CFG.c **** }
 398              		.loc 1 139 0
 399              		@ sp needed
 138:Generated_Source\PSoC4/I2C_CFG.c ****     return (uint8)((I2C_CFG_PS & I2C_CFG_MASK) >> I2C_CFG_SHIFT);
 400              		.loc 1 138 0
 401 0002 1868     		ldr	r0, [r3]
 402 0004 0123     		movs	r3, #1
 403 0006 1840     		ands	r0, r3
 404              		.loc 1 139 0
 405 0008 7047     		bx	lr
 406              	.L9:
 407 000a C046     		.align	2
 408              	.L8:
 409 000c 04010440 		.word	1074004228
 410              		.cfi_endproc
 411              	.LFE2:
 412              		.size	I2C_CFG_Read, .-I2C_CFG_Read
 413              		.section	.text.I2C_CFG_ReadDataReg,"ax",%progbits
 414              		.align	1
 415              		.global	I2C_CFG_ReadDataReg
 416              		.code	16
 417              		.thumb_func
 418              		.type	I2C_CFG_ReadDataReg, %function
 419              	I2C_CFG_ReadDataReg:
 420              	.LFB3:
 140:Generated_Source\PSoC4/I2C_CFG.c **** 
 141:Generated_Source\PSoC4/I2C_CFG.c **** 
 142:Generated_Source\PSoC4/I2C_CFG.c **** /*******************************************************************************
 143:Generated_Source\PSoC4/I2C_CFG.c **** * Function Name: I2C_CFG_ReadDataReg
 144:Generated_Source\PSoC4/I2C_CFG.c **** ****************************************************************************//**
 145:Generated_Source\PSoC4/I2C_CFG.c **** *
 146:Generated_Source\PSoC4/I2C_CFG.c **** * \brief Reads the associated physical port's data output register and masks 
 147:Generated_Source\PSoC4/I2C_CFG.c **** *  the correct bits according to the width and bit position of the component 
 148:Generated_Source\PSoC4/I2C_CFG.c **** *  instance. 
 149:Generated_Source\PSoC4/I2C_CFG.c **** *
 150:Generated_Source\PSoC4/I2C_CFG.c **** * The data output register controls the signal applied to the physical pin in 
 151:Generated_Source\PSoC4/I2C_CFG.c **** * conjunction with the drive mode parameter. This is not the same as the 
 152:Generated_Source\PSoC4/I2C_CFG.c **** * preferred I2C_CFG_Read() API because the 
 153:Generated_Source\PSoC4/I2C_CFG.c **** * I2C_CFG_ReadDataReg() reads the data register instead of the status 
 154:Generated_Source\PSoC4/I2C_CFG.c **** * register. For output pins this is a useful function to determine the value 
 155:Generated_Source\PSoC4/I2C_CFG.c **** * just written to the pin.
 156:Generated_Source\PSoC4/I2C_CFG.c **** *
ARM GAS  e:\temp\ccnXhP3b.s 			page 26


 157:Generated_Source\PSoC4/I2C_CFG.c **** * \return 
 158:Generated_Source\PSoC4/I2C_CFG.c **** *  The current value of the data register masked and shifted into a right 
 159:Generated_Source\PSoC4/I2C_CFG.c **** *  justified number for the component instance.
 160:Generated_Source\PSoC4/I2C_CFG.c **** *
 161:Generated_Source\PSoC4/I2C_CFG.c **** * \funcusage
 162:Generated_Source\PSoC4/I2C_CFG.c **** *  \snippet I2C_CFG_SUT.c usage_I2C_CFG_ReadDataReg 
 163:Generated_Source\PSoC4/I2C_CFG.c **** *******************************************************************************/
 164:Generated_Source\PSoC4/I2C_CFG.c **** uint8 I2C_CFG_ReadDataReg(void)
 165:Generated_Source\PSoC4/I2C_CFG.c **** {
 421              		.loc 1 165 0
 422              		.cfi_startproc
 423              		@ args = 0, pretend = 0, frame = 0
 424              		@ frame_needed = 0, uses_anonymous_args = 0
 425              		@ link register save eliminated.
 166:Generated_Source\PSoC4/I2C_CFG.c ****     return (uint8)((I2C_CFG_DR & I2C_CFG_MASK) >> I2C_CFG_SHIFT);
 426              		.loc 1 166 0
 427 0000 024B     		ldr	r3, .L11
 167:Generated_Source\PSoC4/I2C_CFG.c **** }
 428              		.loc 1 167 0
 429              		@ sp needed
 166:Generated_Source\PSoC4/I2C_CFG.c ****     return (uint8)((I2C_CFG_DR & I2C_CFG_MASK) >> I2C_CFG_SHIFT);
 430              		.loc 1 166 0
 431 0002 1868     		ldr	r0, [r3]
 432 0004 0123     		movs	r3, #1
 433 0006 1840     		ands	r0, r3
 434              		.loc 1 167 0
 435 0008 7047     		bx	lr
 436              	.L12:
 437 000a C046     		.align	2
 438              	.L11:
 439 000c 00010440 		.word	1074004224
 440              		.cfi_endproc
 441              	.LFE3:
 442              		.size	I2C_CFG_ReadDataReg, .-I2C_CFG_ReadDataReg
 443              		.section	.text.I2C_CFG_SetInterruptMode,"ax",%progbits
 444              		.align	1
 445              		.global	I2C_CFG_SetInterruptMode
 446              		.code	16
 447              		.thumb_func
 448              		.type	I2C_CFG_SetInterruptMode, %function
 449              	I2C_CFG_SetInterruptMode:
 450              	.LFB4:
 168:Generated_Source\PSoC4/I2C_CFG.c **** 
 169:Generated_Source\PSoC4/I2C_CFG.c **** 
 170:Generated_Source\PSoC4/I2C_CFG.c **** /*******************************************************************************
 171:Generated_Source\PSoC4/I2C_CFG.c **** * Function Name: I2C_CFG_SetInterruptMode
 172:Generated_Source\PSoC4/I2C_CFG.c **** ****************************************************************************//**
 173:Generated_Source\PSoC4/I2C_CFG.c **** *
 174:Generated_Source\PSoC4/I2C_CFG.c **** * \brief Configures the interrupt mode for each of the Pins component's
 175:Generated_Source\PSoC4/I2C_CFG.c **** *  pins. Alternatively you may set the interrupt mode for all the pins
 176:Generated_Source\PSoC4/I2C_CFG.c **** *  specified in the Pins component.
 177:Generated_Source\PSoC4/I2C_CFG.c **** *
 178:Generated_Source\PSoC4/I2C_CFG.c **** *  <b>Note</b> The interrupt is port-wide and therefore any enabled pin
 179:Generated_Source\PSoC4/I2C_CFG.c **** *  interrupt may trigger it.
 180:Generated_Source\PSoC4/I2C_CFG.c **** *
 181:Generated_Source\PSoC4/I2C_CFG.c **** * \param position
 182:Generated_Source\PSoC4/I2C_CFG.c **** *  The pin position as listed in the Pins component. You may OR these to be 
ARM GAS  e:\temp\ccnXhP3b.s 			page 27


 183:Generated_Source\PSoC4/I2C_CFG.c **** *  able to configure the interrupt mode of multiple pins within a Pins 
 184:Generated_Source\PSoC4/I2C_CFG.c **** *  component. Or you may use I2C_CFG_INTR_ALL to configure the
 185:Generated_Source\PSoC4/I2C_CFG.c **** *  interrupt mode of all the pins in the Pins component.       
 186:Generated_Source\PSoC4/I2C_CFG.c **** *  - I2C_CFG_0_INTR       (First pin in the list)
 187:Generated_Source\PSoC4/I2C_CFG.c **** *  - I2C_CFG_1_INTR       (Second pin in the list)
 188:Generated_Source\PSoC4/I2C_CFG.c **** *  - ...
 189:Generated_Source\PSoC4/I2C_CFG.c **** *  - I2C_CFG_INTR_ALL     (All pins in Pins component)
 190:Generated_Source\PSoC4/I2C_CFG.c **** *
 191:Generated_Source\PSoC4/I2C_CFG.c **** * \param mode
 192:Generated_Source\PSoC4/I2C_CFG.c **** *  Interrupt mode for the selected pins. Valid options are documented in
 193:Generated_Source\PSoC4/I2C_CFG.c **** *  \ref intrMode.
 194:Generated_Source\PSoC4/I2C_CFG.c **** *
 195:Generated_Source\PSoC4/I2C_CFG.c **** * \return 
 196:Generated_Source\PSoC4/I2C_CFG.c **** *  None
 197:Generated_Source\PSoC4/I2C_CFG.c **** *  
 198:Generated_Source\PSoC4/I2C_CFG.c **** * \sideeffect
 199:Generated_Source\PSoC4/I2C_CFG.c **** *  It is recommended that the interrupt be disabled before calling this 
 200:Generated_Source\PSoC4/I2C_CFG.c **** *  function to avoid unintended interrupt requests. Note that the interrupt
 201:Generated_Source\PSoC4/I2C_CFG.c **** *  type is port wide, and therefore will trigger for any enabled pin on the 
 202:Generated_Source\PSoC4/I2C_CFG.c **** *  port.
 203:Generated_Source\PSoC4/I2C_CFG.c **** *
 204:Generated_Source\PSoC4/I2C_CFG.c **** * \funcusage
 205:Generated_Source\PSoC4/I2C_CFG.c **** *  \snippet I2C_CFG_SUT.c usage_I2C_CFG_SetInterruptMode
 206:Generated_Source\PSoC4/I2C_CFG.c **** *******************************************************************************/
 207:Generated_Source\PSoC4/I2C_CFG.c **** void I2C_CFG_SetInterruptMode(uint16 position, uint16 mode)
 208:Generated_Source\PSoC4/I2C_CFG.c **** {
 451              		.loc 1 208 0
 452              		.cfi_startproc
 453              		@ args = 0, pretend = 0, frame = 0
 454              		@ frame_needed = 0, uses_anonymous_args = 0
 455              		@ link register save eliminated.
 456              	.LVL4:
 209:Generated_Source\PSoC4/I2C_CFG.c ****     uint32 intrCfg;
 210:Generated_Source\PSoC4/I2C_CFG.c ****     
 211:Generated_Source\PSoC4/I2C_CFG.c ****     intrCfg =  I2C_CFG_INTCFG & (uint32)(~(uint32)position);
 457              		.loc 1 211 0
 458 0000 034A     		ldr	r2, .L14
 212:Generated_Source\PSoC4/I2C_CFG.c ****     I2C_CFG_INTCFG = intrCfg | ((uint32)position & (uint32)mode);
 213:Generated_Source\PSoC4/I2C_CFG.c **** }
 459              		.loc 1 213 0
 460              		@ sp needed
 211:Generated_Source\PSoC4/I2C_CFG.c ****     I2C_CFG_INTCFG = intrCfg | ((uint32)position & (uint32)mode);
 461              		.loc 1 211 0
 462 0002 1368     		ldr	r3, [r2]
 463              	.LVL5:
 212:Generated_Source\PSoC4/I2C_CFG.c ****     I2C_CFG_INTCFG = intrCfg | ((uint32)position & (uint32)mode);
 464              		.loc 1 212 0
 465 0004 8343     		bics	r3, r0
 466              	.LVL6:
 467 0006 0840     		ands	r0, r1
 468              	.LVL7:
 469 0008 1843     		orrs	r0, r3
 470 000a 1060     		str	r0, [r2]
 471              		.loc 1 213 0
 472 000c 7047     		bx	lr
 473              	.L15:
 474 000e C046     		.align	2
ARM GAS  e:\temp\ccnXhP3b.s 			page 28


 475              	.L14:
 476 0010 0C010440 		.word	1074004236
 477              		.cfi_endproc
 478              	.LFE4:
 479              		.size	I2C_CFG_SetInterruptMode, .-I2C_CFG_SetInterruptMode
 480              		.section	.text.I2C_CFG_ClearInterrupt,"ax",%progbits
 481              		.align	1
 482              		.global	I2C_CFG_ClearInterrupt
 483              		.code	16
 484              		.thumb_func
 485              		.type	I2C_CFG_ClearInterrupt, %function
 486              	I2C_CFG_ClearInterrupt:
 487              	.LFB5:
 214:Generated_Source\PSoC4/I2C_CFG.c **** 
 215:Generated_Source\PSoC4/I2C_CFG.c **** 
 216:Generated_Source\PSoC4/I2C_CFG.c **** /*******************************************************************************
 217:Generated_Source\PSoC4/I2C_CFG.c **** * Function Name: I2C_CFG_ClearInterrupt
 218:Generated_Source\PSoC4/I2C_CFG.c **** ****************************************************************************//**
 219:Generated_Source\PSoC4/I2C_CFG.c **** *
 220:Generated_Source\PSoC4/I2C_CFG.c **** * \brief Clears any active interrupts attached with the component and returns 
 221:Generated_Source\PSoC4/I2C_CFG.c **** *  the value of the interrupt status register allowing determination of which
 222:Generated_Source\PSoC4/I2C_CFG.c **** *  pins generated an interrupt event.
 223:Generated_Source\PSoC4/I2C_CFG.c **** *
 224:Generated_Source\PSoC4/I2C_CFG.c **** * \return 
 225:Generated_Source\PSoC4/I2C_CFG.c **** *  The right-shifted current value of the interrupt status register. Each pin 
 226:Generated_Source\PSoC4/I2C_CFG.c **** *  has one bit set if it generated an interrupt event. For example, bit 0 is 
 227:Generated_Source\PSoC4/I2C_CFG.c **** *  for pin 0 and bit 1 is for pin 1 of the Pins component.
 228:Generated_Source\PSoC4/I2C_CFG.c **** *  
 229:Generated_Source\PSoC4/I2C_CFG.c **** * \sideeffect
 230:Generated_Source\PSoC4/I2C_CFG.c **** *  Clears all bits of the physical port's interrupt status register, not just
 231:Generated_Source\PSoC4/I2C_CFG.c **** *  those associated with the Pins component.
 232:Generated_Source\PSoC4/I2C_CFG.c **** *
 233:Generated_Source\PSoC4/I2C_CFG.c **** * \funcusage
 234:Generated_Source\PSoC4/I2C_CFG.c **** *  \snippet I2C_CFG_SUT.c usage_I2C_CFG_ClearInterrupt
 235:Generated_Source\PSoC4/I2C_CFG.c **** *******************************************************************************/
 236:Generated_Source\PSoC4/I2C_CFG.c **** uint8 I2C_CFG_ClearInterrupt(void)
 237:Generated_Source\PSoC4/I2C_CFG.c **** {
 488              		.loc 1 237 0
 489              		.cfi_startproc
 490              		@ args = 0, pretend = 0, frame = 0
 491              		@ frame_needed = 0, uses_anonymous_args = 0
 492              		@ link register save eliminated.
 238:Generated_Source\PSoC4/I2C_CFG.c **** 	uint8 maskedStatus = (uint8)(I2C_CFG_INTSTAT & I2C_CFG_MASK);
 493              		.loc 1 238 0
 494 0000 0123     		movs	r3, #1
 495 0002 024A     		ldr	r2, .L17
 239:Generated_Source\PSoC4/I2C_CFG.c **** 	I2C_CFG_INTSTAT = maskedStatus;
 240:Generated_Source\PSoC4/I2C_CFG.c ****     return maskedStatus >> I2C_CFG_SHIFT;
 241:Generated_Source\PSoC4/I2C_CFG.c **** }
 496              		.loc 1 241 0
 497              		@ sp needed
 238:Generated_Source\PSoC4/I2C_CFG.c **** 	uint8 maskedStatus = (uint8)(I2C_CFG_INTSTAT & I2C_CFG_MASK);
 498              		.loc 1 238 0
 499 0004 1068     		ldr	r0, [r2]
 500 0006 1840     		ands	r0, r3
 501              	.LVL8:
 239:Generated_Source\PSoC4/I2C_CFG.c **** 	I2C_CFG_INTSTAT = maskedStatus;
ARM GAS  e:\temp\ccnXhP3b.s 			page 29


 502              		.loc 1 239 0
 503 0008 1060     		str	r0, [r2]
 504              		.loc 1 241 0
 505 000a 7047     		bx	lr
 506              	.L18:
 507              		.align	2
 508              	.L17:
 509 000c 10010440 		.word	1074004240
 510              		.cfi_endproc
 511              	.LFE5:
 512              		.size	I2C_CFG_ClearInterrupt, .-I2C_CFG_ClearInterrupt
 513              		.text
 514              	.Letext0:
 515              		.file 2 "Generated_Source\\PSoC4\\cytypes.h"