ARM GAS  e:\temp\ccNlDmvN.s 			page 1


   1              		.syntax unified
   2              		.cpu cortex-m0
   3              		.fpu softvfp
   4              		.eabi_attribute 20, 1
   5              		.eabi_attribute 21, 1
   6              		.eabi_attribute 23, 3
   7              		.eabi_attribute 24, 1
   8              		.eabi_attribute 25, 1
   9              		.eabi_attribute 26, 1
  10              		.eabi_attribute 30, 4
  11              		.eabi_attribute 34, 0
  12              		.eabi_attribute 18, 4
  13              		.thumb
  14              		.syntax unified
  15              		.file	"instrumentation.c"
  16              		.text
  17              	.Ltext0:
  18              		.section	.gnu.lto_.profile.6248ad16,"",%progbits
  19 0000 789C6361 		.ascii	"x\234ca`d`a`\000\222\331\006\000\001p\000\246"
  19      60646061 
  19      600092D9 
  19      06000170 
  19      00A6
  20              		.text
  21              		.section	.gnu.lto_.icf.6248ad16,"",%progbits
  22 0000 789C6361 		.ascii	"x\234ca`d\000\0015\006\004`c\270|\177\357\001&\246\305"
  22      60640001 
  22      35060460 
  22      63B87C7F 
  22      EF0126A6 
  23 0015 9F3BBEF2 		.ascii	"\237;\276\3623_\351\354\376\300\3176\367\306\265Ff\366"
  23      335FE9EC 
  23      FEC0CF36 
  23      F7C6B546 
  23      66F6
  24 0027 C7FF376E 		.ascii	"\307\3777n\341\347xqb\375_\016\006\000tJ\023\017"
  24      E1E77871 
  24      62FD5F0E 
  24      0600744A 
  24      130F
  25              		.text
  26              		.section	.gnu.lto_.jmpfuncs.6248ad16,"",%progbits
  27 0000 789C6361 		.ascii	"x\234ca`d\000\201m\014\010\300\312\300\304\010\022\345"
  27      60640081 
  27      6D0C08C0 
  27      CAC0C408 
  27      12E5
  28 0012 60FCCBC4 		.ascii	"`\374\313\3048\255\365\320y\366/L\255\314@\205\214\313"
  28      38ADF5D0 
  28      79F62F4C 
  28      ADCC4085 
  28      8CCB
  29 0024 19651818 		.ascii	"\031e\030\030@\242\257\366<>\303\014\022ed\274\300\310"
  29      40A2AFF6 
  29      3C3EC30C 
  29      126564BC 
  29      C0C8
ARM GAS  e:\temp\ccNlDmvN.s 			page 2


  30 0036 B80226DC 		.ascii	"\270\002&\3342\373c3/H\230\211\361\035+\343J\230\360"
  30      32FB6333 
  30      2F489889 
  30      F11D2BE3 
  30      4A98F0
  31 0049 CE9D6F6E 		.ascii	"\316\235on\263\327\377m\350hh\020hef\376\317\0044\234"
  31      B3D7FF6D 
  31      E8686810 
  31      686566FE 
  31      CF04349C 
  32 005d 7115633D 		.ascii	"q\025c=\220bf`\000\361@\230\015d#\324\012\250\221\004"
  32      90626660 
  32      00F14098 
  32      0D6423D4 
  32      0AA89104 
  33 0071 8C580D32 		.ascii	"\214X\0152\202\035\250\015\344j\000C\242,\243"
  33      821DA80D 
  33      E46A0043 
  33      A22CA3
  34              		.text
  35              		.section	.gnu.lto_.inline.6248ad16,"",%progbits
  36 0000 789C6361 		.ascii	"x\234ca`d\000\201n\006\004`e`\020\224cd`\0228R\310\300"
  36      60640081 
  36      6E060460 
  36      65601094 
  36      63646012 
  37 0018 B6409E09 		.ascii	"\266@\236\011,\306\307\300\300\002b0r\001\011f\006q"
  37      2CC6C7C0 
  37      C0026230 
  37      72010966 
  37      0671
  38 002a 15A00285 		.ascii	"\025\240\002\2053\373\030\341*\230\270\201\222\023\374"
  38      33FB18E1 
  38      2A98B881 
  38      9213FC
  39 0039 A0141B03 		.ascii	"\240\024\033\003\207\000P\005P\034\303\004v\006\026"
  39      87005005 
  39      501CC304 
  39      760616
  40 0048 66A014D3 		.ascii	"f\240\024\323\005~\270\034\007\003\033\037P\210e\201"
  40      057EB81C 
  40      07031B1F 
  40      50886581 
  41 0058 3C5C086C 		.ascii	"<\\\010l\017\003\000\251(\013\355"
  41      0F0300A9 
  41      280BED
  42              		.text
  43              		.section	.gnu.lto_.pureconst.6248ad16,"",%progbits
  44 0000 789C6361 		.ascii	"x\234ca`d\340f```e\220b\226b\223`\227\342\220\002\000"
  44      6064E066 
  44      60606065 
  44      90629662 
  44      936097E2 
  45 0017 043400AE 		.ascii	"\0044\000\256"
  46              		.text
  47              		.section	.gnu.lto_watchdog_timer_cb.6248ad16,"",%progbits
  48 0000 789C9552 		.ascii	"x\234\225R\315O\023A\024\237\337\314v\267\366\203x\360"
ARM GAS  e:\temp\ccNlDmvN.s 			page 3


  48      CD4F1341 
  48      149FDFCC 
  48      76B7F683 
  48      78F0
  49 0012 62D283C6 		.ascii	"b\322\203\306\003\341b \362?x\367\354E\321\003\007Z"
  49      03E16220 
  49      F23F78F7 
  49      EC45D103 
  49      075A
  50 0024 03F5DCE9 		.ascii	"\003\365\334\351\227H\202\006\243\326\003\022N\006\374"
  50      97488206 
  50      A3D60312 
  50      4E06FC
  51 0033 C4A22055 		.ascii	"\304\242 U\304\245\032\271\020 \032\023\023\"V0\015"
  51      C4A51AB9 
  51      10201A13 
  51      13225630 
  51      0D
  52 0044 41A234A9 		.ascii	"A\2424\2511\232\324\372\336l%\030\2710\311\316N~\373"
  52      319AD4FA 
  52      DE6C2518 
  52      B930C9CE 
  52      4E7EFB
  53 0057 7E1FF3F6 		.ascii	"~\037\363\366Y\002\202\3275%\304\021z\267\323\003\237"
  53      590282D7 
  53      3525C411 
  53      7AB7D303 
  53      9F
  54 0068 801C5810 		.ascii	"\200\034X\020\"\351\227R\315\264\011\035\260\336D\204"
  54      22E99752 
  54      CDB4091D 
  54      B0DE4484 
  55 0078 0E29581E 		.ascii	"\016)X\036l\001|\320~\210\204T\026\022\370.k\022\305"
  55      6C017CD0 
  55      7E888454 
  55      1612F82E 
  55      6B12C5
  56 008b DE7241B6 		.ascii	"\336rA\266\214hZ\245\354\227V=\352\"K\272ui,\004F\320"
  56      8C685AA5 
  56      EC97563D 
  56      EA224BBA 
  56      75692C04 
  57 00a1 42552F17 		.ascii	"BU/\027\352S\001\025\201\240s\337\364\267\237\301\346"
  57      EA530115 
  57      81A073DF 
  57      F4B79FC1 
  57      E6
  58 00b2 5B5AA7B4 		.ascii	"[Z\247\264\273\374\272\351\206f\0060\012E$\034\213\240"
  58      BBFCBAE9 
  58      86660630 
  58      0A45241C 
  58      8BA0
  59 00c4 35220810 		.ascii	"5\"\010\020\270\215f*\237\034\271\264\241\324aC-.\275"
  59      B88D662A 
  59      9F1CB9B4 
  59      A1D46143 
  59      2D2EBD
ARM GAS  e:\temp\ccNlDmvN.s 			page 4


  60 00d7 FD156E50 		.ascii	"\375\025nP?\\8\340Q%\356\374K\245\343]4s\375j\376\367"
  60      3F5C38E0 
  60      5125EEFC 
  60      4BA5E35D 
  60      3473FD6A 
  61 00ed F5B09DE1 		.ascii	"\365\260\235\341p\207\274H\270\007\233o?v\302\325\365"
  61      7087BC48 
  61      B8079B6F 
  61      3F76C2D5 
  61      F5
  62 00fe 7A5ABB1F 		.ascii	"zZ\273\037\355\331\233NP\021MY\274\331\2749\264YBl\021"
  62      EDD99B4E 
  62      50114D59 
  62      BCD9BC39 
  62      B459426C 
  63 0113 83EF5C91 		.ascii	"\203\357\\\221\222\337\252\214b.\277\222\367\261HZ)"
  63      92DFAA8C 
  63      622EBF92 
  63      F7B1485A 
  63      29
  64 0124 32C8658B 		.ascii	"2\310e\213\213NUf\225\317\344+\0246\227\235DM_\324z"
  64      8B4E5566 
  64      95CFE42B 
  64      1436979D 
  64      444D5FD4 
  65 0139 3F617DD4 		.ascii	"?a}\324\010\20673\253\013\301a\014%u\222q\033\017\250"
  65      08863733 
  65      AB0BC161 
  65      0C257592 
  65      711B0FA8 
  66 014d 7BF711A1 		.ascii	"{\367\021\2418c\030\206(#\235\263=Q\313\323\235\350"
  66      38631886 
  66      28239DB3 
  66      3D51CBD3 
  66      9DE8
  67 015f 9DCF0758 		.ascii	"\235\317\007X\327\006\360\220*\331\032\\\262\007\227"
  67      D706F090 
  67      2AD91A5C 
  67      B20797
  68 016e FCB6CB38 		.ascii	"\374\266\3138\271\220\266Q\251\254$\035\317k/Z\217\266"
  68      B990B651 
  68      A9AC241D 
  68      CF6B2F5A 
  68      8FB6
  69 0180 B51E73E2 		.ascii	"\265\036s\342O\310\274O\237n\310\230\200\274*R\211\231"
  69      4FC8BC4F 
  69      9F6EC898 
  69      80BC2A52 
  69      8999
  70 0192 366A532A 		.ascii	"6jS*\227\377|\245\341\342\354l\223\263K\233\234>\372"
  70      97FF7CA5 
  70      E1E2EC6C 
  70      93B34B9B 
  70      9C3EFA
  71 01a5 D90C6FCC 		.ascii	"\331\014o\314\277{\0250\246\006\2670I\246\023\306\364"
  71      BF7B1530 
  71      A606B730 
ARM GAS  e:\temp\ccNlDmvN.s 			page 5


  71      49A613C6 
  71      F4
  72 01b6 89D7A654 		.ascii	"\211\327\246T\265\324\336h\302li\274\022dI\013\026O"
  72      B5D4DE68 
  72      C26C69BC 
  72      1264490B 
  72      164F
  73 01c8 49AD7A59 		.ascii	"I\255zY5\270\272\207~\237\237\2341e\310\005\"S\311\332"
  73      35B8BA87 
  73      7E9F9F9C 
  73      3165C805 
  73      2253C9DA 
  74 01dc C08F459B 		.ascii	"\300\217E\233\031~\364\227\372u\010O\351\353:\322\356"
  74      197EF497 
  74      FA75084F 
  74      E9EB3AD2 
  74      EE
  75 01ed D5B9108B 		.ascii	"\325\271\020\213\376\237l_]R2<C\202\004\003\346\202"
  75      FE9F6C5F 
  75      5D52323C 
  75      43820403 
  75      E682
  76 01ff 96198475 		.ascii	"\226\031\204u\364\272\203srwV\260N\343\"0M\254\235W"
  76      F4BA8373 
  76      727756B0 
  76      4EE32230 
  76      4DAC9D57 
  77 0213 074DF473 		.ascii	"\007M\364sD\370\236\323k\363\212!\211%`\306`\231\301"
  77      44F89ED3 
  77      6BF38A21 
  77      892560C6 
  77      6099C1
  78 0226 4A3ACC58 		.ascii	"J:\314X\010_}xa\260\277\262\376\254\012\363|\263\033"
  78      085F7D78 
  78      61B0BFB2 
  78      FEAC0AF3 
  78      7CB31B
  79 0239 5C24B2AA 		.ascii	"\\$\262\252Il \345\016\0357\020\257-\012J\301\310\367"
  79      496C20E5 
  79      0E1D3710 
  79      AF2D0A4A 
  79      C1C8F7
  80 024c 6047ACAB 		.ascii	"`G\254\253+\026=\331\031\355\211w\237\357:\033\215\237"
  80      2B163DD9 
  80      19ED8977 
  80      9FEF3A1B 
  80      8D9F
  81 025e 8A77C6A2 		.ascii	"\212w\306\242G;\204u.\326\035\227\235g\376\000\232s"
  81      473B8475 
  81      2ED61D97 
  81      9D67FE00 
  81      9A73
  82 0270 4B05     		.ascii	"K\005"
  83              		.text
  84              		.section	.gnu.lto_instrumentation_init.6248ad16,"",%progbits
  85 0000 789C9554 		.ascii	"x\234\225T\335OTG\024\2373s\277\334\017\026\02356!\206"
  85      DD4F5447 
ARM GAS  e:\temp\ccNlDmvN.s 			page 6


  85      149F3373 
  85      BFDC0F16 
  85      13353621 
  86 0015 C4D8C417 		.ascii	"\304\330\304\027\365\261\377\203o>\365\201\304\264\324"
  86      F5B1FF83 
  86      6F3EF581 
  86      C4B4D4
  87 0024 071F581A 		.ascii	"\007\037X\032\304\324\370\302\300\356\272B\210\222&"
  87      C4D4F8C2 
  87      C0EEBA42 
  87      889226
  88 0033 A5C16068 		.ascii	"\245\301`h\225FtUX\255\037\253V/[*\025\020$\225b+U\\"
  88      95467455 
  88      58AD1FAB 
  88      562F5B2A 
  88      15102495 
  89 004b 2D6D0CC5 		.ascii	"-m\014\305]\002\266\250\260\2363\263,+\255\206\336d"
  89      5D02B6A8 
  89      B09E33B3 
  89      2C2BAD86 
  89      DE64
  90 005d F7CE9C3B 		.ascii	"\367\316\234;\363\3738\347\314\030\014\030=\237Z\214"
  90      F3FB38E7 
  90      CC180C18 
  90      3D9F5A8C 
  91 006d 6DC47719 		.ascii	"m\304w\031\376\300a\300\233\006\031\253u8\027\351\265"
  91      FEC061C0 
  91      9B0619AB 
  91      753817E9 
  91      B5
  92 007e 4C7ACCAF 		.ascii	"Lz\314\257>`\322'\270Q03\300\324\213Ln\335\335\212a"
  92      3E60D227 
  92      B8513033 
  92      C0D48B4C 
  92      6EDDDD8A 
  93 0093 FBDA060C 		.ascii	"\373\332\006\014[`\353\260\015@\003\351\000\253\341"
  93      5B60EBB0 
  93      0D4003E9 
  93      00ABE1
  94 00a2 C2302D1B 		.ascii	"\3020-\033j`\226\317sHF'\022|\363\011\211\317\370\357"
  94      6A6096CF 
  94      73484627 
  94      127CF309 
  94      89CFF8EF 
  95 00b6 0BDB6487 		.ascii	"\013\333d\207\013\021\301X\226+)\014N\300f\206\313\206"
  95      0B11C158 
  95      962B290C 
  95      4EC06686 
  95      CB86
  96 00c8 C35DAD62 		.ascii	"\303]\255b\206G\004\200\201\323\314\355#\217\213h\312"
  96      86470480 
  96      81D3CCED 
  96      238F8B68 
  96      CA
  97 00d9 A114A7AF 		.ascii	"\241\024\247\257\246\177\351/\022%@+[\237=\\\275\351"
  97      A67FE92F 
  97      1225402B 
ARM GAS  e:\temp\ccNlDmvN.s 			page 7


  97      5B9F3D5C 
  97      BDE9
  98 00eb B89475D2 		.ascii	"\270\224u\322}\031\015\264H7\\\032\021\002N\201@L8\011"
  98      7D190DB4 
  98      48375C1A 
  98      11024E81 
  98      404C3809 
  99 00ff 25D00125 		.ascii	"%\320\001%\012\033\027\247\342\013_\370\2550\261\227"
  99      0A1B17A7 
  99      E20B5FF8 
  99      AD30B197 
 100 010f 420C3669 		.ascii	"B\0146i^8\015\026\246\002(\322\271\303\225\331lH\272"
 100      5E380D16 
 100      A60228D2 
 100      B9C395D9 
 100      6C48BA
 101 0122 737677DA 		.ascii	"svw\332\273\032\030\005\271\3727YD\030\226\032\3324"
 101      BB1A1805 
 101      B9FA3759 
 101      4418961A 
 101      DA34
 102 0134 74D4D08F 		.ascii	"t\324\320\217C3\200\177\230\3054\242\221\357\014\347"
 102      4333807F 
 102      98C534A2 
 102      91EF0CE7 
 103 0144 F41629A8 		.ascii	"\364\026)\250#Q\012\037\227\242\200\346Hr\310&#\002"
 103      23510A1F 
 103      97A280E6 
 103      4872C826 
 103      2302
 104 0156 91CFA0B0 		.ascii	"\221\317\240\260\011\250{\021\3759VFk\012\277\333\312"
 104      09A87B11 
 104      FD395646 
 104      6B0ABFDB 
 104      CA
 105 0167 5C223179 		.ascii	"\\\"1y\337\256\231\227\007\245,\306X\275\3206\236\016"
 105      DFAE9997 
 105      07A52CC6 
 105      58BDD036 
 105      9E0E
 106 0179 8CF478DA 		.ascii	"\214\364x\332\340h\255Tq\007:1\275g\311&tA\033\340\212"
 106      E068AD54 
 106      71073A31 
 106      BD67C926 
 106      74411BE0 
 107 018e CEC9C49C 		.ascii	"\316\311\304\234\237pV)\234\2277[\017\005\3628\253\352"
 107      9F705629 
 107      9C97375B 
 107      0F05F238 
 107      ABEA
 108 01a0 919DC23D 		.ascii	"\221\235\302=\275S\255\276%\034\017\234C\2348\341\340"
 108      BD53ADBE 
 108      251C0F9C 
 108      439C38E1 
 108      E0
 109 01b1 C7CF8FB5 		.ascii	"\307\317\217\265\304\275z\217l\001B:\217\330H\361-\324"
 109      C4BD7A8F 
ARM GAS  e:\temp\ccNlDmvN.s 			page 8


 109      6C01423A 
 109      8FD848F1 
 109      2DD4
 110 01c3 28D90D0F 		.ascii	"(\331\015\017bU$;$\314B\345\316rFw\266\341\375\002\322"
 110      6255243B 
 110      24CC42E5 
 110      CE724677 
 110      B6E1FD02 
 111 01d8 C7571A3A 		.ascii	"\307W\032:\254\034\251\373w_\011\243d\\D\342\013\312"
 111      AC1CA9FB 
 111      775F09A3 
 111      645C44E2 
 111      0BCA
 112 01ea C0252279 		.ascii	"\300%\"y\004\341_C\037/\201\237\016\215\214\000\201"
 112      04E15F43 
 112      1F2F819F 
 112      0E8D8C00 
 112      81
 113 01fb 1BF06CFE 		.ascii	"\033\360l\376\342\254\037.\347j\232\341\202\245\327"
 113      E2AC1F2E 
 113      E76A9AE1 
 113      82A5D7
 114 020a 0A25672A 		.ascii	"\012%g*\266C\357\240D6\274\030=\344h9\316;\345\234z"
 114      B643EFA0 
 114      4436BC18 
 114      3DE46839 
 114      CE3BE59C 
 115 021f D4F4A420 		.ascii	"\324\364\244 \007\002\256\240\224\204\222r\225\244\250"
 115      0702AEA0 
 115      94849272 
 115      95A4A8
 116 022e 1AF6AD59 		.ascii	"\032\366\255Y\254!\242k\363\317c\3735\233\215 \335\343"
 116      AC21A26B 
 116      F3CF63FB 
 116      359B8D20 
 116      DDE3
 117 0240 E7325ECD 		.ascii	"\3472^\315f\274\223\255\275q\356\037{\321\374|\337\006"
 117      66BC93AD 
 117      BD71EE1F 
 117      7BD1FC7C 
 117      DF06
 118 0252 65FE3B64 		.ascii	"e\376;d\274\246\030\257\347\315W-\201\037<\374uc\316"
 118      BCA618AF 
 118      E7CD572D 
 118      811F3CFC 
 118      7563CE
 119 0265 7CE378A3 		.ascii	"|\343x\243\364\301\215\274y\2035Yh>\324|`!\366\241\336"
 119      F4C18DBC 
 119      79833559 
 119      683ED47C 
 119      6021F6A1 
 120 027a E168FF17 		.ascii	"\341h\377\027\242\003q\217n4\000\0277\244\200/yp\324"
 120      A203718F 
 120      6E340017 
 120      37A4802F 
 120      7970D4
 121 028d 6E73B149 		.ascii	"ns\261I\213\231\016\003Y\233\351\372c\332\233k\307\025"
ARM GAS  e:\temp\ccNlDmvN.s 			page 9


 121      8B990E03 
 121      599BE9FA 
 121      63DA9B6B 
 121      C715
 122 029f 56F168FF 		.ascii	"V\361h\377:e\244;_\305\244n\303\313\275\251\343B\253"
 122      3A65A43B 
 122      5FC5A46E 
 122      C3CBBDA9 
 122      E342AB
 123 02b2 D075FB5E 		.ascii	"\320u\373^\267\374Lz%\034o$\253-\307\321\223O\326\017"
 123      B7FC4C7A 
 123      251C6F24 
 123      AB2DC7D1 
 123      934FD60F 
 124 02c6 C8B17886 		.ascii	"\310\261x\206\232\343\223+\000,\254\265\033\317\001"
 124      9AE3932B 
 124      002CACB5 
 124      1BCF01
 125 02d5 DECCD7BB 		.ascii	"\336\314\327\273\027\001u\022\2223M\177\361\345G\322"
 125      17017512 
 125      92334D7F 
 125      F1E547D2 
 126 02e5 FB1F47D2 		.ascii	"\373\037G\322[/\270\202\236\014\247\006\275\012\272"
 126      5B2FB882 
 126      9E0CA706 
 126      BD0ABA
 127 02f4 96E23EB8 		.ascii	"\226\342>\270\205\260?*\330>\235\213\211\341o:-\302"
 127      85B03F2A 
 127      D83E9D8B 
 127      89E16F3A 
 127      2DC2
 128 0306 F1C19817 		.ascii	"\361\301\230\027\372\225\356dsf*\327\264\376\377\201"
 128      FA95EE64 
 128      73662AD7 
 128      B4FEFF81 
 129 0316 3D90C7BE 		.ascii	"=\220\307\276M\015\363'\030\204\361ou\376,\247\003;"
 129      4D0DF327 
 129      1884F16F 
 129      75FE2CA7 
 129      033B
 130 0328 88071609 		.ascii	"\210\007\026\011\"\242\210z\353^\350\374\227\3535\247"
 130      22A2887A 
 130      EB5EE8FC 
 130      97EB35A7 
 131 0338 BA29224F 		.ascii	"\272)\"ON:\272\273\262\000C\272\265\246Ae\226\217\335"
 131      4E3ABABB 
 131      B20043BA 
 131      B5A64165 
 131      968FDD
 132 034b D887ED24 		.ascii	"\330\207\355$\306F\33311\216\361j\264\013\260o,vw\253"
 132      C646DB31 
 132      318EF16A 
 132      B40BB06F 
 132      2C7677AB 
 133 035f BADBEEF7 		.ascii	"\272\333\356\367\257)\270\333~\012\365\014\345\212\215"
 133      AF29B8DB 
 133      7E0AF50C 
ARM GAS  e:\temp\ccNlDmvN.s 			page 10


 133      E58A8D
 134 036e 48771452 		.ascii	"Hw\024R\206\333\313\233\214S\275\246\243\317\317z\264"
 134      86DBCB9B 
 134      8C53BDA6 
 134      A3CFCF7A 
 134      B4
 135 037f 880085DE 		.ascii	"\210\000\205\336j!\220\305\273\224\301\260\262\020\210"
 135      6A2190C5 
 135      BB94C1B0 
 135      B21088
 136 038e 8862F614 		.ascii	"\210b\366\024\2113\333\325j\245\224\243\017S\361Yc\277"
 136      8933DBD5 
 136      6AA594A3 
 136      0F53F159 
 136      63BF
 137 03a0 B5035EC2 		.ascii	"\265\003^\302@\224\270\353\275\362\312\212\212\312`"
 137      4094B8EB 
 137      BDF2CA8A 
 137      8ACA60
 138 03af D9EEE09E 		.ascii	"\331\356\340\236\352\252\275\025\273\202\325\037U\357"
 138      EAAABD15 
 138      BB82D51F 
 138      55EF
 139 03bd AE0C6E29 		.ascii	"\256\014n)g\366g\237T\355,\017V\277\006\015\007Z\313"
 139      67F6679F 
 139      54ED2C0F 
 139      56BF060D 
 139      075ACB
 140              		.text
 141              		.section	.gnu.lto_instrumentation_start.6248ad16,"",%progbits
 142 0000 789C358E 		.ascii	"x\2345\216?K\003A\020\305\347\315&\227\003\211\330\212"
 142      3F4B0341 
 142      10C5E7CD 
 142      26970389 
 142      D88A
 143 0012 16B66904 		.ascii	"\026\266i\004\277\210\205\265\215\004\213\024w\007z"
 143      BF8885B5 
 143      8D048B14 
 143      77077A
 144 0021 D6BB9A2C 		.ascii	"\326\273\232,\261\214\2056~\200\304\177\210\345\201"
 144      B18C8536 
 144      7E80C47F 
 144      88E581
 145 0030 C819B052 		.ascii	"\310\031\260R\324\336F\024D\202H\002\212\325y\356\334"
 145      D4DE4614 
 145      44824802 
 145      8AD579EE 
 145      DC
 146 0041 E1836596 		.ascii	"\341\203e\226\337\233y3\025\002\211\340\312\034\225"
 146      DF9B7933 
 146      150289E0 
 146      CA1C95
 147 0050 0F8AC0BD 		.ascii	"\017\212\300\275{\242m\237\001\371\030\037\244\031\032"
 147      7BA26D9F 
 147      01F9181F 
 147      A4191A
 148 005f DF9C3186 		.ascii	"\337\2341\206\335\267\204\033}\343\364|s\265d\006)\254"
ARM GAS  e:\temp\ccNlDmvN.s 			page 11


 148      DDB7841B 
 148      7DE3F47C 
 148      73B56406 
 148      29AC
 149 0071 22CA99CA 		.ascii	"\"\312\231\312\250>\032\344\332^.~\367\353^G\332\026"
 149      A83E1AE4 
 149      DA5E2E7E 
 149      F7EB5E47 
 149      DA16
 150 0083 4A130378 		.ascii	"J\023\003x\262\356|%5y\3366\351\317\324uo\332\215\216"
 150      B2EE7C25 
 150      3579DE36 
 150      E9CFD475 
 150      6FDA8D8E 
 151 0097 9D2B7B26 		.ascii	"\235+{&\314R\325;\272iv\313\322/II\362\361T\323\231"
 151      CC52D53B 
 151      BA6976CB 
 151      D22F4949 
 151      F2F154D3 
 152 00ac D93566C6 		.ascii	"\3315f\306*\344\354Bp\004-\336\201\035>\324\276\330"
 152      2AE4EC42 
 152      70042DDE 
 152      811D3ED4 
 152      BED8
 153 00be 2A07718C 		.ascii	"*\007q\214y\207F\227\257wJ\220\302#pR\260\316\341\244"
 153      79874697 
 153      AF774A90 
 153      C2237052 
 153      B0CEE1A4 
 154 00d2 5D1756C1 		.ascii	"]\027V\301g\025\247\005\373\217\365\255\252\346\\n\303"
 154      6715A705 
 154      FB8FF5AD 
 154      AAE65C6E 
 154      C3
 155 00e3 19B4551E 		.ascii	"\031\264U\036\215\260\223\356-\027H4v\351\3560w\346"
 155      8DB093EE 
 155      2D174834 
 155      76E9EE30 
 155      77E6
 156 00f5 6C330A82 		.ascii	"l3\012\202(\\m\205\233\361\306V\260\036\306kq+\012\027"
 156      285C6D85 
 156      9BF1C656 
 156      B01EC66B 
 156      712B0A17 
 157 0109 9BF40789 		.ascii	"\233\364\007\211\276g\022"
 157      BE6712
 158              		.text
 159              		.section	.gnu.lto_instrumentation_task.6248ad16,"",%progbits
 160 0000 789C4D4E 		.ascii	"x\234MN=K\303\000\020\275w\321\266 ~\254\242\203k\027"
 160      3D4BC300 
 160      10BD77D1 
 160      B6207EAC 
 160      A2836B17 
 161 0014 C15F2238 		.ascii	"\301_\"8\273Hq\350\220\0044\316\271h\203\272\271\250"
 161      BB4871E8 
 161      900434CE 
 161      B96883BA 
ARM GAS  e:\temp\ccNlDmvN.s 			page 12


 161      B9A8
 162 0026 93746CFD 		.ascii	"\223tl\375\000q3[\2148\332\376\000\227\222\241\202t"
 162      0071335B 
 162      8C38DAFE 
 162      009792A1 
 162      8274
 163 0038 8850C71A 		.ascii	"\210P\307\032\357\252\203\007\307\035\357\335\275\367"
 163      EFAA8307 
 163      C71DEFDD 
 163      BDF7
 164 0046 660864F5 		.ascii	"f\010d\365\256\275\362\327p\010|\326#\212j\014\330\""
 164      AEBDF2D7 
 164      70087CD6 
 164      238A6A0C 
 164      D822
 165 0058 3550C808 		.ascii	"5P\310\010\361\305\023Fv<L\270\336\021\255\301K\276"
 165      F1C51346 
 165      763C4CB8 
 165      DE11ADC1 
 165      4BBE
 166 006a 21DD14B1 		.ascii	"!\335\024\261CT\362T\211\320A\235\364,\177\370>\237"
 166      4354F254 
 166      89D0419D 
 166      F42C7FF8 
 166      3E9F
 167 007c AFB4EC6C 		.ascii	"\257\264\354l\355\227D\027\025\263\273\337J\245,\217"
 167      ED974417 
 167      15B3BBDF 
 167      4AA52C8F 
 168 008c 24BD5C78 		.ascii	"$\275\\xz\\\324\327BY\363\371d\266\351\014\221\215\213"
 168      7A5CD4D7 
 168      4259F3F9 
 168      64B6E90C 
 168      918D8B
 169 009f D7E7597B 		.ascii	"\327\347Y{P\245\2138\353W\307\034;\200\011'\311\350"
 169      50A58B38 
 169      EB57C71C 
 169      3B800927 
 169      C9E8
 170 00b1 AD1A4EE4 		.ascii	"\255\032N\344DdI\261S\0250x\324\312{sm\\E\022\031\316"
 170      446449B1 
 170      53153078 
 170      D4CA7B73 
 170      6D5C4512 
 171 00c7 B8D1C0D7 		.ascii	"\270\321\300\327XU\337[\264\361_\207A\270S\346\003\207"
 171      5855DF5B 
 171      B4F15F87 
 171      41B853E6 
 171      0387
 172 00d9 69B2692E 		.ascii	"i\262i.\323\344\205\342j\257a\226\033\276\353\372\336"
 172      D3E485E2 
 172      6AAF6196 
 172      1BBEEBFA 
 172      DE
 173 00ea 76D3DB0F 		.ascii	"v\323\333\017\366\016\334]/\330\011\232\276\267\336"
 173      F60EDC5D 
 173      2FD8099A 
ARM GAS  e:\temp\ccNlDmvN.s 			page 13


 173      BEB7DE
 174 00f9 A01FC119 		.ascii	"\240\037\301\031_|"
 174      5F7C
 175              		.text
 176              		.section	.gnu.lto_CyBoot_IntDefaultHandler_Exception_EntryCallback.6248ad16,"",%progbits
 177 0000 789C654F 		.ascii	"x\234eO\275KBQ\024?\277{\375\242\017l\215\032Z]\204"
 177      BD4B4251 
 177      143FBF7B 
 177      FDA20F6C 
 177      8D1A5A5D 
 178 0015 FE92A035 		.ascii	"\376\222\2405\227\220\006\007\237P6{\325\036\025H\270"
 178      97900607 
 178      9F50367B 
 178      D51E1548 
 178      B8
 179 0026 E4168EDA 		.ascii	"\344\026\216\332\247\330\0208\365\224\332\"\207\210"
 179      A7D81038 
 179      F594DA22 
 179      8788
 180 0034 20974781 		.ascii	" \227G\201\2044((N\366:G\333:p\271\367\236\363\373:"
 180      84342828 
 180      4EF63A47 
 180      DB3A70B9 
 180      F79EF3FB 
 181 0049 3E0249C5 		.ascii	">\002I\305\370Z\241\331\201&\250\3423Q6\244\000y\230"
 181      F85AA1D9 
 181      8126A8E2 
 181      335136A4 
 181      007998
 182 005c 1028A390 		.ascii	"\020(\243\220\301HM\024Z\207\335\206\212T\014\227\373"
 182      C1484D14 
 182      5A87DD86 
 182      8A540C97 
 182      FB
 183 006d 385E3755 		.ascii	"8^7U\007\266&\362\324T\211PA\204\030\366Q\3779]\014"
 183      07B626F2 
 183      D4548950 
 183      418418F6 
 183      51FF395D 
 184 0082 1C086C6D 		.ascii	"\034\010lm6D\025\001\261\253m:\306\363\362\306\271\017"
 184      36441501 
 184      B1AB6D3A 
 184      C6F3F2C6 
 184      B90F
 185 0094 37DFC37E 		.ascii	"7\337\303~E\266\346v\237!b6PJn\335E\256T\037\275\370"
 185      45B6E676 
 185      9F216236 
 185      504A6EDD 
 185      45AE541F 
 186 00aa 8595D762 		.ascii	"\205\225\327b\\\262[\355\340P\331ZA\014\032\215\357"
 186      5CB25BED 
 186      E050D95A 
 186      410C1A8D 
 186      EF
 187 00bb 4E303331 		.ascii	"N031G\306,q\357\2303H\273\367\364\3720W\306Y\326L\373"
 187      47C62C71 
 187      EF983348 
ARM GAS  e:\temp\ccNlDmvN.s 			page 14


 187      BBF7F4FA 
 187      3057C659 
 188 00d2 C005073F 		.ascii	"\300\005\007?\307*\373_\242\014b\335\241\033\025U\006"
 188      C72AFB5F 
 188      A20C62DD 
 188      A11B1555 
 188      06
 189 00e3 37DDDBC1 		.ascii	"7\335\333\301\274H\002>\376\336M\206'\372\217k\2668"
 189      BC48023E 
 189      FEDE4D86 
 189      27FA8F6B 
 189      B638
 190 00f5 9766675C 		.ascii	"\227fg\\M\311\327Lf\310gq\334\016\010C\243\340\026\314"
 190      4DC9D74C 
 190      66C86771 
 190      DC0E0843 
 190      A3E016CC 
 191 0109 026E78FA 		.ascii	"\002nx\372\205\274\363\326V\"\372?\231\317\343\274\204"
 191      85BCF3D6 
 191      5622FA3F 
 191      99CFE3BC 
 191      84
 192 011a 1A322CE8 		.ascii	"\0322,\350\247\036rNgc\012\225\352\363\220\327\345\345"
 192      A71E724E 
 192      67630A95 
 192      EAF390D7 
 192      E5E5
 193 012c 97E3A964 		.ascii	"\227\343\251d2e\305\022\326^zw?\271c\245\267\323\211"
 193      3265C512 
 193      D65E7A77 
 193      3FB963A5 
 193      B7D389
 194 013f 94158DD3 		.ascii	"\224\025\215\323/~t\2103"
 194      2F7E7488 
 194      33
 195              		.text
 196              		.section	.gnu.lto_.symbol_nodes.6248ad16,"",%progbits
 197 0000 789C558C 		.ascii	"x\234U\214;\016\302@\014D\307v6\204@EG\005\341\377="
 197      3B0EC240 
 197      0C44C776 
 197      36844045 
 197      4705E1FF 
 198 0015 A33752A0 		.ascii	"\2437R\240\240@\034\201\202SP#J\316@\201\2508\002Bx"
 198      A0401C81 
 198      82535023 
 198      4ACE4081 
 198      A8380242 
 199 002a 5320D6CD 		.ascii	"S \326\315\323\274\0319\001\341\011;\036)p\270\001\206"
 199      D3BC1939 
 199      01E1093B 
 199      1E2970B8 
 199      0186
 200 003c F3B100DC 		.ascii	"\363\261\000\334\000\233\216\025\256\2402\220\307J\277"
 200      009B8E15 
 200      AEA03290 
 200      C74ABF
 201 004b 810F8325 		.ascii	"\201\017\203%\367C?\224z\307\023\345\250\347\251J,f"
ARM GAS  e:\temp\ccNlDmvN.s 			page 15


 201      F7433F94 
 201      7AC713E5 
 201      A8E7A94A 
 201      2C66
 202 005d 9A448216 		.ascii	"\232D\202\026\352j\001xo\277h\256i\224\327\332\210\362"
 202      EA6A0178 
 202      6FBF68AE 
 202      6994D7DA 
 202      88F2
 203 006f 4AB3FF2C 		.ascii	"J\263\377,\310Q]\337]A\023\247\355\253'\322\306e\027"
 203      C8515DDF 
 203      5D4113A7 
 203      EDAB27D2 
 203      C66517
 204 0082 D842B537 		.ascii	"\330B\2657\246\346\357\037\222,\307\303\210/\311\364"
 204      A6E6EF1F 
 204      922CC7C3 
 204      882FC9F4 
 205 0092 326E     		.ascii	"2n"
 206              		.text
 207              		.section	.gnu.lto_.refs.6248ad16,"",%progbits
 208 0000 789C15CB 		.ascii	"x\234\025\313\311\021\200@\020\303@\331\343a\201*\256"
 208      C9118040 
 208      10C340D9 
 208      E361812A 
 208      AE
 209 0011 90C83F29 		.ascii	"\220\310?)\026\275[A\274@\203f\205\202\027\263\355%"
 209      16BD5B41 
 209      BC408366 
 209      858217B3 
 209      ED25
 210 0023 DB3129D2 		.ascii	"\3331)\322d(\207r*\227\372\246\037M$\215\177Z\261\370"
 210      64288772 
 210      2A97FAA6 
 210      1F4D248D 
 210      7F5AB1F8 
 211 0037 002D8201 		.ascii	"\000-\202\001&"
 211      26
 212              		.text
 213              		.section	.gnu.lto_.decls.6248ad16,"",%progbits
 214 0000 789CB556 		.ascii	"x\234\265V[P\024W\032\356\323=00\014`\\\315\272US\265"
 214      5B501457 
 214      1AEED33D 
 214      30300C60 
 214      5CCDBA55 
 215 0016 54AA02BC 		.ascii	"T\252\002\274\004c4[[\373\264Y\314\306\335\215\273V"
 215      0463345B 
 215      5BFBB459 
 215      CCC6DD8D 
 215      BB56
 216 0028 CCFA34B5 		.ascii	"\314\3724\265]\303\320\342\2240\303\3164F\336Z\007\021"
 216      5DC3D0E2 
 216      9430C3CE 
 216      3446DE5A 
 216      0711
 217 003a 71B38818 		.ascii	"q\263\210\030\013\331(D\360\202\240\010\021\221\250"
 217      0BD92844 
ARM GAS  e:\temp\ccNlDmvN.s 			page 16


 217      F082A008 
 217      1191A8
 218 0049 38D17011 		.ascii	"8\321p\021\220\233\311\232\210\334Y\242\341\"\010+B"
 218      909BC99A 
 218      88DC59A2 
 218      E122082B 
 218      42
 219 005a D0D9FF5C 		.ascii	"\320\331\377\\f\272G\240*/\3335\377t\367\337\337\371"
 219      66BA47A0 
 219      2A2FDB35 
 219      FF74F7DF 
 219      DFF9
 220 006c BEEFFCE7 		.ascii	"\276\357\374\347\234>\255\343\020\207\017\263\221\343"
 220      9C3EADE3 
 220      10870FB3 
 220      91E3
 221 007a 8A788E5B 		.ascii	"\212x\216[\005\341\205#\030r\333 t\020\025\020U\020"
 221      05E18523 
 221      1872DB20 
 221      74101510 
 221      5510
 222 008c 57216E72 		.ascii	"W!nr\364\010\205\250\207h\202h\206h\205h\203\350\201"
 222      F40885A8 
 222      87688268 
 222      86688568 
 222      83E881
 223 009f E8831882 		.ascii	"\350\203\030\202\370\236\265\237\206\230\205\230\203"
 223      F89EB59F 
 223      86988598 
 223      83
 224 00ac 78CE051E 		.ascii	"x\316\005\036\230#\222i\371tb f ^@LBx!&0\030\2546\342"
 224      98239269 
 224      F9746220 
 224      66205E40 
 224      4C427821 
 225 00c6 1352BD3C 		.ascii	"\023R\275<`<\002\343\352c\036x\215\256\366\300~_az+"
 225      603C02E3 
 225      EA631E78 
 225      8DAEF6C0 
 225      7E5F617A 
 226 00db 2156316E 		.ascii	"!V1n\254\031\015abzX\177\023\304\026\314\005z\363X\003"
 226      AC190D61 
 226      627A587F 
 226      13C416CC 
 226      057AF358 
 227 00f0 CE23B84F 		.ascii	"\316#\270Op\036\324\3506\261\276\016\261\373\345\372"
 227      701ED4E8 
 227      36B1BE0E 
 227      B1FBE5FA 
 228 0100 8AEBA467 		.ascii	"\212\353\244g\332\270\017/\327U\333\227f\326\217zn\361"
 228      DAB80F2F 
 228      D755DB97 
 228      66D68F7A 
 228      6EF1
 229 0112 D1CA30DB 		.ascii	"\321\3120\33345b\345!\317\020\353\273\366\300c\343\033"
 229      343562E5 
 229      21CF10EB 
ARM GAS  e:\temp\ccNlDmvN.s 			page 17


 229      BBF6C063 
 229      E31B
 230 0124 D3196E71 		.ascii	"\323\031nqM9V\2636VC\264D\355\236\363\250b\337pi\310"
 230      4D3956B3 
 230      365643B4 
 230      44ED9EF3 
 230      A862DF70 
 231 013a 0C8F4C06 		.ascii	"\014\217L\006\344E\370~\254v.\234\336\343\307}sg\177"
 231      E445F87E 
 231      AC762E9C 
 231      DEE3C77D 
 231      73677F
 232 014d 1F57AEC0 		.ascii	"\037W\256\300qHQx^mw\3113}^'\204a\020\337\371\371w\365"
 232      71485178 
 232      5E6D77C9 
 232      337D5E27 
 232      846110DF 
 233 0165 A128D670 		.ascii	"\241(\326p\032\343\372\273g\336q+\012B\345\310\200\316"
 233      1AE3FABB 
 233      67DE712B 
 233      0A42E5C8 
 233      80CE
 234 0177 210195A2 		.ascii	"!\001\225\2428,o2\300\177\226\242\354U&O*\301k8\264"
 234      382C6F32 
 234      C07F96A2 
 234      EC55264F 
 234      2AC16B38 
 235 018c DE84DE34 		.ascii	"\336\204\3364q\250\014\305b1\214Bg\221\011\235A&\314"
 235      71A80CC5 
 235      62318C42 
 235      6791099D 
 235      4126CC
 236 019f 5F5A78F6 		.ascii	"_Zx\366\253p\301\215\210\300\370\221\321,\301/P\223"
 236      AB70C18D 
 236      88C0F891 
 236      D12CC12F 
 236      5093
 237 01b1 6D2A5394 		.ascii	"m*S\224\025\250\002\004\316\253\002\240\267\264\302"
 237      15A80204 
 237      CEAB02A0 
 237      B7B4C2
 238 01c0 85251470 		.ascii	"\205%\024pcP9\363\"\243&\\\230\240*\275\027F\013#\374"
 238      635039F3 
 238      22A3265C 
 238      98A02ABD 
 238      17460B23 
 239 01d5 2AD3ED7F 		.ascii	"*\323\355\177\313\335\007}FU sQ\225\251XN\246r)\231"
 239      CBDD077D 
 239      46552073 
 239      5195A958 
 239      4EA67229 
 240 01ea 2A22736A 		.ascii	"*\"sj\376\307I\001\212\032\015E\366\012\232*G\323*\337"
 240      FEC74901 
 240      8A1A0D45 
 240      F60A9A2A 
 240      47D32ADF 
 241 01fe 68B97DDA 		.ascii	"h\271}\332(\344\360\344\246\336;\353\211\204g+\015\210"
ARM GAS  e:\temp\ccNlDmvN.s 			page 18


 241      28E4F0E4 
 241      A6DE3BEB 
 241      8984672B 
 241      0D88
 242 0210 87DBAEC9 		.ascii	"\207\333\256\311\326\343ap\273\312\200V\200\311\256"
 242      D6E36170 
 242      BBCA8056 
 242      80C9AE
 243 021f 9BF9CFC3 		.ascii	"\233\371\317\303\220!\226\030P\334\212!\226C5\240v\031"
 243      90219618 
 243      50DC8A21 
 243      964335A0 
 243      7619
 244 0231 ABD58285 		.ascii	"\253\325\202\205hf\341\022$?\207$\033\224\261?\222A"
 244      6866E112 
 244      243F8724 
 244      1B94B13F 
 244      9241
 245 0243 B9029DA9 		.ascii	"\271\002\235\251V;\023m\240\243Y\227\333=b\020\012\210"
 245      563B136D 
 245      A0A35997 
 245      DB3D6210 
 245      0A88
 246 0255 01BE6448 		.ascii	"\001\276dH\271\252[N\342\332\262\0225\331\321\345xX"
 246      B9AA5B4E 
 246      E2DAB212 
 246      35D9D1E5 
 246      7858
 247 0267 AE82C417 		.ascii	"\256\202\304\027\252\304\025R/\234\005\235\316\214\213"
 247      AAC41552 
 247      2F9C059D 
 247      CE8C8B
 248 0276 9F0AB46F 		.ascii	"\237\012\264o:\270\235\272S0\024A\373\026\205\313\324"
 248      3AB89DBA 
 248      53301441 
 248      FB1685CB 
 248      D4
 249 0287 5F37A8D7 		.ascii	"_7\250\327\301$#5O\320ag_gN\215E\222\034\036\356\033"
 249      C1242335 
 249      4FD06167 
 249      5F674E8D 
 249      45921C1E 
 250 029d 8824479F 		.ascii	"\210$G\237^\231\327\2579\212e\301_\024\217\266\275\352"
 250      5E99D7AF 
 250      398A65C1 
 250      5F148FB6 
 250      BDEA
 251 02af 77C8A12F 		.ascii	"w\310\241/\321\032\370\367 \035\355\333pG\205h\314\306"
 251      D11AF8F7 
 251      201DEDDB 
 251      70478568 
 251      CCC6
 252 02c1 7D39E456 		.ascii	"}9\344VVn\302\217Q\035\200\257\023\360Md\3649\205K\200"
 252      566EC28F 
 252      511D80AF 
 252      13F04D64 
 252      F439854B 
ARM GAS  e:\temp\ccNlDmvN.s 			page 19


 253 02d6 7B8F5F38 		.ascii	"{\217_8\033\332\215\276CP\014\304\226!\242\377\210\004"
 253      1BDA8DBE 
 253      43500CC4 
 253      9621A2FF 
 253      8804
 254 02e8 4783DCC2 		.ascii	"G\203\334\302\005O\3769\177\312\177\342\360?G\361$\247"
 254      054FFE39 
 254      7FCA7FE2 
 254      F03F47F1 
 254      24A7
 255 02fa 92919FEF 		.ascii	"\222\221\237\357\354\365\035\204DeG\254\021\362;\240"
 255      ECF51D84 
 255      446547AC 
 255      11F23BA0 
 256 030a ADE8739E 		.ascii	"\255\350s\236\3018J\316\253\0154|\324\256\306\023\012"
 256      C1384ACE 
 256      AB0D347C 
 256      D4AEC613 
 256      0A
 257 031b EC13F2AD 		.ascii	"\354\023\362\255\346\307\207oy#\205b:\001{\356z2\014"
 257      E6C7876F 
 257      79238562 
 257      3A017BEE 
 257      7A320C
 258 032e AF1529FD 		.ascii	"\257\025)\375\027a\336\344m\033\250R\024X\010\212\216"
 258      1761DEE4 
 258      6D1BA852 
 258      1458088A 
 258      8E
 259 033f 54EE2B75 		.ascii	"T\356+ud\341\022\237n\241n`\255G\257A\323\361\356\374"
 259      64E1129F 
 259      6EA16E60 
 259      AD47AF41 
 259      D3F1EEFC 
 260 0353 71A3D04E 		.ascii	"q\243\320NyF\353\216y\303\227\035\245F2J\011l\220\016"
 260      7946EB8E 
 260      79C3971D 
 260      A546324A 
 260      096C900E 
 261 0367 B40ED647 		.ascii	"\264\016\326G\200f\321E\305\363\264\321\250t@\233\337"
 261      8066D145 
 261      C5F3B4D1 
 261      A874409B 
 261      DF
 262 0378 620C6A50 		.ascii	"b\014jP\005\033\264\202MD\360Z\321\371\033a\3020\025"
 262      051BB482 
 262      4D44F05A 
 262      D1F91B61 
 262      C23015
 263 038b AC1C29CD 		.ascii	"\254\034)\315\016e$3-Z\222\333*\311m-I3!\371\346ry\236"
 263      0E652433 
 263      2D5A92DB 
 263      2AC96D2D 
 263      493321F9 
 264 03a3 5E98A724 		.ascii	"^\230\247$U\235\263\203\002#9\322\246%iQIZ\264$\255"
 264      559DB383 
 264      022339D2 
ARM GAS  e:\temp\ccNlDmvN.s 			page 20


 264      A6256951 
 264      495AB424 
 265 03b8 84E4C444 		.ascii	"\204\344\304D\345\015$\344\010\264\204\323\007w1\216"
 265      E50D24E4 
 265      08B484D3 
 265      0777318E 
 266 03c8 6BED5A8E 		.ascii	"k\355Z\216;*\307\035-G\033\341\250j\317\013\023<\224"
 266      3B2AC71D 
 266      2D471BE1 
 266      A86ACF0B 
 266      133C94
 267 03db E25966DF 		.ascii	"\342Yf\337\301p\241\225\334\360\317NL\270#\2201v\231"
 267      C170A195 
 267      DCF0CF4E 
 267      4CB82390 
 267      317699
 268 03ee 698CBA60 		.ascii	"i\214\272`U\2523\231\275\300r\222\366\220\027X'<\350"
 268      55AA3399 
 268      BDC07292 
 268      F6901758 
 268      273CE8
 269 0401 50750147 		.ascii	"Pu\001Gk\2760^\371\245\221,-\214\240\313\255\367\310"
 269      6BBE305E 
 269      F9A5912C 
 269      2D8CA0CB 
 269      ADF7C8
 270 0414 93591DC9 		.ascii	"\223Y\035\311\341e|\227.\267\341\323Ov\373\227\345\327"
 270      E1657C97 
 270      2EB7E1D3 
 270      4F76FB97 
 270      E5D7
 271 0426 34D753E0 		.ascii	"4\327S\340\356\015\362\257\313oh\362N\375\335|\275p"
 271      EE0DF2AF 
 271      CB6F68F2 
 271      4EFDDD7C 
 271      BD70
 272 0438 8F78D63D 		.ascii	"\217x\326=\252\370\354\250\001\205\232\020\230D\261"
 272      AAF8ECA8 
 272      01859A10 
 272      9844B1
 273 0447 FBC90B73 		.ascii	"\373\311\013soQ\024\362\2770\273\301\364\267\010\276"
 273      6F5114F2 
 273      BF30BBC1 
 273      F4B708BE 
 274 0457 3B60B199 		.ascii	";`\261\231\320}\350G\201\022B2\005J\026~\223\340\313"
 274      D07DE847 
 274      81124232 
 274      054A167E 
 274      93E0CB
 275 046a D3BEBD87 		.ascii	"\323\276\275\207\303\267\350\036)\232o\332~qy__\250"
 275      C3B7E81E 
 275      299A6FDA 
 275      7E71795F 
 275      5FA8
 276 047c 76866188 		.ascii	"v\206a\210:\305\036\220)\366o\337\213\340Qs\323'd^+"
 276      3AC51E90 
 276      29F66FDF 
ARM GAS  e:\temp\ccNlDmvN.s 			page 21


 276      8BE05173 
 276      D327645E 
 277 0491 8AA72F5B 		.ascii	"\212\247/[8\246\334\3441\004\265\253\265ig\364\250\207"
 277      38A6DCE4 
 277      3104B5AB 
 277      B56967F4 
 277      A887
 278 04a3 8CC7ADCE 		.ascii	"\214\307\255\316\321\241 \241\207\016\310\\{\2267\230"
 278      D1A120A1 
 278      870EC85C 
 278      7B963798 
 279 04b3 36EFBF5A 		.ascii	"6\357\277Z\270}\272J\311\010\"c\332\253\266\357\365"
 279      B87DBA4A 
 279      C9082263 
 279      DAABB6EF 
 279      F5
 280 04c4 B5EF23ED 		.ascii	"\265\357#\355\225o\367\227\005\013\037\353H\373\201"
 280      956FF797 
 280      050B1FEB 
 280      48FB81
 281 04d3 C7D78FE9 		.ascii	"\307\327\217\351\375\025\243\345\236\355/\334\037\274"
 281      FD15A3E5 
 281      9EED2FDC 
 281      1FBC
 282 04e1 EC121924 		.ascii	"\354\022\031$\376\007|\376\237\376\343x\003\317\014"
 282      FE077CFE 
 282      9FFEE378 
 282      03CF0C
 283 04f0 E40DEDFE 		.ascii	"\344\015\355\376\241<\323\263\205\200P\277\352\240\337"
 283      A13CD3B3 
 283      858050BF 
 283      EAA0DF
 284 04ff E7608838 		.ascii	"\347`\21088\352\2716\257\027.Q\007\305\236\221\363\310"
 284      38EAB936 
 284      AF172E51 
 284      07C59E91 
 284      F3C8
 285 0511 3FB8D4C1 		.ascii	"?\270\324\301\221\234\3739a\313:\030!\016\376\343s\360"
 285      919CFB39 
 285      61CB3A18 
 285      210EFEE3 
 285      73F0
 286 0523 AFF1F1E3 		.ascii	"\257\361\361\343!\254\202\013\367\215\236-\030\200\206"
 286      21AC820B 
 286      F78D9E2D 
 286      188086
 287 0532 55F5619F 		.ascii	"U\365a\237\372\367D\275\247\251\264\014\277\356c\360"
 287      FAF744BD 
 287      A7A9B40C 
 287      BFEE63F0 
 288 0542 BEE7F546 		.ascii	"\276\347\365Fjv\276\030\272\363u\345<)\321\013\255\304"
 288      6A76BE18 
 288      BAF375E5 
 288      3C29D10B 
 288      ADC4
 289 0554 1F5F963B 		.ascii	"\037_\226;\332\245\371\216(1\326\342Y0\006^\177P%b\374"
 289      DAA5F98E 
ARM GAS  e:\temp\ccNlDmvN.s 			page 22


 289      2831D6E2 
 289      5930065E 
 289      7F502562 
 290 0569 DB2F5907 		.ascii	"\333/Y\007\234\272\010Fa>\305\260\255\351\021$\037\262"
 290      9CBA0846 
 290      613EC5B0 
 290      ADE91124 
 290      1FB2
 291 057b 2F8992DC 		.ascii	"/\211\222\334\223\301\302=*q\356B{\203\336\267\267\275"
 291      93C1C23D 
 291      2A71EE42 
 291      7B83DEB7 
 291      B7BD
 292 058d 4CF07809 		.ascii	"L\360x\011\002\337\336\266\201\354m\023\340e\\\3652"
 292      02DFDEB6 
 292      81EC6D13 
 292      E0655CF5 
 292      32
 293 059e 86D8FE39 		.ascii	"\206\330\3769\320Q\255\204\032\262p\011\177\012)~]\354"
 293      D051AD84 
 293      1AB27009 
 293      7F0A297E 
 293      5DEC
 294 05b0 1F5778A8 		.ascii	"\037Wx\250\303$\242\205\230\352\371\347\001\243\320"
 294      C324A285 
 294      98EAF9E7 
 294      01A3D0
 295 05bf 4F07AAE1 		.ascii	"O\007\252\341\263\256sa\257\027+%\305\370\015\374\227"
 295      B3AE7361 
 295      AF172B25 
 295      C5F80DFC 
 295      97
 296 05d0 CA5399CA 		.ascii	"\312S\231\312!D\240O\250\270f\003\303\231),4\215^\307"
 296      2144A04F 
 296      A8B86603 
 296      C399292C 
 296      348D5EC7 
 297 05e4 5F0F2507 		.ascii	"_\017%\007Ft\332\355\016[V\3213d\361c\215\346\207\215"
 297      4674DAED 
 297      0E5B56D1 
 297      3364F163 
 297      8DE6878D 
 298 05f8 EB411F12 		.ascii	"\353A\037\022\010w\021\177jTUT?4\012\217\251\207\326"
 298      0877117F 
 298      6A545554 
 298      3F340A8F 
 298      A987D6
 299 060b 03B39783 		.ascii	"\003\263\227\203\300C\321I\305S\223\371\3521\305\243"
 299      C043D149 
 299      C55393F9 
 299      EA31C5A3 
 300 061b 23E0A78B 		.ascii	"#\340\247\213\034\340\314\177\261\203Y\342`\240\374"
 300      1CE0CC7F 
 300      B18359E2 
 300      60A0FC
 301 062a E064B0A0 		.ascii	"\340d\260\240\004\021\226\226\342|\217\001X\360\214"
 301      04119696 
ARM GAS  e:\temp\ccNlDmvN.s 			page 23


 301      E27C8F01 
 301      58F08C
 302 0639 99FA3B2C 		.ascii	"\231\372;,\271\014\035\332b@\317\026\221<\3033\007\315"
 302      B90C1DDA 
 302      6240CF16 
 302      913CC333 
 302      07CD
 303 064b 1186A1EA 		.ascii	"\021\206\241\352\353\013\301\264\232?\345\363\003Zt"
 303      EB0BC1B4 
 303      9A3FE5F3 
 303      035A74
 304 065a 54D7D6E9 		.ascii	"T\327\326\351\2407\363\320\331\211 H\264\025\346\315"
 304      A037F3D0 
 304      D9892048 
 304      B415E6CD 
 305 066a 0A422E35 		.ascii	"\012B.5QT\355>\025L\313\351\271\333\260:_\361P\344\002"
 305      5154ED3E 
 305      154CCBE9 
 305      B9DBB03A 
 305      5FF150E4 
 306 067f 73A1CE77 		.ascii	"s\241\316w\234\371\021\353<'F\026N=\3527h\2139\031P"
 306      9CF911EB 
 306      3C274616 
 306      4E3DEA37 
 306      688B3919 
 307 0694 CC17B498 		.ascii	"\314\027\264\230\370\014\340\214\326\023\273\264X\\"
 307      F80CE08C 
 307      D613BBB4 
 307      585C
 308 06a2 2C15EB65 		.ascii	",\025\353eX/\301\036\376\304}F\257\0057\006|\224(\274"
 308      582FC11E 
 308      FEC47D46 
 308      AF053706 
 308      7C9428BC 
 309 06b6 FFA3042E 		.ascii	"\377\243\004.\001?\366q\315\341p-\376A\000~\017O\311"
 309      013FF671 
 309      CDE1702D 
 309      FE41007E 
 309      0F4FC9
 310 06c9 F7107067 		.ascii	"\367\020pg\355LN\300\024\230\017p\275\227\201\367\022"
 310      ED4C4EC0 
 310      14980F70 
 310      BD9781F7 
 310      12
 311 06da F095A6A2 		.ascii	"\360\225\246\242\242\010-x$\200\331\315\300n\002\376"
 311      A2082D78 
 311      2480D9CD 
 311      C06E02FE 
 312 06ea B4E6D69F 		.ascii	"\264\346\326\237\264\330\301\000l\206\352\032.\271\220"
 312      B4D8C100 
 312      6C86EA1A 
 312      2EB990
 313 06f9 F7FEFCD7 		.ascii	"\367\376\374\327\250\370u\353\270PQL\263\331\345_\213"
 313      A8F875EB 
 313      B850514C 
 313      B3D9E55F 
 313      8B
ARM GAS  e:\temp\ccNlDmvN.s 			page 24


 314 070a 728AF41B 		.ascii	"r\212\364\033\2635=\325)\271\\\346T\227\303\032euJ\026"
 314      B3353DD5 
 314      29B95CE6 
 314      5497C31A 
 314      65754A16 
 315 071e D9E1346F 		.ascii	"\331\3414o\210{+0aKIu8es\222=\315lq\246\230\337\216"
 315      887B2B30 
 315      614B4975 
 315      38657392 
 315      3DCD6C71 
 316 0736 DB10B70E 		.ascii	"\333\020\267\016_\275aw\330\2457$K\202\315l\263[\223"
 316      5FBD6177 
 316      D8A53724 
 316      4B82CD6C 
 316      B35B93
 317 0749 D3122573 		.ascii	"\323\022%s\212\305\272\303f\227\314b\242\264\335\222"
 317      8AC5BAC3 
 317      6697CC62 
 317      A2B4DD92 
 318 0759 962C8B72 		.ascii	"\226,\213rz\252\344\212\333\301\351\231j\302\377C\325"
 318      7AAAE48A 
 318      DBC1E999 
 318      6AC2FF43 
 318      D5
 319 076a 95EE328B 		.ascii	"\225\3562\213.9\021$@\312 \333R$\247hK\024\345\325q"
 319      2E391124 
 319      40CA20DB 
 319      5224A768 
 319      4B14E5D5 
 320 077f 6697D38A 		.ascii	"f\227\323\212\237\313R\312Z\222\307\000Z\203u\277\022"
 320      9FCB52CA 
 320      5A92C700 
 320      5A8375BF 
 320      12
 321 0790 E510DFC5 		.ascii	"\345\020\337\305+\037Yd\353\216DG\222H[[\023~au\244"
 321      2B1F5964 
 321      EB8E4447 
 321      92485B5B 
 321      137E6175 
 322 07a5 A438EC20 		.ascii	"\2448\354 \342\222\235i)\222]\266\3106\207=\316\312"
 322      E2929D69 
 322      29925DB6 
 322      C836873D 
 322      CECA
 323 07b7 AD7A2925 		.ascii	"\255z)%\332\3546y\365\313I\227lq\312\213\240\262\305"
 323      DAEC3679 
 323      F5CB4997 
 323      6C71CA8B 
 323      A0B2C5
 324 07ca B5F3CDF8 		.ascii	"\265\363\315\370\364\337"
 324      F4DF
 325 07d0 391CB2F8 		.ascii	"9\034\262\370\007\273\274\221\226i\223\305\236\230\014"
 325      07BBBC91 
 325      966993C5 
 325      9E980C
 326 07df AAEFEEB6 		.ascii	"\252\357\356\266J\251\004\367\256]v\246\307[\222\223"
 326      4AA904F7 
ARM GAS  e:\temp\ccNlDmvN.s 			page 25


 326      AE5D76A6 
 326      C75B9293 
 327 07ef 132CD69D 		.ascii	"\023,\326\235a\324\023a4\370\374\211r\220\0104\311\221"
 327      61D41361 
 327      34F8FC89 
 327      72900834 
 327      C991
 328 0801 F1E95B1D 		.ascii	"\361\351[\035\333\345\217,N\351\003\311%\311\277|O\262"
 328      DBE58F2C 
 328      4EE903C9 
 328      25C9BF7C 
 328      4FB2
 329 0813 4B4E8B2C 		.ascii	"KN\213,%\212[\035iN\253d\336\262\325\021\277am|\372"
 329      258A5B1D 
 329      694EAB64 
 329      DEB2D511 
 329      BF616D7C 
 330 0828 FBB604E8 		.ascii	"\373\266\004\350\375\317v\244\332D\300\211N\214\026"
 330      FDCF76A4 
 330      DA44C089 
 330      4E8C16
 331 0837 AD8E34BB 		.ascii	"\255\2164\273\274\222\326\011\236\270\\k\341\037`?\327"
 331      BC92D609 
 331      9EB85C6B 
 331      E11F603F 
 331      D7
 332 0848 C29CBB80 		.ascii	"\302\234\273\200\315)%\211\353\337f\305[\377\026+\036"
 332      CD292589 
 332      EBDF66C5 
 332      5BFF162B 
 332      1E
 333 0859 BE8848DA 		.ascii	"\276\210H\332l\261\331\337w8R7J\311\226\364\025I\037"
 333      6CB1D9DF 
 333      77385237 
 333      4AC996F4 
 333      15491F
 334 086c A4D93F04 		.ascii	"\244\331?\004\233\033-\262\345\235\304D\347\012Q\264"
 334      9B1B2DB2 
 334      E59DC444 
 334      E70A51B4 
 335 087c A663FBD6 		.ascii	"\246c\373\326\235b\262-\305&G&m\266\331\211\333\315"
 335      9D62B22D 
 335      C5264726 
 335      6DB6D989 
 335      DBCD
 336 088e 166792CD 		.ascii	"\026g\222\315\376?\370\206\323*"
 336      FE3FF886 
 336      D32A
 337              		.text
 338              		.section	.gnu.lto_.symtab.6248ad16,"",%progbits
 339 0000 77617463 		.ascii	"watchdog_timer_cb\000"
 339      68646F67 
 339      5F74696D 
 339      65725F63 
 339      6200
 340 0012 00       		.ascii	"\000"
 341 0013 00       		.ascii	"\000"
ARM GAS  e:\temp\ccNlDmvN.s 			page 26


 342 0014 00       		.ascii	"\000"
 343 0015 00000000 		.ascii	"\000\000\000\000\000\000\000\000"
 343      00000000 
 344 001d C5000000 		.ascii	"\305\000\000\000"
 345 0021 674D6169 		.ascii	"gMainLoopDelay\000"
 345      6E4C6F6F 
 345      7044656C 
 345      617900
 346 0030 00       		.ascii	"\000"
 347 0031 00       		.ascii	"\000"
 348 0032 00       		.ascii	"\000"
 349 0033 00000000 		.ascii	"\000\000\000\000\000\000\000\000"
 349      00000000 
 350 003b F3000000 		.ascii	"\363\000\000\000"
 351 003f 6752756E 		.ascii	"gRunTimeDataAddr\000"
 351      54696D65 
 351      44617461 
 351      41646472 
 351      00
 352 0050 00       		.ascii	"\000"
 353 0051 00       		.ascii	"\000"
 354 0052 00       		.ascii	"\000"
 355 0053 00000000 		.ascii	"\000\000\000\000\000\000\000\000"
 355      00000000 
 356 005b F7000000 		.ascii	"\367\000\000\000"
 357 005f 696E7374 		.ascii	"instrumentation_init\000"
 357      72756D65 
 357      6E746174 
 357      696F6E5F 
 357      696E6974 
 358 0074 00       		.ascii	"\000"
 359 0075 00       		.ascii	"\000"
 360 0076 00       		.ascii	"\000"
 361 0077 00000000 		.ascii	"\000\000\000\000\000\000\000\000"
 361      00000000 
 362 007f C8000000 		.ascii	"\310\000\000\000"
 363 0083 674D696E 		.ascii	"gMinResetMargin\000"
 363      52657365 
 363      744D6172 
 363      67696E00 
 364 0093 00       		.ascii	"\000"
 365 0094 00       		.ascii	"\000"
 366 0095 00       		.ascii	"\000"
 367 0096 00000000 		.ascii	"\000\000\000\000\000\000\000\000"
 367      00000000 
 368 009e FD000000 		.ascii	"\375\000\000\000"
 369 00a2 696E7374 		.ascii	"instrumentation_start\000"
 369      72756D65 
 369      6E746174 
 369      696F6E5F 
 369      73746172 
 370 00b8 00       		.ascii	"\000"
 371 00b9 00       		.ascii	"\000"
 372 00ba 00       		.ascii	"\000"
 373 00bb 00000000 		.ascii	"\000\000\000\000\000\000\000\000"
 373      00000000 
 374 00c3 CA000000 		.ascii	"\312\000\000\000"
ARM GAS  e:\temp\ccNlDmvN.s 			page 27


 375 00c7 696E7374 		.ascii	"instrumentation_task\000"
 375      72756D65 
 375      6E746174 
 375      696F6E5F 
 375      7461736B 
 376 00dc 00       		.ascii	"\000"
 377 00dd 00       		.ascii	"\000"
 378 00de 00       		.ascii	"\000"
 379 00df 00000000 		.ascii	"\000\000\000\000\000\000\000\000"
 379      00000000 
 380 00e7 CC000000 		.ascii	"\314\000\000\000"
 381 00eb 4379426F 		.ascii	"CyBoot_IntDefaultHandler_Exception_EntryCallback\000"
 381      6F745F49 
 381      6E744465 
 381      6661756C 
 381      7448616E 
 382 011c 00       		.ascii	"\000"
 383 011d 00       		.ascii	"\000"
 384 011e 00       		.ascii	"\000"
 385 011f 00000000 		.ascii	"\000\000\000\000\000\000\000\000"
 385      00000000 
 386 0127 CE000000 		.ascii	"\316\000\000\000"
 387 012b 5F5F6379 		.ascii	"__cy_stack_limit\000"
 387      5F737461 
 387      636B5F6C 
 387      696D6974 
 387      00
 388 013c 00       		.ascii	"\000"
 389 013d 02       		.ascii	"\002"
 390 013e 00       		.ascii	"\000"
 391 013f 00000000 		.ascii	"\000\000\000\000\000\000\000\000"
 391      00000000 
 392 0147 F9000000 		.ascii	"\371\000\000\000"
 393 014b 74696D65 		.ascii	"timer_start\000"
 393      725F7374 
 393      61727400 
 394 0157 00       		.ascii	"\000"
 395 0158 02       		.ascii	"\002"
 396 0159 00       		.ascii	"\000"
 397 015a 00000000 		.ascii	"\000\000\000\000\000\000\000\000"
 397      00000000 
 398 0162 DD000000 		.ascii	"\335\000\000\000"
 399 0166 4379536F 		.ascii	"CySoftwareReset\000"
 399      66747761 
 399      72655265 
 399      73657400 
 400 0176 00       		.ascii	"\000"
 401 0177 02       		.ascii	"\002"
 402 0178 00       		.ascii	"\000"
 403 0179 00000000 		.ascii	"\000\000\000\000\000\000\000\000"
 403      00000000 
 404 0181 DF000000 		.ascii	"\337\000\000\000"
 405 0185 6870695F 		.ascii	"hpi_set_reset_count\000"
 405      7365745F 
 405      72657365 
 405      745F636F 
 405      756E7400 
ARM GAS  e:\temp\ccNlDmvN.s 			page 28


 406 0199 00       		.ascii	"\000"
 407 019a 02       		.ascii	"\002"
 408 019b 00       		.ascii	"\000"
 409 019c 00000000 		.ascii	"\000\000\000\000\000\000\000\000"
 409      00000000 
 410 01a4 E3000000 		.ascii	"\343\000\000\000"
 411 01a8 6870695F 		.ascii	"hpi_set_reserved_reg_35\000"
 411      7365745F 
 411      72657365 
 411      72766564 
 411      5F726567 
 412 01c0 00       		.ascii	"\000"
 413 01c1 02       		.ascii	"\002"
 414 01c2 00       		.ascii	"\000"
 415 01c3 00000000 		.ascii	"\000\000\000\000\000\000\000\000"
 415      00000000 
 416 01cb E7000000 		.ascii	"\347\000\000\000"
 417              		.text
 418              		.section	.gnu.lto_.opts,"",%progbits
 419 0000 272D666D 		.ascii	"'-fmath-errno' '-fsigned-zeros' '-ftrapping-math' '"
 419      6174682D 
 419      6572726E 
 419      6F272027 
 419      2D667369 
 420 0033 2D666E6F 		.ascii	"-fno-trapv' '-fno-openmp' '-fno-openacc' '-mcpu=cor"
 420      2D747261 
 420      70762720 
 420      272D666E 
 420      6F2D6F70 
 421 0066 7465782D 		.ascii	"tex-m0' '-mthumb' '-g' '-Os' '-Werror' '-ffunction-"
 421      6D302720 
 421      272D6D74 
 421      68756D62 
 421      2720272D 
 422 0099 73656374 		.ascii	"sections' '-ffat-lto-objects' '-finline-functions' "
 422      696F6E73 
 422      2720272D 
 422      66666174 
 422      2D6C746F 
 423 00cc 272D666C 		.ascii	"'-flto' '-fno-strict-aliasing'\000"
 423      746F2720 
 423      272D666E 
 423      6F2D7374 
 423      72696374 
 424              		.text
 425              		.cfi_sections	.debug_frame
 426              		.section	.text.watchdog_timer_cb,"ax",%progbits
 427              		.align	1
 428              		.global	watchdog_timer_cb
 429              		.code	16
 430              		.thumb_func
 431              		.type	watchdog_timer_cb, %function
 432              	watchdog_timer_cb:
 433              	.LFB32:
 434              		.file 1 "common\\instrumentation.c"
   1:common/instrumentation.c **** /**
   2:common/instrumentation.c ****  * @file instrumentation.c
ARM GAS  e:\temp\ccNlDmvN.s 			page 29


   3:common/instrumentation.c ****  *
   4:common/instrumentation.c ****  * @brief @{Source file containing application level instrumentation code.
   5:common/instrumentation.c ****  *
   6:common/instrumentation.c ****  * This USB-PD port controller application supports high level instrumentation
   7:common/instrumentation.c ****  * to track the task execution latencies and runtime stack usage. This source
   8:common/instrumentation.c ****  * file contains the code associated with these functions.@}
   9:common/instrumentation.c ****  */
  10:common/instrumentation.c **** 
  11:common/instrumentation.c **** /*
  12:common/instrumentation.c ****  * Copyright (2016-2018), Cypress Semiconductor Corporation or a subsidiary of
  13:common/instrumentation.c ****  * Cypress Semiconductor Corporation. All rights reserved.
  14:common/instrumentation.c ****  *
  15:common/instrumentation.c ****  * This software, including source code, documentation and related materials
  16:common/instrumentation.c ****  * (Software), is owned by Cypress Semiconductor Corporation or one of its
  17:common/instrumentation.c ****  * subsidiaries (Cypress) and is protected by and subject to worldwide patent
  18:common/instrumentation.c ****  * protection (United States and foreign), United States copyright laws and
  19:common/instrumentation.c ****  * international treaty provisions. Therefore, you may use this Software only
  20:common/instrumentation.c ****  * as provided in the license agreement accompanying the software package from
  21:common/instrumentation.c ****  * which you obtained this Software (EULA).
  22:common/instrumentation.c ****  *
  23:common/instrumentation.c ****  * If no EULA applies, Cypress hereby grants you a personal, nonexclusive,
  24:common/instrumentation.c ****  * non-transferable license to copy, modify, and compile the Software source
  25:common/instrumentation.c ****  * code solely for use in connection with Cypresss integrated circuit
  26:common/instrumentation.c ****  * products. Any reproduction, modification, translation, compilation, or
  27:common/instrumentation.c ****  * representation of this Software except as specified above is prohibited
  28:common/instrumentation.c ****  * without the express written permission of Cypress. Disclaimer: THIS SOFTWARE
  29:common/instrumentation.c ****  * IS PROVIDED AS-IS, WITH NO WARRANTY OF ANY KIND, EXPRESS OR IMPLIED,
  30:common/instrumentation.c ****  * INCLUDING, BUT NOT LIMITED TO, NONINFRINGEMENT, IMPLIED WARRANTIES OF
  31:common/instrumentation.c ****  * MERCHANTABILITY AND FITNESS FOR A PARTICULAR PURPOSE. Cypress reserves the
  32:common/instrumentation.c ****  * right to make changes to the Software without notice. Cypress does not
  33:common/instrumentation.c ****  * assume any liability arising out of the application or use of the Software
  34:common/instrumentation.c ****  * or any product or circuit described in the Software. Cypress does not
  35:common/instrumentation.c ****  * authorize its products for use in any products where a malfunction or
  36:common/instrumentation.c ****  * failure of the Cypress product may reasonably be expected to result in
  37:common/instrumentation.c ****  * significant property damage, injury or death (High Risk Product). By
  38:common/instrumentation.c ****  * including Cypresss product in a High Risk Product, the manufacturer of such
  39:common/instrumentation.c ****  * system or application assumes all risk of such use and in doing so agrees to
  40:common/instrumentation.c ****  * indemnify Cypress against all liability.
  41:common/instrumentation.c ****  */
  42:common/instrumentation.c **** 
  43:common/instrumentation.c **** #include <project.h>
  44:common/instrumentation.c **** #include <flash_config.h>
  45:common/instrumentation.c **** #include <system.h>
  46:common/instrumentation.c **** #include <app.h>
  47:common/instrumentation.c **** #include <timer.h>
  48:common/instrumentation.c **** #include <hpi.h>
  49:common/instrumentation.c **** #include <boot.h>
  50:common/instrumentation.c **** #include <flash.h>
  51:common/instrumentation.c **** #include <status.h>
  52:common/instrumentation.c **** #include <utils.h>
  53:common/instrumentation.c **** #include <gpio.h>
  54:common/instrumentation.c **** 
  55:common/instrumentation.c **** /* Run-time stack lower limit defined in linker script. */
  56:common/instrumentation.c **** extern int __cy_stack_limit;
  57:common/instrumentation.c **** 
  58:common/instrumentation.c **** #if RESET_ON_ERROR_ENABLE
  59:common/instrumentation.c **** 
ARM GAS  e:\temp\ccNlDmvN.s 			page 30


  60:common/instrumentation.c **** /* RAM based signature and offset used to check whether reset data is valid. */
  61:common/instrumentation.c **** #define RESET_DATA_VALID_OFFSET         (0)
  62:common/instrumentation.c **** #define RESET_DATA_VALID_SIG            (0xDEADBEEF)
  63:common/instrumentation.c **** 
  64:common/instrumentation.c **** /* RAM based signature and offset used to check whether watchdog reset has happened. */
  65:common/instrumentation.c **** #define WATCHDOG_RESET_OFFSET           (1)
  66:common/instrumentation.c **** #define WATCHDOG_RESET_SIG              (0xC003300C)
  67:common/instrumentation.c **** 
  68:common/instrumentation.c **** /* RAM offset where the watchdog reset count is maintained. */
  69:common/instrumentation.c **** #define RESET_COUNT_OFFSET              (2)
  70:common/instrumentation.c **** 
  71:common/instrumentation.c **** /* Size of the reset tracking data structure in DWORDs. */
  72:common/instrumentation.c **** #define RESET_DATA_STRUCT_SIZE          (3)
  73:common/instrumentation.c **** 
  74:common/instrumentation.c **** /* Address of the run-time instrumentation data structure. */
  75:common/instrumentation.c ****          uint32_t *gRunTimeDataAddr = (uint32_t *)CYDEV_SRAM_BASE;
  76:common/instrumentation.c **** 
  77:common/instrumentation.c **** /* Variable used to identify whether main loop has been run. */
  78:common/instrumentation.c **** volatile uint32_t gMainLoopDelay = 0;
  79:common/instrumentation.c **** 
  80:common/instrumentation.c **** /* Margin (in ms) available until watchdog reset. */
  81:common/instrumentation.c **** volatile uint16_t gMinResetMargin = WATCHDOG_RESET_PERIOD_MS;
  82:common/instrumentation.c **** 
  83:common/instrumentation.c **** /* Timer callback to reset device if main loop has not been run as expected. */
  84:common/instrumentation.c **** void watchdog_timer_cb (
  85:common/instrumentation.c ****     uint8_t port,
  86:common/instrumentation.c ****     timer_id_t id)
  87:common/instrumentation.c **** {
 435              		.loc 1 87 0
 436              		.cfi_startproc
 437              		@ args = 0, pretend = 0, frame = 0
 438              		@ frame_needed = 0, uses_anonymous_args = 0
 439              	.LVL0:
 440 0000 10B5     		push	{r4, lr}
 441              		.cfi_def_cfa_offset 8
 442              		.cfi_offset 4, -8
 443              		.cfi_offset 14, -4
  88:common/instrumentation.c ****     /*
  89:common/instrumentation.c ****      * It is possible that this timer is the only reason for the device to wake from sleep.
  90:common/instrumentation.c ****      * Hence allow two consecutive timer expiries before resetting the device.
  91:common/instrumentation.c ****      */
  92:common/instrumentation.c ****     gMainLoopDelay++;
 444              		.loc 1 92 0
 445 0002 0A4B     		ldr	r3, .L4
 446 0004 1A68     		ldr	r2, [r3]
 447 0006 0132     		adds	r2, r2, #1
 448 0008 1A60     		str	r2, [r3]
  93:common/instrumentation.c ****     if (gMainLoopDelay >= 2)
 449              		.loc 1 93 0
 450 000a 1B68     		ldr	r3, [r3]
 451 000c 012B     		cmp	r3, #1
 452 000e 05D9     		bls	.L2
  94:common/instrumentation.c ****     {
  95:common/instrumentation.c ****         /* Store the reset signature into RAM. */
  96:common/instrumentation.c ****         gRunTimeDataAddr[WATCHDOG_RESET_OFFSET] = WATCHDOG_RESET_SIG;
 453              		.loc 1 96 0
 454 0010 074B     		ldr	r3, .L4+4
ARM GAS  e:\temp\ccNlDmvN.s 			page 31


 455 0012 084A     		ldr	r2, .L4+8
 456 0014 1B68     		ldr	r3, [r3]
 457 0016 5A60     		str	r2, [r3, #4]
  97:common/instrumentation.c ****         CySoftwareReset ();
 458              		.loc 1 97 0
 459 0018 FFF7FEFF 		bl	CySoftwareReset
 460              	.LVL1:
 461              	.L2:
  98:common/instrumentation.c ****     }
  99:common/instrumentation.c **** 
 100:common/instrumentation.c ****     /* Start the timer again. */
 101:common/instrumentation.c ****     timer_start (0, WATCHDOG_TIMER_ID, WATCHDOG_RESET_PERIOD_MS, watchdog_timer_cb);
 462              		.loc 1 101 0
 463 001c 064B     		ldr	r3, .L4+12
 464 001e 074A     		ldr	r2, .L4+16
 465 0020 D021     		movs	r1, #208
 466 0022 0020     		movs	r0, #0
 467 0024 FFF7FEFF 		bl	timer_start
 468              	.LVL2:
 102:common/instrumentation.c **** }
 469              		.loc 1 102 0
 470              		@ sp needed
 471 0028 10BD     		pop	{r4, pc}
 472              	.L5:
 473 002a C046     		.align	2
 474              	.L4:
 475 002c 00000000 		.word	.LANCHOR0
 476 0030 00000000 		.word	.LANCHOR1
 477 0034 0C3003C0 		.word	-1073532916
 478 0038 00000000 		.word	watchdog_timer_cb
 479 003c EE020000 		.word	750
 480              		.cfi_endproc
 481              	.LFE32:
 482              		.size	watchdog_timer_cb, .-watchdog_timer_cb
 483              		.section	.text.instrumentation_init,"ax",%progbits
 484              		.align	1
 485              		.global	instrumentation_init
 486              		.code	16
 487              		.thumb_func
 488              		.type	instrumentation_init, %function
 489              	instrumentation_init:
 490              	.LFB33:
 103:common/instrumentation.c **** 
 104:common/instrumentation.c **** #endif /* RESET_ON_ERROR_ENABLE */
 105:common/instrumentation.c **** 
 106:common/instrumentation.c **** #if STACK_USAGE_CHECK_ENABLE
 107:common/instrumentation.c ****     
 108:common/instrumentation.c **** /*
 109:common/instrumentation.c ****  * Minimum run-time stack usage value. This many bytes at the top of the stack
 110:common/instrumentation.c ****  * will not be tracked for usage.
 111:common/instrumentation.c ****  */
 112:common/instrumentation.c **** #define MIN_STACK_USAGE     (128u)
 113:common/instrumentation.c **** 
 114:common/instrumentation.c **** /* Signature used to track stack usage. */
 115:common/instrumentation.c **** #define STACK_UNUSED_SIG    (0x00555500)
 116:common/instrumentation.c **** 
 117:common/instrumentation.c **** /* Address of the bottom location of the run-time stack. */
ARM GAS  e:\temp\ccNlDmvN.s 			page 32


 118:common/instrumentation.c ****          uint32_t *gStackBottom  = (uint32_t *)CYDEV_SRAM_BASE;
 119:common/instrumentation.c **** volatile uint16_t gMinStackMargin   = 0;
 120:common/instrumentation.c **** 
 121:common/instrumentation.c **** #endif /* STACK_USAGE_CHECK_ENABLE */
 122:common/instrumentation.c **** 
 123:common/instrumentation.c **** void instrumentation_init(void)
 124:common/instrumentation.c **** {
 491              		.loc 1 124 0
 492              		.cfi_startproc
 493              		@ args = 0, pretend = 0, frame = 0
 494              		@ frame_needed = 0, uses_anonymous_args = 0
 495              	.LVL3:
 496 0000 70B5     		push	{r4, r5, r6, lr}
 497              		.cfi_def_cfa_offset 16
 498              		.cfi_offset 4, -16
 499              		.cfi_offset 5, -12
 500              		.cfi_offset 6, -8
 501              		.cfi_offset 14, -4
 125:common/instrumentation.c ****     uint32_t wdr_cnt = 0;
 126:common/instrumentation.c ****     (void)wdr_cnt;
 127:common/instrumentation.c **** 
 128:common/instrumentation.c **** #if STACK_USAGE_CHECK_ENABLE
 129:common/instrumentation.c ****     uint32_t *addr_p;
 130:common/instrumentation.c **** 
 131:common/instrumentation.c ****     /* Store the stack bottom location. */
 132:common/instrumentation.c ****     gStackBottom = (uint32_t *)&__cy_stack_limit;
 133:common/instrumentation.c **** #if RESET_ON_ERROR_ENABLE
 134:common/instrumentation.c ****     /* If we have watchdog reset tracking enabled, the lowest twelve bytes of stack cannot be used.
 135:common/instrumentation.c ****     gStackBottom += RESET_DATA_STRUCT_SIZE;
 136:common/instrumentation.c **** #endif /* RESET_ON_ERROR_ENABLE */
 137:common/instrumentation.c **** 
 138:common/instrumentation.c ****     /* Fill the stack memory with unused signature. */
 139:common/instrumentation.c ****     for (addr_p = gStackBottom; addr_p < (uint32_t *)((CYDEV_SRAM_BASE + CYDEV_SRAM_SIZE) - MIN_STA
 140:common/instrumentation.c ****     {
 141:common/instrumentation.c ****         *addr_p = STACK_UNUSED_SIG;
 142:common/instrumentation.c ****     }
 143:common/instrumentation.c ****     
 144:common/instrumentation.c ****     /* Initialize the stack margin value. */
 145:common/instrumentation.c ****     gMinStackMargin = (uint16_t)((uint32_t)addr_p - (uint32_t)gStackBottom);
 146:common/instrumentation.c **** 
 147:common/instrumentation.c **** #if CCG_HPI_ENABLE
 148:common/instrumentation.c ****     hpi_set_reserved_reg_37 (gMinStackMargin);
 149:common/instrumentation.c **** #endif /* CCG_HPI_ENABLE */
 150:common/instrumentation.c **** 
 151:common/instrumentation.c **** #endif /* STACK_USAGE_CHECK_ENABLE */
 152:common/instrumentation.c **** 
 153:common/instrumentation.c **** #if RESET_ON_ERROR_ENABLE
 154:common/instrumentation.c ****     gRunTimeDataAddr = (uint32_t *)&__cy_stack_limit;
 502              		.loc 1 154 0
 503 0002 104B     		ldr	r3, .L10
 504 0004 104A     		ldr	r2, .L10+4
 155:common/instrumentation.c ****     if (gRunTimeDataAddr[RESET_DATA_VALID_OFFSET] == RESET_DATA_VALID_SIG)
 505              		.loc 1 155 0
 506 0006 1968     		ldr	r1, [r3]
 507 0008 1048     		ldr	r0, .L10+8
 154:common/instrumentation.c ****     if (gRunTimeDataAddr[RESET_DATA_VALID_OFFSET] == RESET_DATA_VALID_SIG)
 508              		.loc 1 154 0
ARM GAS  e:\temp\ccNlDmvN.s 			page 33


 509 000a 1360     		str	r3, [r2]
 125:common/instrumentation.c ****     uint32_t wdr_cnt = 0;
 510              		.loc 1 125 0
 511 000c 0024     		movs	r4, #0
 512              		.loc 1 155 0
 513 000e 8142     		cmp	r1, r0
 514 0010 06D1     		bne	.L7
 156:common/instrumentation.c ****     {
 157:common/instrumentation.c ****         wdr_cnt = gRunTimeDataAddr[RESET_COUNT_OFFSET];
 158:common/instrumentation.c ****         if (gRunTimeDataAddr[WATCHDOG_RESET_OFFSET] == WATCHDOG_RESET_SIG)
 159:common/instrumentation.c ****             wdr_cnt++;
 515              		.loc 1 159 0
 516 0012 0F4D     		ldr	r5, .L10+12
 517 0014 5968     		ldr	r1, [r3, #4]
 157:common/instrumentation.c ****         if (gRunTimeDataAddr[WATCHDOG_RESET_OFFSET] == WATCHDOG_RESET_SIG)
 518              		.loc 1 157 0
 519 0016 9C68     		ldr	r4, [r3, #8]
 520              	.LVL4:
 521              		.loc 1 159 0
 522 0018 4919     		adds	r1, r1, r5
 523 001a 4E42     		rsbs	r6, r1, #0
 524 001c 4E41     		adcs	r6, r6, r1
 525 001e A419     		adds	r4, r4, r6
 526              	.LVL5:
 527              	.L7:
 160:common/instrumentation.c ****     }
 161:common/instrumentation.c **** 
 162:common/instrumentation.c ****     /*
 163:common/instrumentation.c ****      * Store the reset data valid signature and current reset count.
 164:common/instrumentation.c ****      * Also clear the reset detected signature.
 165:common/instrumentation.c ****      */
 166:common/instrumentation.c ****     gRunTimeDataAddr[RESET_DATA_VALID_OFFSET] = RESET_DATA_VALID_SIG;
 167:common/instrumentation.c ****     gRunTimeDataAddr[WATCHDOG_RESET_OFFSET]   = 0;
 528              		.loc 1 167 0
 529 0020 0021     		movs	r1, #0
 168:common/instrumentation.c ****     gRunTimeDataAddr[RESET_COUNT_OFFSET]      = wdr_cnt;
 530              		.loc 1 168 0
 531 0022 9C60     		str	r4, [r3, #8]
 167:common/instrumentation.c ****     gRunTimeDataAddr[RESET_COUNT_OFFSET]      = wdr_cnt;
 532              		.loc 1 167 0
 533 0024 5960     		str	r1, [r3, #4]
 166:common/instrumentation.c ****     gRunTimeDataAddr[WATCHDOG_RESET_OFFSET]   = 0;
 534              		.loc 1 166 0
 535 0026 1860     		str	r0, [r3]
 169:common/instrumentation.c ****     
 170:common/instrumentation.c ****     gMinResetMargin = 2 * WATCHDOG_RESET_PERIOD_MS;
 536              		.loc 1 170 0
 537 0028 0A4B     		ldr	r3, .L10+16
 538 002a 9380     		strh	r3, [r2, #4]
 171:common/instrumentation.c **** 
 172:common/instrumentation.c **** #if CCG_HPI_ENABLE
 173:common/instrumentation.c ****     hpi_set_reserved_reg_35 (gMinResetMargin);
 539              		.loc 1 173 0
 540 002c 9088     		ldrh	r0, [r2, #4]
 541 002e 80B2     		uxth	r0, r0
 542 0030 FFF7FEFF 		bl	hpi_set_reserved_reg_35
 543              	.LVL6:
ARM GAS  e:\temp\ccNlDmvN.s 			page 34


 174:common/instrumentation.c **** #endif /* CCG_HPI_ENABLE */
 175:common/instrumentation.c **** 
 176:common/instrumentation.c **** #endif /* RESET_ON_ERROR_ENABLE */
 177:common/instrumentation.c **** 
 178:common/instrumentation.c **** #if ((CCG_HPI_ENABLE) && (HPI_WATCHDOG_RESET_ENABLE))
 179:common/instrumentation.c ****     /* Store the reset count into the HPI register. */
 180:common/instrumentation.c ****     if (wdr_cnt > 0xFFu)
 181:common/instrumentation.c ****         wdr_cnt = 0xFFu;
 182:common/instrumentation.c ****     hpi_set_reset_count (wdr_cnt);
 544              		.loc 1 182 0
 545 0034 FF2C     		cmp	r4, #255
 546 0036 00D9     		bls	.L8
 547 0038 FF24     		movs	r4, #255
 548              	.LVL7:
 549              	.L8:
 550 003a E0B2     		uxtb	r0, r4
 551 003c FFF7FEFF 		bl	hpi_set_reset_count
 552              	.LVL8:
 183:common/instrumentation.c **** #endif /* CCG_HPI_ENABLE */
 184:common/instrumentation.c **** }
 553              		.loc 1 184 0
 554              		@ sp needed
 555 0040 70BD     		pop	{r4, r5, r6, pc}
 556              	.L11:
 557 0042 C046     		.align	2
 558              	.L10:
 559 0044 00000000 		.word	__cy_stack_limit
 560 0048 00000000 		.word	.LANCHOR1
 561 004c EFBEADDE 		.word	-559038737
 562 0050 F4CFFC3F 		.word	1073532916
 563 0054 DC050000 		.word	1500
 564              		.cfi_endproc
 565              	.LFE33:
 566              		.size	instrumentation_init, .-instrumentation_init
 567              		.section	.text.instrumentation_start,"ax",%progbits
 568              		.align	1
 569              		.global	instrumentation_start
 570              		.code	16
 571              		.thumb_func
 572              		.type	instrumentation_start, %function
 573              	instrumentation_start:
 574              	.LFB34:
 185:common/instrumentation.c **** 
 186:common/instrumentation.c **** void instrumentation_start(void)
 187:common/instrumentation.c **** {
 575              		.loc 1 187 0
 576              		.cfi_startproc
 577              		@ args = 0, pretend = 0, frame = 0
 578              		@ frame_needed = 0, uses_anonymous_args = 0
 579 0000 10B5     		push	{r4, lr}
 580              		.cfi_def_cfa_offset 8
 581              		.cfi_offset 4, -8
 582              		.cfi_offset 14, -4
 188:common/instrumentation.c **** #if RESET_ON_ERROR_ENABLE
 189:common/instrumentation.c ****     /* Start the timer used for watchdog reset. */
 190:common/instrumentation.c ****     timer_start (0, WATCHDOG_TIMER_ID, WATCHDOG_RESET_PERIOD_MS, watchdog_timer_cb);
 583              		.loc 1 190 0
ARM GAS  e:\temp\ccNlDmvN.s 			page 35


 584 0002 034B     		ldr	r3, .L13
 585 0004 034A     		ldr	r2, .L13+4
 586 0006 D021     		movs	r1, #208
 587 0008 0020     		movs	r0, #0
 588 000a FFF7FEFF 		bl	timer_start
 589              	.LVL9:
 191:common/instrumentation.c **** #endif /* RESET_ON_ERROR_ENABLE */
 192:common/instrumentation.c **** }
 590              		.loc 1 192 0
 591              		@ sp needed
 592 000e 10BD     		pop	{r4, pc}
 593              	.L14:
 594              		.align	2
 595              	.L13:
 596 0010 00000000 		.word	watchdog_timer_cb
 597 0014 EE020000 		.word	750
 598              		.cfi_endproc
 599              	.LFE34:
 600              		.size	instrumentation_start, .-instrumentation_start
 601              		.section	.text.instrumentation_task,"ax",%progbits
 602              		.align	1
 603              		.global	instrumentation_task
 604              		.code	16
 605              		.thumb_func
 606              		.type	instrumentation_task, %function
 607              	instrumentation_task:
 608              	.LFB35:
 193:common/instrumentation.c **** 
 194:common/instrumentation.c **** void instrumentation_task(void)
 195:common/instrumentation.c **** {
 609              		.loc 1 195 0
 610              		.cfi_startproc
 611              		@ args = 0, pretend = 0, frame = 0
 612              		@ frame_needed = 0, uses_anonymous_args = 0
 613              		@ link register save eliminated.
 196:common/instrumentation.c **** #if STACK_USAGE_CHECK_ENABLE
 197:common/instrumentation.c ****     uint32_t *addr_p = gStackBottom;
 198:common/instrumentation.c **** #endif /* STACK_USAGE_CHECK_ENABLE */
 199:common/instrumentation.c **** 
 200:common/instrumentation.c **** #if RESET_ON_ERROR_ENABLE
 201:common/instrumentation.c **** 
 202:common/instrumentation.c ****     /* Clear the variable to indicate main loop has been run. */
 203:common/instrumentation.c ****     gMainLoopDelay = 0;
 614              		.loc 1 203 0
 615 0000 0022     		movs	r2, #0
 616 0002 014B     		ldr	r3, .L16
 204:common/instrumentation.c **** 
 205:common/instrumentation.c **** #if CALCULATE_TIMER_MARGINS
 206:common/instrumentation.c ****     /* Calculate how much time is left before device could get reset. */
 207:common/instrumentation.c ****     gMinResetMargin = GET_MIN(gMinResetMargin,
 208:common/instrumentation.c ****             ((1 - gMainLoopDelay) * WATCHDOG_RESET_PERIOD_MS) + timer_get_count(0, WATCHDOG_TIMER_I
 209:common/instrumentation.c **** #if CCG_HPI_ENABLE
 210:common/instrumentation.c ****     hpi_set_reserved_reg_35 (gMinResetMargin);
 211:common/instrumentation.c **** #endif /* CCG_HPI_ENABLE */
 212:common/instrumentation.c **** 
 213:common/instrumentation.c ****     /* Stop and restart the timer. */
 214:common/instrumentation.c ****     timer_stop (0, WATCHDOG_TIMER_ID);
ARM GAS  e:\temp\ccNlDmvN.s 			page 36


 215:common/instrumentation.c ****     timer_start (0, WATCHDOG_TIMER_ID, WATCHDOG_RESET_PERIOD_MS, watchdog_timer_cb);
 216:common/instrumentation.c **** #endif /* CALCULATE_TIMER_MARGINS */
 217:common/instrumentation.c **** 
 218:common/instrumentation.c **** #endif /* RESET_ON_ERROR_ENABLE */
 219:common/instrumentation.c **** 
 220:common/instrumentation.c **** #if STACK_USAGE_CHECK_ENABLE
 221:common/instrumentation.c ****     for (addr_p = gStackBottom; addr_p < (uint32_t *)((CYDEV_SRAM_BASE + CYDEV_SRAM_SIZE) - MIN_STA
 222:common/instrumentation.c ****     {
 223:common/instrumentation.c ****         if (*addr_p != STACK_UNUSED_SIG)
 224:common/instrumentation.c ****         {
 225:common/instrumentation.c ****             break;
 226:common/instrumentation.c ****         }
 227:common/instrumentation.c ****     }
 228:common/instrumentation.c ****     
 229:common/instrumentation.c ****     /* Calculate the minimum stack availability margin and update debug register. */
 230:common/instrumentation.c ****     gMinStackMargin = GET_MIN(gMinStackMargin, ((uint32_t)addr_p - (uint32_t)gStackBottom));
 231:common/instrumentation.c **** #if CCG_HPI_ENABLE
 232:common/instrumentation.c ****     hpi_set_reserved_reg_37(gMinStackMargin);
 233:common/instrumentation.c **** #endif /* CCG_HPI_ENABLE */
 234:common/instrumentation.c **** 
 235:common/instrumentation.c **** #endif /* STACK_USAGE_CHECK_ENABLE */
 236:common/instrumentation.c **** }
 617              		.loc 1 236 0
 618              		@ sp needed
 203:common/instrumentation.c **** 
 619              		.loc 1 203 0
 620 0004 1A60     		str	r2, [r3]
 621              		.loc 1 236 0
 622 0006 7047     		bx	lr
 623              	.L17:
 624              		.align	2
 625              	.L16:
 626 0008 00000000 		.word	.LANCHOR0
 627              		.cfi_endproc
 628              	.LFE35:
 629              		.size	instrumentation_task, .-instrumentation_task
 630              		.section	.text.CyBoot_IntDefaultHandler_Exception_EntryCallback,"ax",%progbits
 631              		.align	1
 632              		.global	CyBoot_IntDefaultHandler_Exception_EntryCallback
 633              		.code	16
 634              		.thumb_func
 635              		.type	CyBoot_IntDefaultHandler_Exception_EntryCallback, %function
 636              	CyBoot_IntDefaultHandler_Exception_EntryCallback:
 637              	.LFB36:
 237:common/instrumentation.c **** 
 238:common/instrumentation.c **** void CyBoot_IntDefaultHandler_Exception_EntryCallback(void)
 239:common/instrumentation.c **** {
 638              		.loc 1 239 0
 639              		.cfi_startproc
 640              		@ args = 0, pretend = 0, frame = 0
 641              		@ frame_needed = 0, uses_anonymous_args = 0
 642 0000 10B5     		push	{r4, lr}
 643              		.cfi_def_cfa_offset 8
 644              		.cfi_offset 4, -8
 645              		.cfi_offset 14, -4
 240:common/instrumentation.c **** #if RESET_ON_ERROR_ENABLE
 241:common/instrumentation.c ****     /* Store the reset signature into RAM. */
ARM GAS  e:\temp\ccNlDmvN.s 			page 37


 242:common/instrumentation.c ****     gRunTimeDataAddr[WATCHDOG_RESET_OFFSET] = WATCHDOG_RESET_SIG;
 646              		.loc 1 242 0
 647 0002 034B     		ldr	r3, .L19
 648 0004 034A     		ldr	r2, .L19+4
 649 0006 1B68     		ldr	r3, [r3]
 243:common/instrumentation.c ****     CySoftwareReset ();
 244:common/instrumentation.c **** #endif /* RESET_ON_ERROR_ENABLE */
 245:common/instrumentation.c **** }
 650              		.loc 1 245 0
 651              		@ sp needed
 242:common/instrumentation.c ****     CySoftwareReset ();
 652              		.loc 1 242 0
 653 0008 5A60     		str	r2, [r3, #4]
 243:common/instrumentation.c ****     CySoftwareReset ();
 654              		.loc 1 243 0
 655 000a FFF7FEFF 		bl	CySoftwareReset
 656              	.LVL10:
 657              		.loc 1 245 0
 658 000e 10BD     		pop	{r4, pc}
 659              	.L20:
 660              		.align	2
 661              	.L19:
 662 0010 00000000 		.word	.LANCHOR1
 663 0014 0C3003C0 		.word	-1073532916
 664              		.cfi_endproc
 665              	.LFE36:
 666              		.size	CyBoot_IntDefaultHandler_Exception_EntryCallback, .-CyBoot_IntDefaultHandler_Exception_Entry
 667              		.global	gMinResetMargin
 668              		.global	gMainLoopDelay
 669              		.global	gRunTimeDataAddr
 670              		.data
 671              		.align	2
 672              		.set	.LANCHOR1,. + 0
 673              		.type	gRunTimeDataAddr, %object
 674              		.size	gRunTimeDataAddr, 4
 675              	gRunTimeDataAddr:
 676 0000 00000020 		.word	536870912
 677              		.type	gMinResetMargin, %object
 678              		.size	gMinResetMargin, 2
 679              	gMinResetMargin:
 680 0004 EE02     		.short	750
 681              		.bss
 682              		.align	2
 683              		.set	.LANCHOR0,. + 0
 684              		.type	gMainLoopDelay, %object
 685              		.size	gMainLoopDelay, 4
 686              	gMainLoopDelay:
 687 0000 00000000 		.space	4
 688              		.text
 689              	.Letext0:
 690              		.file 2 "e:\\cypress\\psoc creator\\4.2\\psoc creator\\import\\gnu\\arm\\5.4.1\\arm-none-eabi\\inc
 691              		.file 3 "e:\\cypress\\psoc creator\\4.2\\psoc creator\\import\\gnu\\arm\\5.4.1\\arm-none-eabi\\inc
 692              		.file 4 ".\\src\\system/timer.h"
 693              		.file 5 "Generated_Source\\PSoC4/CyLib.h"
 694              		.file 6 ".\\src\\hpiss/hpi.h"