ARM GAS  e:\temp\ccpSGw5T.s 			page 1


   1              		.syntax unified
   2              		.cpu cortex-m0
   3              		.fpu softvfp
   4              		.eabi_attribute 20, 1
   5              		.eabi_attribute 21, 1
   6              		.eabi_attribute 23, 3
   7              		.eabi_attribute 24, 1
   8              		.eabi_attribute 25, 1
   9              		.eabi_attribute 26, 1
  10              		.eabi_attribute 30, 4
  11              		.eabi_attribute 34, 0
  12              		.eabi_attribute 18, 4
  13              		.thumb
  14              		.syntax unified
  15              		.file	"FW_LED.c"
  16              		.text
  17              	.Ltext0:
  18              		.section	.gnu.lto_.profile.6240b8a3,"",%progbits
  19 0000 789C6361 		.ascii	"x\234ca`d`a`\000\222\352\212\000\000\331\000S"
  19      60646061 
  19      600092EA 
  19      8A0000D9 
  19      0053
  20              		.text
  21              		.section	.gnu.lto_.icf.6240b8a3,"",%progbits
  22 0000 789C6361 		.ascii	"x\234ca`d\000\0015\006\004`c\230\371\346\340NN\306\207"
  22      60640001 
  22      35060460 
  22      6398F9E6 
  22      E04E4EC6 
  23 0015 EB164E61 		.ascii	"\353\026NacZ\376\351\321v.\346s{\356ur\263<\274\367"
  23      635AFEE9 
  23      D1762EE6 
  23      737BEE75 
  23      72B33CBC 
  24 002a F5040BEB 		.ascii	"\365\004\013\353\325\023\313\31721\000\000o\270\022"
  24      D513CBCF 
  24      32310000 
  24      6FB812
  25 0039 DE       		.ascii	"\336"
  26              		.text
  27              		.section	.gnu.lto_.jmpfuncs.6240b8a3,"",%progbits
  28 0000 789C45C9 		.ascii	"x\234E\311\261\001\000 \010\300\260\026\320+\374\225"
  28      B1010020 
  28      08C0B016 
  28      D02BFC95 
  29 0010 D795C90C 		.ascii	"\327\225\311\014]Z\3108|\033\265\235\004$Thv\257\367"
  29      5D5AC838 
  29      7C1BB59D 
  29      04245468 
  29      76AFF7
  30 0023 2E215502 		.ascii	".!U\002@"
  30      40
  31              		.text
  32              		.section	.gnu.lto_.inline.6240b8a3,"",%progbits
  33 0000 789C658D 		.ascii	"x\234e\215\311\015\2000\014\004\327\216\343\030\011"
  33      C90D8030 
ARM GAS  e:\temp\ccpSGw5T.s 			page 2


  33      0C04D78E 
  33      E31809
  34 000f 093A4807 		.ascii	"\011:H\007\224@\245<R\012%P\012%`\203\004B\231\307>"
  34      9440A53C 
  34      520A2550 
  34      0A256083 
  34      044299C7 
  35 0024 767C0808 		.ascii	"v|\010\010\301\206\017\005\254\020\301\\%\333Wh\253"
  35      C1860F05 
  35      AC10C15C 
  35      25DB5768 
  35      AB
  36 0035 0C3E2609 		.ascii	"\014>&\011K\030\254\223\322\352-\031\232\011\254\347"
  36      4B18AC93 
  36      D2EA2D19 
  36      9A09ACE7 
  37 0045 F2F44EEA 		.ascii	"\362\364N\352+\211\023\214\331OP\204\374\237x\2141\226"
  37      2B89138C 
  37      D94F5084 
  37      FC9F788C 
  37      3196
  38 0057 51D4375F 		.ascii	"Q\3247_\031\\\353\300\017\342"
  38      195CEBC0 
  38      0FE2
  39              		.text
  40              		.section	.gnu.lto_.pureconst.6240b8a3,"",%progbits
  41 0000 789C6361 		.ascii	"x\234ca`d\340e```c\220b\224b\222b\226b\221b\225\002"
  41      6064E065 
  41      60606063 
  41      90629462 
  41      92629662 
  42 0018 00059500 		.ascii	"\000\005\225\000\304"
  42      C4
  43              		.text
  44              		.section	.gnu.lto_FW_LED_SetDriveMode.6240b8a3,"",%progbits
  45 0000 789C7D51 		.ascii	"x\234}Q=K\\A\024\275g\346\355{\0061\202U\300-\004\213"
  45      3D4B5C41 
  45      14BD67E6 
  45      ED7B0631 
  45      8255C02D 
  46 0016 C52608FA 		.ascii	"\305&\010\372\017\022\265\261\020\267H\243\210\350+"
  46      0F12B5B1 
  46      10B748A3 
  46      88E82B
  47 0025 7541B476 		.ascii	"uA\264vv\237\017C\012\025\374 \026b\265\254\361[\026"
  47      769F0F43 
  47      0A15FC20 
  47      1662B5AC 
  47      F15B16
  48 0038 1421C5B2 		.ascii	"\024!\305\262\242\010\201\025,,E,^\241\010k\242 \242"
  48      A2088115 
  48      2C2C452C 
  48      5EA1086B 
  48      A220A2
  49 004b BEDCFB76 		.ascii	"\276\334\373vk\007\346\336;\207s\016gf,\002\311:\342"
  49      6B07E6DE 
  49      3B87730E 
ARM GAS  e:\temp\ccpSGw5T.s 			page 3


  49      67662C02 
  49      C93AE2
  50 005e 96E0DEC8 		.ascii	"\226\340\336\310\033\232\240\346JD\351\032\005\310`"
  50      1B9AA0E6 
  50      4A44E91A 
  50      05C860
  51 006d 6A40930A 		.ascii	"j@\223\012\223xT\257\012\305\351\340P\265\344\014\257"
  51      937854AF 
  51      0AC5E9E0 
  51      50B5E40C 
  51      AF
  52 007e 2B3FE849 		.ascii	"+?\350I\033\377\223\257\211B\0259\021rha\326\277|v\276"
  52      1BFF93AF 
  52      89421539 
  52      11726861 
  52      D6BF7C76 
  53 0093 56378378 		.ascii	"V7\203x\276/\225/?&\262\306d\214Y\3567\332\327\300\032"
  53      BE2F952F 
  53      3F26B2C6 
  53      648C59EE 
  53      37DAD7C0 
  54 00a8 342BD016 		.ascii	"4+\320\026Gk\234\030 \374BB\310\327{o\213u\366\224\330"
  54      476B9C18 
  54      20FC4242 
  54      C8D77B6F 
  54      8B75F694 
  55 00bd 37554CB1 		.ascii	"7UL\261\016[b\356\364\026L\030z\246\220\267\217\367"
  55      0E5B62EE 
  55      F4164C18 
  55      7AA690B7 
  55      8FF7
  56 00cf ED0F8A65 		.ascii	"\355\017\212eJK\261 \342\230\214\266\024G\012Q\231\267"
  56      4A4BB120 
  56      E2988CB6 
  56      14470A51 
  56      99B7
  57 00e1 C4BF574A 		.ascii	"\304\277WJ\272\016P|\376q\261l\213\237\247\345*K~\361"
  57      BA0E507C 
  57      FE71B16C 
  57      8B9FA7E5 
  57      2A4B7EF1 
  58 00f5 CC7950BE 		.ascii	"\314yP\276\326Q\316\374\314\371[m\345\370=3g,\206n\263"
  58      D651CEFC 
  58      CCF95B6D 
  58      E5F83D33 
  58      672C866E 
  59 010a A5536715 		.ascii	"\245Sg\025+\351)\370\332\302&\342\330@\2343ma\025\024"
  59      2BE929F8 
  59      DAC226E2 
  59      D8409C33 
  59      6D611514 
  60 011e C07BA9DA 		.ascii	"\300{\251\332\351\212\343\335\237\205\237\365b\241\020"
  60      E98AE3DD 
  60      9F859FF5 
  60      62A110
  61 012d 86B3613D 		.ascii	"\206\263a=\266\231\035 \363\327\251\320b\236\266DV\256"
  61      B6991D20 
ARM GAS  e:\temp\ccpSGw5T.s 			page 4


  61      F3D7A9D0 
  61      629EB644 
  61      56AE
  62 013f CA0462D9 		.ascii	"\312\004b\331\336\325\313oKd14`'\222xOU\212\023\231"
  62      DED5CB6F 
  62      4B643134 
  62      60279278 
  62      4F558A13 
  63 0154 DB0C1597 		.ascii	"\333\014\025\227 \320{\261v9\026K\350\006\231\302\301"
  63      20D07BB1 
  63      7639164B 
  63      E80699C2 
  63      C1
  64 0165 89127AF4 		.ascii	"\211\022z\364+e\005y\003~\221\246.w\324\035\033\034"
  64      2B650579 
  64      037E91A6 
  64      2E77D41D 
  64      1B1C
  65 0177 77870792 		.ascii	"w\207\007\222\251\211\261!\267\257'\231\372\322\336"
  65      A989B121 
  65      B7AF2799 
  65      FAD2DE
  66 0186 D7F96DA0 		.ascii	"\327\371m\240\273\343\353\347!\262FR\303\356\177\246"
  66      BBE3EBE7 
  66      21B24652 
  66      C3EE7FA6 
  67 0196 969E38   		.ascii	"\226\2368"
  68              		.text
  69              		.section	.gnu.lto_FW_LED_Write.6240b8a3,"",%progbits
  70 0000 789C5551 		.ascii	"x\234UQKk\023Q\030\375\316\2753\231)\241\366\007\230"
  70      4B6B1351 
  70      18FDCEBD 
  70      339929A1 
  70      F60798
  71 0013 45404AC9 		.ascii	"E@J\311\246\024\364\037\370\350\306\205\264\240\233"
  71      A614F41F 
  71      F8E8C685 
  71      B4A09B
  72 0022 6009EDEC 		.ascii	"`\011\355\354\202\205`\273\355M\322$\240\010\255`\333"
  72      828560BB 
  72      ED4DD224 
  72      A008AD60 
  72      DB
  73 0033 85A6A048 		.ascii	"\205\246\240H\353\243\326*(>\300q6\305ME\024Q(\242E"
  73      EBA3D62A 
  73      283EC071 
  73      36C54D45 
  73      145128A2 
  74 0048 5374151F 		.ascii	"St\025\037\325b\325\370}s7\315e\356c\316\234s\356\371"
  74      D562D5F8 
  74      7D7337CD 
  74      65EE63CE 
  74      9C73EEF9 
  75 005c BE710824 		.ascii	"\276q\010$#\257\210zy\337\313\023\232\240\246\326\210"
  75      23AF887A 
  75      79DFCB13 
  75      9AA0A6D6 
ARM GAS  e:\temp\ccpSGw5T.s 			page 5


  75      88
  76 006d 8ABE02E4 		.ascii	"\212\276\002\344`|\320\204\302\004\266\324_\205\250"
  76      607CD084 
  76      C204B6D4 
  76      5F85A8
  77 007c D678A032 		.ascii	"\326x\2402\013\206\307\373O\277\372\314b\210\212&j\251"
  77      0B86C7FB 
  77      4FBFFACC 
  77      62888A26 
  77      6AA9
  78 008e D889B080 		.ascii	"\330\211\260\200\014\2636\037\327^A\357\003\361\271"
  78      0CB3361F 
  78      D75E41EF 
  78      03F1B9
  79 009d 1A6D3593 		.ascii	"\032m5\223=W\215)\031\363=ktE\003\213\320\254\300\376"
  79      3D578D29 
  79      19F33D6B 
  79      7445038B 
  79      D0ACC0FE 
  80 00b1 14FA52C4 		.ascii	"\024\372R\304\000\341\032z\204\3749:\233\327\231X\267"
  80      00E11A7A 
  80      84FC393A 
  80      9BD79958 
  80      B7
  81 00c2 7A6FBA85 		.ascii	"zo\272\205\356+\242\013_\256v\316\232\260\230\026\355"
  81      EE2BA20B 
  81      5FAE76CE 
  81      9AB09816 
  81      ED
  82 00d3 F5DD5A19 		.ascii	"\365\335Z\031\314\335X\371w\24131)\251\322\270\201n"
  82      CCDD58F9 
  82      77A13331 
  82      29A9D2B8 
  82      816E
  83 00e5 9B073791 		.ascii	"\233\0077\221\340\012!\310\362@hZ\255\262\011_xO\337"
  83      E00A21C8 
  83      F240685A 
  83      ADB2095F 
  83      784FDF
  84 00f8 7849C5B7 		.ascii	"xI\305\267*\315\213vH>\273\220\004\011\001<Y\374\030"
  84      2ACD8B76 
  84      483EBB90 
  84      0409013C 
  84      59FC18
  85 010b ED101651 		.ascii	"\355\020\026Q\223\247t\342\253R\262\353\006\242\337"
  85      93A774E2 
  85      AB52B2EB 
  85      06A2DF
  86 011a 67D6EAE3 		.ascii	"g\326\352\343\342_\326\322\225\231J\364\334\373\241"
  86      E25FD6D2 
  86      95994AF4 
  86      DCFBA1
  87 0129 2ADA89A3 		.ascii	"*\332\211\243?\332\016g]\373jJS\306\221\216l\336\177"
  87      3FDA0E67 
  87      5DFB6A4A 
  87      53C6918E 
  87      6CDE7F
ARM GAS  e:\temp\ccpSGw5T.s 			page 6


  88 013c D6358F4B 		.ascii	"\3265\217K\305I\356\227\213[Ha\011\234\037\313\230\007"
  88      C549EE97 
  88      8B5B4861 
  88      099C1FCB 
  88      9807
  89 014e 3550FA56 		.ascii	"5P\372V[W\326P\263'#\345?\325uX\304a\220=.\356\234\237"
  89      5B57D650 
  89      B32723E5 
  89      3FD57558 
  89      C461903D 
  90 0166 F3C556E3 		.ascii	"\363\305V\343\011p\233\345\033\2105\222\225Y\"jV_\327"
  90      09709BE5 
  90      1B883592 
  90      9559226A 
  90      565FD7
  91 0179 4F5A153F 		.ascii	"OZ\025?.\253>\356,=\334#\252\004\023WX\324f\3551\217"
  91      2EAB3EEE 
  91      2C3DDC23 
  91      AA041357 
  91      58D466ED 
  92 018f 49977F96 		.ascii	"I\227\177\226\317%\205\004\204\204;\226\265\235\260"
  92      CF258504 
  92      84843B96 
  92      B59DB0
  93 019e 1C3F4EE0 		.ascii	"\034?N\340\265\337\346\333\320\357\352\003\226\324a"
  93      B5DFE6DB 
  93      D0EFEA03 
  93      96D461
  94 01ad A168E643 		.ascii	"\241h\346C\227\000m%\027\215I\266W}\227\253f\015}A)"
  94      97006D25 
  94      178D49B6 
  94      577D97AB 
  94      660D7D41 
  95 01c2 7CDB2F82 		.ascii	"|\333/\202\370W6\025\244\303\334\357t\177p*(\344N\007"
  95      F8573615 
  95      A4C3DCEF 
  95      747F702A 
  95      28E44E07 
  96 01d6 234383A3 		.ascii	"#C\203\243c\205\341 {lp\364\340\201\354\221\023CG\017"
  96      6385E120 
  96      7B6C70F4 
  96      E081EC91 
  96      1343470F 
  97 01ea 1FEA1D26 		.ascii	"\037\352\035&w<\227\037\013\334\221\302\361\\\376?G"
  97      773C971F 
  97      0BDC91C2 
  97      F15CFE3F 
  97      47
  98 01fb 4AD4C9   		.ascii	"J\324\311"
  99              		.text
 100              		.section	.gnu.lto_FW_LED_Read.6240b8a3,"",%progbits
 101 0000 789C2D8F 		.ascii	"x\234-\217\277KBQ\024\307\317\367\336\247\211a\377@"
 101      BF4B4251 
 101      14C7CFF7 
 101      DEA78961 
 101      FF40
 102 0012 0ED2E612 		.ascii	"\016\322\346\022A-M\015\225-\015\221C\020\202\204\275"
ARM GAS  e:\temp\ccpSGw5T.s 			page 7


 102      412D4D0D 
 102      952D0D91 
 102      43108284 
 102      BD
 103 0023 35416AF6 		.ascii	"5Aj\366\372\236O!\032\\*\010\302\251\324J\"\212\006"
 103      FA9E4F21 
 103      1A5C2A08 
 103      C2A9D44A 
 103      228A06
 104 0036 27932021 		.ascii	"'\223 !\250\255\271B\034\232J\214\240_v\256\257\003"
 104      A8ADB942 
 104      1C9A4A8C 
 104      A05F76AE 
 104      AF03
 105 0048 F79E7BEE 		.ascii	"\367\236{\356\371\234\363=\307 \220\266)v#\354\207\371"
 105      F99CF33D 
 105      C72090B6 
 105      297623EC 
 105      87F9
 106 005a 401244E1 		.ascii	"@\022D\341\216(\343\023\200~(\037(-\220\306\273\370"
 106      8E28E313 
 106      807E281F 
 106      282D90C6 
 106      BBF8
 107 006c 11B8FD68 		.ascii	"\021\270\375hn\371\303%\245,\365\350\034N\356\226\353"
 107      6EF9C325 
 107      A52CF5E8 
 107      1C4EEE96 
 107      EB
 108 007d 7024514F 		.ascii	"p$QO\020\306\203\030\013\352\026%\204\211\321\347\263"
 108      10C68318 
 108      0BEA1625 
 108      8489D1E7 
 108      B3
 109 008e DFED8037 		.ascii	"\337\355\2007\253\330B\032\340L\031^-y\272XW\275\236"
 109      ABD8421A 
 109      E04C195E 
 109      2D79BA58 
 109      57BD9E
 110 00a1 ADEAE7FE 		.ascii	"\255\352\347\376\253K?\1779\222u\3712\364\345!\335\221"
 110      AB4B3F7F 
 110      399275F9 
 110      32F4E521 
 110      DD91
 111 00b3 5EB942EB 		.ascii	"^\271B\353\277\011\241\275l\243\361\271\371PY\326Ml"
 111      BF09A1BD 
 111      6CA3F1B9 
 111      F95059D6 
 111      4D6C
 112 00c5 295960C7 		.ascii	")Y`\307i\334\017t\205#\005\264\236Uh>\005\3340k\025"
 112      69DC0F74 
 112      852305B4 
 112      9E55683E 
 112      05DC306B 
 113 00da 94C15FF9 		.ascii	"\224\301_\371\203\332\336`\021\373\231,O)q\204 *\340"
 113      83DADE60 
 113      11FB992C 
ARM GAS  e:\temp\ccpSGw5T.s 			page 8


 113      4F297184 
 113      202AE0
 114 00ed 19718C22 		.ascii	"\031q\214\"\250\015\273\023![\302m\327\372\252\326\206"
 114      A80DBB13 
 114      215BC26D 
 114      D7FAAAD6 
 114      86
 115 00fe 74BDC153 		.ascii	"t\275\301S\2360\306\371\357\\\327\343\012\032\3141t"
 115      9E30C6F9 
 115      EF5CD7E3 
 115      0A1ACC31 
 115      74
 116 010f 717D93F3 		.ascii	"q}\223\363i\010l\325>du\362-\270\220\2079z\201\370\217"
 116      69086CD5 
 116      3E6475F2 
 116      2DB89087 
 116      397A81F8 
 117 0124 A8BF06F4 		.ascii	"\250\277\006\364\370\274Lh\316\\3S+\353\346j<\232\334"
 117      F8BC4C68 
 117      CE5C3353 
 117      2BEBE66A 
 117      3C9ADC
 118 0137 4825CCD8 		.ascii	"H%\314\330B49=\021\213,\305\347ggF\023\364\007\317\353"
 118      4234393D 
 118      118B2CC5 
 118      E7676746 
 118      13F407CF 
 119 014c 737A     		.ascii	"sz"
 120              		.text
 121              		.section	.gnu.lto_FW_LED_ReadDataReg.6240b8a3,"",%progbits
 122 0000 789C2D8F 		.ascii	"x\234-\217\317KBA\020\307\347\273\373^IR\375\001y\220"
 122      CF4B4241 
 122      10C7E7BB 
 122      FB5E4952 
 122      FD017990 
 123 0014 6E5E22A8 		.ascii	"n^\"\250K\247\016\225]:D\036\202\020$\354]\023\244\316"
 123      4BA70E95 
 123      5D3A441E 
 123      821024EC 
 123      5D13A4CE 
 124 0028 AE3E9F41 		.ascii	"\256>\237At\360R\036\242<j\245D\024\004uyIP\021\324"
 124      74F0521E 
 124      A23C6AA5 
 124      44140475 
 124      79495011 
 125 003d BF10210A 		.ascii	"\277\020!\012\235J\354\007\375\262Ym`wvv>3\337\031\203"
 125      9D4AEC07 
 125      FDB2596D 
 125      60777676 
 125      3E33DF19 
 126 0052 40DAC6D9 		.ascii	"@\332\306\331\015\262\037\340\003I\020\331;\242\244"
 126      0DB21FE0 
 126      034910D9 
 126      3BA2A4
 127 0061 4700FAA1 		.ascii	"G\000\372\241<\240\204@\002\257\342G\340\366\375z\243"
 127      3CA08440 
 127      02AFE247 
ARM GAS  e:\temp\ccpSGw5T.s 			page 9


 127      E0F6FD7A 
 127      A3
 128 0072 2750502A 		.ascii	"'PP*\245\036\234\343\261\\\321\205#\211Z\2020\342\303"
 128      A51E9CE3 
 128      B15CD185 
 128      23895A82 
 128      30E2C3
 129 0085 B04FB728 		.ascii	"\260O\267( @\214>\036\375n\366v\245\025\233_\003\234"
 129      20408C3E 
 129      1EFD6EF6 
 129      76A5159B 
 129      5F039C
 130 0098 29A24B4B 		.ascii	")\242KK\036\316\271\252\325\262\225\273\355\275\330"
 130      1ECEB9AA 
 130      D5B295BB 
 130      EDBDD8
 131 00a7 F5F29723 		.ascii	"\365\362\227#Y\227/C_&\351\216\364\314\025Z\377E\010"
 131      59972F43 
 131      5F26E98E 
 131      F4CC155A 
 131      FF4508
 132 00ba ED650D95 		.ascii	"\355e\015\225\317\365\267\322\202nbK\311\002[N\345\276"
 132      CFF5B7D2 
 132      826E624B 
 132      C9025B4E 
 132      E5BE
 133 00cc BB291C29 		.ascii	"\273)\034)\240\365\316?\334\234\331\011U*\253\014\376"
 133      A0F5CE3F 
 133      DC9CD909 
 133      552AAB0C 
 133      FE
 134 00dd AAD74F6F 		.ascii	"\252\327Oo\372\363\330I\246yJ\211}\370\260\007\236\021"
 134      FAF3D849 
 134      A6794A89 
 134      7DF8B007 
 134      9E11
 135 00ef 07C8836A 		.ascii	"\007\310\203j\260\033A\262%:\355\252_\345\263>]o\360"
 135      B01B41B2 
 135      253AEDAA 
 135      5FE5B33E 
 135      5D6FF0
 136 0102 9425C638 		.ascii	"\224%\3068\377\235i\232\035A\2039\206N.\2572\036\015"
 136      FF9D699A 
 136      1D418339 
 136      864E2EAF 
 136      321E0D
 137 0115 81ADDC86 		.ascii	"\201\255\334\206R\215\265*:\220\311\034=A\374G\324^"
 137      528DB52A 
 137      3A90C91C 
 137      3D41FC47 
 137      D45E
 138 0127 037A7C5E 		.ascii	"\003z|^\306?m-[\361\305\025k)\022\212\255\306\243Vx"
 138      C63F6D2D 
 138      5BF1C515 
 138      6B29128A 
 138      ADC6A356 
 139 013c 36149B18 		.ascii	"6\024\233\030\015\007\347#3S\223CQ\372\003\220(t\221"
ARM GAS  e:\temp\ccpSGw5T.s 			page 10


 139      0D07E723 
 139      33539343 
 139      51FA0390 
 139      287491
 140              		.text
 141              		.section	.gnu.lto_FW_LED_SetInterruptMode.6240b8a3,"",%progbits
 142 0000 789C6D91 		.ascii	"x\234m\221Mh\023A\024\307\347\315\354f7I\223z\361d\017"
 142      4D681341 
 142      14C7E7CD 
 142      EC663749 
 142      937AF164 
 143 0015 0129A120 		.ascii	"\001)\241 B\301\203\367\372q\021)\366\340\245PJ\273"
 143      42C183F7 
 143      FA711129 
 143      F6E0A550 
 143      4ABB
 144 0027 4A0E2612 		.ascii	"J\016&\022\343\271\223l6\205\"R\024\003\326\226\202"
 144      E3B9936C 
 144      36852252 
 144      1403D696 
 144      82
 145 0038 6569B46A 		.ascii	"ei\264j\333\264\012\355i\015z\363\203VET\024\2556\205"
 145      DBB40AED 
 145      690D7AF3 
 145      83564554 
 145      14AD3685 
 146 004c 5A31AD8A 		.ascii	"Z1\255\212\"\332\370\336N.\005\007vg\336\217\367\376"
 146      22DAF8DE 
 146      4E2E0507 
 146      7667DE8F 
 146      F7FE
 147 005e F37F6F34 		.ascii	"\363\177o4\006\214V\2113v\020\367=\370\201`\300\207"
 147      068C5689 
 147      337610F7 
 147      3DF88160 
 147      C087
 148 0070 9F309635 		.ascii	"\2370\22659\000\035\244\011l\200\303\000\374\340\177"
 148      39001DA4 
 148      096C80C3 
 148      00FCE07F 
 149 0080 395406AB 		.ascii	"9T\006\253\013\274mR\342z\277\272\326.K\0368\202\261"
 149      0BBC6D52 
 149      E27ABFBA 
 149      D62E4B1E 
 149      3882B1
 150 0093 3AF79518 		.ascii	":\367\225\030LB\033f=\254\377\364\232\277sG\000P\321"
 150      4C421B66 
 150      3DACFFF4 
 150      9ABF7347 
 150      0050D1
 151 00a6 72EDD158 		.ascii	"r\355\321X\230B\016\2730\034Yw\213Q\261\027\030\236"
 151      98420EBB 
 151      301C5977 
 151      8B51B117 
 151      189E
 152 00b8 D7E6AFBF 		.ascii	"\327\346\257\277\014\305])sR^\353\225\272#\004\334\004"
 152      0CC55D29 
ARM GAS  e:\temp\ccpSGw5T.s 			page 11


 152      73525EEB 
 152      95BA2304 
 152      DC04
 153 00ca 817A7003 		.ascii	"\201zp\003Z\240\004-\014\021\203)\210c\366\2679\367"
 153      5AA0042D 
 153      0C118329 
 153      8863F6B7 
 153      39F7
 154 00dc 7258ECF3 		.ascii	"rX\354\363+\267l\327njT\276mT\336\372O\345m\210S\372"
 154      2BB76CD7 
 154      6E6A54BE 
 154      6D54DEFA 
 154      4FE56D88 
 155 00f2 527E6654 		.ascii	"R~fT(K\032\206\233\217G>F\225\245\030\206S\356\013\227"
 155      284B1A86 
 155      9B8F473E 
 155      4695A518 
 155      8653EE0B 
 156 0107 8B765F78 		.ascii	"\213v_x\350\325\245r\244u\202\204\275g\027\243W\245"
 156      E8D5A572 
 156      A4758284 
 156      BD6717A3 
 156      57A5
 157 0119 978F3942 		.ascii	"\227\2179B\203\031%>\215\342wP\234\026f\257\314n_\211"
 157      8319253E 
 157      8DE27750 
 157      9C1666AF 
 157      CC6E5F89 
 158 012d 04F23490 		.ascii	"\004\3624\220\030\314B\253\032\005\224!\200\303\005"
 158      18CC42AB 
 158      1A059421 
 158      80C305
 159 013c 22D3273C 		.ascii	"\"\323'<Y\257\333\322[\212\336\177\035m\342hKG\027\330"
 159      59AFDBD2 
 159      5B8ADE7F 
 159      1D6DE268 
 159      4B4717D8 
 160 0150 9146479D 		.ascii	"\221FG\235~\001F\231\006\220[\023A H4D?\306j\250H/\261"
 160      7E014699 
 160      06905B13 
 160      41204834 
 160      443FC66A 
 161 0168 C939EDA2 		.ascii	"\3119\355\242\012\225\337C\357\026;\351\022[\320\200"
 161      0A95DF43 
 161      EF163BE9 
 161      125BD080 
 162 0178 8B4EE5A9 		.ascii	"\213N\345\251A\335\030~\007_\276.\214FTx!7,\251\337"
 162      41DD187E 
 162      075FBE2E 
 162      8C465478 
 162      21372CA9 
 163 018d F2C4E74F 		.ascii	"\362\304\347O\315\3430\226\315\343{\2310\217M\314Q\023"
 163      CDE33096 
 163      CDE37B99 
 163      308F4DCC 
 163      5113
 164 019f 7017C681 		.ascii	"p\027\306\201U!\2675\370\\W\202\232\215cC\262]x\240"
ARM GAS  e:\temp\ccpSGw5T.s 			page 12


 164      5521B735 
 164      F85C5782 
 164      9A8D6343 
 164      B25D78A0 
 165 01b3 29A22344 		.ascii	")\242#Db\377)l\200\"t/r\266\002\334o\025\315#T9\325"
 165      62FF296C 
 165      8022742F 
 165      72B602DC 
 165      6F15CD23 
 166 01ca C5E54696 		.ascii	"\305\345F\226\211J\2660|yC\241 RJ\373U\330\020\212\204"
 166      894AB630 
 166      7C7943A1 
 166      20524AFB 
 166      55D8108A 
 167 01df 7CB520C2 		.ascii	"|\265 \302J\361\303nb;\354f\245\014\357t|\017\035c\031"
 167      4AF1C36E 
 167      623BEC66 
 167      A50CEF74 
 167      7C0F1D63 
 168 01f4 5B879CF7 		.ascii	"[\207\234\367\3468\025\370oQ\343@\323\301Y\305\216Z"
 168      E63815F8 
 168      6F51E340 
 168      D3C159C5 
 168      8E5A
 169 0206 492BDD9B 		.ascii	"I+\335\233\261\372{\272R\347\323}VwgW\252\343@\367\221"
 169      B1FA7BBA 
 169      52E7D37D 
 169      56776757 
 169      AAE340F7 
 170 021b 933DC70E 		.ascii	"\223=\307\016\037\332\337\307\314\263\251s\211L\"\225"
 170      1FDADFC7 
 170      CCB3A973 
 170      894C2295 
 171 022b D4CEA4FA 		.ascii	"\324\316\244\372-#\221\314\244;N\235\376\007\302\362"
 171      2D2391CC 
 171      A43B4E9D 
 171      FE07C2F2 
 172 023b EDA3     		.ascii	"\355\243"
 173              		.text
 174              		.section	.gnu.lto_FW_LED_ClearInterrupt.6240b8a3,"",%progbits
 175 0000 789C5590 		.ascii	"x\234U\220\277K[Q\024\307\317\367\336\027\023\304\350"
 175      BF4B5B51 
 175      14C7CFF7 
 175      DE1713C4 
 175      E8
 176 0011 1FD00C01 		.ascii	"\037\320\014\001qpQA\207:\367\207\213\203\230\301E\220"
 176      71705141 
 176      873AF787 
 176      8B8398C1 
 176      4590
 177 0023 A06F1215 		.ascii	"\240o\022\025b\\\315M\342K\241\010fi\234\304A0\332T"
 177      625CCD4D 
 177      E24BA108 
 177      66699CC4 
 177      4130DA54 
 178 0037 6D071194 		.ascii	"m\007\021\224\3103\210\010\322\012\355Z\252h\311 (\255"
 178      C8338808 
ARM GAS  e:\temp\ccpSGw5T.s 			page 13


 178      D20AED5A 
 178      AA68C920 
 178      28AD
 179 0049 B40D546B 		.ascii	"\264\015Tk<'\317\241^x\234{\317;\337\317\371\236c\021"
 179      3C27CFA1 
 179      5E789C7B 
 179      CF3BDFCF 
 179      F99E6311 
 180 005d 48CE370E 		.ascii	"H\3167\016\355\034\237\360\007MP\331OD\311\200\002\344"
 180      ED1C9FF0 
 180      074D50D9 
 180      4F44C980 
 180      02E4
 181 006f 6202A084 		.ascii	"b\002\240\204B\002\277\325?\205\243\312\341l}k\336\230"
 181      4202BFD5 
 181      3F85A3CA 
 181      E16C7D6B 
 181      DE98
 182 0081 9439752A 		.ascii	"\2249u*\335\363+.\034MTU\204\316\020:B\202\310\243\225"
 182      DDF32B2E 
 182      1C4D5455 
 182      84CE103A 
 182      4282C8A3 
 183 0096 B8F47CFD 		.ascii	"\270\364|\375&\037\324\315\220\373\307\345\313M\264"
 183      261FD4CD 
 183      90FBC7E5 
 183      CB4DB4
 184 00a5 2C89CC2D 		.ascii	",\211\314-\3165\314\0337\031f\035V\240\377\227\222\324"
 184      CE35CC1B 
 184      3719661D 
 184      56A0FF97 
 184      92D4
 185 00b7 9E7DB87B 		.ascii	"\236}\270{\023\254\2331|\302XE\213\300\231\372\026u"
 185      13AC9B31 
 185      7CC25845 
 185      8BC099FA 
 185      1675
 186 00c9 EC1392D9 		.ascii	"\354\023\222\331\350wM\265\2326\356N\323\336\347\246"
 186      E8774DB5 
 186      9A36EE4E 
 186      D3DEE7A6 
 187 00d9 802247B3 		.ascii	"\200\"G\263oG+\213\344\267O\336~\022_\364\203\2652\305"
 187      6F472B8B 
 187      E4B74FDE 
 187      7E125FF4 
 187      83B532C5 
 188 00ed 4FA524EA 		.ascii	"O\245$\3522J\177_\377)N\013.\255e\242\234S:\366\377"
 188      324A7F5F 
 188      FF294E0B 
 188      2EAD65A2 
 188      9C533AF6 
 189 0102 528ED635 		.ascii	"R\216\3265\247\247\273\333'\001\357\231Me\215\305\251"
 189      A7A7BBDB 
 189      2701EF99 
 189      4D658DC5 
 189      A9
 190 0113 AF5F2A85 		.ascii	"\257_*\205\306E,$gxV\013\357\020B\001l\027kX\004\225"
ARM GAS  e:\temp\ccpSGw5T.s 			page 14


 190      C6452C24 
 190      6778560B 
 190      EF104201 
 190      6C176B58 
 191 0129 91BA7E75 		.ascii	"\221\272~u\253<\240f&g\322\267\231}x\031\213\223\314"
 191      AB3CA066 
 191      2667D2B7 
 191      997D7819 
 191      8B93CC
 192 013c D8BA2A6C 		.ascii	"\330\272*l\005\005\253\340\022\326Y~\206\232F\014s\225"
 192      0505ABE0 
 192      12D6597E 
 192      869A460C 
 192      7395
 193 014e 87B92BF6 		.ascii	"\207\271+\366{*\237\227*\345j\224G\036\222\306\370\036"
 193      7B2A9F97 
 193      2AE56A94 
 193      471E92C6 
 193      F81E
 194 0160 DBD8601B 		.ascii	"\333\330`\033,\221\276\327\231\203\335\247\036\302\317"
 194      2C91BED7 
 194      9983DDA7 
 194      1EC2CF
 195 016f 08167EBF 		.ascii	"\010\026~\277Y\333n\224\306>\356\365\236\353/\360\340"
 195      59DB6E94 
 195      C63EEEF5 
 195      9EEB2FF0 
 195      E0
 196 0180 D54FB5FD 		.ascii	"\325O\265\375@\366\302[\012\367\330\343v,\032\267G\206"
 196      40F6C25B 
 196      0AF7D8E3 
 196      762C1AB7 
 196      4786
 197 0192 221353B1 		.ascii	"\"\023S\261a{\260/2\361\254k\360\345\300P\357\213\347"
 197      617BB02F 
 197      32F1AC6B 
 197      F0E5C050 
 197      EF8BE7
 198 01a5 6DC3D430 		.ascii	"m\303\3240\026\235\034\265G\"\361h|j\362\036*L\254\363"
 198      169D1CB5 
 198      4722F168 
 198      7C6AF21E 
 198      2A4CACF3 
 199              		.text
 200              		.section	.gnu.lto_.symbol_nodes.6240b8a3,"",%progbits
 201 0000 789C6361 		.ascii	"x\234ca`d\310`\000\002&\206z\006\206\011\347\030@\324"
 201      6064C860 
 201      00022686 
 201      7A068609 
 201      E71840D4 
 202 0014 AE0645A0 		.ascii	"\256\006E\240\000c=#\252\000S=\023\252\000s=3\252\000"
 202      00633D23 
 202      AA00533D 
 202      13AA0073 
 202      3D33AA00 
 203 0028 4B3D0BAA 		.ascii	"K=\013\252\000k=+\212\000\003\000\305\333\026\342"
 203      006B3D2B 
ARM GAS  e:\temp\ccpSGw5T.s 			page 15


 203      8A000300 
 203      C5DB16E2 
 204              		.text
 205              		.section	.gnu.lto_.refs.6240b8a3,"",%progbits
 206 0000 789C6361 		.ascii	"x\234ca`\004B \000\000\0009\000\007"
 206      60044220 
 206      00000039 
 206      0007
 207              		.text
 208              		.section	.gnu.lto_.decls.6240b8a3,"",%progbits
 209 0000 789C8D54 		.ascii	"x\234\215TmLSg\024~\317\275m\201\333\242\206\271\215"
 209      6D4C5367 
 209      147ECFBD 
 209      6D81DBA2 
 209      86B98D
 210 0013 1F4DC6FC 		.ascii	"\037M\306\374Q\372\213\014Y\314~-K`\352\0227\027\311"
 210      51FA8B0C 
 210      59CC7E2D 
 210      4B60EA12 
 210      3717C9
 211 0026 F48F09A9 		.ascii	"\364\217\011\251p\243$\013\230\256\230\370\357\235\002"
 211      70A3240B 
 211      98AE98F8 
 211      EF9D02
 212 0035 731FC958 		.ascii	"s\037\311X\246\033l\020\005\302\006\202\010\024\220"
 212      A61B6C10 
 212      05C20682 
 212      081490
 213 0044 D62A652B 		.ascii	"\326*e+U\020\025*&:\303\3200\031C\263t\213\331t\313"
 213      5510152A 
 213      263AC3D0 
 213      301943B3 
 213      748BD974 
 214 0059 D69DF7A3 		.ascii	"\326\235\367\243\275W-\031oz\336\317s\236\363\234\347"
 214      BD572D19 
 214      6F7ADECF 
 214      739EF39C 
 214      E7
 215 006a 9ED44280 		.ascii	"\236\324B\200\260\221\260\022r\035\327\036<&pd\340~"
 215      B091B012 
 215      721DD71E 
 215      3C267064 
 215      E07E
 216 007c 2731860D 		.ascii	"'1\206\015\315\2176\2046\202\026D\213\240E\311\323\303"
 216      CD8F3684 
 216      36821644 
 216      8BA045C9 
 216      D3C3
 217 008e 2FFD597C 		.ascii	"/\375Y|/Z>Z\014m\006m\273\364\001\351\367\344`\370\031"
 217      2F5A3E5A 
 217      0C6D066D 
 217      BBF401E9 
 217      F7E460F8 
 218 00a3 4FC43A57 		.ascii	"O\304:W\210\037J\023\317\270Y\377'\357H\232\270\340"
 218      881F4A13 
 218      CFB859FF 
 218      27EF489A 
ARM GAS  e:\temp\ccpSGw5T.s 			page 16


 218      B8E0
 219 00b5 2AE28269 		.ascii	"*\342\202i\342\230\006Y\222o\016\332z\264Q\264)\211"
 219      E2980659 
 219      926F0EDA 
 219      7AB451B4 
 219      2989
 220 00c7 E3326125 		.ascii	"\3432a%q\"ip\230\216\266U\324\234N\357\177\024H\264"
 220      71226970 
 220      988EB655 
 220      D49C4EEF 
 220      7F1448B4 
 221 00db F47666DD 		.ascii	"\364vf\335\202\233\240\200\374\240\004@\314\300\215"
 221      829BA080 
 221      FCA00440 
 221      CCC08D
 222 00ea 08E347DC 		.ascii	"\010\343G\334(|&\251\253\324B\330L\204?\2773\300\370"
 222      287C26A9 
 222      ABD442D8 
 222      4C843FBF 
 222      33C0F8
 223 00fd 2FB92692 		.ascii	"/\271&\222\203\203\030\350 \203 \305@D\211wE\272\021"
 223      838318E8 
 223      208320C5 
 223      40448977 
 223      45BA11
 224 0110 01AE1801 		.ascii	"\001\256\030\001&<A\327\304\011\036\257\011\222E/-w"
 224      263C41D7 
 224      C4091EAF 
 224      0992452F 
 224      2D77
 225 0122 44ED2A62 		.ascii	"D\355*b\342~\376Q\347\346\202\036\212\243\201R\245\300"
 225      E27EFE51 
 225      E7E6821E 
 225      8AA38152 
 225      A5C0
 226 0134 50E674DD 		.ascii	"P\346t\335O]\231\017\024pj\220\000v\276\037x\224-\316"
 226      4F5D990F 
 226      14706A90 
 226      0076BE1F 
 226      78942DCE 
 227 0148 ECB9E9B3 		.ascii	"\354\271\351\263\205\177\355\352\013l\257\\[\350\376"
 227      857FEDEA 
 227      0B6CAF5C 
 227      5BE8FE
 228 0157 C5026EED 		.ascii	"\305\002n\355\033\006s\373\353\376W\003\224\256\203"
 228      1B0673FB 
 228      EBFE5703 
 228      94AE83
 229 0166 5ED0A007 		.ascii	"^\320\240\007T\350\002\206\212q8\037\241\364\020\215"
 229      54E80286 
 229      8A71381F 
 229      A1F4108D 
 230 0176 B7515B2E 		.ascii	"\267Q[.\201\"'\274\344$p\012\334\014\223yA78\341$8\031"
 230      812227BC 
 230      E424700A 
 230      DC0C9379 
 230      413738E1 
ARM GAS  e:\temp\ccpSGw5T.s 			page 17


 231 018d FEDD2F8F 		.ascii	"\376\335/\217\337\263Y\024\014d8{,\354n<\361gx-R\310"
 231      DFB35914 
 231      0C64387B 
 231      2CEC6E3C 
 231      F167782D 
 232 01a3 D140C163 		.ascii	"\321@\301c,>\325b\307\343z\015\326\341\361\312\321\233"
 232      2C3ED562 
 232      C7E37A0D 
 232      D6E1F1CA 
 232      D19B
 233 01b5 31C8FD82 		.ascii	"1\310\375\202q\240\207i\236\002;\237\203~\004\354C@"
 233      71A08769 
 233      9E023B9F 
 233      837E04EC 
 233      4340
 234 01c7 0203908B 		.ascii	"\002\003\220\213\363i\260\210\352~\276\026?\226\261"
 234      F369B088 
 234      EA7EBE16 
 234      3F96B1
 235 01d6 E1043DD1 		.ascii	"\341\004=\321Go\037\257\337\326\332^O\2471\3565\356"
 235      476F1FAF 
 235      DFD6DA5E 
 235      4FA731EE 
 235      35EE
 236 01e8 089D066D 		.ascii	"\010\235\006m\334\262\345[\270\205b\372a\003\306\236"
 236      DCB2E55B 
 236      B88562FA 
 236      6103C69E 
 237 01f8 7BD85CAF 		.ascii	"{\330\\\257\250\373\270\014\221\320\354\230\304\011"
 237      A8FBB80C 
 237      91D0EC98 
 237      C409
 238 0206 8F7EA036 		.ascii	"\217~\2406\321\360!\204Q8\312\240\2012hF\031\342(\221"
 238      D1F02184 
 238      5138CAA0 
 238      81326846 
 238      19E22891 
 239 021a B6E5A535 		.ascii	"\266\345\2455j\015Giih?i7Sg5\033\334\317p\356{$\365"
 239      6A0D4769 
 239      69683F69 
 239      37536735 
 239      1BDCCF70 
 240 0232 DAE0E45C 		.ascii	"\332\340\344\\\246L\331?i\244D/\0306R\016\233S\216\360"
 240      A64CD93F 
 240      69A4442F 
 240      1836520E 
 240      9B538EF0 
 241 0246 94773A66 		.ascii	"\224w:f[U\365}\3409g\027C\237[$L\343%\207(\237\203\004"
 241      5B55F57D 
 241      E0396717 
 241      439F5B24 
 241      4CE32587 
 242 025e 0C908019 		.ascii	"\014\220\200\031$\310AF\026C\347A=*@:\376\372;\256\342"
 242      24C84146 
 242      1643E741 
 242      3D2A403A 
 242      FEFA3BAE 
ARM GAS  e:\temp\ccpSGw5T.s 			page 18


 243 0273 27706193 		.ascii	"'pa\223$TS\227\270D\227t\266F\375\232\332\303\235\225"
 243      24545397 
 243      B8449774 
 243      B646FD9A 
 243      DAC39D95 
 244 0287 5F072FDC 		.ascii	"_\007/\334\310\006\315\315\233\000\353\324\334$U$\204"
 244      C806CDCD 
 244      9B00EBD4 
 244      DC245524 
 244      84
 245 0298 B10D5CB2 		.ascii	"\261\015\\\262\015\316\341e\010/e?\015\211~\032EM\316"
 245      0DCEE165 
 245      082F653F 
 245      0D897E1A 
 245      454DCE
 246 02ab 1BD45C9A 		.ascii	"\033\324\\\232\220\243\261\375S7\357\223\321T\237\214"
 246      90A3B1FD 
 246      5337EF93 
 246      D1549F8C 
 247 02bb 9D5A9CD2 		.ascii	"\235Z\234\322Rwc\300/\333\226\356\015g\257\330\036\337"
 247      527763C0 
 247      2FDB96EE 
 247      0D67AFD8 
 247      1EDF
 248 02cd 7389BF4B 		.ascii	"s\211\277K\266\307@\374\301\234\232l\217\350\366\205"
 248      B6C740FC 
 248      C19C9A6C 
 248      8FE8F685 
 249 02dd 014AEB30 		.ascii	"\001J\3530\316\302\374\340\254A\342\254Y\237\010\327"
 249      CEC2FCE0 
 249      AC41E2AC 
 249      599F08D7 
 250 02ed 6766A02E 		.ascii	"gf\240.\224\241\372\205>\313\321\226\033\331R\344\300"
 250      94A1FA85 
 250      3ECBD196 
 250      1BD952E4 
 250      C0
 251 02fe D5C7BFD5 		.ascii	"\325\307\277\325\270\0013n\206\211\012\230\332\276f"
 251      B801336E 
 251      86890A98 
 251      DABE66
 252 030d 55F4BA05 		.ascii	"U\364\272\005\217\277]\376ja\215\350\365<<\316]\354"
 252      8FBF5DFE 
 252      6A618DE8 
 252      F53C3CCE 
 252      5DEC
 253 031f EA66AFF9 		.ascii	"\352f\257\371L\367Db\255I\371|\241\374\344\374\335\337"
 253      4CF74462 
 253      AD49F97C 
 253      A1FCE4FC 
 253      DDDF
 254 0331 B3D409A1 		.ascii	"\263\324\011\241|\254\351\376\274-\251|\303a\232\263"
 254      7CACE9FE 
 254      BC2DA97C 
 254      C3619AB3 
 255 0341 95C045AC 		.ascii	"\225\300E\254\375\002S\3762*\237/\225\237\304\313\011"
 255      FD0253FE 
ARM GAS  e:\temp\ccpSGw5T.s 			page 19


 255      322A9F2F 
 255      959FC4CB 
 255      09
 256 0352 43F98050 		.ascii	"C\371\200P~\012U\274d\260\315\227\312\177x\347\330\017"
 256      7E0A55BC 
 256      64B0CD97 
 256      CA7F78E7 
 256      D80F
 257 0364 56ED0893 		.ascii	"V\355\010\223s5\230\030\021\374\2216[\325iA\352\372"
 257      73359818 
 257      11FC9136 
 257      5BD56941 
 257      EAFA
 258 0376 C7671AD5 		.ascii	"\307g\032\325\344\277Fxfyk-\245\0003\230\353\252\221"
 258      E4BF4678 
 258      66796B2D 
 258      A5003398 
 258      EBAA91
 259 0389 EB0AC8BF 		.ascii	"\353\012\310\277\215\247sL\247\317\361\307\303\211O"
 259      8DA7734C 
 259      A7CFF1C7 
 259      C3894F
 260 0398 1C8E8F52 		.ascii	"\034\216\217R\225r\304d\020\201\0308\370\037\"[\237"
 260      9572C464 
 260      10811838 
 260      F81F225B 
 260      9F
 261 03a9 D9BCAB6C 		.ascii	"\331\274\253l\333\353%e\245\272\257\304[y@\177\263\272"
 261      DBEB2565 
 261      A5BAAFC4 
 261      5B79407F 
 261      B3BA
 262 03bb 42CFDCF2 		.ascii	"B\317\334\362\326;y\305\205\205\304ZSY\345{\345\305"
 262      D63B79C5 
 262      8585C45A 
 262      5359E57B 
 262      E5C5
 263 03cd 2D7A95EE 		.ascii	"-z\225\356\365\370\364\212\262\322\352\032o\271\276"
 263      F5F8F48A 
 263      B2D2EA1A 
 263      6FB9BE
 264 03dc FBEDD2EA 		.ascii	"\373\355\322\352\342\227w\227\037\364\035\334\257\277"
 264      E2977797 
 264      1FF41DDC 
 264      AFBF
 265 03ea 57B08FE4 		.ascii	"W\260\217\344\255\340!\260\013\312\211Cf\331\345\255"
 265      ADE021B0 
 265      0BCA8943 
 265      66D9E5AD 
 266 03fa F4E97679 		.ascii	"\364\351vy\330\241{*rL\373\022\217\317\263C\337\373"
 266      D8A17B2A 
 266      724CFB12 
 266      8FCFB343 
 266      DFFB
 267 040c BCC1E88D 		.ascii	"\274\301\350\215*\237\356\365\326\354\3671V6F\246p\323"
 267      2A9FEEF5 
 267      D6ECF731 
ARM GAS  e:\temp\ccpSGw5T.s 			page 20


 267      563646A6 
 267      70D3
 268 041e B3F2B9F8 		.ascii	"\263\362\271\370]\335\343M9\360\307\242\215V\257\276"
 268      5DDDE34D 
 268      39F0C7A2 
 268      8D56AFBE 
 269 042e B768E37F 		.ascii	"\267h\343\177\225\212\027\246"
 269      958A17A6 
 270              		.text
 271              		.section	.gnu.lto_.symtab.6240b8a3,"",%progbits
 272 0000 46575F4C 		.ascii	"FW_LED_SetDriveMode\000"
 272      45445F53 
 272      65744472 
 272      6976654D 
 272      6F646500 
 273 0014 00       		.ascii	"\000"
 274 0015 00       		.ascii	"\000"
 275 0016 00       		.ascii	"\000"
 276 0017 00000000 		.ascii	"\000\000\000\000\000\000\000\000"
 276      00000000 
 277 001f B3000000 		.ascii	"\263\000\000\000"
 278 0023 46575F4C 		.ascii	"FW_LED_Write\000"
 278      45445F57 
 278      72697465 
 278      00
 279 0030 00       		.ascii	"\000"
 280 0031 00       		.ascii	"\000"
 281 0032 00       		.ascii	"\000"
 282 0033 00000000 		.ascii	"\000\000\000\000\000\000\000\000"
 282      00000000 
 283 003b B5000000 		.ascii	"\265\000\000\000"
 284 003f 46575F4C 		.ascii	"FW_LED_Read\000"
 284      45445F52 
 284      65616400 
 285 004b 00       		.ascii	"\000"
 286 004c 00       		.ascii	"\000"
 287 004d 00       		.ascii	"\000"
 288 004e 00000000 		.ascii	"\000\000\000\000\000\000\000\000"
 288      00000000 
 289 0056 B8000000 		.ascii	"\270\000\000\000"
 290 005a 46575F4C 		.ascii	"FW_LED_ReadDataReg\000"
 290      45445F52 
 290      65616444 
 290      61746152 
 290      656700
 291 006d 00       		.ascii	"\000"
 292 006e 00       		.ascii	"\000"
 293 006f 00       		.ascii	"\000"
 294 0070 00000000 		.ascii	"\000\000\000\000\000\000\000\000"
 294      00000000 
 295 0078 BA000000 		.ascii	"\272\000\000\000"
 296 007c 46575F4C 		.ascii	"FW_LED_SetInterruptMode\000"
 296      45445F53 
 296      6574496E 
 296      74657272 
 296      7570744D 
 297 0094 00       		.ascii	"\000"
ARM GAS  e:\temp\ccpSGw5T.s 			page 21


 298 0095 00       		.ascii	"\000"
 299 0096 00       		.ascii	"\000"
 300 0097 00000000 		.ascii	"\000\000\000\000\000\000\000\000"
 300      00000000 
 301 009f C4000000 		.ascii	"\304\000\000\000"
 302 00a3 46575F4C 		.ascii	"FW_LED_ClearInterrupt\000"
 302      45445F43 
 302      6C656172 
 302      496E7465 
 302      72727570 
 303 00b9 00       		.ascii	"\000"
 304 00ba 00       		.ascii	"\000"
 305 00bb 00       		.ascii	"\000"
 306 00bc 00000000 		.ascii	"\000\000\000\000\000\000\000\000"
 306      00000000 
 307 00c4 C6000000 		.ascii	"\306\000\000\000"
 308              		.text
 309              		.section	.gnu.lto_.opts,"",%progbits
 310 0000 272D666D 		.ascii	"'-fmath-errno' '-fsigned-zeros' '-ftrapping-math' '"
 310      6174682D 
 310      6572726E 
 310      6F272027 
 310      2D667369 
 311 0033 2D666E6F 		.ascii	"-fno-trapv' '-fno-openmp' '-fno-openacc' '-mcpu=cor"
 311      2D747261 
 311      70762720 
 311      272D666E 
 311      6F2D6F70 
 312 0066 7465782D 		.ascii	"tex-m0' '-mthumb' '-g' '-Os' '-Werror' '-ffunction-"
 312      6D302720 
 312      272D6D74 
 312      68756D62 
 312      2720272D 
 313 0099 73656374 		.ascii	"sections' '-ffat-lto-objects' '-finline-functions' "
 313      696F6E73 
 313      2720272D 
 313      66666174 
 313      2D6C746F 
 314 00cc 272D666C 		.ascii	"'-flto' '-fno-strict-aliasing'\000"
 314      746F2720 
 314      272D666E 
 314      6F2D7374 
 314      72696374 
 315              		.text
 316              		.cfi_sections	.debug_frame
 317              		.section	.text.FW_LED_SetDriveMode,"ax",%progbits
 318              		.align	1
 319              		.global	FW_LED_SetDriveMode
 320              		.code	16
 321              		.thumb_func
 322              		.type	FW_LED_SetDriveMode, %function
 323              	FW_LED_SetDriveMode:
 324              	.LFB0:
 325              		.file 1 "Generated_Source\\PSoC4\\FW_LED.c"
   1:Generated_Source\PSoC4/FW_LED.c **** /*******************************************************************************
   2:Generated_Source\PSoC4/FW_LED.c **** * File Name: FW_LED.c  
   3:Generated_Source\PSoC4/FW_LED.c **** * Version 2.20
ARM GAS  e:\temp\ccpSGw5T.s 			page 22


   4:Generated_Source\PSoC4/FW_LED.c **** *
   5:Generated_Source\PSoC4/FW_LED.c **** * Description:
   6:Generated_Source\PSoC4/FW_LED.c **** *  This file contains API to enable firmware control of a Pins component.
   7:Generated_Source\PSoC4/FW_LED.c **** *
   8:Generated_Source\PSoC4/FW_LED.c **** ********************************************************************************
   9:Generated_Source\PSoC4/FW_LED.c **** * Copyright 2008-2015, Cypress Semiconductor Corporation.  All rights reserved.
  10:Generated_Source\PSoC4/FW_LED.c **** * You may use this file only in accordance with the license, terms, conditions, 
  11:Generated_Source\PSoC4/FW_LED.c **** * disclaimers, and limitations in the end user license agreement accompanying 
  12:Generated_Source\PSoC4/FW_LED.c **** * the software package with which this file was provided.
  13:Generated_Source\PSoC4/FW_LED.c **** *******************************************************************************/
  14:Generated_Source\PSoC4/FW_LED.c **** 
  15:Generated_Source\PSoC4/FW_LED.c **** #include "cytypes.h"
  16:Generated_Source\PSoC4/FW_LED.c **** #include "FW_LED.h"
  17:Generated_Source\PSoC4/FW_LED.c **** 
  18:Generated_Source\PSoC4/FW_LED.c **** 
  19:Generated_Source\PSoC4/FW_LED.c **** #if defined(FW_LED__PC)
  20:Generated_Source\PSoC4/FW_LED.c ****     #define FW_LED_SetP4PinDriveMode(shift, mode)  \
  21:Generated_Source\PSoC4/FW_LED.c ****     do { \
  22:Generated_Source\PSoC4/FW_LED.c ****         FW_LED_PC =   (FW_LED_PC & \
  23:Generated_Source\PSoC4/FW_LED.c ****                                 (uint32)(~(uint32)(FW_LED_DRIVE_MODE_IND_MASK << \
  24:Generated_Source\PSoC4/FW_LED.c ****                                 (FW_LED_DRIVE_MODE_BITS * (shift))))) | \
  25:Generated_Source\PSoC4/FW_LED.c ****                                 (uint32)((uint32)(mode) << \
  26:Generated_Source\PSoC4/FW_LED.c ****                                 (FW_LED_DRIVE_MODE_BITS * (shift))); \
  27:Generated_Source\PSoC4/FW_LED.c ****     } while (0)
  28:Generated_Source\PSoC4/FW_LED.c **** #else
  29:Generated_Source\PSoC4/FW_LED.c ****     #if (CY_PSOC4_4200L)
  30:Generated_Source\PSoC4/FW_LED.c ****         #define FW_LED_SetP4PinDriveMode(shift, mode)  \
  31:Generated_Source\PSoC4/FW_LED.c ****         do { \
  32:Generated_Source\PSoC4/FW_LED.c ****             FW_LED_USBIO_CTRL_REG = (FW_LED_USBIO_CTRL_REG & \
  33:Generated_Source\PSoC4/FW_LED.c ****                                     (uint32)(~(uint32)(FW_LED_DRIVE_MODE_IND_MASK << \
  34:Generated_Source\PSoC4/FW_LED.c ****                                     (FW_LED_DRIVE_MODE_BITS * (shift))))) | \
  35:Generated_Source\PSoC4/FW_LED.c ****                                     (uint32)((uint32)(mode) << \
  36:Generated_Source\PSoC4/FW_LED.c ****                                     (FW_LED_DRIVE_MODE_BITS * (shift))); \
  37:Generated_Source\PSoC4/FW_LED.c ****         } while (0)
  38:Generated_Source\PSoC4/FW_LED.c ****     #endif
  39:Generated_Source\PSoC4/FW_LED.c **** #endif
  40:Generated_Source\PSoC4/FW_LED.c ****   
  41:Generated_Source\PSoC4/FW_LED.c **** 
  42:Generated_Source\PSoC4/FW_LED.c **** #if defined(FW_LED__PC) || (CY_PSOC4_4200L) 
  43:Generated_Source\PSoC4/FW_LED.c ****     /*******************************************************************************
  44:Generated_Source\PSoC4/FW_LED.c ****     * Function Name: FW_LED_SetDriveMode
  45:Generated_Source\PSoC4/FW_LED.c ****     ****************************************************************************//**
  46:Generated_Source\PSoC4/FW_LED.c ****     *
  47:Generated_Source\PSoC4/FW_LED.c ****     * \brief Sets the drive mode for each of the Pins component's pins.
  48:Generated_Source\PSoC4/FW_LED.c ****     * 
  49:Generated_Source\PSoC4/FW_LED.c ****     * <b>Note</b> This affects all pins in the Pins component instance. Use the
  50:Generated_Source\PSoC4/FW_LED.c ****     * Per-Pin APIs if you wish to control individual pin's drive modes.
  51:Generated_Source\PSoC4/FW_LED.c ****     *
  52:Generated_Source\PSoC4/FW_LED.c ****     * <b>Note</b> USBIOs have limited drive functionality. Refer to the Drive Mode
  53:Generated_Source\PSoC4/FW_LED.c ****     * parameter for more information.
  54:Generated_Source\PSoC4/FW_LED.c ****     *
  55:Generated_Source\PSoC4/FW_LED.c ****     * \param mode
  56:Generated_Source\PSoC4/FW_LED.c ****     *  Mode for the selected signals. Valid options are documented in 
  57:Generated_Source\PSoC4/FW_LED.c ****     *  \ref driveMode.
  58:Generated_Source\PSoC4/FW_LED.c ****     *
  59:Generated_Source\PSoC4/FW_LED.c ****     * \return
  60:Generated_Source\PSoC4/FW_LED.c ****     *  None
ARM GAS  e:\temp\ccpSGw5T.s 			page 23


  61:Generated_Source\PSoC4/FW_LED.c ****     *
  62:Generated_Source\PSoC4/FW_LED.c ****     * \sideeffect
  63:Generated_Source\PSoC4/FW_LED.c ****     *  If you use read-modify-write operations that are not atomic, the ISR can
  64:Generated_Source\PSoC4/FW_LED.c ****     *  cause corruption of this function. An ISR that interrupts this function 
  65:Generated_Source\PSoC4/FW_LED.c ****     *  and performs writes to the Pins component Drive Mode registers can cause 
  66:Generated_Source\PSoC4/FW_LED.c ****     *  corrupted port data. To avoid this issue, you should either use the Per-Pin
  67:Generated_Source\PSoC4/FW_LED.c ****     *  APIs (primary method) or disable interrupts around this function.
  68:Generated_Source\PSoC4/FW_LED.c ****     *
  69:Generated_Source\PSoC4/FW_LED.c ****     * \funcusage
  70:Generated_Source\PSoC4/FW_LED.c ****     *  \snippet FW_LED_SUT.c usage_FW_LED_SetDriveMode
  71:Generated_Source\PSoC4/FW_LED.c ****     *******************************************************************************/
  72:Generated_Source\PSoC4/FW_LED.c ****     void FW_LED_SetDriveMode(uint8 mode)
  73:Generated_Source\PSoC4/FW_LED.c ****     {
 326              		.loc 1 73 0
 327              		.cfi_startproc
 328              		@ args = 0, pretend = 0, frame = 0
 329              		@ frame_needed = 0, uses_anonymous_args = 0
 330              		@ link register save eliminated.
 331              	.LVL0:
  74:Generated_Source\PSoC4/FW_LED.c **** 		FW_LED_SetP4PinDriveMode(FW_LED__0__SHIFT, mode);
 332              		.loc 1 74 0
 333 0000 034A     		ldr	r2, .L2
 334 0002 044B     		ldr	r3, .L2+4
 335 0004 1168     		ldr	r1, [r2]
 336 0006 8004     		lsls	r0, r0, #18
 337              	.LVL1:
 338 0008 0B40     		ands	r3, r1
 339 000a 1843     		orrs	r0, r3
 340 000c 1060     		str	r0, [r2]
  75:Generated_Source\PSoC4/FW_LED.c ****     }
 341              		.loc 1 75 0
 342              		@ sp needed
 343 000e 7047     		bx	lr
 344              	.L3:
 345              		.align	2
 346              	.L2:
 347 0010 08010440 		.word	1074004232
 348 0014 FFFFE3FF 		.word	-1835009
 349              		.cfi_endproc
 350              	.LFE0:
 351              		.size	FW_LED_SetDriveMode, .-FW_LED_SetDriveMode
 352              		.section	.text.FW_LED_Write,"ax",%progbits
 353              		.align	1
 354              		.global	FW_LED_Write
 355              		.code	16
 356              		.thumb_func
 357              		.type	FW_LED_Write, %function
 358              	FW_LED_Write:
 359              	.LFB1:
  76:Generated_Source\PSoC4/FW_LED.c **** #endif
  77:Generated_Source\PSoC4/FW_LED.c **** 
  78:Generated_Source\PSoC4/FW_LED.c **** 
  79:Generated_Source\PSoC4/FW_LED.c **** /*******************************************************************************
  80:Generated_Source\PSoC4/FW_LED.c **** * Function Name: FW_LED_Write
  81:Generated_Source\PSoC4/FW_LED.c **** ****************************************************************************//**
  82:Generated_Source\PSoC4/FW_LED.c **** *
  83:Generated_Source\PSoC4/FW_LED.c **** * \brief Writes the value to the physical port (data output register), masking
ARM GAS  e:\temp\ccpSGw5T.s 			page 24


  84:Generated_Source\PSoC4/FW_LED.c **** *  and shifting the bits appropriately. 
  85:Generated_Source\PSoC4/FW_LED.c **** *
  86:Generated_Source\PSoC4/FW_LED.c **** * The data output register controls the signal applied to the physical pin in 
  87:Generated_Source\PSoC4/FW_LED.c **** * conjunction with the drive mode parameter. This function avoids changing 
  88:Generated_Source\PSoC4/FW_LED.c **** * other bits in the port by using the appropriate method (read-modify-write or
  89:Generated_Source\PSoC4/FW_LED.c **** * bit banding).
  90:Generated_Source\PSoC4/FW_LED.c **** *
  91:Generated_Source\PSoC4/FW_LED.c **** * <b>Note</b> This function should not be used on a hardware digital output pin 
  92:Generated_Source\PSoC4/FW_LED.c **** * as it is driven by the hardware signal attached to it.
  93:Generated_Source\PSoC4/FW_LED.c **** *
  94:Generated_Source\PSoC4/FW_LED.c **** * \param value
  95:Generated_Source\PSoC4/FW_LED.c **** *  Value to write to the component instance.
  96:Generated_Source\PSoC4/FW_LED.c **** *
  97:Generated_Source\PSoC4/FW_LED.c **** * \return 
  98:Generated_Source\PSoC4/FW_LED.c **** *  None 
  99:Generated_Source\PSoC4/FW_LED.c **** *
 100:Generated_Source\PSoC4/FW_LED.c **** * \sideeffect
 101:Generated_Source\PSoC4/FW_LED.c **** *  If you use read-modify-write operations that are not atomic; the Interrupt 
 102:Generated_Source\PSoC4/FW_LED.c **** *  Service Routines (ISR) can cause corruption of this function. An ISR that 
 103:Generated_Source\PSoC4/FW_LED.c **** *  interrupts this function and performs writes to the Pins component data 
 104:Generated_Source\PSoC4/FW_LED.c **** *  register can cause corrupted port data. To avoid this issue, you should 
 105:Generated_Source\PSoC4/FW_LED.c **** *  either use the Per-Pin APIs (primary method) or disable interrupts around 
 106:Generated_Source\PSoC4/FW_LED.c **** *  this function.
 107:Generated_Source\PSoC4/FW_LED.c **** *
 108:Generated_Source\PSoC4/FW_LED.c **** * \funcusage
 109:Generated_Source\PSoC4/FW_LED.c **** *  \snippet FW_LED_SUT.c usage_FW_LED_Write
 110:Generated_Source\PSoC4/FW_LED.c **** *******************************************************************************/
 111:Generated_Source\PSoC4/FW_LED.c **** void FW_LED_Write(uint8 value)
 112:Generated_Source\PSoC4/FW_LED.c **** {
 360              		.loc 1 112 0
 361              		.cfi_startproc
 362              		@ args = 0, pretend = 0, frame = 0
 363              		@ frame_needed = 0, uses_anonymous_args = 0
 364              		@ link register save eliminated.
 365              	.LVL2:
 113:Generated_Source\PSoC4/FW_LED.c ****     uint8 drVal = (uint8)(FW_LED_DR & (uint8)(~FW_LED_MASK));
 366              		.loc 1 113 0
 367 0000 4023     		movs	r3, #64
 368 0002 0449     		ldr	r1, .L5
 114:Generated_Source\PSoC4/FW_LED.c ****     drVal = (drVal | ((uint8)(value << FW_LED_SHIFT) & FW_LED_MASK));
 115:Generated_Source\PSoC4/FW_LED.c ****     FW_LED_DR = (uint32)drVal;
 369              		.loc 1 115 0
 370 0004 8001     		lsls	r0, r0, #6
 371              	.LVL3:
 113:Generated_Source\PSoC4/FW_LED.c ****     uint8 drVal = (uint8)(FW_LED_DR & (uint8)(~FW_LED_MASK));
 372              		.loc 1 113 0
 373 0006 0A68     		ldr	r2, [r1]
 116:Generated_Source\PSoC4/FW_LED.c **** }
 374              		.loc 1 116 0
 375              		@ sp needed
 113:Generated_Source\PSoC4/FW_LED.c ****     uint8 drVal = (uint8)(FW_LED_DR & (uint8)(~FW_LED_MASK));
 376              		.loc 1 113 0
 377 0008 9A43     		bics	r2, r3
 378 000a D2B2     		uxtb	r2, r2
 115:Generated_Source\PSoC4/FW_LED.c **** }
 379              		.loc 1 115 0
 380 000c 0340     		ands	r3, r0
ARM GAS  e:\temp\ccpSGw5T.s 			page 25


 381 000e 1343     		orrs	r3, r2
 382 0010 0B60     		str	r3, [r1]
 383              		.loc 1 116 0
 384 0012 7047     		bx	lr
 385              	.L6:
 386              		.align	2
 387              	.L5:
 388 0014 00010440 		.word	1074004224
 389              		.cfi_endproc
 390              	.LFE1:
 391              		.size	FW_LED_Write, .-FW_LED_Write
 392              		.section	.text.FW_LED_Read,"ax",%progbits
 393              		.align	1
 394              		.global	FW_LED_Read
 395              		.code	16
 396              		.thumb_func
 397              		.type	FW_LED_Read, %function
 398              	FW_LED_Read:
 399              	.LFB2:
 117:Generated_Source\PSoC4/FW_LED.c **** 
 118:Generated_Source\PSoC4/FW_LED.c **** 
 119:Generated_Source\PSoC4/FW_LED.c **** /*******************************************************************************
 120:Generated_Source\PSoC4/FW_LED.c **** * Function Name: FW_LED_Read
 121:Generated_Source\PSoC4/FW_LED.c **** ****************************************************************************//**
 122:Generated_Source\PSoC4/FW_LED.c **** *
 123:Generated_Source\PSoC4/FW_LED.c **** * \brief Reads the associated physical port (pin status register) and masks 
 124:Generated_Source\PSoC4/FW_LED.c **** *  the required bits according to the width and bit position of the component
 125:Generated_Source\PSoC4/FW_LED.c **** *  instance. 
 126:Generated_Source\PSoC4/FW_LED.c **** *
 127:Generated_Source\PSoC4/FW_LED.c **** * The pin's status register returns the current logic level present on the 
 128:Generated_Source\PSoC4/FW_LED.c **** * physical pin.
 129:Generated_Source\PSoC4/FW_LED.c **** *
 130:Generated_Source\PSoC4/FW_LED.c **** * \return 
 131:Generated_Source\PSoC4/FW_LED.c **** *  The current value for the pins in the component as a right justified number.
 132:Generated_Source\PSoC4/FW_LED.c **** *
 133:Generated_Source\PSoC4/FW_LED.c **** * \funcusage
 134:Generated_Source\PSoC4/FW_LED.c **** *  \snippet FW_LED_SUT.c usage_FW_LED_Read  
 135:Generated_Source\PSoC4/FW_LED.c **** *******************************************************************************/
 136:Generated_Source\PSoC4/FW_LED.c **** uint8 FW_LED_Read(void)
 137:Generated_Source\PSoC4/FW_LED.c **** {
 400              		.loc 1 137 0
 401              		.cfi_startproc
 402              		@ args = 0, pretend = 0, frame = 0
 403              		@ frame_needed = 0, uses_anonymous_args = 0
 404              		@ link register save eliminated.
 138:Generated_Source\PSoC4/FW_LED.c ****     return (uint8)((FW_LED_PS & FW_LED_MASK) >> FW_LED_SHIFT);
 405              		.loc 1 138 0
 406 0000 024B     		ldr	r3, .L8
 139:Generated_Source\PSoC4/FW_LED.c **** }
 407              		.loc 1 139 0
 408              		@ sp needed
 138:Generated_Source\PSoC4/FW_LED.c ****     return (uint8)((FW_LED_PS & FW_LED_MASK) >> FW_LED_SHIFT);
 409              		.loc 1 138 0
 410 0002 1868     		ldr	r0, [r3]
 411 0004 4006     		lsls	r0, r0, #25
 412 0006 C00F     		lsrs	r0, r0, #31
 413              		.loc 1 139 0
ARM GAS  e:\temp\ccpSGw5T.s 			page 26


 414 0008 7047     		bx	lr
 415              	.L9:
 416 000a C046     		.align	2
 417              	.L8:
 418 000c 04010440 		.word	1074004228
 419              		.cfi_endproc
 420              	.LFE2:
 421              		.size	FW_LED_Read, .-FW_LED_Read
 422              		.section	.text.FW_LED_ReadDataReg,"ax",%progbits
 423              		.align	1
 424              		.global	FW_LED_ReadDataReg
 425              		.code	16
 426              		.thumb_func
 427              		.type	FW_LED_ReadDataReg, %function
 428              	FW_LED_ReadDataReg:
 429              	.LFB3:
 140:Generated_Source\PSoC4/FW_LED.c **** 
 141:Generated_Source\PSoC4/FW_LED.c **** 
 142:Generated_Source\PSoC4/FW_LED.c **** /*******************************************************************************
 143:Generated_Source\PSoC4/FW_LED.c **** * Function Name: FW_LED_ReadDataReg
 144:Generated_Source\PSoC4/FW_LED.c **** ****************************************************************************//**
 145:Generated_Source\PSoC4/FW_LED.c **** *
 146:Generated_Source\PSoC4/FW_LED.c **** * \brief Reads the associated physical port's data output register and masks 
 147:Generated_Source\PSoC4/FW_LED.c **** *  the correct bits according to the width and bit position of the component 
 148:Generated_Source\PSoC4/FW_LED.c **** *  instance. 
 149:Generated_Source\PSoC4/FW_LED.c **** *
 150:Generated_Source\PSoC4/FW_LED.c **** * The data output register controls the signal applied to the physical pin in 
 151:Generated_Source\PSoC4/FW_LED.c **** * conjunction with the drive mode parameter. This is not the same as the 
 152:Generated_Source\PSoC4/FW_LED.c **** * preferred FW_LED_Read() API because the 
 153:Generated_Source\PSoC4/FW_LED.c **** * FW_LED_ReadDataReg() reads the data register instead of the status 
 154:Generated_Source\PSoC4/FW_LED.c **** * register. For output pins this is a useful function to determine the value 
 155:Generated_Source\PSoC4/FW_LED.c **** * just written to the pin.
 156:Generated_Source\PSoC4/FW_LED.c **** *
 157:Generated_Source\PSoC4/FW_LED.c **** * \return 
 158:Generated_Source\PSoC4/FW_LED.c **** *  The current value of the data register masked and shifted into a right 
 159:Generated_Source\PSoC4/FW_LED.c **** *  justified number for the component instance.
 160:Generated_Source\PSoC4/FW_LED.c **** *
 161:Generated_Source\PSoC4/FW_LED.c **** * \funcusage
 162:Generated_Source\PSoC4/FW_LED.c **** *  \snippet FW_LED_SUT.c usage_FW_LED_ReadDataReg 
 163:Generated_Source\PSoC4/FW_LED.c **** *******************************************************************************/
 164:Generated_Source\PSoC4/FW_LED.c **** uint8 FW_LED_ReadDataReg(void)
 165:Generated_Source\PSoC4/FW_LED.c **** {
 430              		.loc 1 165 0
 431              		.cfi_startproc
 432              		@ args = 0, pretend = 0, frame = 0
 433              		@ frame_needed = 0, uses_anonymous_args = 0
 434              		@ link register save eliminated.
 166:Generated_Source\PSoC4/FW_LED.c ****     return (uint8)((FW_LED_DR & FW_LED_MASK) >> FW_LED_SHIFT);
 435              		.loc 1 166 0
 436 0000 024B     		ldr	r3, .L11
 167:Generated_Source\PSoC4/FW_LED.c **** }
 437              		.loc 1 167 0
 438              		@ sp needed
 166:Generated_Source\PSoC4/FW_LED.c ****     return (uint8)((FW_LED_DR & FW_LED_MASK) >> FW_LED_SHIFT);
 439              		.loc 1 166 0
 440 0002 1868     		ldr	r0, [r3]
 441 0004 4006     		lsls	r0, r0, #25
ARM GAS  e:\temp\ccpSGw5T.s 			page 27


 442 0006 C00F     		lsrs	r0, r0, #31
 443              		.loc 1 167 0
 444 0008 7047     		bx	lr
 445              	.L12:
 446 000a C046     		.align	2
 447              	.L11:
 448 000c 00010440 		.word	1074004224
 449              		.cfi_endproc
 450              	.LFE3:
 451              		.size	FW_LED_ReadDataReg, .-FW_LED_ReadDataReg
 452              		.section	.text.FW_LED_SetInterruptMode,"ax",%progbits
 453              		.align	1
 454              		.global	FW_LED_SetInterruptMode
 455              		.code	16
 456              		.thumb_func
 457              		.type	FW_LED_SetInterruptMode, %function
 458              	FW_LED_SetInterruptMode:
 459              	.LFB4:
 168:Generated_Source\PSoC4/FW_LED.c **** 
 169:Generated_Source\PSoC4/FW_LED.c **** 
 170:Generated_Source\PSoC4/FW_LED.c **** /*******************************************************************************
 171:Generated_Source\PSoC4/FW_LED.c **** * Function Name: FW_LED_SetInterruptMode
 172:Generated_Source\PSoC4/FW_LED.c **** ****************************************************************************//**
 173:Generated_Source\PSoC4/FW_LED.c **** *
 174:Generated_Source\PSoC4/FW_LED.c **** * \brief Configures the interrupt mode for each of the Pins component's
 175:Generated_Source\PSoC4/FW_LED.c **** *  pins. Alternatively you may set the interrupt mode for all the pins
 176:Generated_Source\PSoC4/FW_LED.c **** *  specified in the Pins component.
 177:Generated_Source\PSoC4/FW_LED.c **** *
 178:Generated_Source\PSoC4/FW_LED.c **** *  <b>Note</b> The interrupt is port-wide and therefore any enabled pin
 179:Generated_Source\PSoC4/FW_LED.c **** *  interrupt may trigger it.
 180:Generated_Source\PSoC4/FW_LED.c **** *
 181:Generated_Source\PSoC4/FW_LED.c **** * \param position
 182:Generated_Source\PSoC4/FW_LED.c **** *  The pin position as listed in the Pins component. You may OR these to be 
 183:Generated_Source\PSoC4/FW_LED.c **** *  able to configure the interrupt mode of multiple pins within a Pins 
 184:Generated_Source\PSoC4/FW_LED.c **** *  component. Or you may use FW_LED_INTR_ALL to configure the
 185:Generated_Source\PSoC4/FW_LED.c **** *  interrupt mode of all the pins in the Pins component.       
 186:Generated_Source\PSoC4/FW_LED.c **** *  - FW_LED_0_INTR       (First pin in the list)
 187:Generated_Source\PSoC4/FW_LED.c **** *  - FW_LED_1_INTR       (Second pin in the list)
 188:Generated_Source\PSoC4/FW_LED.c **** *  - ...
 189:Generated_Source\PSoC4/FW_LED.c **** *  - FW_LED_INTR_ALL     (All pins in Pins component)
 190:Generated_Source\PSoC4/FW_LED.c **** *
 191:Generated_Source\PSoC4/FW_LED.c **** * \param mode
 192:Generated_Source\PSoC4/FW_LED.c **** *  Interrupt mode for the selected pins. Valid options are documented in
 193:Generated_Source\PSoC4/FW_LED.c **** *  \ref intrMode.
 194:Generated_Source\PSoC4/FW_LED.c **** *
 195:Generated_Source\PSoC4/FW_LED.c **** * \return 
 196:Generated_Source\PSoC4/FW_LED.c **** *  None
 197:Generated_Source\PSoC4/FW_LED.c **** *  
 198:Generated_Source\PSoC4/FW_LED.c **** * \sideeffect
 199:Generated_Source\PSoC4/FW_LED.c **** *  It is recommended that the interrupt be disabled before calling this 
 200:Generated_Source\PSoC4/FW_LED.c **** *  function to avoid unintended interrupt requests. Note that the interrupt
 201:Generated_Source\PSoC4/FW_LED.c **** *  type is port wide, and therefore will trigger for any enabled pin on the 
 202:Generated_Source\PSoC4/FW_LED.c **** *  port.
 203:Generated_Source\PSoC4/FW_LED.c **** *
 204:Generated_Source\PSoC4/FW_LED.c **** * \funcusage
 205:Generated_Source\PSoC4/FW_LED.c **** *  \snippet FW_LED_SUT.c usage_FW_LED_SetInterruptMode
 206:Generated_Source\PSoC4/FW_LED.c **** *******************************************************************************/
ARM GAS  e:\temp\ccpSGw5T.s 			page 28


 207:Generated_Source\PSoC4/FW_LED.c **** void FW_LED_SetInterruptMode(uint16 position, uint16 mode)
 208:Generated_Source\PSoC4/FW_LED.c **** {
 460              		.loc 1 208 0
 461              		.cfi_startproc
 462              		@ args = 0, pretend = 0, frame = 0
 463              		@ frame_needed = 0, uses_anonymous_args = 0
 464              		@ link register save eliminated.
 465              	.LVL4:
 209:Generated_Source\PSoC4/FW_LED.c ****     uint32 intrCfg;
 210:Generated_Source\PSoC4/FW_LED.c ****     
 211:Generated_Source\PSoC4/FW_LED.c ****     intrCfg =  FW_LED_INTCFG & (uint32)(~(uint32)position);
 466              		.loc 1 211 0
 467 0000 034A     		ldr	r2, .L14
 212:Generated_Source\PSoC4/FW_LED.c ****     FW_LED_INTCFG = intrCfg | ((uint32)position & (uint32)mode);
 213:Generated_Source\PSoC4/FW_LED.c **** }
 468              		.loc 1 213 0
 469              		@ sp needed
 211:Generated_Source\PSoC4/FW_LED.c ****     FW_LED_INTCFG = intrCfg | ((uint32)position & (uint32)mode);
 470              		.loc 1 211 0
 471 0002 1368     		ldr	r3, [r2]
 472              	.LVL5:
 212:Generated_Source\PSoC4/FW_LED.c ****     FW_LED_INTCFG = intrCfg | ((uint32)position & (uint32)mode);
 473              		.loc 1 212 0
 474 0004 8343     		bics	r3, r0
 475              	.LVL6:
 476 0006 0840     		ands	r0, r1
 477              	.LVL7:
 478 0008 1843     		orrs	r0, r3
 479 000a 1060     		str	r0, [r2]
 480              		.loc 1 213 0
 481 000c 7047     		bx	lr
 482              	.L15:
 483 000e C046     		.align	2
 484              	.L14:
 485 0010 0C010440 		.word	1074004236
 486              		.cfi_endproc
 487              	.LFE4:
 488              		.size	FW_LED_SetInterruptMode, .-FW_LED_SetInterruptMode
 489              		.section	.text.FW_LED_ClearInterrupt,"ax",%progbits
 490              		.align	1
 491              		.global	FW_LED_ClearInterrupt
 492              		.code	16
 493              		.thumb_func
 494              		.type	FW_LED_ClearInterrupt, %function
 495              	FW_LED_ClearInterrupt:
 496              	.LFB5:
 214:Generated_Source\PSoC4/FW_LED.c **** 
 215:Generated_Source\PSoC4/FW_LED.c **** 
 216:Generated_Source\PSoC4/FW_LED.c **** /*******************************************************************************
 217:Generated_Source\PSoC4/FW_LED.c **** * Function Name: FW_LED_ClearInterrupt
 218:Generated_Source\PSoC4/FW_LED.c **** ****************************************************************************//**
 219:Generated_Source\PSoC4/FW_LED.c **** *
 220:Generated_Source\PSoC4/FW_LED.c **** * \brief Clears any active interrupts attached with the component and returns 
 221:Generated_Source\PSoC4/FW_LED.c **** *  the value of the interrupt status register allowing determination of which
 222:Generated_Source\PSoC4/FW_LED.c **** *  pins generated an interrupt event.
 223:Generated_Source\PSoC4/FW_LED.c **** *
 224:Generated_Source\PSoC4/FW_LED.c **** * \return 
ARM GAS  e:\temp\ccpSGw5T.s 			page 29


 225:Generated_Source\PSoC4/FW_LED.c **** *  The right-shifted current value of the interrupt status register. Each pin 
 226:Generated_Source\PSoC4/FW_LED.c **** *  has one bit set if it generated an interrupt event. For example, bit 0 is 
 227:Generated_Source\PSoC4/FW_LED.c **** *  for pin 0 and bit 1 is for pin 1 of the Pins component.
 228:Generated_Source\PSoC4/FW_LED.c **** *  
 229:Generated_Source\PSoC4/FW_LED.c **** * \sideeffect
 230:Generated_Source\PSoC4/FW_LED.c **** *  Clears all bits of the physical port's interrupt status register, not just
 231:Generated_Source\PSoC4/FW_LED.c **** *  those associated with the Pins component.
 232:Generated_Source\PSoC4/FW_LED.c **** *
 233:Generated_Source\PSoC4/FW_LED.c **** * \funcusage
 234:Generated_Source\PSoC4/FW_LED.c **** *  \snippet FW_LED_SUT.c usage_FW_LED_ClearInterrupt
 235:Generated_Source\PSoC4/FW_LED.c **** *******************************************************************************/
 236:Generated_Source\PSoC4/FW_LED.c **** uint8 FW_LED_ClearInterrupt(void)
 237:Generated_Source\PSoC4/FW_LED.c **** {
 497              		.loc 1 237 0
 498              		.cfi_startproc
 499              		@ args = 0, pretend = 0, frame = 0
 500              		@ frame_needed = 0, uses_anonymous_args = 0
 501              		@ link register save eliminated.
 238:Generated_Source\PSoC4/FW_LED.c **** 	uint8 maskedStatus = (uint8)(FW_LED_INTSTAT & FW_LED_MASK);
 502              		.loc 1 238 0
 503 0000 4023     		movs	r3, #64
 504 0002 034A     		ldr	r2, .L17
 239:Generated_Source\PSoC4/FW_LED.c **** 	FW_LED_INTSTAT = maskedStatus;
 240:Generated_Source\PSoC4/FW_LED.c ****     return maskedStatus >> FW_LED_SHIFT;
 241:Generated_Source\PSoC4/FW_LED.c **** }
 505              		.loc 1 241 0
 506              		@ sp needed
 238:Generated_Source\PSoC4/FW_LED.c **** 	uint8 maskedStatus = (uint8)(FW_LED_INTSTAT & FW_LED_MASK);
 507              		.loc 1 238 0
 508 0004 1068     		ldr	r0, [r2]
 509 0006 1840     		ands	r0, r3
 510              	.LVL8:
 239:Generated_Source\PSoC4/FW_LED.c **** 	FW_LED_INTSTAT = maskedStatus;
 511              		.loc 1 239 0
 512 0008 1060     		str	r0, [r2]
 240:Generated_Source\PSoC4/FW_LED.c **** }
 513              		.loc 1 240 0
 514 000a 8009     		lsrs	r0, r0, #6
 515              	.LVL9:
 516 000c C0B2     		uxtb	r0, r0
 517              		.loc 1 241 0
 518 000e 7047     		bx	lr
 519              	.L18:
 520              		.align	2
 521              	.L17:
 522 0010 10010440 		.word	1074004240
 523              		.cfi_endproc
 524              	.LFE5:
 525              		.size	FW_LED_ClearInterrupt, .-FW_LED_ClearInterrupt
 526              		.text
 527              	.Letext0:
 528              		.file 2 "Generated_Source\\PSoC4\\cytypes.h"