ARM GAS  e:\temp\ccimcEAa.s 			page 1


   1              		.syntax unified
   2              		.cpu cortex-m0
   3              		.fpu softvfp
   4              		.eabi_attribute 20, 1
   5              		.eabi_attribute 21, 1
   6              		.eabi_attribute 23, 3
   7              		.eabi_attribute 24, 1
   8              		.eabi_attribute 25, 1
   9              		.eabi_attribute 26, 1
  10              		.eabi_attribute 30, 4
  11              		.eabi_attribute 34, 0
  12              		.eabi_attribute 18, 4
  13              		.thumb
  14              		.syntax unified
  15              		.file	"I2C_MSTR_I2C.c"
  16              		.text
  17              	.Ltext0:
  18              		.section	.gnu.lto_.profile.62409f09,"",%progbits
  19 0000 789C6361 		.ascii	"x\234ca`d`a`\000\222~\006\000\0016\000\211"
  19      60646061 
  19      6000927E 
  19      06000136 
  19      0089
  20              		.text
  21              		.section	.gnu.lto_.icf.62409f09,"",%progbits
  22 0000 789C6361 		.ascii	"x\234ca`d\000\001\021\006\004`f\3301\375\306!n\266\337"
  22      60640001 
  22      11060460 
  22      66D831FD 
  22      C6216EB6 
  23 0015 F3E7DE67 		.ascii	"\363\347\336gc\277\371\354\372yF\006\000d\271\011\240"
  23      63BFF9EC 
  23      FA794606 
  23      0064B909 
  23      A0
  24              		.text
  25              		.section	.gnu.lto_.jmpfuncs.62409f09,"",%progbits
  26 0000 789C6361 		.ascii	"x\234ca`d\000\2014\006\004`\006b\026\306\277L\214\327"
  26      60640081 
  26      34060460 
  26      066216C6 
  26      BF4C8CD7 
  27 0014 6FB6EC64 		.ascii	"o\266\354d\374\302\324\312\314\300\310\315\270\234Q"
  27      FCC2D4CA 
  27      CCC0C8CD 
  27      B89C51
  28 0023 86810124 		.ascii	"\206\201\001$\272s\347\233\333\354\365\177\033:\032"
  28      BA73E79B 
  28      DBECF57F 
  28      1B3A1A
  29 0032 1A045A99 		.ascii	"\032\004Z\231\031\3773\001\2253\256`\254\007iB\250:"
  29      19FF3301 
  29      9533AE60 
  29      AC076942 
  29      A83A
  30 0044 F469C372 		.ascii	"\364i\303r\036\210^f\306\225 Q&\250,\033\003\003;P\013"
  30      1E885E66 
ARM GAS  e:\temp\ccimcEAa.s 			page 2


  30      C6952051 
  30      26A82C1B 
  30      03033B50 
  31 0059 00EC2F19 		.ascii	"\000\354/\0319"
  31      39
  32              		.text
  33              		.section	.gnu.lto_.inline.62409f09,"",%progbits
  34 0000 789C6361 		.ascii	"x\234ca`d\000\201@\006\004`f`\220\267dd`\3228\260\203"
  34      60640081 
  34      40060460 
  34      666090B7 
  34      646460D2 
  35 0017 89816D81 		.ascii	"\211\201m\201<\023X\220\207\201\201\011N1q3\0005\262"
  35      3C135890 
  35      87818109 
  35      4E317133 
  35      0035B2
  36 002a 31B0B102 		.ascii	"1\260\261\002\325\261}\320\203+cg\020\024\000\012\311"
  36      D5B17DD0 
  36      832B6367 
  36      1014000A 
  36      C9
  37 003b 3CB8C508 		.ascii	"<\270\305\010\027c\000\000Lc\010\026"
  37      17630000 
  37      4C630816 
  38              		.text
  39              		.section	.gnu.lto_.pureconst.62409f09,"",%progbits
  40 0000 789C6361 		.ascii	"x\234ca`d`g```f\220b\223b\227\002\000\001\312\000k"
  40      60646067 
  40      60606066 
  40      90629362 
  40      97020001 
  41              		.text
  42              		.section	.gnu.lto_I2C_MSTR_I2CInit.62409f09,"",%progbits
  43 0000 789C7DD5 		.ascii	"x\234}\325\355OSW\034\007\360\363;\247\266E\240\305"
  43      ED4F5357 
  43      1C07F0F3 
  43      3BA7B645 
  43      A0C5
  44 0012 775BC68B 		.ascii	"w[\306\213\2752\363\315^\270\375\007\2760\2760Q\331"
  44      BD32F3CD 
  44      5EB8FD07 
  44      BE30BE30 
  44      51D9
  45 0024 4B13B238 		.ascii	"K\023\2628\336\316\304\314W\306\364TzQ\\\2424\006\202"
  45      DECEC4CC 
  45      57C6F454 
  45      7A515CA2 
  45      340682
  46 0037 26521375 		.ascii	"&R\023uu\023\241\340&\\;\360\312DY\231-\033\216'y\250"
  46      7513A1E0 
  46      265C3BF0 
  46      CA445999 
  46      2D1B8E27 
  47 004d 44F1894D 		.ascii	"D\361\211M\024\\\246\266\336\375\316=\247\247\336\202"
  47      145CA6B6 
  47      DEFDCE3D 
ARM GAS  e:\temp\ccimcEAa.s 			page 3


  47      A7A7DE82 
  48 005d 6B525A7A 		.ascii	"kRZz\317\375|\277\367\334{\356\365\020 \342u\300G\310"
  48      CFFD7CBF 
  48      F7DC7BEE 
  48      F51020E2 
  48      75C047C8 
  49 0071 27F8F911 		.ascii	"'\370\371\021\276\201\021\240MiB\302~\012 \276p?\220"
  49      BE8111A0 
  49      4D6942C2 
  49      7E0A20BE 
  49      703F90
  50 0084 108510BC 		.ascii	"\020\205\020\274\244y\012\003\207\027L\272)\316\361"
  50      A4790A03 
  50      87174CBA 
  50      29CEF1
  51 0093 953D3FBF 		.ascii	"\225=?\2773\314\215\017\014F\210M\035\211@\0346\021"
  51      33CC8D0F 
  51      0C46884D 
  51      1D89401C 
  51      3611
  52 00a5 1C36DFF5 		.ascii	"\0346\337\365\266\271\322\033\021\303>\226\033\341\002"
  52      B6B9D21B 
  52      11C33E96 
  52      1BE102
  53 00b4 78455CE7 		.ascii	"xE\\\347.\213\333v=\267\232\003\203\257\203\037Rb0\314"
  53      2E8BDB76 
  53      3DB79A03 
  53      83AF831F 
  53      526230CC 
  54 00c8 C43F842C 		.ascii	"\304?\204,\3418\221\370\234R\361\311\026`\340\365\321"
  54      E13891F8 
  54      9C52F1C9 
  54      1660E0F5 
  54      D1
  55 00d9 B4B959EC 		.ascii	"\264\271Y\354Z\317Dz\2131\220\361\255P\203Q\020)}\275"
  55      5ACF447A 
  55      8B3190F1 
  55      AD508351 
  55      10297DBD 
  56 00ed D3A3E5F2 		.ascii	"\323\243\345\362\337%\336\312=\370\323\304I\263\313"
  56      DF25DECA 
  56      3DF8D3C4 
  56      49B3CB
  57 00fc 1F83D3E1 		.ascii	"\037\203\323\341\010\030\214\301\017P\015\337C5\306"
  57      08188CC1 
  57      0F500DDF 
  57      4335C6
  58 010b 5F841890 		.ascii	"_\204\030\220\005\250\317y%\307\244\370$eE=\202\000"
  58      05A8CF79 
  58      25C7A4F8 
  58      2465453D 
  58      8200
  59 011d 783667DB 		.ascii	"x6g\333Ah\307\321\030\334\002b\330\377\201\227\020D"
  59      4168C7D1 
  59      18DC0262 
  59      D8FF8197 
  59      1044
ARM GAS  e:\temp\ccimcEAa.s 			page 4


  60 012f 460C5E49 		.ascii	"F\014^I\244\227}j\274\035\033\352^/;q\325)e%\232\313"
  60      A4977D6A 
  60      BC1D1BEA 
  60      5E2F3B71 
  60      D5296525 
  61 0145 1D22CCF9 		.ascii	"\035\"\314\371gD0\035\232\351D\006\307t.\232\257*e\017"
  61      6744301D 
  61      9AE94406 
  61      C7742E9A 
  61      AF2A650F 
  62 0159 0209D961 		.ascii	"\002\011\331ae\251\310&\363F\266B\262Y\305Z\361\376"
  62      65A9C826 
  62      F346B642 
  62      B259C55A 
  62      F1FE
  63 016b 8BCCCD76 		.ascii	"\213\314\315vi\266[\262\375\235\3073 \331\226(\307S"
  63      69B65BB2 
  63      FD9DC733 
  63      20D99628 
  63      C753
  64 017d 7959D189 		.ascii	"yY\321\211;\227\313\024=\336`\032\001\325\270A\322\261"
  64      3B97CB14 
  64      3DDE601A 
  64      01D5B841 
  64      D2B1
  65 018f C9F6C701 		.ascii	"\311\366\307\0017\375\243\246\177\222\364\324\255\324"
  65      37FDA3A6 
  65      7F92F4D4 
  65      ADD4
  66 019d 7250D287 		.ascii	"rP\322\207\033\004}\245\320\272H\277\275\232\354\363"
  66      1B047DA5 
  66      D0BA48BF 
  66      BD9AECF3 
  67 01ad 4A3AA2E8 		.ascii	"J:\242\350\247\017\217\015S7\335\243\351^I\353\323\214"
  67      A70F8F0D 
  67      5337DDA3 
  67      E95E49EB 
  67      D38C
  68 01bf 57059885 		.ascii	"W\005\230\205\306c\232=\333\223y\244\0327)\366\312\334"
  68      C6639A3D 
  68      DB9379A4 
  68      1A3729F6 
  68      CADC
  69 01d1 4C23B8D9 		.ascii	"L#\270\331\253\232M\342\226\342\244\216k\347\366\354"
  69      AB9A4DE2 
  69      96E2A48E 
  69      6BE7F6EC 
  70 01e1 C4AB75EA 		.ascii	"\304\253u\352\310#\322\211v\034;\350f~\326L\237l\227"
  70      C823D289 
  70      761C3BE8 
  70      667ED64C 
  70      9F6C97
  71 01f4 8D7E9B0D 		.ascii	"\215~\233\015\250\003?$\016\274\277\320pZ\313v\313\361"
  71      A8033F24 
  71      0EBCBFD0 
  71      705ACB76 
  71      CBF1
ARM GAS  e:\temp\ccimcEAa.s 			page 5


  72 0206 41AA0E5C 		.ascii	"A\252\016\\\311\374yG\276\244\3415M[\242\2418\322G\020"
  72      C9FC7947 
  72      BEA4E135 
  72      4D5BA2A1 
  72      38D24710 
  73 021a B1FE0908 		.ascii	"\261\376\011\010E\\\340\246\271x\327\027\312\363#\234"
  73      455CE0A6 
  73      B978D717 
  73      CAF3239C 
  74 022a 5719CC63 		.ascii	"W\031\314c\343eO\340:\204\304\266\361\311\210\351\234"
  74      E3654FE0 
  74      3A84C4B6 
  74      F1C988E9 
  74      9C
  75 023b DA75500E 		.ascii	"\332uP\016\003Pm0/\356mX\377\276go\237\215\313\212\300"
  75      03506D30 
  75      2FEE6D58 
  75      FFBE676F 
  75      9F8DCB8A 
  76 0250 2FB8B718 		.ascii	"/\270\267\030.\326\362\213D\274B\012\014n\010\301\357"
  76      2ED6F28B 
  76      44BC420A 
  76      0C6E08C1 
  76      EF
  77 0261 08B9F708 		.ascii	"\010\271\367\010e6\305\245\016\203E\341\235\355|\247"
  77      6536C5A5 
  77      0E8345E1 
  77      9DED7CA7 
  78 0271 C1D6DBD4 		.ascii	"\301\326\333\324\343\354\0127!d\260r9\337\017\226\013"
  78      E3EC0A37 
  78      2164B072 
  78      39DF0F96 
  78      0B
  79 0282 B332F25D 		.ascii	"\2632\362]*\243\326\353\320i9+7\215\3609\257{Vn\351"
  79      2AA3D6EB 
  79      D069392B 
  79      378DF039 
  79      AF7B566E 
  80 0297 59197AF7 		.ascii	"Y\031z\367\274%\036j'>\332\260\300\244sD9O\257w$\313"
  80      BC251E6A 
  80      273EDAB0 
  80      C0A47344 
  80      394FAF77 
  81 02ad DCCEAFDA 		.ascii	"\334\316\257\332I\271\316\177\321\311EZ\217\202\352"
  81      49B9CE7F 
  81      D1C9455A 
  81      8F82EA
  82 02bc D3269DFB 		.ascii	"\323&\235\373\255=\317\374ngX;\277\271\372,j'\332\366"
  82      AD3DCFFC 
  82      6E67583B 
  82      BFB9FA2C 
  82      6A27DAF6 
  83 02d0 46F7514E 		.ascii	"F\367QN\333\251\351\033%\316m\355\244]}\212\316\205"
  83      DBA9E91B 
  83      25CE6DED 
  83      A45D7D8A 
  83      CE85
ARM GAS  e:\temp\ccimcEAa.s 			page 6


  84 02e2 7B236341 		.ascii	"{#cA\325'&\235\331\344\231K%\213<\243\235\021W\237\277"
  84      D527269D 
  84      D9E4994B 
  84      258B3CA3 
  84      9D11579F 
  85 02f7 B473B27B 		.ascii	"\264s\262{j\243\252\243\230\301\336\231\366\222:\277"
  85      6AA3AAA3 
  85      98C1DE99 
  85      F6923ABF 
  86 0307 6BE60F57 		.ascii	"k\346\017W\235\277\353\013\367\034\275\014+`\365\305"
  86      9DBFEB0B 
  86      F71CBD0C 
  86      2B60F5C5 
  87 0317 50D188D7 		.ascii	"P\321\210\327\202\370y12\237v\356n<,~\257\204;\370\254"
  87      82F87931 
  87      329F76EE 
  87      6E3C2C7E 
  87      AF843BF8 
  88 032c 1875E03F 		.ascii	"\030u\340?\345\202I.\347\206\235\305P\011U0V\310\311"
  88      E582492E 
  88      E7869DC5 
  88      50095530 
  88      56C8C9
  89 033f 9D282BCD 		.ascii	"\235(+\315\011\254\221\023h\024\217\206\3259A\230\300"
  89      09AC9113 
  89      68148F86 
  89      D5394198 
  89      C0
  90 0350 9C712767 		.ascii	"\234q'g\262\344\266\021\304\333\306\224\312i\312\263"
  90      B2E4B611 
  90      C4DBC694 
  90      CA69CAB3 
  91 0360 D298AA35 		.ascii	"\322\230\2525b\252\032\031]+f\003Lc\314]'f\246$f\003"
  91      62AA1A19 
  91      5D2B6603 
  91      4C63CC5D 
  91      2766A624 
  92 0376 C6CCAA98 		.ascii	"\306\314\252\230\021\035\263\312ek\273s\332\315\212"
  92      111DB3CA 
  92      656BBB73 
  92      DACD8A
  93 0385 F917D013 		.ascii	"\371\027\320\0238d\275\311Pg\011\211\327\022\256w|\020"
  93      3864BDC9 
  93      50670989 
  93      D712AE77 
  93      7C10
  94 0397 62B18D5B 		.ascii	"b\261\215[\353\276\256\333\367\3457u_\325\326\354\335"
  94      EBBEAEDB 
  94      F7E53775 
  94      5FD5D6EC 
  94      DD
  95 03a8 BF6F4FDD 		.ascii	"\277oO\335\356\0355{\267|\276{\333\346-\265\333k\276"
  95      EE1D357B 
  95      B77CBE7B 
  95      DBE62DB5 
  95      DB6BBE
  96 03bb D8558B5F 		.ascii	"\330U\213_>\335C\376\003\312l\277g"
ARM GAS  e:\temp\ccimcEAa.s 			page 7


  96      3EDD43FE 
  96      03CA6CBF 
  96      67
  97              		.text
  98              		.section	.gnu.lto_I2C_MSTR_I2CStop.62409f09,"",%progbits
  99 0000 789C5D90 		.ascii	"x\234]\220\275K\202Q\024\306\357s\337\327\217\220J\\"
  99      BD4B8251 
  99      14C6EF73 
  99      DFD78F90 
  99      4A5C
 100 0012 73688A5C 		.ascii	"sh\212\\\032$\372\007\034\242!\010m\024$\3145Aj\366"
 100      1A24FA07 
 100      1CA22108 
 100      6D1424CC 
 100      35416AF6 
 101 0026 5ABE544B 		.ascii	"Z\276TKHT\324\020N\245Y\371Q\020H`&m\225NA\320\022\016"
 101      4854D410 
 101      4EA559F9 
 101      51104860 
 101      266D954E 
 102 003e 22E16068 		.ascii	"\"\341`h\233f\347j\330\307\205\313\271\367\234s\177"
 102      9B66E76A 
 102      D8C785CB 
 102      B9F79C73 
 102      7F
 103 004f CFB98FCA 		.ascii	"\317\271\217\312\300\344\332\2460Nq\2046\024\006\036"
 103      C0E4DAA6 
 103      304E7184 
 103      3614061E 
 104 005f 29321632 		.ascii	")2\0262r@\036\204\021,\310\021\304\007os\024\326+Yn"
 104      72401E84 
 104      112CC811 
 104      C4076F73 
 104      14D62B59 
 105 0074 8B095AAF 		.ascii	"\213\011Z\257\332\261]\304\363\320\024\306:\274Kb\210"
 105      DAB15DC4 
 105      F3D014C6 
 105      3ABC4B62 
 105      88
 106 0085 C1C6A8AD 		.ascii	"\301\306\250\255\234\371\334\035\324\207e\333h\257\210"
 106      9CF9DC1D 
 106      D48765DB 
 106      68AF88
 107 0094 38F4522E 		.ascii	"8\364R.\345\314\213NgM\344/-\2679\213\216\261:U\245"
 107      E5CC8B4E 
 107      674DE42F 
 107      2DB7398B 
 107      8EB13A55 
 108 00a9 CE3BE732 		.ascii	"\316;\3472*\025\024\232\365\307\235\001\371\200H{Z\241"
 108      2A15149A 
 108      F5C79D01 
 108      F980487B 
 108      5AA1
 109 00bb 6468724D 		.ascii	"dhrM\001$\270\365\360\374\204\336\265*\366\205J\251"
 109      0124B8F5 
 109      F0FC84DE 
 109      B52AF685 
ARM GAS  e:\temp\ccimcEAa.s 			page 8


 109      4AA9
 110 00cd E4D14174 		.ascii	"\344\321At(\212\303P8$\204IS8\022\260\342\004V\022="
 110      288AC350 
 110      38248449 
 110      533812B0 
 110      E2045612 
 111 00e2 4514BF21 		.ascii	"E\024\277!\034\014gT\221\"\351b_\344*R\235\352Ak\337"
 111      1C0C6754 
 111      9122E962 
 111      5FE42A52 
 111      9DEA416B 
 112 00f7 D0AD5CA2 		.ascii	"\320\255\\\2421\374\007z\336\207&\011\372C)\335\351"
 112      31FC077A 
 112      DE872609 
 112      FA4329DD 
 112      E9
 113 0108 FE8FAA74 		.ascii	"\376\217\252tG\315fk/\206`[l\010a\246\334&\331$\323"
 113      47CD666B 
 113      2F86605B 
 113      6C0861A6 
 113      DC26D924 
 114 011d B570B968 		.ascii	"\265p\271h\222d\021\222y\025i\3626\325\005gz\323^7Z"
 114      92641192 
 114      791569F2 
 114      36D50567 
 114      7AD35E37 
 115 0132 F75C7254 		.ascii	"\367\\rT\230qA\2257\254\346o\234R\245kr\235~AN\221o"
 115      98714195 
 115      37ACE66F 
 115      9C52A56B 
 115      729D7E41 
 116 0149 63D3BE25 		.ascii	"c\323\276%_`a\331\267\350q\371W\002^\237{\316\345wL"
 116      5F6061D9 
 116      B7E871F9 
 116      57025E9F 
 116      7BCEE577 
 117 015e BA67EC0E 		.ascii	"\272g\354\016\317\254k\336\351\241\303\204\227}\001"
 117      CFAC6BDE 
 117      E9A1C384 
 117      977D01
 118 016d DAB09F68 		.ascii	"\332\260\237h"
 119              		.text
 120              		.section	.gnu.lto_I2C_MSTR_I2CFwBlockReset.62409f09,"",%progbits
 121 0000 789C8D93 		.ascii	"x\234\215\223\317k\023A\024\307\347\315\346\307j\315"
 121      CF6B1341 
 121      14C7E7CD 
 121      E6C76ACD 
 122 0010 0FF4680F 		.ascii	"\017\364h\017\236\212\275x(\342?\320\203\010\012\322"
 122      9E8ABD78 
 122      28E23FD0 
 122      83080AD2 
 123 0020 782C06A9 		.ascii	"x,\006\251\271Z(z\316\304d1\006\224\034\332h\005\211"
 123      B95A287A 
 123      CEC46431 
 123      06941CDA 
 123      680589
 124 0033 979AD836 		.ascii	"\227\232\3306?\032\265v\215\306mP(Vb\021\214\242\250"
ARM GAS  e:\temp\ccimcEAa.s 			page 9


 124      3F1AB576 
 124      8DC66D50 
 124      28566211 
 124      8CA2A8
 125 0046 B1482812 		.ascii	"\261H(\0220\322\004\264$\215ov6\333Z\2608\260owg\337"
 125      30D204B4 
 125      248D6F76 
 125      36DB5AB0 
 125      38B06F77 
 126 005c 7CE63BDF 		.ascii	"|\346;\337}\317B\200\360\321\224\0109\214\367\203x\201"
 126      7DCF4280 
 126      F0D19408 
 126      398CF783 
 126      7881
 127 006e 4480464B 		.ascii	"D\200FK\204\004d\012\300\037\230\014\304O\301\017M\332"
 127      8404640A 
 127      C01F980C 
 127      C44FC10F 
 127      4DDA
 128 0080 A650BC52 		.ascii	"\246P\274RUi\177\202\341\250L\245\007XR\003\005\227"
 128      55697F82 
 128      E1A84CA5 
 128      07585203 
 128      0597
 129 0092 77A84E22 		.ascii	"w\250N\"\220\200~\202i\253s\233\023\016[\210\247\035"
 129      90807E82 
 129      69AB739B 
 129      130E5B88 
 129      A71D
 130 00a4 121F2109 		.ascii	"\022\037!\0116\276]fHc\235N\220i\315\375\213\345\003"
 130      36BE5D66 
 130      48639D4E 
 130      9069CDFD 
 130      8BE503
 131 00b7 6E4A1409 		.ascii	"nJ\024\011\367\304`\347A\346\301\301\203\223\007B\352"
 131      F7C460E7 
 131      41E6C1C1 
 131      83930742 
 131      EA
 132 00c8 B896ABF8 		.ascii	"\270\226\253\370I)\277KU(nD\252\313g9.(qE1\245\370\332"
 132      4929BF4B 
 132      55286E44 
 132      AACB6739 
 132      2E287145 
 133 00e0 DEA08A44 		.ascii	"\336\240\212D\201\357\334\211/\345\366\212W\306n2\013"
 133      81EFDC89 
 133      2FE5F68A 
 133      57C66E32 
 133      0B
 134 00f1 4EBDD4B2 		.ascii	"N\275\324\262\023=q\270\035\010\241V\011\246\241\027"
 134      133D71B8 
 134      1D08A156 
 134      09A6A117 
 135 0101 EE412F4A 		.ascii	"\356A/J\232\2018\220*\004[6\201\223\004Q\271\226\272"
 135      9A813890 
 135      2A045B36 
 135      81930451 
ARM GAS  e:\temp\ccimcEAa.s 			page 10


 135      B996BA
 136 0114 A123003A 		.ascii	"\241#\000:8\3540\213\331\270q\014x\332n\300\024\002"
 136      38EC308B 
 136      D9B8710C 
 136      78DA6EC0 
 136      1402
 137 0126 11C3931B 		.ascii	"\021\303\223\033\365/\343{\214\374\326\253\367oAhZ3"
 137      F52FE37B 
 137      8CFCD6AB 
 137      F76F4168 
 137      5A33
 138 0138 34A5A726 		.ascii	"4\245\247&\343N\035\021`\254\207S\322&%\203\224\355"
 138      E34E1D11 
 138      60AC8753 
 138      D2262583 
 138      94ED
 139 014a 07431F20 		.ascii	"\007C\037 +$4\262\337L\352|t\355\230\200\326\014\350"
 139      2B2434B2 
 139      DF4CEA7C 
 139      74ED9880 
 139      D60CE8
 140 015d F5C2F4BA 		.ascii	"\365\302\364\272\353/\350\234\011\315!\264K\331\210"
 140      EB2FE89C 
 140      09CD21B4 
 140      4BD988
 141 016c BC39294E 		.ascii	"\2749)Nl\307U\371\266R\331'@\025\003\244%\0123\322\326"
 141      6CC755F9 
 141      B652D927 
 141      401503A4 
 141      250A33D2 
 142 0181 01EF9B94 		.ascii	"\001\357\233\224\007;\034\223\005\342n\244\221\263\030"
 142      073B1C93 
 142      05E26EA4 
 142      91B318
 143 0190 8EA9ED8E 		.ascii	"\216\251\355\216\013\036\356p\354\237\300y\3351Y?[\264"
 143      0B1EEE70 
 143      EC9FC079 
 143      DD31593F 
 143      5BB4
 144 01a2 6A31D227 		.ascii	"j1\322's\037\372\204\242p\\(z\261\360iV\336\002<2\001"
 144      731FFA84 
 144      A2705C28 
 144      7AB1F069 
 144      56DE023C 
 145 01b8 0BC2AC4C 		.ascii	"\013\302\254LM\375\355\020\012\010\250\206Y+&0\371u"
 145      4DFDED10 
 145      0A08A886 
 145      592B2630 
 145      F975
 146 01ca A5EC12C4 		.ascii	"\245\354\022\304%\203\3709\177'\265M\322c\223\230\347"
 146      2583F839 
 146      7F27B54D 
 146      D2639398 
 146      E7
 147 01db 4E7511F5 		.ascii	"Nu\021\365\037\317\255\006\303\374\037\026\275\320T"
 147      1FCFAD06 
 147      C3FC1F16 
ARM GAS  e:\temp\ccimcEAa.s 			page 11


 147      BDD054
 148 01ea B5F6D1EE 		.ascii	"\265\366\321\356o\2630cn\234\273\212]\300\247k\241\325"
 148      6FB33063 
 148      6E9CBB8A 
 148      5DC0A76B 
 148      A1D5
 149 01fc 925E1B2C 		.ascii	"\222^\033,\300\347\255\360\024[\347\211\016.\010\251"
 149      C0E7ADF0 
 149      145BE789 
 149      0E2E08A9 
 150 020c F9F5D632 		.ascii	"\371\365\3262\345\034+\270\341Y\367\217\224KFM;v+0\315"
 150      E51C2BB8 
 150      E159F78F 
 150      944B464D 
 150      3B762B30 
 151 0221 F0FF97E1 		.ascii	"\360\377\227\341\277S\344\3076\303\267\2508=o9\031\026"
 151      BF53E4C7 
 151      36C3B7A8 
 151      383D6F39 
 151      1916
 152 0233 FFB7628B 		.ascii	"\377\267b\213\272\377N\362\035.k\357<<[\357\343:6\023"
 152      BAFF4EF2 
 152      1D2E6BEF 
 152      3C3C5BEF 
 152      E33A3613 
 153 0247 B61B365F 		.ascii	"\266\0336_\337q\337\005\337\330\271\213\276\363^\317"
 153      DF71DF05 
 153      DFD8B98B 
 153      BEF35ECF 
 154 0257 E8A5B111 		.ascii	"\350\245\261\021\337\360i\317\350\340\321\341\023\003"
 154      DFF069CF 
 154      E8E0D1E1 
 154      1303
 155 0265 83DE539E 		.ascii	"\203\336S\2363C^|82B\376\000s\330g}"
 155      33435E7C 
 155      383242FE 
 155      0073D867 
 155      7D
 156              		.text
 157              		.section	.gnu.lto_.symbol_nodes.62409f09,"",%progbits
 158 0000 789C558C 		.ascii	"x\234U\214\261\021\302@\014\004W\322\277\261\035\322"
 158      B111C240 
 158      0C0457D2 
 158      BFB11DD2 
 159 0010 804DA5FA 		.ascii	"\200M\245\372\000\233\224\022\0348\242\004\212\240\012"
 159      009B9412 
 159      1C38A204 
 159      8AA00A
 160 001f 428A40CF 		.ascii	"B\212@\317\214gx%\253\275\231\273\204\360 N\305\205"
 160      8C677825 
 160      ABBD99BB 
 160      84F0204E 
 160      C585
 161 0031 FB0B1C9E 		.ascii	"\373\013\034\236\345\002r\212\257\006P\266\0312,\347"
 161      E502728A 
 161      AF0650B6 
 161      19322CE7 
ARM GAS  e:\temp\ccimcEAa.s 			page 12


 162 0041 90DCCB5C 		.ascii	"\220\334\313\\1\350\017\243U\250\2726m5\267v\256\363"
 162      31E80FA3 
 162      55A8BA36 
 162      6D35B776 
 162      AEF3
 163 0053 74CC95A8 		.ascii	"t\314\225\250H\366\334x\362\356\337\215\221\367\372"
 163      48F6DC78 
 163      F2EEDF8D 
 163      91F7FA
 164 0062 998C81EB 		.ascii	"\231\214\201\353\255\262g\017\362\005\350k 5"
 164      ADB2670F 
 164      F205E86B 
 164      2035
 165              		.text
 166              		.section	.gnu.lto_.refs.62409f09,"",%progbits
 167 0000 789C05C1 		.ascii	"x\234\005\3019\022\000 \014\0031\257\223@\301\320q4"
 167      39120020 
 167      0C0331AF 
 167      9340C1D0 
 167      7134
 168 0012 FCFF9D48 		.ascii	"\374\377\235H)\364$\225\314\304\213\330\344\241.\015"
 168      29F42495 
 168      CCC48BD8 
 168      E4A12E0D 
 169 0022 071D0F7D 		.ascii	"\007\035\017}\015\321\000\302"
 169      0DD100C2 
 170              		.text
 171              		.section	.gnu.lto_.decls.62409f09,"",%progbits
 172 0000 789C8D56 		.ascii	"x\234\215VkL\024W\024\2363\303cY\226\325\330\246\345"
 172      6B4C1457 
 172      149E33C3 
 172      635996D5 
 172      D8A6E5
 173 0013 074DA989 		.ascii	"\007M\251\211@\372\303\326GZ\1776b\264$mC\300\322?M"
 173      40FAC3D6 
 173      475A7F36 
 173      62B4246D 
 173      43C0D23F 
 174 0028 A8C26A49 		.ascii	"\250\302jI-\230\335%-i\322\214\002V\254\241\202\242"
 174      2D98DD25 
 174      2D69D28C 
 174      0256ACA1 
 174      82A2
 175 003a 2CD51445 		.ascii	",\325\024EV\020Ep\021\005\001\267<\025\021\025\004\005"
 175      56104570 
 175      110501B7 
 175      3C151115 
 175      0405
 176 004c 94870808 		.ascii	"\224\207\010\010\370\256V\221\352\366\334\307\354\314"
 176      F8AE5691 
 176      EAF6DCC7 
 176      ECCC
 177 005a 56499970 		.ascii	"VI\231pf\346\336\373\235\357|\337\235{\357\342%\200"
 177      66E6DEFB 
 177      9DEF7CDF 
 177      9D7BEFE2 
 177      2580
ARM GAS  e:\temp\ccimcEAa.s 			page 13


 178 006c 40AE4C3F 		.ascii	"@\256L?A8\205\257\337`\270\360\362\302\276\030\014\021"
 178      413885AF 
 178      DF60B8F0 
 178      F2C2BE18 
 178      0C11
 179 007e 2308E3A8 		.ascii	"#\010\343\250\300._\214c\030\3071*0*1\0320\316b\264"
 179      C02E5F8C 
 179      6318C731 
 179      2A302A31 
 179      1A30CE62 
 180 0093 6190BC8B 		.ascii	"a\220\274\213\030W1\0060\206\004\317\213\344\315\343"
 180      18573106 
 180      308604CF 
 180      8BE4CDE3 
 181 00a3 DCA11823 		.ascii	"\334\241\030#\030\2670Fy\235\363\030c\030-\030\267y"
 181      18B73046 
 181      799DF318 
 181      63182D18 
 181      B779
 182 00b5 DD7A8C71 		.ascii	"\335z\214q\214v\214\011\214n\214I\214~\316\351\315y"
 182      8C768C09 
 182      8C6E8C49 
 182      8C7ECEE9 
 182      CD79
 183 00c7 DBB88E06 		.ascii	"\333\270\216\006\256\361\377\264T\360\334\030\215\016"
 183      AEF1FFB4 
 183      54F0DC18 
 183      8D0E
 184 00d5 A50EB980 		.ascii	"\245\016\271\200c\200\363h/\342\333\3475>\376\233_9"
 184      6380F368 
 184      2FE2DBE7 
 184      353EFE9B 
 184      5F39
 185 00e7 43FE0B11 		.ascii	"C\376\013\021\006\246\212V.<\"\343\265C\226EQ\035\270"
 185      06A68A56 
 185      2E3C22E3 
 185      B5439645 
 185      511DB8
 186 00fa 9C56B657 		.ascii	"\234V\266Wz,\302<=xa\363\341\205\274a#6\337\324C06\233"
 186      7A2CC23C 
 186      3D7861F3 
 186      E185BC61 
 186      2336DFD4 
 187 0112 5C4F9D73 		.ascii	"\\O\235s\330\250\210\315\216\007m\373\374\331\350\\"
 187      D8A888CD 
 187      8E076DFB 
 187      FCD9E85C 
 188 0122 6C4ED6D9 		.ascii	"lN\326\331\\\001\201\273\011\253\234*\007\213\020\363"
 188      5C0181BB 
 188      09AB9C2A 
 188      078B10F3 
 189 0132 16944010 		.ascii	"\026\224@\020\034\006\234]8\002\201x_\353\305\352d\347"
 189      1C069C5D 
 189      38028178 
 189      5FEBC5EA 
 189      64E7
 190 0144 A41EF235 		.ascii	"\244\036\3625l\223\345\315\362\216Ty\336\247d\030\212"
ARM GAS  e:\temp\ccimcEAa.s 			page 14


 190      6C93E5CD 
 190      F28E5479 
 190      DEA76418 
 190      8A
 191 0155 115C44C1 		.ascii	"\021\\D\301G\301\000\207`\241\300^\021\377r\277=#@\362"
 191      47C10087 
 191      60A1C05E 
 191      11FF72BF 
 191      3D2340F2 
 192 0169 07925B9B 		.ascii	"\007\222[\233Z\336!\316\317\227\007eyp\252&4+5?\214"
 192      5ADE21CE 
 192      CF970765 
 192      7970AA26 
 192      342B353F 
 193 017e A69782A4 		.ascii	"\246\227\202\244$\341+\233\206c0\0373\\\373J\213\374"
 193      24E12B9B 
 193      8663301F 
 193      335CFB4A 
 193      8BFC
 194 0190 FAA00744 		.ascii	"\372\240\007D\340kN\000`w\240!\260\240M|\021\351]pw"
 194      E06B4E00 
 194      6077A021 
 194      B0A04D7C 
 194      11E95D70 
 195 01a5 B91F02B9 		.ascii	"\271\037\002\271\013\014O\373T2\372\247<]\312EITv\340"
 195      0B0C4FFB 
 195      5432FAA7 
 195      3C5DCA45 
 195      495476E0 
 196 01b9 49E056C0 		.ascii	"I\340V\300\262\330\270\310a\002#\027\325\004\015\037"
 196      B2D8B8C8 
 196      61022317 
 196      D5040D1F 
 197 01c9 93ABD104 		.ascii	"\223\253\321\004\236\236@\371\224G\035\265]:)\234NY"
 197      9E9E40F9 
 197      94471DB5 
 197      5D3A299C 
 197      4E59
 198 01db F3D389DF 		.ascii	"\363\323\211\337\274q\312\362\313\344\301\236\346\025"
 198      BC71CAF2 
 198      CBE4C19E 
 198      E615
 199 01e9 05055BE4 		.ascii	"\005\005[\344K\370\225>\241\237\005\312\325\211+\247"
 199      4BF8953E 
 199      A19F05CA 
 199      D5892BA7 
 200 01f9 130765D0 		.ascii	"\023\007e\320\207\254\307\351\344\225T\226NK\322O\224"
 200      87ACC7E9 
 200      E4955496 
 200      4E4BD24F 
 200      94
 201 020a A7F0CC93 		.ascii	"\247\360\314\223i\221\3618\313\263%\233\354\334\214"
 201      6991F138 
 201      CBB3259B 
 201      ECDC8C
 202 0219 34226571 		.ascii	"4\"eq\250,\016-K\005e)z\374\362\036H\333\201\3224m\253"
 202      A82C0E2D 
ARM GAS  e:\temp\ccimcEAa.s 			page 15


 202      4B056529 
 202      7AFCF21E 
 202      48DB81D2 
 203 0230 BF6EE034 		.ascii	"\277n\3404\217:\014L\013%9\241\222\234\320\222TR\222"
 203      8F3A0C4C 
 203      0B2539A1 
 203      929CD092 
 203      545292
 204 0243 9C9B0576 		.ascii	"\234\233\005v\203T\310H\356\216\244;\374\245\012\332"
 204      8354C848 
 204      EE8EA43B 
 204      FCA50ADA 
 205 0253 101BABC6 		.ascii	"\020\033\253\306s\214`\010\233aEA5\204i\026\225\235"
 205      738C6008 
 205      9B614541 
 205      35846916 
 205      959D
 206 0265 2CD1C19D 		.ascii	",\321\301\235\231\361y\275\262\034\014U8pJ-\21486\203"
 206      99F179BD 
 206      B21C0C55 
 206      38704A2D 
 206      8C383683 
 207 0279 7DB92F0E 		.ascii	"}\271/\016H^\270;(\002\227.\366\035K\277U\254\3035\037"
 207      485EB83B 
 207      2802972E 
 207      F61D4BBF 
 207      55ACC335 
 208 028e A4071790 		.ascii	"\244\007\027\220\366\235\252\251\000\326&\303\266\254"
 208      F69DAAA9 
 208      00D626C3 
 208      B6AC
 209 029c E197FED2 		.ascii	"\341\227\376\3220\023\3259\\2\356\005azZ\316i\033\010"
 209      3013D539 
 209      5C32EE05 
 209      617A5ACE 
 209      691B08
 210 02af 92651D38 		.ascii	"\222e\0358A\017uj\261 =\336\267\022\325\017\016\310"
 210      410F756A 
 210      B1203DDE 
 210      B712D50F 
 210      0EC8
 211 02c1 3E81022C 		.ascii	">\201\002,\011\202\017Q\360\031\024\214\234\004\005"
 211      09820F51 
 211      F019148C 
 211      9C0405
 212 02d0 B5E8A206 		.ascii	"\265\350\242\006] \177\373\243\303\255z*\211\360\234"
 212      5D207FFB 
 212      A3C3AD7A 
 212      2A89F09C 
 213 02e0 06AA695B 		.ascii	"\006\252i[\243=\337W\273\361\210\\u\347\325\323\235"
 213      A33DDF57 
 213      BBF1885C 
 213      75E7D5D3 
 213      9D
 214 02f1 F727F0AD 		.ascii	"\367'\360\25579\264)\313\237o\037\307\305\237o\026l"
 214      3739B429 
 214      CB9F6F1F 
ARM GAS  e:\temp\ccimcEAa.s 			page 16


 214      C7C59F6F 
 214      166C
 215 0303 71465210 		.ascii	"qFR\020\234Te\235T6P\003[\003\025\367\227I\031\"\265"
 215      9C54659D 
 215      54365003 
 215      5B0315F7 
 215      97491922 
 216 0318 38B2E78F 		.ascii	"8\262\347\217I\037\267\0046+\317j\366\365\212\356\276"
 216      491FB704 
 216      362BCF6A 
 216      F6F58AEE 
 216      BE
 217 0329 2626EBC9 		.ascii	"&&\353\311\223\256\003\306\031\317\203\026\252\252Y"
 217      93AE03C6 
 217      19CF8316 
 217      AAAA59
 218 0338 51553051 		.ascii	"QU0Q\324bd\252\234Y\231\006\233\\/\022\0104\252\232"
 218      D46264AA 
 218      9C599906 
 218      9B5C2F12 
 218      0834AA9A 
 219 034c 1A154D67 		.ascii	"\032\025Mg\251\246\254\251l\233$\345\315,\252}WO\007"
 219      A9A6ACA9 
 219      6C9B24E5 
 219      CD2CAA7D 
 219      574F07
 220 035f CC58FF3C 		.ascii	"\314X\377<\255\337\252\324\317\255\313\337\355\307\353"
 220      ADDFAAD4 
 220      CFADCBDF 
 220      EDC7EB
 221 036e E7B51B9C 		.ascii	"\347\265\033\234\221\004\000\347\324\352\347\224\352"
 221      910400E7 
 221      D4EAE794 
 221      EA
 222 037b 6DB4FAF5 		.ascii	"m\264\372\365\352i\273N:\304\252?N\373\253\333G\277"
 222      EA69BB4E 
 222      3AC4AA3F 
 222      4EFBABDB 
 222      47BF
 223 038d 959499D5 		.ascii	"\225\224\231\325W\314\276\223\221\015\013\012\344\203"
 223      57CCBE93 
 223      910D0B0A 
 223      E483
 224 039b 05643BBE 		.ascii	"\005d;\276ST\212\231:hG\345\027XA\236/\2206\336/\302"
 224      53548A99 
 224      3A6847E5 
 224      1758419E 
 224      2F9036DE 
 225 03b1 02E267CC 		.ascii	"\002\342g\314\236\341+U\262\222\205\317\247\037\220"
 225      9EE12B55 
 225      B29285CF 
 225      A71F90
 226 03c0 833A04D7 		.ascii	"\203:\004\327\241K\322,\304\020\266\020\213\3667;\364"
 226      A14BD22C 
 226      C410B610 
 226      8BF6373B 
 226      F4
ARM GAS  e:\temp\ccimcEAa.s 			page 17


 227 03d1 522B058B 		.ascii	"R+\005\213\367*Z\256\005\200>\214\2563\024\251\017\023"
 227      F72A5AAE 
 227      05803E8C 
 227      AE3314A9 
 227      0F13
 228 03e3 DC33015D 		.ascii	"\3343\001]\2501\204k\354\300\316\313\330\3117H\373\272"
 228      A831846B 
 228      ECC0CECB 
 228      D8C93748 
 228      FBBA
 229 03f5 3DBF90ED 		.ascii	"=\277\220\355}\005\225u\252S\021\242gs6\332\220{Wd\266"
 229      7D059575 
 229      AA5311A2 
 229      677336DA 
 229      907B5764 
 230 040a 67438A19 		.ascii	"gC\212\031Ww6\325\371\023\343\251\362`g\367\322\232"
 230      577736D5 
 230      F913E3A9 
 230      F26067F7 
 230      D29A
 231 041c 32392D5D 		.ascii	"29-]\007\335H\177\211\033W?\320%j\375*\265\336\334Y"
 231      07DD487F 
 231      891B573F 
 231      D0256AFD 
 231      2AB5DEDC 
 232 0431 E5F092FE 		.ascii	"\345\360\222\376a\326o\234-.!\326C\211u\227k\216\306"
 232      61D66F9C 
 232      2D2E21D6 
 232      43897597 
 232      6B8EC6
 233 0444 7C2833DF 		.ascii	"|(3\337:0\362\310O\332%Q\363\035\266;\003>\212yz4\010"
 233      3A30F2C8 
 233      4FDA2551 
 233      F31DB63B 
 233      033E8A79 
 234 045b EAB97003 		.ascii	"\352\271p\003u\206r\235\275\330\331\243\232\317\\\317"
 234      7586729D 
 234      BDD8D9A3 
 234      9ACF5CCF 
 235 046b CC5F4775 		.ascii	"\314_Gu}\252\371Pn>c(\247\327\233\231\237\015)f\234"
 235      7DAAF950 
 235      6E3E6328 
 235      A7D79B99 
 235      9F0D2966 
 236 0480 D95278D0 		.ascii	"\331Rx\320\3506\377q\355q9-C\007\375H\177\215\233W\177"
 236      E836FF71 
 236      ED71392D 
 236      4307FD48 
 236      7F8D9B57 
 237 0495 00AF51F3 		.ascii	"\000\257Q\363\003\324|\347\346]\223\242\364;u\003\351"
 237      03D47CE7 
 237      E65D93A2 
 237      F43B7503 
 237      E9
 238 04a6 D913859C 		.ascii	"\331\023\205\234\304\371\314\244\020\014\276B0H\011"
 238      C4F9CCA4 
 238      100CBE42 
ARM GAS  e:\temp\ccimcEAa.s 			page 18


 238      304809
 239 04b5 86284175 		.ascii	"\206(Au\277\274\327[r\260\351\350\372\365d\256\244\034"
 239      BFBCD75B 
 239      72B0E9E8 
 239      FAF564AE 
 239      A41C
 240 04c7 4AE87275 		.ascii	"J\350ru^\366&<\003o!\313M\325%\222\262s\351Uw\303\257"
 240      5EF6263C 
 240      036F21CB 
 240      4DD52592 
 240      B273E955 
 241 04de 77F7F7B3 		.ascii	"w\367\367\263s\333\015\332_t\302\250\352\031\241\207"
 241      73DB0DDA 
 241      5F74C2A8 
 241      EA19A187 
 242 04ee 2A7D2258 		.ascii	"*}\"X\266?w\370i\301\347=~\376G9x\224\202\213m\315\207"
 242      B63F77F8 
 242      69C1E73D 
 242      7EFE4739 
 242      7894828B 
 243 0505 FCB5E016 		.ascii	"\374\265\340\026\017\360\030\007\217Q\360\341+\325\215"
 243      0FF01807 
 243      8F51F0E1 
 243      2BD58D
 244 0514 1EFF58D4 		.ascii	"\036\377X\324{\200os\360m\012\316\315\261?7j\301\355"
 244      7B806F73 
 244      F06D0ACE 
 244      CDB13F37 
 244      6AC1ED
 245 0527 1E9AC739 		.ascii	"\036\232\3079x\234\202\333\036\246\237\366\000w{\200"
 245      789C82DB 
 245      1EA69FF6 
 245      00777B80 
 246 0537 27387882 		.ascii	"'8x\202\202\247\357w\366\350\264\340~\017\360$\007\223"
 246      82A7EF77 
 246      F6E8B4E0 
 246      7E0FF024 
 246      0793
 247 0549 A76ED517 		.ascii	"\247n\325\027_\006\207/Z$\314\215X\034\036\373y\364"
 247      5F06872F 
 247      5A24CC8D 
 247      581C1EFB 
 247      79F4
 248 055b EAA858F2 		.ascii	"\352\250X\362\022\021\035\025\262\312\224h2\257\261"
 248      12111D15 
 248      B2CA9468 
 248      32AFB1
 249 056a 9AE263A3 		.ascii	"\232\342c\243\223\222\315q\246\257#\243\223\302\227"
 249      9392CD71 
 249      A6AF23A3 
 249      93C297
 250 0579 7EADC52D 		.ascii	"~\255\305-\374\3263/\"1\301:\253\2748\317\274hk\322"
 250      FCD6332F 
 250      2231C13A 
 250      ABBC38CF 
 250      BC686BD2 
 251 058d C6406DC7 		.ascii	"\306@m\307\312\037\226oH\212\373.\312d1Y\215\341)\021"
ARM GAS  e:\temp\ccimcEAa.s 			page 19


 251      CA1F966F 
 251      488AFB2E 
 251      CA643159 
 251      8DE12911 
 252 05a1 89D66893 		.ascii	"\211\326h\2235\306\024gM2\033\342R\022,\3465\361\361"
 252      35C61467 
 252      4D321BE2 
 252      52122CE6 
 252      35F1F1
 253 05b4 6693C5F2 		.ascii	"f\223\305\362\336\353\213}\020\227bM\331h\262\240>\357"
 253      DEEB8B7D 
 253      1097624D 
 253      D968B2A0 
 253      3EEF
 254 05c6 E48444EB 		.ascii	"\344\204D\353\262wg\300\205\247|\226\260\226\270PjD"
 254      B27767C0 
 254      85A77C96 
 254      B096B850 
 254      6A44
 255 05d8 9A1392CC 		.ascii	"\232\023\222\314\011\326\024\003\355X\221`Y\263v\203"
 255      09D61403 
 255      ED589160 
 255      59B37683 
 256 05e8 C9E89666 		.ascii	"\311\350\226f\261\"\307\033\356\346\367\026\2539\032"
 256      B122C71B 
 256      EEE6F716 
 256      AB391A
 257 05f7 BB922D3E 		.ascii	"\273\222->\244\314\242\217\336\237\205\371\330\310\230"
 257      A4CCA28F 
 257      DE9F85F9 
 257      D8C898
 258 0606 D558F26D 		.ascii	"\325X\362m\017\226\250\370\345\311\353\"\022\343M?R"
 258      0F96A8F8 
 258      E5C9EB22 
 258      12E34D3F 
 258      52
 259 0617 A6258B3D 		.ascii	"\246%\213=\207\2772+\303\336f\323\372%\213\377\005\304"
 259      87BF322B 
 259      C3DE66D3 
 259      FA258BFF 
 259      05C4
 260 0629 F77BAA   		.ascii	"\367{\252"
 261              		.text
 262              		.section	.gnu.lto_.symtab.62409f09,"",%progbits
 263 0000 4932435F 		.ascii	"I2C_MSTR_I2CInit\000"
 263      4D535452 
 263      5F493243 
 263      496E6974 
 263      00
 264 0011 00       		.ascii	"\000"
 265 0012 00       		.ascii	"\000"
 266 0013 00       		.ascii	"\000"
 267 0014 00000000 		.ascii	"\000\000\000\000\000\000\000\000"
 267      00000000 
 268 001c B2000000 		.ascii	"\262\000\000\000"
 269 0020 4932435F 		.ascii	"I2C_MSTR_state\000"
 269      4D535452 
ARM GAS  e:\temp\ccimcEAa.s 			page 20


 269      5F737461 
 269      746500
 270 002f 00       		.ascii	"\000"
 271 0030 04       		.ascii	"\004"
 272 0031 00       		.ascii	"\000"
 273 0032 01000000 		.ascii	"\001\000\000\000\000\000\000\000"
 273      00000000 
 274 003a CF000000 		.ascii	"\317\000\000\000"
 275 003e 4932435F 		.ascii	"I2C_MSTR_I2CStop\000"
 275      4D535452 
 275      5F493243 
 275      53746F70 
 275      00
 276 004f 00       		.ascii	"\000"
 277 0050 00       		.ascii	"\000"
 278 0051 00       		.ascii	"\000"
 279 0052 00000000 		.ascii	"\000\000\000\000\000\000\000\000"
 279      00000000 
 280 005a B4000000 		.ascii	"\264\000\000\000"
 281 005e 4932435F 		.ascii	"I2C_MSTR_I2CFwBlockReset\000"
 281      4D535452 
 281      5F493243 
 281      4677426C 
 281      6F636B52 
 282 0077 00       		.ascii	"\000"
 283 0078 00       		.ascii	"\000"
 284 0079 00       		.ascii	"\000"
 285 007a 00000000 		.ascii	"\000\000\000\000\000\000\000\000"
 285      00000000 
 286 0082 B6000000 		.ascii	"\266\000\000\000"
 287 0086 4932435F 		.ascii	"I2C_MSTR_I2C_ISR\000"
 287      4D535452 
 287      5F493243 
 287      5F495352 
 287      00
 288 0097 00       		.ascii	"\000"
 289 0098 02       		.ascii	"\002"
 290 0099 00       		.ascii	"\000"
 291 009a 00000000 		.ascii	"\000\000\000\000\000\000\000\000"
 291      00000000 
 292 00a2 AF000000 		.ascii	"\257\000\000\000"
 293 00a6 4932435F 		.ascii	"I2C_MSTR_mstrStatus\000"
 293      4D535452 
 293      5F6D7374 
 293      72537461 
 293      74757300 
 294 00ba 00       		.ascii	"\000"
 295 00bb 02       		.ascii	"\002"
 296 00bc 00       		.ascii	"\000"
 297 00bd 00000000 		.ascii	"\000\000\000\000\000\000\000\000"
 297      00000000 
 298 00c5 D7000000 		.ascii	"\327\000\000\000"
 299 00c9 4932435F 		.ascii	"I2C_MSTR_mstrRdBufIndex\000"
 299      4D535452 
 299      5F6D7374 
 299      72526442 
 299      7566496E 
ARM GAS  e:\temp\ccimcEAa.s 			page 21


 300 00e1 00       		.ascii	"\000"
 301 00e2 02       		.ascii	"\002"
 302 00e3 00       		.ascii	"\000"
 303 00e4 00000000 		.ascii	"\000\000\000\000\000\000\000\000"
 303      00000000 
 304 00ec DF000000 		.ascii	"\337\000\000\000"
 305 00f0 4932435F 		.ascii	"I2C_MSTR_mstrWrBufIndex\000"
 305      4D535452 
 305      5F6D7374 
 305      72577242 
 305      7566496E 
 306 0108 00       		.ascii	"\000"
 307 0109 02       		.ascii	"\002"
 308 010a 00       		.ascii	"\000"
 309 010b 00000000 		.ascii	"\000\000\000\000\000\000\000\000"
 309      00000000 
 310 0113 E1000000 		.ascii	"\341\000\000\000"
 311 0117 4379496E 		.ascii	"CyIntSetVector\000"
 311      74536574 
 311      56656374 
 311      6F7200
 312 0126 00       		.ascii	"\000"
 313 0127 02       		.ascii	"\002"
 314 0128 00       		.ascii	"\000"
 315 0129 00000000 		.ascii	"\000\000\000\000\000\000\000\000"
 315      00000000 
 316 0131 C3000000 		.ascii	"\303\000\000\000"
 317 0135 4379496E 		.ascii	"CyIntSetPriority\000"
 317      74536574 
 317      5072696F 
 317      72697479 
 317      00
 318 0146 00       		.ascii	"\000"
 319 0147 02       		.ascii	"\002"
 320 0148 00       		.ascii	"\000"
 321 0149 00000000 		.ascii	"\000\000\000\000\000\000\000\000"
 321      00000000 
 322 0151 C8000000 		.ascii	"\310\000\000\000"
 323 0155 4379496E 		.ascii	"CyIntDisable\000"
 323      74446973 
 323      61626C65 
 323      00
 324 0162 00       		.ascii	"\000"
 325 0163 02       		.ascii	"\002"
 326 0164 00       		.ascii	"\000"
 327 0165 00000000 		.ascii	"\000\000\000\000\000\000\000\000"
 327      00000000 
 328 016d CC000000 		.ascii	"\314\000\000\000"
 329              		.text
 330              		.section	.gnu.lto_.opts,"",%progbits
 331 0000 272D666D 		.ascii	"'-fmath-errno' '-fsigned-zeros' '-ftrapping-math' '"
 331      6174682D 
 331      6572726E 
 331      6F272027 
 331      2D667369 
 332 0033 2D666E6F 		.ascii	"-fno-trapv' '-fno-openmp' '-fno-openacc' '-mcpu=cor"
 332      2D747261 
ARM GAS  e:\temp\ccimcEAa.s 			page 22


 332      70762720 
 332      272D666E 
 332      6F2D6F70 
 333 0066 7465782D 		.ascii	"tex-m0' '-mthumb' '-g' '-Os' '-Werror' '-ffunction-"
 333      6D302720 
 333      272D6D74 
 333      68756D62 
 333      2720272D 
 334 0099 73656374 		.ascii	"sections' '-ffat-lto-objects' '-finline-functions' "
 334      696F6E73 
 334      2720272D 
 334      66666174 
 334      2D6C746F 
 335 00cc 272D666C 		.ascii	"'-flto' '-fno-strict-aliasing'\000"
 335      746F2720 
 335      272D666E 
 335      6F2D7374 
 335      72696374 
 336              		.text
 337              		.cfi_sections	.debug_frame
 338              		.section	.text.I2C_MSTR_I2CInit,"ax",%progbits
 339              		.align	1
 340              		.global	I2C_MSTR_I2CInit
 341              		.code	16
 342              		.thumb_func
 343              		.type	I2C_MSTR_I2CInit, %function
 344              	I2C_MSTR_I2CInit:
 345              	.LFB0:
 346              		.file 1 "Generated_Source\\PSoC4\\I2C_MSTR_I2C.c"
   1:Generated_Source\PSoC4/I2C_MSTR_I2C.c **** /***************************************************************************//**
   2:Generated_Source\PSoC4/I2C_MSTR_I2C.c **** * \file I2C_MSTR_I2C.c
   3:Generated_Source\PSoC4/I2C_MSTR_I2C.c **** * \version 4.0
   4:Generated_Source\PSoC4/I2C_MSTR_I2C.c **** *
   5:Generated_Source\PSoC4/I2C_MSTR_I2C.c **** * \brief
   6:Generated_Source\PSoC4/I2C_MSTR_I2C.c **** *  This file provides the source code to the API for the SCB Component in
   7:Generated_Source\PSoC4/I2C_MSTR_I2C.c **** *  I2C mode.
   8:Generated_Source\PSoC4/I2C_MSTR_I2C.c **** *
   9:Generated_Source\PSoC4/I2C_MSTR_I2C.c **** * Note:
  10:Generated_Source\PSoC4/I2C_MSTR_I2C.c **** *
  11:Generated_Source\PSoC4/I2C_MSTR_I2C.c **** *******************************************************************************
  12:Generated_Source\PSoC4/I2C_MSTR_I2C.c **** * \copyright
  13:Generated_Source\PSoC4/I2C_MSTR_I2C.c **** * Copyright 2013-2017, Cypress Semiconductor Corporation.  All rights reserved.
  14:Generated_Source\PSoC4/I2C_MSTR_I2C.c **** * You may use this file only in accordance with the license, terms, conditions,
  15:Generated_Source\PSoC4/I2C_MSTR_I2C.c **** * disclaimers, and limitations in the end user license agreement accompanying
  16:Generated_Source\PSoC4/I2C_MSTR_I2C.c **** * the software package with which this file was provided.
  17:Generated_Source\PSoC4/I2C_MSTR_I2C.c **** *******************************************************************************/
  18:Generated_Source\PSoC4/I2C_MSTR_I2C.c **** 
  19:Generated_Source\PSoC4/I2C_MSTR_I2C.c **** #include "I2C_MSTR_PVT.h"
  20:Generated_Source\PSoC4/I2C_MSTR_I2C.c **** #include "I2C_MSTR_I2C_PVT.h"
  21:Generated_Source\PSoC4/I2C_MSTR_I2C.c **** 
  22:Generated_Source\PSoC4/I2C_MSTR_I2C.c **** 
  23:Generated_Source\PSoC4/I2C_MSTR_I2C.c **** /***************************************
  24:Generated_Source\PSoC4/I2C_MSTR_I2C.c **** *      I2C Private Vars
  25:Generated_Source\PSoC4/I2C_MSTR_I2C.c **** ***************************************/
  26:Generated_Source\PSoC4/I2C_MSTR_I2C.c **** 
  27:Generated_Source\PSoC4/I2C_MSTR_I2C.c **** volatile uint8 I2C_MSTR_state;  /* Current state of I2C FSM */
  28:Generated_Source\PSoC4/I2C_MSTR_I2C.c **** 
ARM GAS  e:\temp\ccimcEAa.s 			page 23


  29:Generated_Source\PSoC4/I2C_MSTR_I2C.c **** #if(I2C_MSTR_SCB_MODE_UNCONFIG_CONST_CFG)
  30:Generated_Source\PSoC4/I2C_MSTR_I2C.c **** 
  31:Generated_Source\PSoC4/I2C_MSTR_I2C.c ****     /***************************************
  32:Generated_Source\PSoC4/I2C_MSTR_I2C.c ****     *  Configuration Structure Initialization
  33:Generated_Source\PSoC4/I2C_MSTR_I2C.c ****     ***************************************/
  34:Generated_Source\PSoC4/I2C_MSTR_I2C.c **** 
  35:Generated_Source\PSoC4/I2C_MSTR_I2C.c ****     /* Constant configuration of I2C */
  36:Generated_Source\PSoC4/I2C_MSTR_I2C.c ****     const I2C_MSTR_I2C_INIT_STRUCT I2C_MSTR_configI2C =
  37:Generated_Source\PSoC4/I2C_MSTR_I2C.c ****     {
  38:Generated_Source\PSoC4/I2C_MSTR_I2C.c ****         I2C_MSTR_I2C_MODE,
  39:Generated_Source\PSoC4/I2C_MSTR_I2C.c ****         I2C_MSTR_I2C_OVS_FACTOR_LOW,
  40:Generated_Source\PSoC4/I2C_MSTR_I2C.c ****         I2C_MSTR_I2C_OVS_FACTOR_HIGH,
  41:Generated_Source\PSoC4/I2C_MSTR_I2C.c ****         I2C_MSTR_I2C_MEDIAN_FILTER_ENABLE,
  42:Generated_Source\PSoC4/I2C_MSTR_I2C.c ****         I2C_MSTR_I2C_SLAVE_ADDRESS,
  43:Generated_Source\PSoC4/I2C_MSTR_I2C.c ****         I2C_MSTR_I2C_SLAVE_ADDRESS_MASK,
  44:Generated_Source\PSoC4/I2C_MSTR_I2C.c ****         I2C_MSTR_I2C_ACCEPT_ADDRESS,
  45:Generated_Source\PSoC4/I2C_MSTR_I2C.c ****         I2C_MSTR_I2C_WAKE_ENABLE,
  46:Generated_Source\PSoC4/I2C_MSTR_I2C.c ****         I2C_MSTR_I2C_BYTE_MODE_ENABLE,
  47:Generated_Source\PSoC4/I2C_MSTR_I2C.c ****         I2C_MSTR_I2C_DATA_RATE,
  48:Generated_Source\PSoC4/I2C_MSTR_I2C.c ****         I2C_MSTR_I2C_ACCEPT_GENERAL_CALL,
  49:Generated_Source\PSoC4/I2C_MSTR_I2C.c ****     };
  50:Generated_Source\PSoC4/I2C_MSTR_I2C.c **** 
  51:Generated_Source\PSoC4/I2C_MSTR_I2C.c ****     /*******************************************************************************
  52:Generated_Source\PSoC4/I2C_MSTR_I2C.c ****     * Function Name: I2C_MSTR_I2CInit
  53:Generated_Source\PSoC4/I2C_MSTR_I2C.c ****     ****************************************************************************//**
  54:Generated_Source\PSoC4/I2C_MSTR_I2C.c ****     *
  55:Generated_Source\PSoC4/I2C_MSTR_I2C.c ****     *
  56:Generated_Source\PSoC4/I2C_MSTR_I2C.c ****     *  Configures the I2C_MSTR for I2C operation.
  57:Generated_Source\PSoC4/I2C_MSTR_I2C.c ****     *
  58:Generated_Source\PSoC4/I2C_MSTR_I2C.c ****     *  This function is intended specifically to be used when the I2C_MSTR 
  59:Generated_Source\PSoC4/I2C_MSTR_I2C.c ****     *  configuration is set to “Unconfigured I2C_MSTR” in the customizer. 
  60:Generated_Source\PSoC4/I2C_MSTR_I2C.c ****     *  After initializing the I2C_MSTR in I2C mode using this function, 
  61:Generated_Source\PSoC4/I2C_MSTR_I2C.c ****     *  the component can be enabled using the I2C_MSTR_Start() or 
  62:Generated_Source\PSoC4/I2C_MSTR_I2C.c ****     * I2C_MSTR_Enable() function.
  63:Generated_Source\PSoC4/I2C_MSTR_I2C.c ****     *  This function uses a pointer to a structure that provides the configuration 
  64:Generated_Source\PSoC4/I2C_MSTR_I2C.c ****     *  settings. This structure contains the same information that would otherwise 
  65:Generated_Source\PSoC4/I2C_MSTR_I2C.c ****     *  be provided by the customizer settings.
  66:Generated_Source\PSoC4/I2C_MSTR_I2C.c ****     *
  67:Generated_Source\PSoC4/I2C_MSTR_I2C.c ****     *  \param config: pointer to a structure that contains the following list of 
  68:Generated_Source\PSoC4/I2C_MSTR_I2C.c ****     *   fields. These fields match the selections available in the customizer. 
  69:Generated_Source\PSoC4/I2C_MSTR_I2C.c ****     *   Refer to the customizer for further description of the settings.
  70:Generated_Source\PSoC4/I2C_MSTR_I2C.c ****     *
  71:Generated_Source\PSoC4/I2C_MSTR_I2C.c ****     *******************************************************************************/
  72:Generated_Source\PSoC4/I2C_MSTR_I2C.c ****     void I2C_MSTR_I2CInit(const I2C_MSTR_I2C_INIT_STRUCT *config)
  73:Generated_Source\PSoC4/I2C_MSTR_I2C.c ****     {
  74:Generated_Source\PSoC4/I2C_MSTR_I2C.c ****         uint32 medianFilter;
  75:Generated_Source\PSoC4/I2C_MSTR_I2C.c ****         uint32 locEnableWake;
  76:Generated_Source\PSoC4/I2C_MSTR_I2C.c **** 
  77:Generated_Source\PSoC4/I2C_MSTR_I2C.c ****         if(NULL == config)
  78:Generated_Source\PSoC4/I2C_MSTR_I2C.c ****         {
  79:Generated_Source\PSoC4/I2C_MSTR_I2C.c ****             CYASSERT(0u != 0u); /* Halt execution due to bad function parameter */
  80:Generated_Source\PSoC4/I2C_MSTR_I2C.c ****         }
  81:Generated_Source\PSoC4/I2C_MSTR_I2C.c ****         else
  82:Generated_Source\PSoC4/I2C_MSTR_I2C.c ****         {
  83:Generated_Source\PSoC4/I2C_MSTR_I2C.c ****             /* Configure pins */
  84:Generated_Source\PSoC4/I2C_MSTR_I2C.c ****             I2C_MSTR_SetPins(I2C_MSTR_SCB_MODE_I2C, I2C_MSTR_DUMMY_PARAM,
  85:Generated_Source\PSoC4/I2C_MSTR_I2C.c ****                                      I2C_MSTR_DUMMY_PARAM);
ARM GAS  e:\temp\ccimcEAa.s 			page 24


  86:Generated_Source\PSoC4/I2C_MSTR_I2C.c **** 
  87:Generated_Source\PSoC4/I2C_MSTR_I2C.c ****             /* Store internal configuration */
  88:Generated_Source\PSoC4/I2C_MSTR_I2C.c ****             I2C_MSTR_scbMode       = (uint8) I2C_MSTR_SCB_MODE_I2C;
  89:Generated_Source\PSoC4/I2C_MSTR_I2C.c ****             I2C_MSTR_scbEnableWake = (uint8) config->enableWake;
  90:Generated_Source\PSoC4/I2C_MSTR_I2C.c ****             I2C_MSTR_scbEnableIntr = (uint8) I2C_MSTR_SCB_IRQ_INTERNAL;
  91:Generated_Source\PSoC4/I2C_MSTR_I2C.c **** 
  92:Generated_Source\PSoC4/I2C_MSTR_I2C.c ****             I2C_MSTR_mode          = (uint8) config->mode;
  93:Generated_Source\PSoC4/I2C_MSTR_I2C.c ****             I2C_MSTR_acceptAddr    = (uint8) config->acceptAddr;
  94:Generated_Source\PSoC4/I2C_MSTR_I2C.c **** 
  95:Generated_Source\PSoC4/I2C_MSTR_I2C.c ****         #if (I2C_MSTR_CY_SCBIP_V0)
  96:Generated_Source\PSoC4/I2C_MSTR_I2C.c ****             /* Adjust SDA filter settings. Ticket ID#150521 */
  97:Generated_Source\PSoC4/I2C_MSTR_I2C.c ****             I2C_MSTR_SET_I2C_CFG_SDA_FILT_TRIM(I2C_MSTR_EC_AM_I2C_CFG_SDA_FILT_TRIM);
  98:Generated_Source\PSoC4/I2C_MSTR_I2C.c ****         #endif /* (I2C_MSTR_CY_SCBIP_V0) */
  99:Generated_Source\PSoC4/I2C_MSTR_I2C.c **** 
 100:Generated_Source\PSoC4/I2C_MSTR_I2C.c ****             /* Adjust AF and DF filter settings. Ticket ID#176179 */
 101:Generated_Source\PSoC4/I2C_MSTR_I2C.c ****             if (((I2C_MSTR_I2C_MODE_SLAVE != config->mode) &&
 102:Generated_Source\PSoC4/I2C_MSTR_I2C.c ****                  (config->dataRate <= I2C_MSTR_I2C_DATA_RATE_FS_MODE_MAX)) ||
 103:Generated_Source\PSoC4/I2C_MSTR_I2C.c ****                  (I2C_MSTR_I2C_MODE_SLAVE == config->mode))
 104:Generated_Source\PSoC4/I2C_MSTR_I2C.c ****             {
 105:Generated_Source\PSoC4/I2C_MSTR_I2C.c ****                 /* AF = 1, DF = 0 */
 106:Generated_Source\PSoC4/I2C_MSTR_I2C.c ****                 I2C_MSTR_I2C_CFG_ANALOG_FITER_ENABLE;
 107:Generated_Source\PSoC4/I2C_MSTR_I2C.c ****                 medianFilter = I2C_MSTR_DIGITAL_FILTER_DISABLE;
 108:Generated_Source\PSoC4/I2C_MSTR_I2C.c ****             }
 109:Generated_Source\PSoC4/I2C_MSTR_I2C.c ****             else
 110:Generated_Source\PSoC4/I2C_MSTR_I2C.c ****             {
 111:Generated_Source\PSoC4/I2C_MSTR_I2C.c ****                 /* AF = 0, DF = 1 */
 112:Generated_Source\PSoC4/I2C_MSTR_I2C.c ****                 I2C_MSTR_I2C_CFG_ANALOG_FITER_DISABLE;
 113:Generated_Source\PSoC4/I2C_MSTR_I2C.c ****                 medianFilter = I2C_MSTR_DIGITAL_FILTER_ENABLE;
 114:Generated_Source\PSoC4/I2C_MSTR_I2C.c ****             }
 115:Generated_Source\PSoC4/I2C_MSTR_I2C.c **** 
 116:Generated_Source\PSoC4/I2C_MSTR_I2C.c ****         #if (!I2C_MSTR_CY_SCBIP_V0)
 117:Generated_Source\PSoC4/I2C_MSTR_I2C.c ****             locEnableWake = (I2C_MSTR_I2C_MULTI_MASTER_SLAVE) ? (0u) : (config->enableWake);
 118:Generated_Source\PSoC4/I2C_MSTR_I2C.c ****         #else
 119:Generated_Source\PSoC4/I2C_MSTR_I2C.c ****             locEnableWake = config->enableWake;
 120:Generated_Source\PSoC4/I2C_MSTR_I2C.c ****         #endif /* (!I2C_MSTR_CY_SCBIP_V0) */
 121:Generated_Source\PSoC4/I2C_MSTR_I2C.c **** 
 122:Generated_Source\PSoC4/I2C_MSTR_I2C.c ****             /* Configure I2C interface */
 123:Generated_Source\PSoC4/I2C_MSTR_I2C.c ****             I2C_MSTR_CTRL_REG     = I2C_MSTR_GET_CTRL_BYTE_MODE  (config->enableByteMode) |
 124:Generated_Source\PSoC4/I2C_MSTR_I2C.c ****                                             I2C_MSTR_GET_CTRL_ADDR_ACCEPT(config->acceptAddr)     |
 125:Generated_Source\PSoC4/I2C_MSTR_I2C.c ****                                             I2C_MSTR_GET_CTRL_EC_AM_MODE (locEnableWake);
 126:Generated_Source\PSoC4/I2C_MSTR_I2C.c **** 
 127:Generated_Source\PSoC4/I2C_MSTR_I2C.c ****             I2C_MSTR_I2C_CTRL_REG = I2C_MSTR_GET_I2C_CTRL_HIGH_PHASE_OVS(config->oversampleHigh) |
 128:Generated_Source\PSoC4/I2C_MSTR_I2C.c ****                     I2C_MSTR_GET_I2C_CTRL_LOW_PHASE_OVS (config->oversampleLow)                    
 129:Generated_Source\PSoC4/I2C_MSTR_I2C.c ****                     I2C_MSTR_GET_I2C_CTRL_S_GENERAL_IGNORE((uint32)(0u == config->acceptGeneralAddr
 130:Generated_Source\PSoC4/I2C_MSTR_I2C.c ****                     I2C_MSTR_GET_I2C_CTRL_SL_MSTR_MODE  (config->mode);
 131:Generated_Source\PSoC4/I2C_MSTR_I2C.c **** 
 132:Generated_Source\PSoC4/I2C_MSTR_I2C.c ****             /* Configure RX direction */
 133:Generated_Source\PSoC4/I2C_MSTR_I2C.c ****             I2C_MSTR_RX_CTRL_REG      = I2C_MSTR_GET_RX_CTRL_MEDIAN(medianFilter) |
 134:Generated_Source\PSoC4/I2C_MSTR_I2C.c ****                                                 I2C_MSTR_I2C_RX_CTRL;
 135:Generated_Source\PSoC4/I2C_MSTR_I2C.c ****             I2C_MSTR_RX_FIFO_CTRL_REG = I2C_MSTR_CLEAR_REG;
 136:Generated_Source\PSoC4/I2C_MSTR_I2C.c **** 
 137:Generated_Source\PSoC4/I2C_MSTR_I2C.c ****             /* Set default address and mask */
 138:Generated_Source\PSoC4/I2C_MSTR_I2C.c ****             I2C_MSTR_RX_MATCH_REG    = ((I2C_MSTR_I2C_SLAVE) ?
 139:Generated_Source\PSoC4/I2C_MSTR_I2C.c ****                                                 (I2C_MSTR_GET_I2C_8BIT_ADDRESS(config->slaveAddr) |
 140:Generated_Source\PSoC4/I2C_MSTR_I2C.c ****                                                  I2C_MSTR_GET_RX_MATCH_MASK(config->slaveAddrMask))
 141:Generated_Source\PSoC4/I2C_MSTR_I2C.c ****                                                 (I2C_MSTR_CLEAR_REG));
 142:Generated_Source\PSoC4/I2C_MSTR_I2C.c **** 
ARM GAS  e:\temp\ccimcEAa.s 			page 25


 143:Generated_Source\PSoC4/I2C_MSTR_I2C.c **** 
 144:Generated_Source\PSoC4/I2C_MSTR_I2C.c ****             /* Configure TX direction */
 145:Generated_Source\PSoC4/I2C_MSTR_I2C.c ****             I2C_MSTR_TX_CTRL_REG      = I2C_MSTR_I2C_TX_CTRL;
 146:Generated_Source\PSoC4/I2C_MSTR_I2C.c ****             I2C_MSTR_TX_FIFO_CTRL_REG = I2C_MSTR_CLEAR_REG;
 147:Generated_Source\PSoC4/I2C_MSTR_I2C.c **** 
 148:Generated_Source\PSoC4/I2C_MSTR_I2C.c ****             /* Configure interrupt with I2C handler but do not enable it */
 149:Generated_Source\PSoC4/I2C_MSTR_I2C.c ****             CyIntDisable    (I2C_MSTR_ISR_NUMBER);
 150:Generated_Source\PSoC4/I2C_MSTR_I2C.c ****             CyIntSetPriority(I2C_MSTR_ISR_NUMBER, I2C_MSTR_ISR_PRIORITY);
 151:Generated_Source\PSoC4/I2C_MSTR_I2C.c ****             (void) CyIntSetVector(I2C_MSTR_ISR_NUMBER, &I2C_MSTR_I2C_ISR);
 152:Generated_Source\PSoC4/I2C_MSTR_I2C.c **** 
 153:Generated_Source\PSoC4/I2C_MSTR_I2C.c ****             /* Configure interrupt sources */
 154:Generated_Source\PSoC4/I2C_MSTR_I2C.c ****         #if(!I2C_MSTR_CY_SCBIP_V1)
 155:Generated_Source\PSoC4/I2C_MSTR_I2C.c ****             I2C_MSTR_INTR_SPI_EC_MASK_REG = I2C_MSTR_NO_INTR_SOURCES;
 156:Generated_Source\PSoC4/I2C_MSTR_I2C.c ****         #endif /* (!I2C_MSTR_CY_SCBIP_V1) */
 157:Generated_Source\PSoC4/I2C_MSTR_I2C.c **** 
 158:Generated_Source\PSoC4/I2C_MSTR_I2C.c ****             I2C_MSTR_INTR_I2C_EC_MASK_REG = I2C_MSTR_NO_INTR_SOURCES;
 159:Generated_Source\PSoC4/I2C_MSTR_I2C.c ****             I2C_MSTR_INTR_RX_MASK_REG     = I2C_MSTR_NO_INTR_SOURCES;
 160:Generated_Source\PSoC4/I2C_MSTR_I2C.c ****             I2C_MSTR_INTR_TX_MASK_REG     = I2C_MSTR_NO_INTR_SOURCES;
 161:Generated_Source\PSoC4/I2C_MSTR_I2C.c **** 
 162:Generated_Source\PSoC4/I2C_MSTR_I2C.c ****             I2C_MSTR_INTR_SLAVE_MASK_REG  = ((I2C_MSTR_I2C_SLAVE) ?
 163:Generated_Source\PSoC4/I2C_MSTR_I2C.c ****                             (I2C_MSTR_GET_INTR_SLAVE_I2C_GENERAL(config->acceptGeneralAddr) |
 164:Generated_Source\PSoC4/I2C_MSTR_I2C.c ****                              I2C_MSTR_I2C_INTR_SLAVE_MASK) : (I2C_MSTR_CLEAR_REG));
 165:Generated_Source\PSoC4/I2C_MSTR_I2C.c **** 
 166:Generated_Source\PSoC4/I2C_MSTR_I2C.c ****             I2C_MSTR_INTR_MASTER_MASK_REG = I2C_MSTR_NO_INTR_SOURCES;
 167:Generated_Source\PSoC4/I2C_MSTR_I2C.c **** 
 168:Generated_Source\PSoC4/I2C_MSTR_I2C.c ****             /* Configure global variables */
 169:Generated_Source\PSoC4/I2C_MSTR_I2C.c ****             I2C_MSTR_state = I2C_MSTR_I2C_FSM_IDLE;
 170:Generated_Source\PSoC4/I2C_MSTR_I2C.c **** 
 171:Generated_Source\PSoC4/I2C_MSTR_I2C.c ****             /* Internal slave variables */
 172:Generated_Source\PSoC4/I2C_MSTR_I2C.c ****             I2C_MSTR_slStatus        = 0u;
 173:Generated_Source\PSoC4/I2C_MSTR_I2C.c ****             I2C_MSTR_slRdBufIndex    = 0u;
 174:Generated_Source\PSoC4/I2C_MSTR_I2C.c ****             I2C_MSTR_slWrBufIndex    = 0u;
 175:Generated_Source\PSoC4/I2C_MSTR_I2C.c ****             I2C_MSTR_slOverFlowCount = 0u;
 176:Generated_Source\PSoC4/I2C_MSTR_I2C.c **** 
 177:Generated_Source\PSoC4/I2C_MSTR_I2C.c ****             /* Internal master variables */
 178:Generated_Source\PSoC4/I2C_MSTR_I2C.c ****             I2C_MSTR_mstrStatus     = 0u;
 179:Generated_Source\PSoC4/I2C_MSTR_I2C.c ****             I2C_MSTR_mstrRdBufIndex = 0u;
 180:Generated_Source\PSoC4/I2C_MSTR_I2C.c ****             I2C_MSTR_mstrWrBufIndex = 0u;
 181:Generated_Source\PSoC4/I2C_MSTR_I2C.c ****         }
 182:Generated_Source\PSoC4/I2C_MSTR_I2C.c ****     }
 183:Generated_Source\PSoC4/I2C_MSTR_I2C.c **** 
 184:Generated_Source\PSoC4/I2C_MSTR_I2C.c **** #else
 185:Generated_Source\PSoC4/I2C_MSTR_I2C.c **** 
 186:Generated_Source\PSoC4/I2C_MSTR_I2C.c ****     /*******************************************************************************
 187:Generated_Source\PSoC4/I2C_MSTR_I2C.c ****     * Function Name: I2C_MSTR_I2CInit
 188:Generated_Source\PSoC4/I2C_MSTR_I2C.c ****     ****************************************************************************//**
 189:Generated_Source\PSoC4/I2C_MSTR_I2C.c ****     *
 190:Generated_Source\PSoC4/I2C_MSTR_I2C.c ****     *  Configures the SCB for the I2C operation.
 191:Generated_Source\PSoC4/I2C_MSTR_I2C.c ****     *
 192:Generated_Source\PSoC4/I2C_MSTR_I2C.c ****     *******************************************************************************/
 193:Generated_Source\PSoC4/I2C_MSTR_I2C.c ****     void I2C_MSTR_I2CInit(void)
 194:Generated_Source\PSoC4/I2C_MSTR_I2C.c ****     {
 347              		.loc 1 194 0
 348              		.cfi_startproc
 349              		@ args = 0, pretend = 0, frame = 0
 350              		@ frame_needed = 0, uses_anonymous_args = 0
 351 0000 10B5     		push	{r4, lr}
ARM GAS  e:\temp\ccimcEAa.s 			page 26


 352              		.cfi_def_cfa_offset 8
 353              		.cfi_offset 4, -8
 354              		.cfi_offset 14, -4
 195:Generated_Source\PSoC4/I2C_MSTR_I2C.c ****     #if(I2C_MSTR_CY_SCBIP_V0)
 196:Generated_Source\PSoC4/I2C_MSTR_I2C.c ****         /* Adjust SDA filter settings. Ticket ID#150521 */
 197:Generated_Source\PSoC4/I2C_MSTR_I2C.c ****         I2C_MSTR_SET_I2C_CFG_SDA_FILT_TRIM(I2C_MSTR_EC_AM_I2C_CFG_SDA_FILT_TRIM);
 198:Generated_Source\PSoC4/I2C_MSTR_I2C.c ****     #endif /* (I2C_MSTR_CY_SCBIP_V0) */
 199:Generated_Source\PSoC4/I2C_MSTR_I2C.c **** 
 200:Generated_Source\PSoC4/I2C_MSTR_I2C.c ****         /* Adjust AF and DF filter settings. Ticket ID#176179 */
 201:Generated_Source\PSoC4/I2C_MSTR_I2C.c ****         I2C_MSTR_I2C_CFG_ANALOG_FITER_ENABLE_ADJ;
 202:Generated_Source\PSoC4/I2C_MSTR_I2C.c **** 
 203:Generated_Source\PSoC4/I2C_MSTR_I2C.c ****         /* Configure I2C interface */
 204:Generated_Source\PSoC4/I2C_MSTR_I2C.c ****         I2C_MSTR_CTRL_REG     = I2C_MSTR_I2C_DEFAULT_CTRL;
 355              		.loc 1 204 0
 356 0002 0024     		movs	r4, #0
 201:Generated_Source\PSoC4/I2C_MSTR_I2C.c **** 
 357              		.loc 1 201 0
 358 0004 1B4A     		ldr	r2, .L2
 359 0006 1C4B     		ldr	r3, .L2+4
 360 0008 1168     		ldr	r1, [r2]
 205:Generated_Source\PSoC4/I2C_MSTR_I2C.c ****         I2C_MSTR_I2C_CTRL_REG = I2C_MSTR_I2C_DEFAULT_I2C_CTRL;
 206:Generated_Source\PSoC4/I2C_MSTR_I2C.c **** 
 207:Generated_Source\PSoC4/I2C_MSTR_I2C.c ****         /* Configure RX direction */
 208:Generated_Source\PSoC4/I2C_MSTR_I2C.c ****         I2C_MSTR_RX_CTRL_REG      = I2C_MSTR_I2C_DEFAULT_RX_CTRL;
 209:Generated_Source\PSoC4/I2C_MSTR_I2C.c ****         I2C_MSTR_RX_FIFO_CTRL_REG = I2C_MSTR_I2C_DEFAULT_RX_FIFO_CTRL;
 210:Generated_Source\PSoC4/I2C_MSTR_I2C.c **** 
 211:Generated_Source\PSoC4/I2C_MSTR_I2C.c ****         /* Set default address and mask */
 212:Generated_Source\PSoC4/I2C_MSTR_I2C.c ****         I2C_MSTR_RX_MATCH_REG     = I2C_MSTR_I2C_DEFAULT_RX_MATCH;
 213:Generated_Source\PSoC4/I2C_MSTR_I2C.c **** 
 214:Generated_Source\PSoC4/I2C_MSTR_I2C.c ****         /* Configure TX direction */
 215:Generated_Source\PSoC4/I2C_MSTR_I2C.c ****         I2C_MSTR_TX_CTRL_REG      = I2C_MSTR_I2C_DEFAULT_TX_CTRL;
 216:Generated_Source\PSoC4/I2C_MSTR_I2C.c ****         I2C_MSTR_TX_FIFO_CTRL_REG = I2C_MSTR_I2C_DEFAULT_TX_FIFO_CTRL;
 217:Generated_Source\PSoC4/I2C_MSTR_I2C.c **** 
 218:Generated_Source\PSoC4/I2C_MSTR_I2C.c ****         /* Configure interrupt with I2C handler but do not enable it */
 219:Generated_Source\PSoC4/I2C_MSTR_I2C.c ****         CyIntDisable    (I2C_MSTR_ISR_NUMBER);
 361              		.loc 1 219 0
 362 000a 0B20     		movs	r0, #11
 201:Generated_Source\PSoC4/I2C_MSTR_I2C.c **** 
 363              		.loc 1 201 0
 364 000c 0B40     		ands	r3, r1
 365 000e 1360     		str	r3, [r2]
 204:Generated_Source\PSoC4/I2C_MSTR_I2C.c ****         I2C_MSTR_I2C_CTRL_REG = I2C_MSTR_I2C_DEFAULT_I2C_CTRL;
 366              		.loc 1 204 0
 367 0010 1A4B     		ldr	r3, .L2+8
 205:Generated_Source\PSoC4/I2C_MSTR_I2C.c ****         I2C_MSTR_I2C_CTRL_REG = I2C_MSTR_I2C_DEFAULT_I2C_CTRL;
 368              		.loc 1 205 0
 369 0012 1B4A     		ldr	r2, .L2+12
 204:Generated_Source\PSoC4/I2C_MSTR_I2C.c ****         I2C_MSTR_I2C_CTRL_REG = I2C_MSTR_I2C_DEFAULT_I2C_CTRL;
 370              		.loc 1 204 0
 371 0014 1C60     		str	r4, [r3]
 205:Generated_Source\PSoC4/I2C_MSTR_I2C.c ****         I2C_MSTR_I2C_CTRL_REG = I2C_MSTR_I2C_DEFAULT_I2C_CTRL;
 372              		.loc 1 205 0
 373 0016 1B4B     		ldr	r3, .L2+16
 220:Generated_Source\PSoC4/I2C_MSTR_I2C.c ****         CyIntSetPriority(I2C_MSTR_ISR_NUMBER, I2C_MSTR_ISR_PRIORITY);
 221:Generated_Source\PSoC4/I2C_MSTR_I2C.c ****     #if(!I2C_MSTR_I2C_EXTERN_INTR_HANDLER)
 222:Generated_Source\PSoC4/I2C_MSTR_I2C.c ****         (void) CyIntSetVector(I2C_MSTR_ISR_NUMBER, &I2C_MSTR_I2C_ISR);
 223:Generated_Source\PSoC4/I2C_MSTR_I2C.c ****     #endif /* (I2C_MSTR_I2C_EXTERN_INTR_HANDLER) */
ARM GAS  e:\temp\ccimcEAa.s 			page 27


 224:Generated_Source\PSoC4/I2C_MSTR_I2C.c **** 
 225:Generated_Source\PSoC4/I2C_MSTR_I2C.c ****         /* Configure interrupt sources */
 226:Generated_Source\PSoC4/I2C_MSTR_I2C.c ****     #if(!I2C_MSTR_CY_SCBIP_V1)
 227:Generated_Source\PSoC4/I2C_MSTR_I2C.c ****         I2C_MSTR_INTR_SPI_EC_MASK_REG = I2C_MSTR_I2C_DEFAULT_INTR_SPI_EC_MASK;
 228:Generated_Source\PSoC4/I2C_MSTR_I2C.c ****     #endif /* (!I2C_MSTR_CY_SCBIP_V1) */
 229:Generated_Source\PSoC4/I2C_MSTR_I2C.c **** 
 230:Generated_Source\PSoC4/I2C_MSTR_I2C.c ****         I2C_MSTR_INTR_I2C_EC_MASK_REG = I2C_MSTR_I2C_DEFAULT_INTR_I2C_EC_MASK;
 231:Generated_Source\PSoC4/I2C_MSTR_I2C.c ****         I2C_MSTR_INTR_SLAVE_MASK_REG  = I2C_MSTR_I2C_DEFAULT_INTR_SLAVE_MASK;
 232:Generated_Source\PSoC4/I2C_MSTR_I2C.c ****         I2C_MSTR_INTR_MASTER_MASK_REG = I2C_MSTR_I2C_DEFAULT_INTR_MASTER_MASK;
 233:Generated_Source\PSoC4/I2C_MSTR_I2C.c ****         I2C_MSTR_INTR_RX_MASK_REG     = I2C_MSTR_I2C_DEFAULT_INTR_RX_MASK;
 234:Generated_Source\PSoC4/I2C_MSTR_I2C.c ****         I2C_MSTR_INTR_TX_MASK_REG     = I2C_MSTR_I2C_DEFAULT_INTR_TX_MASK;
 235:Generated_Source\PSoC4/I2C_MSTR_I2C.c **** 
 236:Generated_Source\PSoC4/I2C_MSTR_I2C.c ****         /* Configure global variables */
 237:Generated_Source\PSoC4/I2C_MSTR_I2C.c ****         I2C_MSTR_state = I2C_MSTR_I2C_FSM_IDLE;
 238:Generated_Source\PSoC4/I2C_MSTR_I2C.c **** 
 239:Generated_Source\PSoC4/I2C_MSTR_I2C.c ****     #if(I2C_MSTR_I2C_SLAVE)
 240:Generated_Source\PSoC4/I2C_MSTR_I2C.c ****         /* Internal slave variable */
 241:Generated_Source\PSoC4/I2C_MSTR_I2C.c ****         I2C_MSTR_slStatus        = 0u;
 242:Generated_Source\PSoC4/I2C_MSTR_I2C.c ****         I2C_MSTR_slRdBufIndex    = 0u;
 243:Generated_Source\PSoC4/I2C_MSTR_I2C.c ****         I2C_MSTR_slWrBufIndex    = 0u;
 244:Generated_Source\PSoC4/I2C_MSTR_I2C.c ****         I2C_MSTR_slOverFlowCount = 0u;
 245:Generated_Source\PSoC4/I2C_MSTR_I2C.c ****     #endif /* (I2C_MSTR_I2C_SLAVE) */
 246:Generated_Source\PSoC4/I2C_MSTR_I2C.c **** 
 247:Generated_Source\PSoC4/I2C_MSTR_I2C.c ****     #if(I2C_MSTR_I2C_MASTER)
 248:Generated_Source\PSoC4/I2C_MSTR_I2C.c ****     /* Internal master variable */
 249:Generated_Source\PSoC4/I2C_MSTR_I2C.c ****         I2C_MSTR_mstrStatus     = 0u;
 250:Generated_Source\PSoC4/I2C_MSTR_I2C.c ****         I2C_MSTR_mstrRdBufIndex = 0u;
 251:Generated_Source\PSoC4/I2C_MSTR_I2C.c ****         I2C_MSTR_mstrWrBufIndex = 0u;
 252:Generated_Source\PSoC4/I2C_MSTR_I2C.c ****     #endif /* (I2C_MSTR_I2C_MASTER) */
 253:Generated_Source\PSoC4/I2C_MSTR_I2C.c ****     }
 374              		.loc 1 253 0
 375              		@ sp needed
 205:Generated_Source\PSoC4/I2C_MSTR_I2C.c **** 
 376              		.loc 1 205 0
 377 0018 1A60     		str	r2, [r3]
 208:Generated_Source\PSoC4/I2C_MSTR_I2C.c ****         I2C_MSTR_RX_FIFO_CTRL_REG = I2C_MSTR_I2C_DEFAULT_RX_FIFO_CTRL;
 378              		.loc 1 208 0
 379 001a 1B4A     		ldr	r2, .L2+20
 380 001c 1B4B     		ldr	r3, .L2+24
 381 001e 1A60     		str	r2, [r3]
 209:Generated_Source\PSoC4/I2C_MSTR_I2C.c **** 
 382              		.loc 1 209 0
 383 0020 1B4B     		ldr	r3, .L2+28
 215:Generated_Source\PSoC4/I2C_MSTR_I2C.c ****         I2C_MSTR_TX_FIFO_CTRL_REG = I2C_MSTR_I2C_DEFAULT_TX_FIFO_CTRL;
 384              		.loc 1 215 0
 385 0022 1C4A     		ldr	r2, .L2+32
 209:Generated_Source\PSoC4/I2C_MSTR_I2C.c **** 
 386              		.loc 1 209 0
 387 0024 1C60     		str	r4, [r3]
 212:Generated_Source\PSoC4/I2C_MSTR_I2C.c **** 
 388              		.loc 1 212 0
 389 0026 1C4B     		ldr	r3, .L2+36
 390 0028 1C60     		str	r4, [r3]
 215:Generated_Source\PSoC4/I2C_MSTR_I2C.c ****         I2C_MSTR_TX_FIFO_CTRL_REG = I2C_MSTR_I2C_DEFAULT_TX_FIFO_CTRL;
 391              		.loc 1 215 0
 392 002a 1C4B     		ldr	r3, .L2+40
 393 002c 1A60     		str	r2, [r3]
ARM GAS  e:\temp\ccimcEAa.s 			page 28


 216:Generated_Source\PSoC4/I2C_MSTR_I2C.c **** 
 394              		.loc 1 216 0
 395 002e 1C4B     		ldr	r3, .L2+44
 396 0030 1C60     		str	r4, [r3]
 219:Generated_Source\PSoC4/I2C_MSTR_I2C.c ****         CyIntSetPriority(I2C_MSTR_ISR_NUMBER, I2C_MSTR_ISR_PRIORITY);
 397              		.loc 1 219 0
 398 0032 FFF7FEFF 		bl	CyIntDisable
 399              	.LVL0:
 220:Generated_Source\PSoC4/I2C_MSTR_I2C.c ****     #if(!I2C_MSTR_I2C_EXTERN_INTR_HANDLER)
 400              		.loc 1 220 0
 401 0036 0321     		movs	r1, #3
 402 0038 0B20     		movs	r0, #11
 403 003a FFF7FEFF 		bl	CyIntSetPriority
 404              	.LVL1:
 222:Generated_Source\PSoC4/I2C_MSTR_I2C.c ****     #endif /* (I2C_MSTR_I2C_EXTERN_INTR_HANDLER) */
 405              		.loc 1 222 0
 406 003e 1949     		ldr	r1, .L2+48
 407 0040 0B20     		movs	r0, #11
 408 0042 FFF7FEFF 		bl	CyIntSetVector
 409              	.LVL2:
 237:Generated_Source\PSoC4/I2C_MSTR_I2C.c **** 
 410              		.loc 1 237 0
 411 0046 1022     		movs	r2, #16
 227:Generated_Source\PSoC4/I2C_MSTR_I2C.c ****     #endif /* (!I2C_MSTR_CY_SCBIP_V1) */
 412              		.loc 1 227 0
 413 0048 174B     		ldr	r3, .L2+52
 414 004a 1C60     		str	r4, [r3]
 230:Generated_Source\PSoC4/I2C_MSTR_I2C.c ****         I2C_MSTR_INTR_SLAVE_MASK_REG  = I2C_MSTR_I2C_DEFAULT_INTR_SLAVE_MASK;
 415              		.loc 1 230 0
 416 004c 174B     		ldr	r3, .L2+56
 417 004e 1C60     		str	r4, [r3]
 231:Generated_Source\PSoC4/I2C_MSTR_I2C.c ****         I2C_MSTR_INTR_MASTER_MASK_REG = I2C_MSTR_I2C_DEFAULT_INTR_MASTER_MASK;
 418              		.loc 1 231 0
 419 0050 174B     		ldr	r3, .L2+60
 420 0052 1C60     		str	r4, [r3]
 232:Generated_Source\PSoC4/I2C_MSTR_I2C.c ****         I2C_MSTR_INTR_RX_MASK_REG     = I2C_MSTR_I2C_DEFAULT_INTR_RX_MASK;
 421              		.loc 1 232 0
 422 0054 174B     		ldr	r3, .L2+64
 423 0056 1C60     		str	r4, [r3]
 233:Generated_Source\PSoC4/I2C_MSTR_I2C.c ****         I2C_MSTR_INTR_TX_MASK_REG     = I2C_MSTR_I2C_DEFAULT_INTR_TX_MASK;
 424              		.loc 1 233 0
 425 0058 174B     		ldr	r3, .L2+68
 426 005a 1C60     		str	r4, [r3]
 234:Generated_Source\PSoC4/I2C_MSTR_I2C.c **** 
 427              		.loc 1 234 0
 428 005c 174B     		ldr	r3, .L2+72
 429 005e 1C60     		str	r4, [r3]
 237:Generated_Source\PSoC4/I2C_MSTR_I2C.c **** 
 430              		.loc 1 237 0
 431 0060 174B     		ldr	r3, .L2+76
 432 0062 1A70     		strb	r2, [r3]
 249:Generated_Source\PSoC4/I2C_MSTR_I2C.c ****         I2C_MSTR_mstrRdBufIndex = 0u;
 433              		.loc 1 249 0
 434 0064 174B     		ldr	r3, .L2+80
 435 0066 1C80     		strh	r4, [r3]
 250:Generated_Source\PSoC4/I2C_MSTR_I2C.c ****         I2C_MSTR_mstrWrBufIndex = 0u;
 436              		.loc 1 250 0
ARM GAS  e:\temp\ccimcEAa.s 			page 29


 437 0068 174B     		ldr	r3, .L2+84
 438 006a 1C60     		str	r4, [r3]
 251:Generated_Source\PSoC4/I2C_MSTR_I2C.c ****     #endif /* (I2C_MSTR_I2C_MASTER) */
 439              		.loc 1 251 0
 440 006c 174B     		ldr	r3, .L2+88
 441 006e 1C60     		str	r4, [r3]
 442              		.loc 1 253 0
 443 0070 10BD     		pop	{r4, pc}
 444              	.L3:
 445 0072 C046     		.align	2
 446              	.L2:
 447 0074 70000640 		.word	1074135152
 448 0078 EFEFFFFF 		.word	-4113
 449 007c 00000640 		.word	1074135040
 450 0080 96080080 		.word	-2147481450
 451 0084 60000640 		.word	1074135136
 452 0088 07030080 		.word	-2147482873
 453 008c 00030640 		.word	1074135808
 454 0090 04030640 		.word	1074135812
 455 0094 07010080 		.word	-2147483385
 456 0098 10030640 		.word	1074135824
 457 009c 00020640 		.word	1074135552
 458 00a0 04020640 		.word	1074135556
 459 00a4 00000000 		.word	I2C_MSTR_I2C_ISR
 460 00a8 C80E0640 		.word	1074138824
 461 00ac 880E0640 		.word	1074138760
 462 00b0 480F0640 		.word	1074138952
 463 00b4 080F0640 		.word	1074138888
 464 00b8 C80F0640 		.word	1074139080
 465 00bc 880F0640 		.word	1074139016
 466 00c0 00000000 		.word	I2C_MSTR_state
 467 00c4 00000000 		.word	I2C_MSTR_mstrStatus
 468 00c8 00000000 		.word	I2C_MSTR_mstrRdBufIndex
 469 00cc 00000000 		.word	I2C_MSTR_mstrWrBufIndex
 470              		.cfi_endproc
 471              	.LFE0:
 472              		.size	I2C_MSTR_I2CInit, .-I2C_MSTR_I2CInit
 473              		.section	.text.I2C_MSTR_I2CStop,"ax",%progbits
 474              		.align	1
 475              		.global	I2C_MSTR_I2CStop
 476              		.code	16
 477              		.thumb_func
 478              		.type	I2C_MSTR_I2CStop, %function
 479              	I2C_MSTR_I2CStop:
 480              	.LFB1:
 254:Generated_Source\PSoC4/I2C_MSTR_I2C.c **** #endif /* (I2C_MSTR_SCB_MODE_UNCONFIG_CONST_CFG) */
 255:Generated_Source\PSoC4/I2C_MSTR_I2C.c **** 
 256:Generated_Source\PSoC4/I2C_MSTR_I2C.c **** 
 257:Generated_Source\PSoC4/I2C_MSTR_I2C.c **** /*******************************************************************************
 258:Generated_Source\PSoC4/I2C_MSTR_I2C.c **** * Function Name: I2C_MSTR_I2CStop
 259:Generated_Source\PSoC4/I2C_MSTR_I2C.c **** ****************************************************************************//**
 260:Generated_Source\PSoC4/I2C_MSTR_I2C.c **** *
 261:Generated_Source\PSoC4/I2C_MSTR_I2C.c **** *  Resets the I2C FSM into the default state.
 262:Generated_Source\PSoC4/I2C_MSTR_I2C.c **** *
 263:Generated_Source\PSoC4/I2C_MSTR_I2C.c **** *******************************************************************************/
 264:Generated_Source\PSoC4/I2C_MSTR_I2C.c **** void I2C_MSTR_I2CStop(void)
 265:Generated_Source\PSoC4/I2C_MSTR_I2C.c **** {
ARM GAS  e:\temp\ccimcEAa.s 			page 30


 481              		.loc 1 265 0
 482              		.cfi_startproc
 483              		@ args = 0, pretend = 0, frame = 0
 484              		@ frame_needed = 0, uses_anonymous_args = 0
 485              		@ link register save eliminated.
 266:Generated_Source\PSoC4/I2C_MSTR_I2C.c ****     /* Clear command registers because they keep assigned value after IP block was disabled */
 267:Generated_Source\PSoC4/I2C_MSTR_I2C.c ****     I2C_MSTR_I2C_MASTER_CMD_REG = 0u;
 486              		.loc 1 267 0
 487 0000 0023     		movs	r3, #0
 488 0002 044A     		ldr	r2, .L5
 268:Generated_Source\PSoC4/I2C_MSTR_I2C.c ****     I2C_MSTR_I2C_SLAVE_CMD_REG  = 0u;
 269:Generated_Source\PSoC4/I2C_MSTR_I2C.c ****     
 270:Generated_Source\PSoC4/I2C_MSTR_I2C.c ****     I2C_MSTR_state = I2C_MSTR_I2C_FSM_IDLE;
 271:Generated_Source\PSoC4/I2C_MSTR_I2C.c **** }
 489              		.loc 1 271 0
 490              		@ sp needed
 267:Generated_Source\PSoC4/I2C_MSTR_I2C.c ****     I2C_MSTR_I2C_SLAVE_CMD_REG  = 0u;
 491              		.loc 1 267 0
 492 0004 1360     		str	r3, [r2]
 268:Generated_Source\PSoC4/I2C_MSTR_I2C.c ****     I2C_MSTR_I2C_SLAVE_CMD_REG  = 0u;
 493              		.loc 1 268 0
 494 0006 044A     		ldr	r2, .L5+4
 495 0008 1360     		str	r3, [r2]
 270:Generated_Source\PSoC4/I2C_MSTR_I2C.c **** }
 496              		.loc 1 270 0
 497 000a 1022     		movs	r2, #16
 498 000c 034B     		ldr	r3, .L5+8
 499 000e 1A70     		strb	r2, [r3]
 500              		.loc 1 271 0
 501 0010 7047     		bx	lr
 502              	.L6:
 503 0012 C046     		.align	2
 504              	.L5:
 505 0014 68000640 		.word	1074135144
 506 0018 6C000640 		.word	1074135148
 507 001c 00000000 		.word	I2C_MSTR_state
 508              		.cfi_endproc
 509              	.LFE1:
 510              		.size	I2C_MSTR_I2CStop, .-I2C_MSTR_I2CStop
 511              		.section	.text.I2C_MSTR_I2CFwBlockReset,"ax",%progbits
 512              		.align	1
 513              		.global	I2C_MSTR_I2CFwBlockReset
 514              		.code	16
 515              		.thumb_func
 516              		.type	I2C_MSTR_I2CFwBlockReset, %function
 517              	I2C_MSTR_I2CFwBlockReset:
 518              	.LFB2:
 272:Generated_Source\PSoC4/I2C_MSTR_I2C.c **** 
 273:Generated_Source\PSoC4/I2C_MSTR_I2C.c **** 
 274:Generated_Source\PSoC4/I2C_MSTR_I2C.c **** /*******************************************************************************
 275:Generated_Source\PSoC4/I2C_MSTR_I2C.c **** * Function Name: I2C_MSTR_I2CFwBlockReset
 276:Generated_Source\PSoC4/I2C_MSTR_I2C.c **** ****************************************************************************//**
 277:Generated_Source\PSoC4/I2C_MSTR_I2C.c **** *
 278:Generated_Source\PSoC4/I2C_MSTR_I2C.c **** * Resets the scb IP block and I2C into the known state.
 279:Generated_Source\PSoC4/I2C_MSTR_I2C.c **** *
 280:Generated_Source\PSoC4/I2C_MSTR_I2C.c **** *******************************************************************************/
 281:Generated_Source\PSoC4/I2C_MSTR_I2C.c **** void I2C_MSTR_I2CFwBlockReset(void)
ARM GAS  e:\temp\ccimcEAa.s 			page 31


 282:Generated_Source\PSoC4/I2C_MSTR_I2C.c **** {
 519              		.loc 1 282 0
 520              		.cfi_startproc
 521              		@ args = 0, pretend = 0, frame = 0
 522              		@ frame_needed = 0, uses_anonymous_args = 0
 523 0000 10B5     		push	{r4, lr}
 524              		.cfi_def_cfa_offset 8
 525              		.cfi_offset 4, -8
 526              		.cfi_offset 14, -4
 283:Generated_Source\PSoC4/I2C_MSTR_I2C.c ****     /* Disable scb IP: stop respond to I2C traffic */
 284:Generated_Source\PSoC4/I2C_MSTR_I2C.c ****     I2C_MSTR_CTRL_REG &= (uint32) ~I2C_MSTR_CTRL_ENABLED;
 527              		.loc 1 284 0
 528 0002 0E4A     		ldr	r2, .L8
 285:Generated_Source\PSoC4/I2C_MSTR_I2C.c **** 
 286:Generated_Source\PSoC4/I2C_MSTR_I2C.c ****     /* Clear command registers they are not cleared after scb IP is disabled */
 287:Generated_Source\PSoC4/I2C_MSTR_I2C.c ****     I2C_MSTR_I2C_MASTER_CMD_REG = 0u;
 529              		.loc 1 287 0
 530 0004 0E49     		ldr	r1, .L8+4
 284:Generated_Source\PSoC4/I2C_MSTR_I2C.c **** 
 531              		.loc 1 284 0
 532 0006 1368     		ldr	r3, [r2]
 288:Generated_Source\PSoC4/I2C_MSTR_I2C.c ****     I2C_MSTR_I2C_SLAVE_CMD_REG  = 0u;
 289:Generated_Source\PSoC4/I2C_MSTR_I2C.c **** 
 290:Generated_Source\PSoC4/I2C_MSTR_I2C.c ****     I2C_MSTR_DISABLE_AUTO_DATA;
 533              		.loc 1 290 0
 534 0008 0E48     		ldr	r0, .L8+8
 284:Generated_Source\PSoC4/I2C_MSTR_I2C.c **** 
 535              		.loc 1 284 0
 536 000a 5B00     		lsls	r3, r3, #1
 537 000c 5B08     		lsrs	r3, r3, #1
 538 000e 1360     		str	r3, [r2]
 287:Generated_Source\PSoC4/I2C_MSTR_I2C.c ****     I2C_MSTR_I2C_SLAVE_CMD_REG  = 0u;
 539              		.loc 1 287 0
 540 0010 0023     		movs	r3, #0
 541 0012 0B60     		str	r3, [r1]
 288:Generated_Source\PSoC4/I2C_MSTR_I2C.c ****     I2C_MSTR_I2C_SLAVE_CMD_REG  = 0u;
 542              		.loc 1 288 0
 543 0014 0C49     		ldr	r1, .L8+12
 291:Generated_Source\PSoC4/I2C_MSTR_I2C.c **** 
 292:Generated_Source\PSoC4/I2C_MSTR_I2C.c ****     I2C_MSTR_SetTxInterruptMode(I2C_MSTR_NO_INTR_SOURCES);
 293:Generated_Source\PSoC4/I2C_MSTR_I2C.c ****     I2C_MSTR_SetRxInterruptMode(I2C_MSTR_NO_INTR_SOURCES);
 294:Generated_Source\PSoC4/I2C_MSTR_I2C.c ****     
 295:Generated_Source\PSoC4/I2C_MSTR_I2C.c **** #if(I2C_MSTR_CY_SCBIP_V0)
 296:Generated_Source\PSoC4/I2C_MSTR_I2C.c ****     /* Clear interrupt sources as they are not cleared after scb IP is disabled */
 297:Generated_Source\PSoC4/I2C_MSTR_I2C.c ****     I2C_MSTR_ClearTxInterruptSource    (I2C_MSTR_INTR_TX_ALL);
 298:Generated_Source\PSoC4/I2C_MSTR_I2C.c ****     I2C_MSTR_ClearRxInterruptSource    (I2C_MSTR_INTR_RX_ALL);
 299:Generated_Source\PSoC4/I2C_MSTR_I2C.c ****     I2C_MSTR_ClearSlaveInterruptSource (I2C_MSTR_INTR_SLAVE_ALL);
 300:Generated_Source\PSoC4/I2C_MSTR_I2C.c ****     I2C_MSTR_ClearMasterInterruptSource(I2C_MSTR_INTR_MASTER_ALL);
 301:Generated_Source\PSoC4/I2C_MSTR_I2C.c **** #endif /* (I2C_MSTR_CY_SCBIP_V0) */
 302:Generated_Source\PSoC4/I2C_MSTR_I2C.c **** 
 303:Generated_Source\PSoC4/I2C_MSTR_I2C.c ****     I2C_MSTR_state = I2C_MSTR_I2C_FSM_IDLE;
 304:Generated_Source\PSoC4/I2C_MSTR_I2C.c **** 
 305:Generated_Source\PSoC4/I2C_MSTR_I2C.c ****     /* Enable scb IP: start respond to I2C traffic */
 306:Generated_Source\PSoC4/I2C_MSTR_I2C.c ****     I2C_MSTR_CTRL_REG |= (uint32) I2C_MSTR_CTRL_ENABLED;
 307:Generated_Source\PSoC4/I2C_MSTR_I2C.c **** }
 544              		.loc 1 307 0
 545              		@ sp needed
ARM GAS  e:\temp\ccimcEAa.s 			page 32


 288:Generated_Source\PSoC4/I2C_MSTR_I2C.c **** 
 546              		.loc 1 288 0
 547 0016 0B60     		str	r3, [r1]
 290:Generated_Source\PSoC4/I2C_MSTR_I2C.c **** 
 548              		.loc 1 290 0
 549 0018 0468     		ldr	r4, [r0]
 550 001a 0C49     		ldr	r1, .L8+16
 551 001c 2140     		ands	r1, r4
 552 001e 0160     		str	r1, [r0]
 292:Generated_Source\PSoC4/I2C_MSTR_I2C.c ****     I2C_MSTR_SetRxInterruptMode(I2C_MSTR_NO_INTR_SOURCES);
 553              		.loc 1 292 0
 554 0020 0B49     		ldr	r1, .L8+20
 555 0022 0B60     		str	r3, [r1]
 293:Generated_Source\PSoC4/I2C_MSTR_I2C.c ****     
 556              		.loc 1 293 0
 557 0024 0B49     		ldr	r1, .L8+24
 558 0026 0B60     		str	r3, [r1]
 303:Generated_Source\PSoC4/I2C_MSTR_I2C.c **** 
 559              		.loc 1 303 0
 560 0028 1021     		movs	r1, #16
 561 002a 0B4B     		ldr	r3, .L8+28
 562 002c 1970     		strb	r1, [r3]
 306:Generated_Source\PSoC4/I2C_MSTR_I2C.c **** }
 563              		.loc 1 306 0
 564 002e 8021     		movs	r1, #128
 565 0030 1368     		ldr	r3, [r2]
 566 0032 0906     		lsls	r1, r1, #24
 567 0034 0B43     		orrs	r3, r1
 568 0036 1360     		str	r3, [r2]
 569              		.loc 1 307 0
 570 0038 10BD     		pop	{r4, pc}
 571              	.L9:
 572 003a C046     		.align	2
 573              	.L8:
 574 003c 00000640 		.word	1074135040
 575 0040 68000640 		.word	1074135144
 576 0044 60000640 		.word	1074135136
 577 0048 6C000640 		.word	1074135148
 578 004c FF5CFFFF 		.word	-41729
 579 0050 880F0640 		.word	1074139016
 580 0054 C80F0640 		.word	1074139080
 581 0058 00000000 		.word	I2C_MSTR_state
 582              		.cfi_endproc
 583              	.LFE2:
 584              		.size	I2C_MSTR_I2CFwBlockReset, .-I2C_MSTR_I2CFwBlockReset
 585              		.comm	I2C_MSTR_state,1,1
 586              		.text
 587              	.Letext0:
 588              		.file 2 "Generated_Source\\PSoC4/cytypes.h"
 589              		.file 3 "Generated_Source\\PSoC4\\I2C_MSTR_I2C_PVT.h"
 590              		.file 4 "Generated_Source\\PSoC4/CyLib.h"