ARM GAS  e:\temp\cc6qBBth.s 			page 1


   1              		.syntax unified
   2              		.cpu cortex-m0
   3              		.fpu softvfp
   4              		.eabi_attribute 20, 1
   5              		.eabi_attribute 21, 1
   6              		.eabi_attribute 23, 3
   7              		.eabi_attribute 24, 1
   8              		.eabi_attribute 25, 1
   9              		.eabi_attribute 26, 1
  10              		.eabi_attribute 30, 4
  11              		.eabi_attribute 34, 0
  12              		.eabi_attribute 18, 4
  13              		.thumb
  14              		.syntax unified
  15              		.file	"instrumentation.c"
  16              		.text
  17              	.Ltext0:
  18              		.section	.gnu.lto_.profile.62405383,"",%progbits
  19 0000 789C6361 		.ascii	"x\234ca`d`a`\000\222\331\006\000\001p\000\246"
  19      60646061 
  19      600092D9 
  19      06000170 
  19      00A6
  20              		.text
  21              		.section	.gnu.lto_.icf.62405383,"",%progbits
  22 0000 789C6361 		.ascii	"x\234ca`d\000\0015\006\004`c\270|\177\357\001&\246\305"
  22      60640001 
  22      35060460 
  22      63B87C7F 
  22      EF0126A6 
  23 0015 9F3BBEF2 		.ascii	"\237;\276\3623_\351\354\376\300\3176\367\306\265Ff\366"
  23      335FE9EC 
  23      FEC0CF36 
  23      F7C6B546 
  23      66F6
  24 0027 C7FF376E 		.ascii	"\307\3777n\341\347xqb\375_\016\006\000tJ\023\017"
  24      E1E77871 
  24      62FD5F0E 
  24      0600744A 
  24      130F
  25              		.text
  26              		.section	.gnu.lto_.jmpfuncs.62405383,"",%progbits
  27 0000 789C6361 		.ascii	"x\234ca`d\000\201m\014\010\300\312\300\304\010\022\345"
  27      60640081 
  27      6D0C08C0 
  27      CAC0C408 
  27      12E5
  28 0012 60FCCBC4 		.ascii	"`\374\313\3048\255\365\320y\366/L\255\314@\205\214\313"
  28      38ADF5D0 
  28      79F62F4C 
  28      ADCC4085 
  28      8CCB
  29 0024 19651818 		.ascii	"\031e\030\030@\242\257\366<>\303\014\022ed\274\300\310"
  29      40A2AFF6 
  29      3C3EC30C 
  29      126564BC 
  29      C0C8
ARM GAS  e:\temp\cc6qBBth.s 			page 2


  30 0036 B80226DC 		.ascii	"\270\002&\3342\373c3/H\230\211\361\035+\343J\230\360"
  30      32FB6333 
  30      2F489889 
  30      F11D2BE3 
  30      4A98F0
  31 0049 CE9D6F6E 		.ascii	"\316\235on\263\327\377m\350hh\020hef\376\317\0044\234"
  31      B3D7FF6D 
  31      E8686810 
  31      686566FE 
  31      CF04349C 
  32 005d 7115633D 		.ascii	"q\025c=\220bf`\000\361@\230\015d#\324\012\250\221\004"
  32      90626660 
  32      00F14098 
  32      0D6423D4 
  32      0AA89104 
  33 0071 8C580D32 		.ascii	"\214X\0152\202\035\250\015\344j\000C\242,\243"
  33      821DA80D 
  33      E46A0043 
  33      A22CA3
  34              		.text
  35              		.section	.gnu.lto_.inline.62405383,"",%progbits
  36 0000 789C6361 		.ascii	"x\234ca`d\000\201n\006\004`e`\020\224cd`\0228R\310\300"
  36      60640081 
  36      6E060460 
  36      65601094 
  36      63646012 
  37 0018 B6409E09 		.ascii	"\266@\236\011,\306\307\300\300\002b0r\001\011f\006q"
  37      2CC6C7C0 
  37      C0026230 
  37      72010966 
  37      0671
  38 002a 15A00285 		.ascii	"\025\240\002\2053\373\030\341*\230\270\201\222\023\374"
  38      33FB18E1 
  38      2A98B881 
  38      9213FC
  39 0039 A0141B03 		.ascii	"\240\024\033\003\207\000P\005P\034\303\004v\006\026"
  39      87005005 
  39      501CC304 
  39      760616
  40 0048 66A014D3 		.ascii	"f\240\024\323\005~\270\034\007\003\033\037P\210e\201"
  40      057EB81C 
  40      07031B1F 
  40      50886581 
  41 0058 3C5C086C 		.ascii	"<\\\010l\017\003\000\251(\013\355"
  41      0F0300A9 
  41      280BED
  42              		.text
  43              		.section	.gnu.lto_.pureconst.62405383,"",%progbits
  44 0000 789C6361 		.ascii	"x\234ca`d\340f```e\220b\226b\223`\227\342\220\002\000"
  44      6064E066 
  44      60606065 
  44      90629662 
  44      936097E2 
  45 0017 043400AE 		.ascii	"\0044\000\256"
  46              		.text
  47              		.section	.gnu.lto_watchdog_timer_cb.62405383,"",%progbits
  48 0000 789C9552 		.ascii	"x\234\225R\315KTQ\024\277\277{\337\2747\315\207\264"
ARM GAS  e:\temp\cc6qBBth.s 			page 3


  48      CD4B5451 
  48      14BFBF7B 
  48      DFBC37CD 
  48      87B4
  49 0012 6839508B 		.ascii	"h9P\213hp#J\376\017\355[\273)k\341\302\231\320i=w\276"
  49      6870234A 
  49      FE0FED5B 
  49      BB296BE1 
  49      C299D069 
  50 0029 32C1C2A8 		.ascii	"2\301\302\250\246\205\211\253\320>m,\315)\233\236S\344"
  50      A68589AB 
  50      D03E6D2C 
  50      CD299B9E 
  50      53E4
  51 003b 46548A20 		.ascii	"FT\212 \220l\322\0201)\007\214(\260\351\234\373&1r\343"
  51      906CD210 
  51      3129078C 
  51      28B0E99C 
  51      FB263172 
  52 0050 8577DFE5 		.ascii	"\205w\337\345\367\316\357\343\236w,\001\301\353\232"
  52      F7CEEFE3 
  52      9E772C01 
  52      C1EB9A
  53 005f 12E218BD 		.ascii	"\022\342\030\275[\351\201O@\366\317\011\221\362K\251"
  53      5BE9814F 
  53      40F6CF09 
  53      91F24BA9 
  54 006f 4A2D4207 		.ascii	"J-B\007\2547\021\241C\012\226\007[\000\037\264\037\""
  54      AC3711A1 
  54      430A9607 
  54      5B001FB4 
  54      1F22
  55 0081 29958524 		.ascii	")\225\205$\276\313m\211r\317jQ6\016kZ\225\334\227f="
  55      BECB6D89 
  55      72CF6A51 
  55      360E6B5A 
  55      95DC9766 
  56 0096 E22247BA 		.ascii	"\342\"G\2725i,\004\206\321HU/\347j\223\001u\030\202"
  56      35692C04 
  56      86D14855 
  56      2FE76A93 
  56      01751882 
  57 00aa CEBD53DF 		.ascii	"\316\275S\337~\006\243\267\264Nkw\361u\303\015\315\014"
  57      7E06A3B7 
  57      B44E6B77 
  57      F175C30D 
  57      CD0C
  58 00bc 60048A48 		.ascii	"`\004\212H8\036AsD\020 p\033Q*\237\030\276\264\256\324"
  58      381E4173 
  58      44102070 
  58      1B512A9F 
  58      18BEB4AE 
  59 00d1 51432D2F 		.ascii	"QC-/\274\375\025\256S?\\8\344Q%\356\374K\245\343]D\271"
  59      BCFD15AE 
  59      533F5C38 
  59      E45125EE 
  59      FC4BA5E3 
ARM GAS  e:\temp\cc6qBBth.s 			page 4


  60 00e8 7EB9F0FB 		.ascii	"~\271\360\373z\330\316r\270#^$\334\203\315\267\037="
  60      7AD8CE72 
  60      B8235E24 
  60      DC83CDB7 
  60      1F3D
  61 00fa E9EA5A2D 		.ascii	"\351\352Z-\243\335\217\366\364M'\250\210\246,\336l\336"
  61      A3DD8FF6 
  61      F44D27A8 
  61      88A62CDE 
  61      6CDE
  62 010c 1CDA2C21 		.ascii	"\034\332,!6\211\301w\256J\311o\265\212r\276\260T\360"
  62      3689C177 
  62      AE4AC96F 
  62      B58A72BE 
  62      B054F0
  63 011f B1484629 		.ascii	"\261HF)2\310\347\312\363\316\226\314)\237\311W,n,:\311"
  63      32C8E7CA 
  63      F3CE96CC 
  63      299FC957 
  63      2C6E2C3A 
  64 0134 6D7D51EB 		.ascii	"m}Q\353\203\204\365R#\030\336\310.\317\005\2070\230"
  64      8384F552 
  64      2318DEC8 
  64      2ECF0587 
  64      3098
  65 0146 D229C66D 		.ascii	"\322)\306m<\240\356\335G\204\342\214b\010b\025\231\274"
  65      3CA0EEDD 
  65      4784E28C 
  65      62086215 
  65      99BC
  66 0158 ED895A9E 		.ascii	"\355\211Z\236\356x\317l!\300\2726\200\207T\311\326\340"
  66      EE78CF6C 
  66      21C0BA36 
  66      808754C9 
  66      D6E0
  67 016a 927DB814 		.ascii	"\222}\270\024v\\\306\310\205\264\215Ju)\345x^\373\321"
  67      765CC6C8 
  67      85B48D4A 
  67      7529E578 
  67      5EFBD1
  68 017d 7AB4A3F5 		.ascii	"z\264\243\365\230\023\177B\366}\346t]\306\004\344U\225"
  68      98137F42 
  68      F67DE674 
  68      5DC604E4 
  68      5595
  69 018f 4A945AA8 		.ascii	"J\224Z\250M\351|\341\363\225\272\213\263\273M\316\036"
  69      4DE97CE1 
  69      F395BA8B 
  69      B3BB4DCE 
  69      1E
  70 01a0 6D727AE9 		.ascii	"mrz\351g3\274>\373\356U\300\230\032\334\302\004\231"
  70      6733BC3E 
  70      FBEE55C0 
  70      981ADCC2 
  70      0499
  71 01b2 8E1BD327 		.ascii	"\216\033\323'^\233\322[\225\326z\023\246+c\325 KZ\260"
  71      5E9BD25B 
ARM GAS  e:\temp\cc6qBBth.s 			page 5


  71      95D67A13 
  71      A62B63D5 
  71      204B5AB0 
  72 01c6 784AB6B7 		.ascii	"xJ\266\267.\253:Ww\323\357\363\2233&\015\271Hd*Y\351"
  72      2EAB3A57 
  72      77D3EFF3 
  72      9333260D 
  72      B948642A 
  73 01dc FF316F33 		.ascii	"\3771o3\303\217\276J\237\016\341)}]C\306\275:\023b\321"
  73      C38FBE4A 
  73      9F0EE129 
  73      7D5D43C6 
  73      BD3A1362 
  74 01f1 FF931DA8 		.ascii	"\377\223\035\250IJ\206gH\222`\300\\\3202\203\260\206"
  74      494A8667 
  74      489260C0 
  74      5CD03283 
  74      B086
  75 0203 1E776046 		.ascii	"\036w`F\356\315\012\326h\\\004\246\210\265\373\352\240"
  75      EECD0AD6 
  75      685C04A6 
  75      88B5FBEA 
  75      A0
  76 0214 897E8E08 		.ascii	"\211~\216\010\337sjeV1$\261\000\224\014\226\035\250"
  76      DF736A65 
  76      563124B1 
  76      00940C96 
  76      1DA8
  77 0226 66C28C85 		.ascii	"f\302\214\205\360\325\207\027\006\373+\353\317\2510"
  77      F0D58717 
  77      06FB2BEB 
  77      CFA930
  78 0235 CF37BBC1 		.ascii	"\3177\273\301E2\247\032\304:\322\356\340\011\003\361"
  78      4532A71A 
  78      C43AD2EE 
  78      E00903F1 
  79 0245 DAA4A014 		.ascii	"\332\244\240\024\214|#MMm\355\361\316\316x\254\255#"
  79      8C7C234D 
  79      4D6DEDF1 
  79      CECE78AC 
  79      AD23
  80 0257 D69DE83A 		.ascii	"\326\235\350:\337y6\2268\225\350\210\307\232\332\205"
  80      DF793696 
  80      3895E888 
  80      C79ADA85 
  81 0267 752EDE95 		.ascii	"u.\336\225\220\035g\376\000\217\333K\311"
  81      901D67FE 
  81      008FDB4B 
  81      C9
  82              		.text
  83              		.section	.gnu.lto_instrumentation_init.62405383,"",%progbits
  84 0000 789C9554 		.ascii	"x\234\225T\335OTG\024\2373s\277\334\017\026\023m\372"
  84      DD4F5447 
  84      149F3373 
  84      BFDC0F16 
  84      136DFA
  85 0013 402C2F9A 		.ascii	"@,/\232\370\202>\372?\364\315\247>\220\030\213}\360"
ARM GAS  e:\temp\cc6qBBth.s 			page 6


  85      F8823EFA 
  85      3FF4CDA7 
  85      3E90188B 
  85      7DF0
  86 0025 81C5501A 		.ascii	"\201\305P\032\233\2760\260\273]!\304\222&\245\301`h"
  86      9BBE30B0 
  86      BB5D21C4 
  86      9226A5C1 
  86      6068
  87 0037 1523BA2A 		.ascii	"\025#\272*\254V\353Z\255\227-\225\026\020$J\251\225"
  87      AC56EB5A 
  87      AD972D95 
  87      1610244A 
  87      A995
  88 0049 B6B05834 		.ascii	"\266\260X4\206\342.\001-*\254\347\314,\313\226V\203"
  88      86E22E01 
  88      2D2AACE7 
  88      CC2CCB96 
  88      5683
  89 005b 37D9BD33 		.ascii	"7\331\2753\347\316\374>\31693\006\003F\317\001\213\261"
  89      E7CEFC3E 
  89      CE393306 
  89      0346CF01 
  89      8BB1
  90 006d 6DF82EC7 		.ascii	"m\370.\307\0378\014x\363\020cu\016\347\"\275\231I\217"
  90      1F380C78 
  90      F3106375 
  90      0EE722BD 
  90      99498F
  91 0080 F9D52E26 		.ascii	"\371\325.&}\202\033\0053\003L\275\310\344\326\235\035"
  91      7D821B05 
  91      33034CBD 
  91      C8E4D69D 
  91      1D
  92 0091 18B6AF6E 		.ascii	"\030\266\257n\301\260\005\266\016\333\0004\220\016\260"
  92      C1B005B6 
  92      0EDB0034 
  92      900EB0
  93 00a0 5A2E0CD3 		.ascii	"Z.\014\323\262\241\026\026\370\022\207dt:\301\267\237"
  93      B2A11616 
  93      F8128764 
  93      743AC1B7 
  93      9F
  94 00b1 94F84CFC 		.ascii	"\224\370L\374\265\274Sv\272\020\021\214e\271\222\302"
  94      B5BC5376 
  94      BA10118C 
  94      65B992C2 
  95 00c1 E0246C67 		.ascii	"\340$lg\270l$\334\335&\346yD\000\0308\315\334<2UDS\016"
  95      B86C24DC 
  95      DD26E679 
  95      44001838 
  95      CDDC3C32 
  96 00d9 A5387D31 		.ascii	"\2458}1ww\240H\274\003\264\262\355\361\237\033\267\036"
  96      7777A048 
  96      BC03B4B2 
  96      EDF19F1B 
  96      B71E
ARM GAS  e:\temp\cc6qBBth.s 			page 7


  97 00eb 97B25EBA 		.ascii	"\227\262^\272\317\243\201V\351\206K#B\300i\020\210\011"
  97      CFA38156 
  97      E9864B23 
  97      42C06910 
  97      8809
  98 00fd A7A0043A 		.ascii	"\247\240\004:\241Da\343\342T|\371\013\277\025&\366R"
  98      A14461E3 
  98      E2547CF9 
  98      0BBF1526 
  98      F652
  99 010f 88C156CD 		.ascii	"\210\301V\315\013g\300\302T\000E\272v\2732\233\015I"
  99      0B67C0C2 
  99      540045BA 
  99      76BB329B 
  99      0D49
 100 0121 77D1EE49 		.ascii	"w\321\356I{7\002\243 W\377&\213\010\303RC\233\206\216"
 100      7B3702A3 
 100      2057FF26 
 100      8B08C352 
 100      439B868E 
 101 0135 1AFA7168 		.ascii	"\032\372qh\006\360\017\263\230F4\362\235\341\234\336"
 101      06F00FB3 
 101      984634F2 
 101      9DE19CDE 
 102 0145 2205F524 		.ascii	"\"\005\365$J\341\343R\024\320\022I\016\333dD \362Y\024"
 102      4AE1E352 
 102      14D01249 
 102      0EDB6444 
 102      20F25914 
 103 0159 360DF5CF 		.ascii	"6\015\365\317\242\277\304\312iM\341w[\231K$f\356\331"
 103      A2BFC4CA 
 103      694DE177 
 103      5B994B24 
 103      66EED9
 104 016c B54BF290 		.ascii	"\265K\362\220\224\305\030k\020\332\306\243\301\321^"
 104      94C5186B 
 104      10DAC6A3 
 104      C1D15E
 105 017b 4F3B1CAD 		.ascii	"O;\034\255\223*\356@\027\246\367\034\331\204nh\007\\"
 105      932AEE40 
 105      17A6F71C 
 105      D9846E68 
 105      075C
 106 018d D1359358 		.ascii	"\3215\223X\364\023\316\006\205\363\374F\333\341@\036"
 106      F413CE06 
 106      85F3FC46 
 106      DBE1401E 
 107 019d 674303B2 		.ascii	"gC\003\262S\270\267o\266\315\267\212\343\201\363\210"
 107      53B8B76F 
 107      B6CDB78A 
 107      E381F388 
 108 01ad 13271CFC 		.ascii	"\023'\034\374\370\371\261\326\270W\357\221\255@H\027"
 108      F8F9B1D6 
 108      B857EF91 
 108      AD404817 
 109 01bd 101B29BE 		.ascii	"\020\033)\276\201Z%\273\361\217X5\311\016\011\263P\271"
 109      815A25BB 
ARM GAS  e:\temp\cc6qBBth.s 			page 8


 109      F18F5835 
 109      C90E09B3 
 109      50B9
 110 01cf B396D15D 		.ascii	"\263\226\321]h\334V@:u\245\261\323\312\221\272O\373"
 110      68DC5640 
 110      3A75A5B1 
 110      D3CA91BA 
 110      4FFB
 111 01e1 4B1825E3 		.ascii	"K\030%\343\022\022_T\006\276%\222I\010\377\026z\177"
 111      12125F54 
 111      06BE2592 
 111      4908FF16 
 111      7A7F
 112 01f3 15FC4C68 		.ascii	"\025\374Lht\024\010\334\200\307K\227\026\374p9W\323"
 112      741408DC 
 112      80C74B97 
 112      16FC7039 
 112      57D3
 113 0205 0C172CBD 		.ascii	"\014\027,\275Y(9\263\261\335z\007%\262\361\331\330a"
 113      592839B3 
 113      B1DD7A07 
 113      25B2F1D9 
 113      D861
 114 0217 47CB715E 		.ascii	"G\313q^+\347\364d\363\375\202\034\010\270\202R\022J"
 114      2BE7F464 
 114      F3FD821C 
 114      08B88252 
 114      124A
 115 0229 CA772445 		.ascii	"\312w$E\325\260\177\323J\015\021]\233\177\022\373D\263"
 115      D5B07FD3 
 115      4A0D115D 
 115      9B7F12FB 
 115      44B3
 116 023b D908D233 		.ascii	"\331\010\3223q>\343\325l\306k\331:\232\026\377\261W"
 116      713EE3D5 
 116      6CC66BD9 
 116      3A9A16FF 
 116      B157
 117 024d CC2FF56F 		.ascii	"\314/\365oQ\346\257!\343U\305\370}\336|\365*\370\241"
 117      51E6AF21 
 117      E355C5F8 
 117      7DDE7CF5 
 117      2AF8A1
 118 0260 CFBE6ECA 		.ascii	"\317\276n\312\231o\232h\222>\270\2367o\260f\013\315"
 118      996F9A68 
 118      923EB89E 
 118      376FB066 
 118      0BCD
 119 0272 875A3E5D 		.ascii	"\207Z>]\216\275\247w8\332\377\305\350`\334\243\033\015"
 119      8EBDA777 
 119      38DAFFC5 
 119      E860DCA3 
 119      1B0D
 120 0284 C0C50D29 		.ascii	"\300\305\015)\340\253\036\034\265\333\\i\322b\246\303"
 120      E0AB1E1C 
 120      B5DB5C69 
 120      D262A6C3 
ARM GAS  e:\temp\cc6qBBth.s 			page 9


 121 0294 40D6E6BB 		.ascii	"@\326\346\273\037\314ys\355\270\316*\036\035xK\031\351"
 121      1FCC7973 
 121      EDB8CE2A 
 121      1E1D784B 
 121      19E9
 122 02a6 C95731A9 		.ascii	"\311W1\251\333\360r_\352\270\320*t\335~\320-?\237^\017"
 122      DBF0725F 
 122      EAB8D02A 
 122      74DD7ED0 
 122      2D3F9F5E 
 123 02bb C7BF92D5 		.ascii	"\307\277\222\325\236\343\350\315'\353G\344X9C-\361\231"
 123      9EE3E8CD 
 123      27EB47E4 
 123      5839432D 
 123      F199
 124 02cd 750016D6 		.ascii	"u\000\026\326\332\215\347\000o\344\353\335\207\200:"
 124      DA8DE700 
 124      6FE4EBDD 
 124      87803A
 125 02dc 09C9F9E6 		.ascii	"\011\311\371\346\277\371\332#\351\375\237#\351m\020"
 125      BFF9DA23 
 125      E9FD9F23 
 125      E96D10
 126 02eb 5C41CF84 		.ascii	"\\A\317\204SC^\005]Gq\037\374\214\260?)\330~\235\213"
 126      53435E05 
 126      5D47711F 
 126      FC8CB03F 
 126      29D87E9D 
 127 0300 E991135D 		.ascii	"\351\221\023]\026\341\370`\334\013\003Jw\262%3\233k"
 127      16E1F860 
 127      DC0B034A 
 127      77B22533 
 127      9B6B
 128 0312 5AFF1B60 		.ascii	"Z\377\033`\017\346\261oR\303<\004\2030\376\253\316\237"
 128      0FE6B16F 
 128      52C33C04 
 128      8330FEAB 
 128      CE9F
 129 0324 E5746087 		.ascii	"\345t`\207\360\300\"AD\024Qo\375\032\272\360\345\333"
 129      F0C02241 
 129      4414516F 
 129      FD1ABAF0 
 129      E5DB
 130 0336 9A53DD14 		.ascii	"\232S\335\024\221\373\247\034\335]Y\200a\335Zs\2402"
 130      91FBA71C 
 130      DD5D5980 
 130      61DD5A73 
 130      A032
 131 0348 CBC7AF7F 		.ascii	"\313\307\257\177\214\355$\306\307:01\216\361b\254\033"
 131      8CED24C6 
 131      C73A3031 
 131      8EF162AC 
 131      1B
 132 0359 B06F2C76 		.ascii	"\260o,vg\207\272\333\356\015l*\270\333n\207z\207s\305"
 132      6787BADB 
 132      EE0D6C2A 
 132      B8DB6E87 
ARM GAS  e:\temp\cc6qBBth.s 			page 10


 132      7A8773C5 
 133 036d 46A45B0A 		.ascii	"F\244[\012)\303\355\265M\306\251^s\321'\347<ZD\200B"
 133      29C3EDB5 
 133      4DC6A95E 
 133      73D127E7 
 133      3C5A4480 
 134 0382 AFB410C8 		.ascii	"\257\264\020\310\342]\312`DY\010DD1{\204\304\231w\325"
 134      E25DCA60 
 134      44590844 
 134      44317B84 
 134      C49977D5 
 135 0396 6AA594A3 		.ascii	"j\245\224\243\017S\361Y\343\277w\000^\302@\224\270\253"
 135      0F53F159 
 135      E3BF7700 
 135      5EC24094 
 135      B8AB
 136 03a8 A4ACACBC 		.ascii	"\244\254\254\274\242\252\262\262*X\276?\370aM\365G\225"
 136      A2AAB2B2 
 136      2A58BE3F 
 136      F8614DF5 
 136      4795
 137 03ba 1F046BF6 		.ascii	"\037\004k\366\326\354\257\012\226U0\373\340\276\352"
 137      D6ECAF0A 
 137      965530FB 
 137      E0BEEA
 138 03c9 3D15C19A 		.ascii	"=\025\301\232\2277\372[\214"
 138      9737FA5B 
 138      8C
 139              		.text
 140              		.section	.gnu.lto_instrumentation_start.62405383,"",%progbits
 141 0000 789C358E 		.ascii	"x\2345\216?K\303`\020\306\337\347\3366\015H\305\335"
 141      3F4BC360 
 141      10C6DFE7 
 141      DE360D48 
 141      C5DD
 142 0012 22AE5D02 		.ascii	"\"\256]\002~\021\007\347.R\034:$\001\215s^m_\352X\007"
 142      7E1107E7 
 142      2E521C3A 
 142      24018D73 
 142      5E6D5FEA 
 143 0028 5DFC00AD 		.ascii	"]\374\000\255\377\020\307\200H,tR\324\335E\024D\212"
 143      FF10C780 
 143      482C7452 
 143      D4DD4514 
 143      448A
 144 003a 480B8A53 		.ascii	"H\013\212S\215w\011>\313\035\277{\356\271+)(\021\270"
 144      8D77093E 
 144      CB1DBF7B 
 144      EEB92B29 
 144      2811B8
 145 004d 2C715D94 		.ascii	",q]\224^+P\357^\251\035\227\000i\214\013\025\023b|\323"
 145      5E2B50EF 
 145      5EA91D97 
 145      00698C0B 
 145      1513627C 
 146 0062 8C30ECBE 		.ascii	"\2140\354\276%T\357\033\326\363\350z\305\014RX\255T"
 146      2554EF1B 
ARM GAS  e:\temp\cc6qBBth.s 			page 11


 146      D6F3E87A 
 146      C50C5258 
 146      AD54
 147 0074 46AA88EA 		.ascii	"F\252\210\352\243\256\330\366r\371{Pu:b[.\206\030\300"
 147      A3AED8F6 
 147      72F97B50 
 147      753A625B 
 147      2E8618C0 
 148 0088 9173176B 		.ascii	"\221s\027k\251\311\262\266I\177\346nz\363\274:\341\251"
 148      A9C9B2B6 
 148      497FE66E 
 148      7AF3BC3A 
 148      E1A9
 149 009a DC991249 		.ascii	"\334\231\022I\325\357\350\246\263[\022\277$%\311\307"
 149      D5EFE8A6 
 149      B35B12BF 
 149      2425C9C7 
 150 00aa 53259E99 		.ascii	"S%\236\231=c\026\254FF\034\202c\3042;\264\303\207\312"
 150      3D6316AC 
 150      46461C82 
 150      63C4323B 
 150      B4C387CA 
 151 00be 1759CD10 		.ascii	"\027Y\315\020'\2501\032_\275\336iA\032\217\300i\316"
 151      27A8311A 
 151      5FBDDE69 
 151      411A8FC0 
 151      69CE
 152 00d0 3A47D376 		.ascii	":G\323vUX\011\237e\234\345\354?\326\265\272\234Qq\015"
 152      5558099F 
 152      659CE5EC 
 152      3FD6B5BA 
 152      9C51710D 
 153 00e4 E788AD76 		.ascii	"\347\210\255v\324\030\273\351\376j\216D\023N\347\307"
 153      D418BBE9 
 153      FE6A8E44 
 153      134EE7C7 
 154 00f4 F8CD9AE7 		.ascii	"\370\315\232\3475\232\241\357\207A\243\025lE\233\333"
 154      359AA1EF 
 154      8741A315 
 154      6C459BDB 
 155 0104 FE4610AD 		.ascii	"\376F\020\255G\2550\360\232\352\017\270\234g\320"
 155      47AD30F0 
 155      9AEA0FB8 
 155      9C67D0
 156              		.text
 157              		.section	.gnu.lto_instrumentation_task.62405383,"",%progbits
 158 0000 789C4D4E 		.ascii	"x\234MN=K\303P\024\275\347F\333\202\370\261[\212k\227"
 158      3D4BC350 
 158      14BDE746 
 158      DB82F8B1 
 158      5B8A6B97 
 159 0014 80BF4470 		.ascii	"\200\277Dp\356\"\305\241C\022\320t\316KmP7\027u\222"
 159      EE22C5A1 
 159      4312D074 
 159      CE4B6D50 
 159      37177592 
 160 0028 8EAD1F20 		.ascii	"\216\255\037 nf\213\021G\353\017\350R2T\220\016)\324"
ARM GAS  e:\temp\cc6qBBth.s 			page 12


 160      6E668B11 
 160      47EB0FE8 
 160      52325490 
 160      0E29D4
 161 003b B1C67BEB 		.ascii	"\261\306{\353\342\205\303{\234s\3579g\205@:\237\202"
 161      E285C37B 
 161      9C73EF39 
 161      6785403A 
 161      9F82
 162 004d 9A605B00 		.ascii	"\232`[\000\213\300\027C\242\260\302\200~L\005\0240\002"
 162      8BC01743 
 162      A2B0C280 
 162      7E4C0514 
 162      3002
 163 005f 7CF38291 		.ascii	"|\363\202\221\236Nb\256\367\215\314\370-\3335\203\004"
 163      9E4E62AE 
 163      F78DCCF8 
 163      2DDB3583 
 163      04
 164 0070 914554F0 		.ascii	"\221ET\360\322\211\320G\235d-{\372\271\\/uum\347O\304"
 164      D289D047 
 164      9D642D7B 
 164      FAB95C2F 
 164      75756DE7 
 165 0086 00258D7B 		.ascii	"\000%\215{\334OLQ\234\230\344z\343\345ySNsQ5g\306\254"
 165      DC4F4C51 
 165      9C98E47A 
 165      E3E57953 
 165      4E735135 
 166 009d AF35413A 		.ascii	"\2575A:\317\337_W\365@\234\256\242\364\243<\347\310"
 166      CFDF5F57 
 166      F5409CAE 
 166      A2F4A33C 
 166      E7C8
 167 00af 02D4388E 		.ascii	"\002\3248\216\247\243r\2600g\306l\011w.\006JO\273\331"
 167      A7A372B0 
 167      3067C66C 
 167      09772E06 
 167      4A4FBBD9 
 168 00c3 70AD879B 		.ascii	"p\255\207\233\320\204\3123\356\244\360-\252\222{\217"
 168      D084CA33 
 168      EEA4F02D 
 168      AA927B8F 
 169 00d3 1EFEFB30 		.ascii	"\036\376\3730\010\017\242|\241\223\304{\232\262l\236"
 169      080FA27C 
 169      A193C47B 
 169      9AB26C9E 
 170 00e3 0B2FF152 		.ascii	"\013/\361R\246j\333\215\246\3478\236\333h\271\307\376"
 170      A66ADB8D 
 170      A6E7389E 
 170      DB68B9C7 
 170      FE
 171 00f4 51DB3974 		.ascii	"Q\3339t\375\003\277\345\271v\223~\001\330\347`:"
 171      FD03BFE5 
 171      B976937E 
 171      01D8E760 
 171      3A
ARM GAS  e:\temp\cc6qBBth.s 			page 13


 172              		.text
 173              		.section	.gnu.lto_CyBoot_IntDefaultHandler_Exception_EntryCallback.62405383,"",%progbits
 174 0000 789C654F 		.ascii	"x\234eO\275KBQ\024?\277{\375\242\017lO\242\325\345A"
 174      BD4B4251 
 174      143FBF7B 
 174      FDA20F6C 
 174      4FA2D5E5 
 175 0015 7F49D09A 		.ascii	"\177I\320\232KH\203\203O(\233\337U{T \341\222[8j\237"
 175      4B488383 
 175      4F289BDF 
 175      557B5420 
 175      E1925B38 
 176 002b 6243F0A6 		.ascii	"bC\360\246\236R[\344\020\021\344\362(\220\220\006\005"
 176      9E525BE4 
 176      1011E4F2 
 176      28909006 
 176      05
 177 003c C5C95EE7 		.ascii	"\305\311^\347\276\332:p9\367\236\363\373\272!\002\351"
 177      BEDA3A70 
 177      39F79EF3 
 177      FBBA2102 
 177      E9
 178 004d 4A715BE1 		.ascii	"Jq[\341\276\314\007\222 *OD\205\230\000\364E\305@\226"
 178      BECC0792 
 178      202A4F44 
 178      859800F4 
 178      45C54096 
 179 0061 80858998 		.ascii	"\200\205\211\230\011t\016\372\216H\326\025\227\3670"
 179      09740EFA 
 179      8E48D615 
 179      97F730
 180 0070 5D530D17 		.ascii	"]S\015\027\266$\362E\240D\250#I\014{o}\237,F\3665l\365"
 180      B624F245 
 180      A044A823 
 180      490C7B6F 
 180      7D9F2C46 
 181 0088 77890622 		.ascii	"w\211\006\"\332\256\271\341*\337/)\367.\336~\213\207"
 181      DAAEB9E1 
 181      2ADF2F29 
 181      F72EDE7E 
 181      8B87
 182 009a 05D992C7 		.ascii	"\005\331\222\307C\206h\263\221\020\272\313>\212\325"
 182      438668B3 
 182      9110BACB 
 182      3E8AD5
 183 00a9 D6E439AC 		.ascii	"\326\3449\254Y%\251\215\253v\247\033\035\013[\012h\003"
 183      5925A98D 
 183      AB76A71B 
 183      1D0B5B0A 
 183      6803
 184 00bb C7F9EA45 		.ascii	"\307\371\352E\255\231:Tj\211gG\234A\217\007\217/\367"
 184      AD993A54 
 184      6A896747 
 184      9C418F07 
 184      8F2FF7
 185 00ce 73359C16 		.ascii	"s5\234\026T0\007\3169\370\031\022\354\177\201\032\210"
 185      543007CE 
ARM GAS  e:\temp\cc6qBBth.s 			page 14


 185      39F81912 
 185      EC7F811A 
 185      88
 186 00df 75C79EA1 		.ascii	"u\307\236\241U\031\334\366nF\363Z\022\010\361\363v6"
 186      5519DCF6 
 186      6E46F35A 
 186      1208F1F3 
 186      7636
 187 00f1 3E967F5C 		.ascii	">\226\177\\\265\311\271$;\3432 _1\231!\037\225i7\242"
 187      B5C9B924 
 187      3BE33220 
 187      5F319921 
 187      1F956937 
 188 0106 191265AF 		.ascii	"\031\022e\257\254\026p\315\333O\224\334\327\256\320"
 188      AC1670CD 
 188      DB4F94DC 
 188      D7AED0
 189 0115 A2FF9385 		.ascii	"\242\377\223\205|\316Kh\302b\3010\015Pt{\353\001T\327"
 189      7CCE4B68 
 189      C262C130 
 189      0D50747B 
 189      EB0154D7 
 190 0129 9097FC5D 		.ascii	"\220\227\374]\376|\3020R\351\\6\2333S\031s7\277\263"
 190      FE7CC230 
 190      52E95C36 
 190      9B335319 
 190      7337BFB3 
 191 013d 97DD36F3 		.ascii	"\227\3356\363[\371L\3164\322\364\003\021\325\210\361"
 191      5BF94CCE 
 191      34D2F403 
 191      11D588F1 
 192              		.text
 193              		.section	.gnu.lto_.symbol_nodes.62405383,"",%progbits
 194 0000 789C558C 		.ascii	"x\234U\214;\016\302@\014D\307v6\204@EG\005\341\377="
 194      3B0EC240 
 194      0C44C776 
 194      36844045 
 194      4705E1FF 
 195 0015 A33752A0 		.ascii	"\2437R\240\240@\034\201\202SP#J\316@\201\2508\002Bx"
 195      A0401C81 
 195      82535023 
 195      4ACE4081 
 195      A8380242 
 196 002a 5320D6CD 		.ascii	"S \326\315\323\274\0319\001\341\011;\036)p\270\001\206"
 196      D3BC1939 
 196      01E1093B 
 196      1E2970B8 
 196      0186
 197 003c F3B100DC 		.ascii	"\363\261\000\334\000\233\216\025\256\2402\220\307J\277"
 197      009B8E15 
 197      AEA03290 
 197      C74ABF
 198 004b 810F8325 		.ascii	"\201\017\203%\367C?\224z\307\023\345\250\347\251J,f"
 198      F7433F94 
 198      7AC713E5 
 198      A8E7A94A 
 198      2C66
ARM GAS  e:\temp\cc6qBBth.s 			page 15


 199 005d 9A448216 		.ascii	"\232D\202\026\352j\001xo\277h\256i\224\327\332\210\362"
 199      EA6A0178 
 199      6FBF68AE 
 199      6994D7DA 
 199      88F2
 200 006f 4AB3FF2C 		.ascii	"J\263\377,\310Q]\337]A\023\247\355\253'\322\306e\027"
 200      C8515DDF 
 200      5D4113A7 
 200      EDAB27D2 
 200      C66517
 201 0082 D842B537 		.ascii	"\330B\2657\246\346\357\037\222,\307\303\210/\311\364"
 201      A6E6EF1F 
 201      922CC7C3 
 201      882FC9F4 
 202 0092 326E     		.ascii	"2n"
 203              		.text
 204              		.section	.gnu.lto_.refs.62405383,"",%progbits
 205 0000 789C15CB 		.ascii	"x\234\025\313\311\021\200@\020\303@\331\343a\201*\256"
 205      C9118040 
 205      10C340D9 
 205      E361812A 
 205      AE
 206 0011 90C83F29 		.ascii	"\220\310?)\026\275[A\274@\203f\205\202\027\263\355%"
 206      16BD5B41 
 206      BC408366 
 206      858217B3 
 206      ED25
 207 0023 DB3129D2 		.ascii	"\3331)\322d(\207r*\227\372\246\037M$\215\177Z\261\370"
 207      64288772 
 207      2A97FAA6 
 207      1F4D248D 
 207      7F5AB1F8 
 208 0037 002D8201 		.ascii	"\000-\202\001&"
 208      26
 209              		.text
 210              		.section	.gnu.lto_.decls.62405383,"",%progbits
 211 0000 789CB556 		.ascii	"x\234\265V[P\024W\032\356\323=00\014`\214q}\230\252"
 211      5B501457 
 211      1AEED33D 
 211      30300C60 
 211      8C717D98 
 212 0015 A55215E0 		.ascii	"\245R\025\340%\030\243\331\332\332\247\315b6\356n\334"
 212      2518A3D9 
 212      DADAA7CD 
 212      6236EE6E 
 212      DC
 213 0026 A562D6A7 		.ascii	"\245b\326\247\251\355\032\206\026\247\204\031v\2461"
 213      A9ED1A86 
 213      16A78419 
 213      76A631
 214 0035 F2D63A88 		.ascii	"\362\326:\210\210\273\213\210\261P\243\022\005\025A"
 214      88BB8B88 
 214      B150A312 
 214      051541
 215 0044 111244A2 		.ascii	"\021\022D\242\342D\345\" \327d7\021\271\023\242\341"
 215      E244E522 
 215      20D76437 
ARM GAS  e:\temp\cc6qBBth.s 			page 16


 215      11B913A2 
 215      E1
 216 0055 22082B42 		.ascii	"\"\010+B\320\331\377\\f\272G\240*/\3335\377t\367\337"
 216      D0D9FF5C 
 216      66BA47A0 
 216      2A2FDB35 
 216      FF74F7DF 
 217 0069 DFF9BEEF 		.ascii	"\337\371\276\357\374\347\234>\255\343\020\207\017\263"
 217      FCE79C3E 
 217      ADE31087 
 217      0FB3
 218 0077 91E38A79 		.ascii	"\221\343\212y\216[\005\341\205#\030r[!t\020\345\020"
 218      8E5B05E1 
 218      85231872 
 218      5B217410 
 218      E510
 219 0089 9510D720 		.ascii	"\225\020\327 nq\364\010\205\250\203h\204h\202h\201h"
 219      6E71F408 
 219      85A88368 
 219      84688268 
 219      8168
 220 009b 85E881E8 		.ascii	"\205\350\201\350\203\030\202\370\201\265\237\206\230"
 220      831882F8 
 220      81B59F86 
 220      98
 221 00a8 85988378 		.ascii	"\205\230\203x\316\005\036\230#\222i\371tb f ^@LBx!&"
 221      CE051E98 
 221      239269F9 
 221      74622066 
 221      205E404C 
 222 00c0 3018AC36 		.ascii	"0\030\2546\340\023R\275<`<\002\343\352c\036x\215\256"
 222      E01352BD 
 222      3C603C02 
 222      E3EA631E 
 222      788DAE
 223 00d3 F6C07E5F 		.ascii	"\366\300~_az+!V1n\254\031\015abzX\177\023D\002\346\002"
 223      617A2B21 
 223      56316EAC 
 223      190D6162 
 223      7A587F13 
 224 00eb BD79AC01 		.ascii	"\275y\254\001\347\021\334'8\017jt\033Y_\207\330\375"
 224      E711DC27 
 224      380F6A74 
 224      1B595F87 
 224      D8FD
 225 00fd 727DC575 		.ascii	"r}\305u\3223m\334\207\227\353\252\355K\023\353G\035"
 225      D2336DDC 
 225      8797EBAA 
 225      ED4B13EB 
 225      471D
 226 010f B7F86861 		.ascii	"\267\370ha\230\255\232\032\261\362\220g\210\365]{\340"
 226      98AD9A1A 
 226      B1F29067 
 226      88F55D7B 
 226      E0
 227 0120 B1F18DE9 		.ascii	"\261\361\215\351\014\267\270\246\034\253Y+\253!Z\242"
 227      0CB7B8A6 
ARM GAS  e:\temp\cc6qBBth.s 			page 17


 227      1CAB592B 
 227      AB215AA2 
 228 0130 76CF7954 		.ascii	"v\317yT\276w\270$d\206G&\003\362\"|?V3\027N\357\361"
 228      BE77B824 
 228      64864726 
 228      03F2227C 
 228      3F563317 
 229 0147 E3BEB9F3 		.ascii	"\343\276\271\363\277\217+S\3408\250(<\257\266\373\302"
 229      BF8F2B53 
 229      E038A828 
 229      3CAFB6FB 
 229      C2
 230 0158 337D5127 		.ascii	"3}Q'\204a\020\337\361\371wu\241(\326p\026\343\372\273"
 230      846110DF 
 230      F1F97775 
 230      A128D670 
 230      16E3FABB 
 231 016c 67DE752B 		.ascii	"g\336u+\012Be\310\200. \001\225\2408,o2\300\177\266"
 231      0A4265C8 
 231      802E2001 
 231      95A0382C 
 231      6F32C07F 
 232 0181 A2EC5126 		.ascii	"\242\354Q&O+\301k8\264\336\204\3362q\250\024\305b1\214"
 232      4F2BC16B 
 232      38B4DE84 
 232      DE3271A8 
 232      14C56231 
 233 0196 42E79109 		.ascii	"B\347\221\011\235C&\314_r\352\374\235p\301\215\210\300"
 233      9D4326CC 
 233      5F72EAFC 
 233      9D70C18D 
 233      88C0
 234 01a8 F8E1D16C 		.ascii	"\370\341\321l\301/P\235c*U\224\025\250\034\004.\252"
 234      C12F509D 
 234      632A5594 
 234      15A81C04 
 234      2EAA
 235 01ba 02A0B7B4 		.ascii	"\002\240\267\264\302\245%\024pcP9\367\"\263:\\\230\240"
 235      C2A52514 
 235      70635039 
 235      F722B33A 
 235      5C98A0
 236 01cd 2ABD9746 		.ascii	"*\275\227FOE\370U\246\333\376\226\267\027\372\214*A"
 236      4F45F855 
 236      A6DBFE96 
 236      B717FA8C 
 236      2A41
 237 01df E6B22A53 		.ascii	"\346\262*S\276\234L\305R2\225D\246x\376\247I\001\212"
 237      BE9C4CC5 
 237      52329544 
 237      A678FEA7 
 237      49018A
 238 01f2 1A0D45F6 		.ascii	"\032\015E\366\012\232*G\323*\337l\276{\326(\034\344"
 238      0A9A2A47 
 238      D32ADF6C 
 238      BE7BD628 
 238      1CE4
ARM GAS  e:\temp\cc6qBBth.s 			page 18


 239 0204 C94D9D77 		.ascii	"\311M\235w\326\023\011\317V\032\020\017\267\235\223"
 239      D61309CF 
 239      561A100F 
 239      B79D93
 240 0213 2D27C2E0 		.ascii	"-'\302\340v\225\001\255\000\223\235\267\012\236\207"
 240      769501AD 
 240      00939DB7 
 240      0A9E87
 241 0222 21432C31 		.ascii	"!C,1\240\270\025C,\207\252A\355\012V\253\001\013\321"
 241      A0B81543 
 241      2C87AA41 
 241      ED0A56AB 
 241      010BD1
 242 0235 CCC21790 		.ascii	"\314\302\027\220\374\034\222lP\306\376H\006\345*t\246"
 242      FC1C926C 
 242      50C6FE48 
 242      06E52A74 
 242      A6
 243 0246 4AED4CB4 		.ascii	"J\355L\264\201\216fm^\367\210A8N\014\360EC\3125\335"
 243      818E666D 
 243      5EF78841 
 243      384E0CF0 
 243      4543CA35 
 244 025b 7212D797 		.ascii	"r\022\327\227\225\250\316\211.\303\303r\015$\276T%\256"
 244      95A8CE89 
 244      2EC3C372 
 244      0D24BE54 
 244      25AE
 245 026d 927AE12C 		.ascii	"\222z\341,\350td^\376T\240}\323\301\355\324\275cC\021"
 245      E874645E 
 245      FE54A07D 
 245      D3C1EDD4 
 245      BD634311 
 246 0281 B46F51B8 		.ascii	"\264oQ\270L\375\265\203z\035L2R\363D\035v\366u\326\324"
 246      4CFDB583 
 246      7A1D4C32 
 246      52F3441D 
 246      76F675D6 
 247 0296 5824C9E1 		.ascii	"X$\311\341\341\276\211Hr\364\351\325y\375\232#X\026"
 247      E1BE8948 
 247      72F4E9D5 
 247      79FD9A23 
 247      5816
 248 02a8 FC45F168 		.ascii	"\374E\361h\353j\277C\016}\205\326\300\277\007\351h\337"
 248      EB6ABF43 
 248      0E7D85D6 
 248      C0BF07E9 
 248      68DF
 249 02ba 86DBCB45 		.ascii	"\206\333\313Ec\016\356\313A\267\262r\023~\214j\001|"
 249      630EEECB 
 249      41B7B272 
 249      137E8C6A 
 249      017C
 250 02cc 83806F21 		.ascii	"\203\200o!\243\317)\\\002\334{\342\322\371\320n\364"
 250      A3CF295C 
 250      02DC7BE2 
 250      D2F9D06E 
ARM GAS  e:\temp\cc6qBBth.s 			page 19


 250      F4
 251 02dd 1D826220 		.ascii	"\035\202b \266\014\021\375G$8\032\344\026.x\362\317"
 251      B60C11FD 
 251      4724381A 
 251      E4162E78 
 251      F2CF
 252 02ef F953FE13 		.ascii	"\371S\376\023\207\3779\212'9\225\214\374|g\257\357 "
 252      87FF398A 
 252      2739958C 
 252      FC7C67AF 
 252      EF20
 253 0301 242A3B62 		.ascii	"$*;b\215\220\337\001mE\237\363\014\306Qr^m\240\341\243"
 253      8D90DF01 
 253      6D459FF3 
 253      0CC65172 
 253      5E6DA0E1 
 254 0316 76359E50 		.ascii	"v5\236P`\237\220o5?>t\333\033)\024\321\011\330\323\345"
 254      609F906F 
 254      353F3E74 
 254      DB1B2914 
 254      D109D8D3 
 255 032b C934BC5E 		.ascii	"\3114\274^\250\364_V\372{\362\267\016T*\012,\004EG*"
 255      A8F45F56 
 255      FA7BF2B7 
 255      0E542A0A 
 255      2C044547 
 256 0340 77471D59 		.ascii	"wG\035Y\270\304\247\333\250\033X\353\320\353\320t\274"
 256      B8C4A7DB 
 256      A81B58EB 
 256      D0EBD074 
 256      BC
 257 0351 BB60DC28 		.ascii	"\273`\334(tQ\236\321\332\243\336\360eG\251\201\214R"
 257      74519ED1 
 257      DAA3DEF0 
 257      6547A981 
 257      8C52
 258 0363 221BA4FD 		.ascii	"\"\033\244\375-\203u\021\240YxY\361<m0*\355\320\346"
 258      2D837511 
 258      A0597859 
 258      F13C6D30 
 258      2AEDD0E6 
 259 0377 B71883EA 		.ascii	"\267\030\203\352U\301z\255`#\021\274^x\361f\230\360"
 259      55C17AAD 
 259      602311BC 
 259      5E78F166 
 259      98F0
 260 0389 900A568C 		.ascii	"\220\012V\214\224\344\2042\222\231f-\311]\225\344\256"
 260      94E48432 
 260      9299662D 
 260      C95D95E4 
 260      AE
 261 039a 96A48990 		.ascii	"\226\244\211\220|s\245,_/\274\240$\225\035\263\203\002"
 261      7C73A52C 
 261      5F2FBCA0 
 261      24951DB3 
 261      8302
 262 03ac 2339DCAA 		.ascii	"#9\334\252%iVI\232\265$-\204\344\344D\305M$\344\013"
ARM GAS  e:\temp\cc6qBBth.s 			page 20


 262      25695649 
 262      9AB5242D 
 262      84E4E444 
 262      C54D24E4 
 263 03c1 B484D307 		.ascii	"\264\204\323\007v2\216\353mZ\216{*\307=-G+\341\250l"
 263      76328EEB 
 263      6D5A8E7B 
 263      2AC73D2D 
 263      472BE1A8 
 264 03d6 CB0F13EE 		.ascii	"\313\017\023\356P\212gY}\007\302\205vr\303?;9\341\216"
 264      508A6759 
 264      7D07C285 
 264      7672C33F 
 264      3B39E18E 
 265 03ea 40C6D865 		.ascii	"@\306\330e\2461\352\204U\251\316d\366\002\313M\336M"
 265      A631EA84 
 265      55A9CE64 
 265      F602CB4D 
 265      DE4D
 266 03fc 5E601DF0 		.ascii	"^`\035\360\240]\325\005\034\255\371\302x\305WF\262\264"
 266      A05DD505 
 266      1CADF9C2 
 266      78C55746 
 266      B2B4
 267 040e 30822EB7 		.ascii	"0\202.\267\336\303Ofu$\207\227q\027]n\303g\237\354\362"
 267      DEC34F66 
 267      75248797 
 267      71175D6E 
 267      C3679FEC 
 268 0423 2FCBAF69 		.ascii	"/\313\257i\256\347\230\2737\310\277.\277\241\311{u]"
 268      AEE798BB 
 268      37C8BF2E 
 268      BFA1C97B 
 268      755D
 269 0435 057AA19B 		.ascii	"\005z\241\233x\326=*\377\354\210\001\205\232\020\230"
 269      78D63D2A 
 269      FFEC8801 
 269      859A1098 
 270 0445 44B1FBC8 		.ascii	"D\261\373\310\013sOa\024\362\2770\273\301\364\267\010"
 270      0B734F61 
 270      14F2BF30 
 270      BBC1F4B7 
 270      08
 271 0456 BE3B60B1 		.ascii	"\276;`\261\231\320}\350\3071%\204d\216)\331\370M\202"
 271      99D07DE8 
 271      C7312584 
 271      648E29D9 
 271      F84D82
 272 0469 2FCFFAF6 		.ascii	"/\317\372\366\036\016\337\242\377\220\242\371\246\355"
 272      1E0EDFA2 
 272      FF90A2F9 
 272      A6ED
 273 0477 9757F6F6 		.ascii	"\227W\366\366\205jg\030\206\250S\354\001\231b\377\366"
 273      856A6718 
 273      86A853EC 
 273      019962FF 
 273      F6
ARM GAS  e:\temp\cc6qBBth.s 			page 21


 274 0488 BD081E35 		.ascii	"\275\010\03655~B\346\265\242x\372r\204\243\312-\036"
 274      357E42E6 
 274      B5A278FA 
 274      7284A3CA 
 274      2D1E
 275 049a 43509B5A 		.ascii	"CP\233Z\2336F\217z\310x\334\356\030\035\012\022\006"
 275      9B36468F 
 275      7AC878DC 
 275      EE181D0A 
 275      1206
 276 04ac E880CCB5 		.ascii	"\350\200\314\265e{\203i\363\376\256S\333\246+\225\314"
 276      657B8369 
 276      F3FEAE53 
 276      DBA62B95 
 276      CC
 277 04bd 2032A6BD 		.ascii	" 2\246\275j\373^_\373>\322^\371v_i\260\220\247#\355"
 277      6AFB5E5F 
 277      FB3ED25E 
 277      F9765F69 
 277      B090A723 
 278 04d2 071EDF38 		.ascii	"\007\036\3378\252\367W\214\226{\266\377\324\276\340"
 278      AAF7578C 
 278      967BB6FF 
 278      D4BEE0
 279 04e1 6597C820 		.ascii	"e\227\310 \361?\340\363\377\364\037'\352yf\340\370\320"
 279      F13FE0F3 
 279      FFF41F27 
 279      EA7966E0 
 279      F8D0
 280 04f3 AE1FCBB2 		.ascii	"\256\037\313\262<\011\004\204\372U\007\375>\007C\304"
 280      3C090484 
 280      FA5507FD 
 280      3E0743C4 
 281 0503 C111CFF5 		.ascii	"\301\021\317\365y\275PC\035\234\361\214\\D\376\301\245"
 281      79BD5043 
 281      1D9CF18C 
 281      5C44FEC1 
 281      A5
 282 0514 0E0EE7DE 		.ascii	"\016\016\347\336\317\015[\326\301\010q\360\275\317\301"
 282      CF0D5BD6 
 282      C10871F0 
 282      BDCFC1
 283 0523 F1F1F113 		.ascii	"\361\361\361\023!\254\202\013\367\215\236\004\014@\303"
 283      21AC820B 
 283      F78D9E04 
 283      0C40C3
 284 0532 AAFAB04F 		.ascii	"\252\372\260O\375\007\242\336\323XR\212_\3671x\337\363"
 284      FD07A2DE 
 284      D358528A 
 284      5FF73178 
 284      DFF3
 285 0544 7A23353B 		.ascii	"z#5;_\014\335\371:s\237\024\351\205\016\342\217/\315"
 285      5F0CDDF9 
 285      3A739F14 
 285      E9850EE2 
 285      8F2FCD
 286 0557 1BEDD47C 		.ascii	"\033\355\324|G\024\031k\360,\030\003\257?\252\0221\376"
ARM GAS  e:\temp\cc6qBBth.s 			page 22


 286      4714196B 
 286      F02C1803 
 286      AF3FAA12 
 286      31FE
 287 0569 ED97AC03 		.ascii	"\355\227\254\003N]\004\2430\237b\330\326\364\010\222"
 287      4E5D04A3 
 287      309F62D8 
 287      D6F40892 
 288 0579 0FD99744 		.ascii	"\017\331\227DQ\336\351`\341\001\225\270p\251\255^\357"
 288      51DEE960 
 288      E10195B8 
 288      70A9AD5E 
 288      EF
 289 058a DBDB5E26 		.ascii	"\333\333^&x\274\004\201oo\333@\366\266\011\3602\256"
 289      78BC0481 
 289      6F6FDB40 
 289      F6B609F0 
 289      32AE
 290 059c 7A19436C 		.ascii	"z\031Cl\377\034h\257RB\015\331\270\204?\207\024\277"
 290      FF1C68AF 
 290      52420DD9 
 290      B8843F87 
 290      14BF
 291 05ae 2EF68D2B 		.ascii	".\366\215+<\324a\022\321BL\365\374k\277Q\370\236\016"
 291      3CD46112 
 291      D1424CF5 
 291      FC6BBF51 
 291      F89E0E
 292 05c1 54FD679D 		.ascii	"T\375g\235\027\302\3368\243\024\235\301o\340\277T\024"
 292      17C2DE38 
 292      A3149DC1 
 292      6FE0BF54 
 292      14
 293 05d2 67290711 		.ascii	"g)\007\021\201>\241\342\232\015\014g\246\260\3204z\003"
 293      813EA1E2 
 293      9A0D0C67 
 293      A6B0D034 
 293      7A03
 294 05e4 7F3D14ED 		.ascii	"\177=\024\355\037\321i\267;lYE\317\220\305\2175\232"
 294      1FD169B7 
 294      3B6C5945 
 294      CF90C58F 
 294      359A
 295 05f6 1E36AC07 		.ascii	"\0366\254\007}H \334E\374\251QY^\365\320(\314P\017-"
 295      7D4820DC 
 295      45FCA951 
 295      595EF5D0 
 295      28CC500F 
 296 060b FB67AF04 		.ascii	"\373g\257\004\201\207\302\323\212\247:k\365Q\305\243"
 296      8187C2D3 
 296      8AA73A6B 
 296      F551C5A3 
 297 061b 23E0A78B 		.ascii	"#\340\247\213\034\340\314\177\261\203Y\342`\240\354"
 297      1CE0CC7F 
 297      B18359E2 
 297      60A0EC
 298 062a C064B0B0 		.ascii	"\300d\260\2607\210\2604\237)\360\030\200\005\317\230"
ARM GAS  e:\temp\cc6qBBth.s 			page 23


 298      3788B034 
 298      9F29F018 
 298      8005CF98 
 299 063a A9BFC392 		.ascii	"\251\277\303\222\313\324\241\004\003z\266\210\344\031"
 299      CBD4A104 
 299      037AB688 
 299      E419
 300 0648 9E39688E 		.ascii	"\2369h\2160\014U\335X\010\246\325\3749\237\037\320\242"
 300      300C55DD 
 300      5808A6D5 
 300      FC399F1F 
 300      D0A2
 301 065a BDAAA656 		.ascii	"\275\252\246V\007\275\231\207\316N\004A\242\365T\376"
 301      07BD9987 
 301      CE4E0441 
 301      A2F554FE 
 302 066a AC201CA1 		.ascii	"\254 \034\241&\012\253\334\305\301\264\234\236\256\372"
 302      260AABDC 
 302      C5C1B49C 
 302      9EAEFA
 303 0679 D70A140F 		.ascii	"\327\012\024\017E.0\027\352|\307\231\237\260\316sbd"
 303      452E3017 
 303      EA7CC799 
 303      9FB0CE73 
 303      6264
 304 068b A1F851BF 		.ascii	"\241\370Q\277A[\314\311\200b\276\240\305\304g\000g\266"
 304      415BCCC9 
 304      8062BEA0 
 304      C5C46700 
 304      67B6
 305 069d 9CDCA9C5 		.ascii	"\234\334\251\305\342b\251X/\303z\011\366\320'\356sz"
 305      E262A958 
 305      2FC37A09 
 305      F6D027EE 
 305      737A
 306 06af 2DB821E0 		.ascii	"-\270!\340\243D\341\375\037%p\011\370\261\177V\037\012"
 306      A344E1FD 
 306      1F257009 
 306      F8B17F56 
 306      1F0A
 307 06c1 D7E21F04 		.ascii	"\327\342\037\004\340w\363\224|7\001w\324\314\344\006"
 307      E077F394 
 307      7C370177 
 307      D4CCE406 
 308 06d1 4C81F900 		.ascii	"L\201\371\000\327{\030x\017\001_m,,\214\320\202G\002"
 308      D77B1878 
 308      0F015F6D 
 308      2C2C8CD0 
 308      824702
 309 06e4 98DD0CEC 		.ascii	"\230\335\014\354&\340O\253o\377I\213\035\014\300f\252"
 309      26E04FAB 
 309      6FFF498B 
 309      1D0CC066 
 309      AA
 310 06f5 AEE1920B 		.ascii	"\256\341\222\013y\377\317\177\215\212_\267\216\013\025"
 310      79FFCF7F 
 310      8D8A5FB7 
ARM GAS  e:\temp\cc6qBBth.s 			page 24


 310      8E0B15
 311 0704 C5749B5D 		.ascii	"\305t\233]\376\265(\247J\2771[3\322\234\222\313eNs9"
 311      FEB528A7 
 311      4ABF315B 
 311      33D29C92 
 311      CB654E73 
 312 0719 AC5156A7 		.ascii	"\254QV\247d\221\035N\363\206\270\267\003\023\266\324"
 312      64911D4E 
 312      F386B8B7 
 312      0313B6D4 
 313 0729 34875336 		.ascii	"4\207S6'\333\323\315\026g\252\371\235\270\015q\353\360"
 313      27DBD3CD 
 313      1667AAF9 
 313      9DB80D71 
 313      EBF0
 314 073b D59B7687 		.ascii	"\325\233v\207]zS\262$\332\3146\2735%=I2\247Z\254\333"
 314      5D7A53B2 
 314      24DACC36 
 314      BB35253D 
 314      4932A75A 
 315 0751 6D76C92C 		.ascii	"mv\311,&I\333,\351)\262(g\244I\256\270\355\234\236\251"
 315      2649DB2C 
 315      E929B228 
 315      67A449AE 
 315      B8ED9C9E 
 316 0766 26FE3F54 		.ascii	"&\376?T]\031.\263\350\222\223@\002\244\014\262-Ur\212"
 316      5D192EB3 
 316      E8929340 
 316      02A40CB2 
 316      2D55728A 
 317 077a B624515E 		.ascii	"\266$Q^\035\027gv9\255\030 K\251k\311\003\214\240EX"
 317      1D176776 
 317      39AD1820 
 317      4BA96BC9 
 317      038CA045 
 318 078f F72B510E 		.ascii	"\367+Q\016\361]\274\362\261E\266nOr$\213\264\2715\321"
 318      F15DBCF2 
 318      B145B66E 
 318      4F72248B 
 318      B4B935D1 
 319 07a3 048DAD8E 		.ascii	"\004\215\255\216\324T\207\035\204\\\2623=U\262\313\026"
 319      D454871D 
 319      845CB233 
 319      3D55B2CB 
 319      16
 320 07b4 D9E6B0C7 		.ascii	"\331\346\260\307Y\271U/\245D\233\335&\277\366r\322%"
 320      59B9552F 
 320      A5449BDD 
 320      26BFF672 
 320      D225
 321 07c6 5B9CF222 		.ascii	"[\234\362\"\250lq\355x+"
 321      A86C71ED 
 321      782B
 322 07d0 3EE3770E 		.ascii	">\343w\016\207,\376\301.o\244\245\332d\261'\245\200"
 322      872CFEC1 
 322      2E6FA4A5 
 322      DA64B127 
ARM GAS  e:\temp\cc6qBBth.s 			page 25


 322      A580
 323 07e2 F07BBBAC 		.ascii	"\360{\273\254R\032\301\275g\227\235\031\361\226\224"
 323      521AC1BD 
 323      67979D19 
 323      F19694
 324 07f1 94448B75 		.ascii	"\224D\213uG\030\265E\030\015>\213\242\034$\002MJd|\306"
 324      4718B545 
 324      180D3E8B 
 324      A21C2402 
 324      4D4A647C 
 325 0806 16C736F9 		.ascii	"\026\3076\371c\213S\372PrI\362/\337\227\354\222\323"
 325      638B53FA 
 325      507249F2 
 325      2FDF97EC 
 325      92D3
 326 0818 224B49E2 		.ascii	"\"KI\342\026G\272\323*\231\023\2668\3427\254\215\317"
 326      1647BAD3 
 326      2A9913B6 
 326      38E237AC 
 326      8DCF
 327 082a F8C09608 		.ascii	"\370\300\226\010\005xu{\232M\004\234\350\304h\321\352"
 327      0578757B 
 327      9A4D049C 
 327      E8C468D1 
 327      EA
 328 083b 48B7CBAF 		.ascii	"H\267\313\257\262Z\301#\227k-\374\003\356\027Z\234s"
 328      B25AC123 
 328      976B2DFC 
 328      03EE175A 
 328      9C73
 329 084d 27D039A5 		.ascii	"'\3209\245dq\375;\254\200\353\337f\005\304\027\021\311"
 329      6471FD3B 
 329      AC80EBDF 
 329      6605C417 
 329      11C9
 330 085f 9B2D36FB 		.ascii	"\233-6\373\007\016G\332F)\305\222\261\"\371\303t\373"
 330      070E47DA 
 330      4629C592 
 330      B122F9C3 
 330      74FB
 331 0871 47E073A3 		.ascii	"G\340s\243E\266\274\233\224\344\\!\212\326\014\354\337"
 331      45B6BC9B 
 331      94E45C21 
 331      8AD60CEC 
 331      DF
 332 0882 BA434CB1 		.ascii	"\272CL\261\245\332\344\310\344\3156;\261\273\331\342"
 332      A5DAE4C8 
 332      E4CD363B 
 332      B1BBD9E2 
 333 0892 4CB6D9FF 		.ascii	"L\266\331\377\007\276\274\324\266"
 333      07BEBCD4 
 333      B6
 334              		.text
 335              		.section	.gnu.lto_.symtab.62405383,"",%progbits
 336 0000 77617463 		.ascii	"watchdog_timer_cb\000"
 336      68646F67 
 336      5F74696D 
ARM GAS  e:\temp\cc6qBBth.s 			page 26


 336      65725F63 
 336      6200
 337 0012 00       		.ascii	"\000"
 338 0013 00       		.ascii	"\000"
 339 0014 00       		.ascii	"\000"
 340 0015 00000000 		.ascii	"\000\000\000\000\000\000\000\000"
 340      00000000 
 341 001d C5000000 		.ascii	"\305\000\000\000"
 342 0021 674D6169 		.ascii	"gMainLoopDelay\000"
 342      6E4C6F6F 
 342      7044656C 
 342      617900
 343 0030 00       		.ascii	"\000"
 344 0031 00       		.ascii	"\000"
 345 0032 00       		.ascii	"\000"
 346 0033 00000000 		.ascii	"\000\000\000\000\000\000\000\000"
 346      00000000 
 347 003b F3000000 		.ascii	"\363\000\000\000"
 348 003f 6752756E 		.ascii	"gRunTimeDataAddr\000"
 348      54696D65 
 348      44617461 
 348      41646472 
 348      00
 349 0050 00       		.ascii	"\000"
 350 0051 00       		.ascii	"\000"
 351 0052 00       		.ascii	"\000"
 352 0053 00000000 		.ascii	"\000\000\000\000\000\000\000\000"
 352      00000000 
 353 005b F7000000 		.ascii	"\367\000\000\000"
 354 005f 696E7374 		.ascii	"instrumentation_init\000"
 354      72756D65 
 354      6E746174 
 354      696F6E5F 
 354      696E6974 
 355 0074 00       		.ascii	"\000"
 356 0075 00       		.ascii	"\000"
 357 0076 00       		.ascii	"\000"
 358 0077 00000000 		.ascii	"\000\000\000\000\000\000\000\000"
 358      00000000 
 359 007f C8000000 		.ascii	"\310\000\000\000"
 360 0083 674D696E 		.ascii	"gMinResetMargin\000"
 360      52657365 
 360      744D6172 
 360      67696E00 
 361 0093 00       		.ascii	"\000"
 362 0094 00       		.ascii	"\000"
 363 0095 00       		.ascii	"\000"
 364 0096 00000000 		.ascii	"\000\000\000\000\000\000\000\000"
 364      00000000 
 365 009e FD000000 		.ascii	"\375\000\000\000"
 366 00a2 696E7374 		.ascii	"instrumentation_start\000"
 366      72756D65 
 366      6E746174 
 366      696F6E5F 
 366      73746172 
 367 00b8 00       		.ascii	"\000"
 368 00b9 00       		.ascii	"\000"
ARM GAS  e:\temp\cc6qBBth.s 			page 27


 369 00ba 00       		.ascii	"\000"
 370 00bb 00000000 		.ascii	"\000\000\000\000\000\000\000\000"
 370      00000000 
 371 00c3 CA000000 		.ascii	"\312\000\000\000"
 372 00c7 696E7374 		.ascii	"instrumentation_task\000"
 372      72756D65 
 372      6E746174 
 372      696F6E5F 
 372      7461736B 
 373 00dc 00       		.ascii	"\000"
 374 00dd 00       		.ascii	"\000"
 375 00de 00       		.ascii	"\000"
 376 00df 00000000 		.ascii	"\000\000\000\000\000\000\000\000"
 376      00000000 
 377 00e7 CC000000 		.ascii	"\314\000\000\000"
 378 00eb 4379426F 		.ascii	"CyBoot_IntDefaultHandler_Exception_EntryCallback\000"
 378      6F745F49 
 378      6E744465 
 378      6661756C 
 378      7448616E 
 379 011c 00       		.ascii	"\000"
 380 011d 00       		.ascii	"\000"
 381 011e 00       		.ascii	"\000"
 382 011f 00000000 		.ascii	"\000\000\000\000\000\000\000\000"
 382      00000000 
 383 0127 CE000000 		.ascii	"\316\000\000\000"
 384 012b 5F5F6379 		.ascii	"__cy_stack_limit\000"
 384      5F737461 
 384      636B5F6C 
 384      696D6974 
 384      00
 385 013c 00       		.ascii	"\000"
 386 013d 02       		.ascii	"\002"
 387 013e 00       		.ascii	"\000"
 388 013f 00000000 		.ascii	"\000\000\000\000\000\000\000\000"
 388      00000000 
 389 0147 F9000000 		.ascii	"\371\000\000\000"
 390 014b 74696D65 		.ascii	"timer_start\000"
 390      725F7374 
 390      61727400 
 391 0157 00       		.ascii	"\000"
 392 0158 02       		.ascii	"\002"
 393 0159 00       		.ascii	"\000"
 394 015a 00000000 		.ascii	"\000\000\000\000\000\000\000\000"
 394      00000000 
 395 0162 DD000000 		.ascii	"\335\000\000\000"
 396 0166 4379536F 		.ascii	"CySoftwareReset\000"
 396      66747761 
 396      72655265 
 396      73657400 
 397 0176 00       		.ascii	"\000"
 398 0177 02       		.ascii	"\002"
 399 0178 00       		.ascii	"\000"
 400 0179 00000000 		.ascii	"\000\000\000\000\000\000\000\000"
 400      00000000 
 401 0181 DF000000 		.ascii	"\337\000\000\000"
 402 0185 6870695F 		.ascii	"hpi_set_reset_count\000"
ARM GAS  e:\temp\cc6qBBth.s 			page 28


 402      7365745F 
 402      72657365 
 402      745F636F 
 402      756E7400 
 403 0199 00       		.ascii	"\000"
 404 019a 02       		.ascii	"\002"
 405 019b 00       		.ascii	"\000"
 406 019c 00000000 		.ascii	"\000\000\000\000\000\000\000\000"
 406      00000000 
 407 01a4 E3000000 		.ascii	"\343\000\000\000"
 408 01a8 6870695F 		.ascii	"hpi_set_reserved_reg_35\000"
 408      7365745F 
 408      72657365 
 408      72766564 
 408      5F726567 
 409 01c0 00       		.ascii	"\000"
 410 01c1 02       		.ascii	"\002"
 411 01c2 00       		.ascii	"\000"
 412 01c3 00000000 		.ascii	"\000\000\000\000\000\000\000\000"
 412      00000000 
 413 01cb E7000000 		.ascii	"\347\000\000\000"
 414              		.text
 415              		.section	.gnu.lto_.opts,"",%progbits
 416 0000 272D666D 		.ascii	"'-fmath-errno' '-fsigned-zeros' '-ftrapping-math' '"
 416      6174682D 
 416      6572726E 
 416      6F272027 
 416      2D667369 
 417 0033 2D666E6F 		.ascii	"-fno-trapv' '-fno-openmp' '-fno-openacc' '-mcpu=cor"
 417      2D747261 
 417      70762720 
 417      272D666E 
 417      6F2D6F70 
 418 0066 7465782D 		.ascii	"tex-m0' '-mthumb' '-g' '-Os' '-Werror' '-ffunction-"
 418      6D302720 
 418      272D6D74 
 418      68756D62 
 418      2720272D 
 419 0099 73656374 		.ascii	"sections' '-ffat-lto-objects' '-finline-functions' "
 419      696F6E73 
 419      2720272D 
 419      66666174 
 419      2D6C746F 
 420 00cc 272D666C 		.ascii	"'-flto' '-fno-strict-aliasing'\000"
 420      746F2720 
 420      272D666E 
 420      6F2D7374 
 420      72696374 
 421              		.text
 422              		.cfi_sections	.debug_frame
 423              		.section	.text.watchdog_timer_cb,"ax",%progbits
 424              		.align	1
 425              		.global	watchdog_timer_cb
 426              		.code	16
 427              		.thumb_func
 428              		.type	watchdog_timer_cb, %function
 429              	watchdog_timer_cb:
ARM GAS  e:\temp\cc6qBBth.s 			page 29


 430              	.LFB32:
 431              		.file 1 "..\\common\\instrumentation.c"
   1:..\common/instrumentation.c **** /**
   2:..\common/instrumentation.c ****  * @file instrumentation.c
   3:..\common/instrumentation.c ****  *
   4:..\common/instrumentation.c ****  * @brief @{Source file containing application level instrumentation code.
   5:..\common/instrumentation.c ****  *
   6:..\common/instrumentation.c ****  * This USB-PD port controller application supports high level instrumentation
   7:..\common/instrumentation.c ****  * to track the task execution latencies and runtime stack usage. This source
   8:..\common/instrumentation.c ****  * file contains the code associated with these functions.@}
   9:..\common/instrumentation.c ****  */
  10:..\common/instrumentation.c **** 
  11:..\common/instrumentation.c **** /*
  12:..\common/instrumentation.c ****  * Copyright (2016-2018), Cypress Semiconductor Corporation or a subsidiary of
  13:..\common/instrumentation.c ****  * Cypress Semiconductor Corporation. All rights reserved.
  14:..\common/instrumentation.c ****  *
  15:..\common/instrumentation.c ****  * This software, including source code, documentation and related materials
  16:..\common/instrumentation.c ****  * (Software), is owned by Cypress Semiconductor Corporation or one of its
  17:..\common/instrumentation.c ****  * subsidiaries (Cypress) and is protected by and subject to worldwide patent
  18:..\common/instrumentation.c ****  * protection (United States and foreign), United States copyright laws and
  19:..\common/instrumentation.c ****  * international treaty provisions. Therefore, you may use this Software only
  20:..\common/instrumentation.c ****  * as provided in the license agreement accompanying the software package from
  21:..\common/instrumentation.c ****  * which you obtained this Software (EULA).
  22:..\common/instrumentation.c ****  *
  23:..\common/instrumentation.c ****  * If no EULA applies, Cypress hereby grants you a personal, nonexclusive,
  24:..\common/instrumentation.c ****  * non-transferable license to copy, modify, and compile the Software source
  25:..\common/instrumentation.c ****  * code solely for use in connection with Cypresss integrated circuit
  26:..\common/instrumentation.c ****  * products. Any reproduction, modification, translation, compilation, or
  27:..\common/instrumentation.c ****  * representation of this Software except as specified above is prohibited
  28:..\common/instrumentation.c ****  * without the express written permission of Cypress. Disclaimer: THIS SOFTWARE
  29:..\common/instrumentation.c ****  * IS PROVIDED AS-IS, WITH NO WARRANTY OF ANY KIND, EXPRESS OR IMPLIED,
  30:..\common/instrumentation.c ****  * INCLUDING, BUT NOT LIMITED TO, NONINFRINGEMENT, IMPLIED WARRANTIES OF
  31:..\common/instrumentation.c ****  * MERCHANTABILITY AND FITNESS FOR A PARTICULAR PURPOSE. Cypress reserves the
  32:..\common/instrumentation.c ****  * right to make changes to the Software without notice. Cypress does not
  33:..\common/instrumentation.c ****  * assume any liability arising out of the application or use of the Software
  34:..\common/instrumentation.c ****  * or any product or circuit described in the Software. Cypress does not
  35:..\common/instrumentation.c ****  * authorize its products for use in any products where a malfunction or
  36:..\common/instrumentation.c ****  * failure of the Cypress product may reasonably be expected to result in
  37:..\common/instrumentation.c ****  * significant property damage, injury or death (High Risk Product). By
  38:..\common/instrumentation.c ****  * including Cypresss product in a High Risk Product, the manufacturer of such
  39:..\common/instrumentation.c ****  * system or application assumes all risk of such use and in doing so agrees to
  40:..\common/instrumentation.c ****  * indemnify Cypress against all liability.
  41:..\common/instrumentation.c ****  */
  42:..\common/instrumentation.c **** 
  43:..\common/instrumentation.c **** #include <project.h>
  44:..\common/instrumentation.c **** #include <flash_config.h>
  45:..\common/instrumentation.c **** #include <system.h>
  46:..\common/instrumentation.c **** #include <app.h>
  47:..\common/instrumentation.c **** #include <timer.h>
  48:..\common/instrumentation.c **** #include <hpi.h>
  49:..\common/instrumentation.c **** #include <boot.h>
  50:..\common/instrumentation.c **** #include <flash.h>
  51:..\common/instrumentation.c **** #include <status.h>
  52:..\common/instrumentation.c **** #include <utils.h>
  53:..\common/instrumentation.c **** #include <gpio.h>
  54:..\common/instrumentation.c **** 
  55:..\common/instrumentation.c **** /* Run-time stack lower limit defined in linker script. */
ARM GAS  e:\temp\cc6qBBth.s 			page 30


  56:..\common/instrumentation.c **** extern int __cy_stack_limit;
  57:..\common/instrumentation.c **** 
  58:..\common/instrumentation.c **** #if RESET_ON_ERROR_ENABLE
  59:..\common/instrumentation.c **** 
  60:..\common/instrumentation.c **** /* RAM based signature and offset used to check whether reset data is valid. */
  61:..\common/instrumentation.c **** #define RESET_DATA_VALID_OFFSET         (0)
  62:..\common/instrumentation.c **** #define RESET_DATA_VALID_SIG            (0xDEADBEEF)
  63:..\common/instrumentation.c **** 
  64:..\common/instrumentation.c **** /* RAM based signature and offset used to check whether watchdog reset has happened. */
  65:..\common/instrumentation.c **** #define WATCHDOG_RESET_OFFSET           (1)
  66:..\common/instrumentation.c **** #define WATCHDOG_RESET_SIG              (0xC003300C)
  67:..\common/instrumentation.c **** 
  68:..\common/instrumentation.c **** /* RAM offset where the watchdog reset count is maintained. */
  69:..\common/instrumentation.c **** #define RESET_COUNT_OFFSET              (2)
  70:..\common/instrumentation.c **** 
  71:..\common/instrumentation.c **** /* Size of the reset tracking data structure in DWORDs. */
  72:..\common/instrumentation.c **** #define RESET_DATA_STRUCT_SIZE          (3)
  73:..\common/instrumentation.c **** 
  74:..\common/instrumentation.c **** /* Address of the run-time instrumentation data structure. */
  75:..\common/instrumentation.c ****          uint32_t *gRunTimeDataAddr = (uint32_t *)CYDEV_SRAM_BASE;
  76:..\common/instrumentation.c **** 
  77:..\common/instrumentation.c **** /* Variable used to identify whether main loop has been run. */
  78:..\common/instrumentation.c **** volatile uint32_t gMainLoopDelay = 0;
  79:..\common/instrumentation.c **** 
  80:..\common/instrumentation.c **** /* Margin (in ms) available until watchdog reset. */
  81:..\common/instrumentation.c **** volatile uint16_t gMinResetMargin = WATCHDOG_RESET_PERIOD_MS;
  82:..\common/instrumentation.c **** 
  83:..\common/instrumentation.c **** /* Timer callback to reset device if main loop has not been run as expected. */
  84:..\common/instrumentation.c **** void watchdog_timer_cb (
  85:..\common/instrumentation.c ****     uint8_t port,
  86:..\common/instrumentation.c ****     timer_id_t id)
  87:..\common/instrumentation.c **** {
 432              		.loc 1 87 0
 433              		.cfi_startproc
 434              		@ args = 0, pretend = 0, frame = 0
 435              		@ frame_needed = 0, uses_anonymous_args = 0
 436              	.LVL0:
 437 0000 10B5     		push	{r4, lr}
 438              		.cfi_def_cfa_offset 8
 439              		.cfi_offset 4, -8
 440              		.cfi_offset 14, -4
  88:..\common/instrumentation.c ****     /*
  89:..\common/instrumentation.c ****      * It is possible that this timer is the only reason for the device to wake from sleep.
  90:..\common/instrumentation.c ****      * Hence allow two consecutive timer expiries before resetting the device.
  91:..\common/instrumentation.c ****      */
  92:..\common/instrumentation.c ****     gMainLoopDelay++;
 441              		.loc 1 92 0
 442 0002 0A4B     		ldr	r3, .L4
 443 0004 1A68     		ldr	r2, [r3]
 444 0006 0132     		adds	r2, r2, #1
 445 0008 1A60     		str	r2, [r3]
  93:..\common/instrumentation.c ****     if (gMainLoopDelay >= 2)
 446              		.loc 1 93 0
 447 000a 1B68     		ldr	r3, [r3]
 448 000c 012B     		cmp	r3, #1
 449 000e 05D9     		bls	.L2
  94:..\common/instrumentation.c ****     {
ARM GAS  e:\temp\cc6qBBth.s 			page 31


  95:..\common/instrumentation.c ****         /* Store the reset signature into RAM. */
  96:..\common/instrumentation.c ****         gRunTimeDataAddr[WATCHDOG_RESET_OFFSET] = WATCHDOG_RESET_SIG;
 450              		.loc 1 96 0
 451 0010 074B     		ldr	r3, .L4+4
 452 0012 084A     		ldr	r2, .L4+8
 453 0014 1B68     		ldr	r3, [r3]
 454 0016 5A60     		str	r2, [r3, #4]
  97:..\common/instrumentation.c ****         CySoftwareReset ();
 455              		.loc 1 97 0
 456 0018 FFF7FEFF 		bl	CySoftwareReset
 457              	.LVL1:
 458              	.L2:
  98:..\common/instrumentation.c ****     }
  99:..\common/instrumentation.c **** 
 100:..\common/instrumentation.c ****     /* Start the timer again. */
 101:..\common/instrumentation.c ****     timer_start (0, WATCHDOG_TIMER_ID, WATCHDOG_RESET_PERIOD_MS, watchdog_timer_cb);
 459              		.loc 1 101 0
 460 001c 064B     		ldr	r3, .L4+12
 461 001e 074A     		ldr	r2, .L4+16
 462 0020 D021     		movs	r1, #208
 463 0022 0020     		movs	r0, #0
 464 0024 FFF7FEFF 		bl	timer_start
 465              	.LVL2:
 102:..\common/instrumentation.c **** }
 466              		.loc 1 102 0
 467              		@ sp needed
 468 0028 10BD     		pop	{r4, pc}
 469              	.L5:
 470 002a C046     		.align	2
 471              	.L4:
 472 002c 00000000 		.word	.LANCHOR0
 473 0030 00000000 		.word	.LANCHOR1
 474 0034 0C3003C0 		.word	-1073532916
 475 0038 00000000 		.word	watchdog_timer_cb
 476 003c EE020000 		.word	750
 477              		.cfi_endproc
 478              	.LFE32:
 479              		.size	watchdog_timer_cb, .-watchdog_timer_cb
 480              		.section	.text.instrumentation_init,"ax",%progbits
 481              		.align	1
 482              		.global	instrumentation_init
 483              		.code	16
 484              		.thumb_func
 485              		.type	instrumentation_init, %function
 486              	instrumentation_init:
 487              	.LFB33:
 103:..\common/instrumentation.c **** 
 104:..\common/instrumentation.c **** #endif /* RESET_ON_ERROR_ENABLE */
 105:..\common/instrumentation.c **** 
 106:..\common/instrumentation.c **** #if STACK_USAGE_CHECK_ENABLE
 107:..\common/instrumentation.c ****     
 108:..\common/instrumentation.c **** /*
 109:..\common/instrumentation.c ****  * Minimum run-time stack usage value. This many bytes at the top of the stack
 110:..\common/instrumentation.c ****  * will not be tracked for usage.
 111:..\common/instrumentation.c ****  */
 112:..\common/instrumentation.c **** #define MIN_STACK_USAGE     (128u)
 113:..\common/instrumentation.c **** 
ARM GAS  e:\temp\cc6qBBth.s 			page 32


 114:..\common/instrumentation.c **** /* Signature used to track stack usage. */
 115:..\common/instrumentation.c **** #define STACK_UNUSED_SIG    (0x00555500)
 116:..\common/instrumentation.c **** 
 117:..\common/instrumentation.c **** /* Address of the bottom location of the run-time stack. */
 118:..\common/instrumentation.c ****          uint32_t *gStackBottom  = (uint32_t *)CYDEV_SRAM_BASE;
 119:..\common/instrumentation.c **** volatile uint16_t gMinStackMargin   = 0;
 120:..\common/instrumentation.c **** 
 121:..\common/instrumentation.c **** #endif /* STACK_USAGE_CHECK_ENABLE */
 122:..\common/instrumentation.c **** 
 123:..\common/instrumentation.c **** void instrumentation_init(void)
 124:..\common/instrumentation.c **** {
 488              		.loc 1 124 0
 489              		.cfi_startproc
 490              		@ args = 0, pretend = 0, frame = 0
 491              		@ frame_needed = 0, uses_anonymous_args = 0
 492              	.LVL3:
 493 0000 70B5     		push	{r4, r5, r6, lr}
 494              		.cfi_def_cfa_offset 16
 495              		.cfi_offset 4, -16
 496              		.cfi_offset 5, -12
 497              		.cfi_offset 6, -8
 498              		.cfi_offset 14, -4
 125:..\common/instrumentation.c ****     uint32_t wdr_cnt = 0;
 126:..\common/instrumentation.c ****     (void)wdr_cnt;
 127:..\common/instrumentation.c **** 
 128:..\common/instrumentation.c **** #if STACK_USAGE_CHECK_ENABLE
 129:..\common/instrumentation.c ****     uint32_t *addr_p;
 130:..\common/instrumentation.c **** 
 131:..\common/instrumentation.c ****     /* Store the stack bottom location. */
 132:..\common/instrumentation.c ****     gStackBottom = (uint32_t *)&__cy_stack_limit;
 133:..\common/instrumentation.c **** #if RESET_ON_ERROR_ENABLE
 134:..\common/instrumentation.c ****     /* If we have watchdog reset tracking enabled, the lowest twelve bytes of stack cannot be used.
 135:..\common/instrumentation.c ****     gStackBottom += RESET_DATA_STRUCT_SIZE;
 136:..\common/instrumentation.c **** #endif /* RESET_ON_ERROR_ENABLE */
 137:..\common/instrumentation.c **** 
 138:..\common/instrumentation.c ****     /* Fill the stack memory with unused signature. */
 139:..\common/instrumentation.c ****     for (addr_p = gStackBottom; addr_p < (uint32_t *)((CYDEV_SRAM_BASE + CYDEV_SRAM_SIZE) - MIN_STA
 140:..\common/instrumentation.c ****     {
 141:..\common/instrumentation.c ****         *addr_p = STACK_UNUSED_SIG;
 142:..\common/instrumentation.c ****     }
 143:..\common/instrumentation.c ****     
 144:..\common/instrumentation.c ****     /* Initialize the stack margin value. */
 145:..\common/instrumentation.c ****     gMinStackMargin = (uint16_t)((uint32_t)addr_p - (uint32_t)gStackBottom);
 146:..\common/instrumentation.c **** 
 147:..\common/instrumentation.c **** #if CCG_HPI_ENABLE
 148:..\common/instrumentation.c ****     hpi_set_reserved_reg_37 (gMinStackMargin);
 149:..\common/instrumentation.c **** #endif /* CCG_HPI_ENABLE */
 150:..\common/instrumentation.c **** 
 151:..\common/instrumentation.c **** #endif /* STACK_USAGE_CHECK_ENABLE */
 152:..\common/instrumentation.c **** 
 153:..\common/instrumentation.c **** #if RESET_ON_ERROR_ENABLE
 154:..\common/instrumentation.c ****     gRunTimeDataAddr = (uint32_t *)&__cy_stack_limit;
 499              		.loc 1 154 0
 500 0002 104B     		ldr	r3, .L10
 501 0004 104A     		ldr	r2, .L10+4
 155:..\common/instrumentation.c ****     if (gRunTimeDataAddr[RESET_DATA_VALID_OFFSET] == RESET_DATA_VALID_SIG)
 502              		.loc 1 155 0
ARM GAS  e:\temp\cc6qBBth.s 			page 33


 503 0006 1968     		ldr	r1, [r3]
 504 0008 1048     		ldr	r0, .L10+8
 154:..\common/instrumentation.c ****     if (gRunTimeDataAddr[RESET_DATA_VALID_OFFSET] == RESET_DATA_VALID_SIG)
 505              		.loc 1 154 0
 506 000a 1360     		str	r3, [r2]
 125:..\common/instrumentation.c ****     uint32_t wdr_cnt = 0;
 507              		.loc 1 125 0
 508 000c 0024     		movs	r4, #0
 509              		.loc 1 155 0
 510 000e 8142     		cmp	r1, r0
 511 0010 06D1     		bne	.L7
 156:..\common/instrumentation.c ****     {
 157:..\common/instrumentation.c ****         wdr_cnt = gRunTimeDataAddr[RESET_COUNT_OFFSET];
 158:..\common/instrumentation.c ****         if (gRunTimeDataAddr[WATCHDOG_RESET_OFFSET] == WATCHDOG_RESET_SIG)
 159:..\common/instrumentation.c ****             wdr_cnt++;
 512              		.loc 1 159 0
 513 0012 0F4D     		ldr	r5, .L10+12
 514 0014 5968     		ldr	r1, [r3, #4]
 157:..\common/instrumentation.c ****         if (gRunTimeDataAddr[WATCHDOG_RESET_OFFSET] == WATCHDOG_RESET_SIG)
 515              		.loc 1 157 0
 516 0016 9C68     		ldr	r4, [r3, #8]
 517              	.LVL4:
 518              		.loc 1 159 0
 519 0018 4919     		adds	r1, r1, r5
 520 001a 4E42     		rsbs	r6, r1, #0
 521 001c 4E41     		adcs	r6, r6, r1
 522 001e A419     		adds	r4, r4, r6
 523              	.LVL5:
 524              	.L7:
 160:..\common/instrumentation.c ****     }
 161:..\common/instrumentation.c **** 
 162:..\common/instrumentation.c ****     /*
 163:..\common/instrumentation.c ****      * Store the reset data valid signature and current reset count.
 164:..\common/instrumentation.c ****      * Also clear the reset detected signature.
 165:..\common/instrumentation.c ****      */
 166:..\common/instrumentation.c ****     gRunTimeDataAddr[RESET_DATA_VALID_OFFSET] = RESET_DATA_VALID_SIG;
 167:..\common/instrumentation.c ****     gRunTimeDataAddr[WATCHDOG_RESET_OFFSET]   = 0;
 525              		.loc 1 167 0
 526 0020 0021     		movs	r1, #0
 168:..\common/instrumentation.c ****     gRunTimeDataAddr[RESET_COUNT_OFFSET]      = wdr_cnt;
 527              		.loc 1 168 0
 528 0022 9C60     		str	r4, [r3, #8]
 167:..\common/instrumentation.c ****     gRunTimeDataAddr[RESET_COUNT_OFFSET]      = wdr_cnt;
 529              		.loc 1 167 0
 530 0024 5960     		str	r1, [r3, #4]
 166:..\common/instrumentation.c ****     gRunTimeDataAddr[WATCHDOG_RESET_OFFSET]   = 0;
 531              		.loc 1 166 0
 532 0026 1860     		str	r0, [r3]
 169:..\common/instrumentation.c ****     
 170:..\common/instrumentation.c ****     gMinResetMargin = 2 * WATCHDOG_RESET_PERIOD_MS;
 533              		.loc 1 170 0
 534 0028 0A4B     		ldr	r3, .L10+16
 535 002a 9380     		strh	r3, [r2, #4]
 171:..\common/instrumentation.c **** 
 172:..\common/instrumentation.c **** #if CCG_HPI_ENABLE
 173:..\common/instrumentation.c ****     hpi_set_reserved_reg_35 (gMinResetMargin);
 536              		.loc 1 173 0
ARM GAS  e:\temp\cc6qBBth.s 			page 34


 537 002c 9088     		ldrh	r0, [r2, #4]
 538 002e 80B2     		uxth	r0, r0
 539 0030 FFF7FEFF 		bl	hpi_set_reserved_reg_35
 540              	.LVL6:
 174:..\common/instrumentation.c **** #endif /* CCG_HPI_ENABLE */
 175:..\common/instrumentation.c **** 
 176:..\common/instrumentation.c **** #endif /* RESET_ON_ERROR_ENABLE */
 177:..\common/instrumentation.c **** 
 178:..\common/instrumentation.c **** #if ((CCG_HPI_ENABLE) && (HPI_WATCHDOG_RESET_ENABLE))
 179:..\common/instrumentation.c ****     /* Store the reset count into the HPI register. */
 180:..\common/instrumentation.c ****     if (wdr_cnt > 0xFFu)
 181:..\common/instrumentation.c ****         wdr_cnt = 0xFFu;
 182:..\common/instrumentation.c ****     hpi_set_reset_count (wdr_cnt);
 541              		.loc 1 182 0
 542 0034 FF2C     		cmp	r4, #255
 543 0036 00D9     		bls	.L8
 544 0038 FF24     		movs	r4, #255
 545              	.LVL7:
 546              	.L8:
 547 003a E0B2     		uxtb	r0, r4
 548 003c FFF7FEFF 		bl	hpi_set_reset_count
 549              	.LVL8:
 183:..\common/instrumentation.c **** #endif /* CCG_HPI_ENABLE */
 184:..\common/instrumentation.c **** }
 550              		.loc 1 184 0
 551              		@ sp needed
 552 0040 70BD     		pop	{r4, r5, r6, pc}
 553              	.L11:
 554 0042 C046     		.align	2
 555              	.L10:
 556 0044 00000000 		.word	__cy_stack_limit
 557 0048 00000000 		.word	.LANCHOR1
 558 004c EFBEADDE 		.word	-559038737
 559 0050 F4CFFC3F 		.word	1073532916
 560 0054 DC050000 		.word	1500
 561              		.cfi_endproc
 562              	.LFE33:
 563              		.size	instrumentation_init, .-instrumentation_init
 564              		.section	.text.instrumentation_start,"ax",%progbits
 565              		.align	1
 566              		.global	instrumentation_start
 567              		.code	16
 568              		.thumb_func
 569              		.type	instrumentation_start, %function
 570              	instrumentation_start:
 571              	.LFB34:
 185:..\common/instrumentation.c **** 
 186:..\common/instrumentation.c **** void instrumentation_start(void)
 187:..\common/instrumentation.c **** {
 572              		.loc 1 187 0
 573              		.cfi_startproc
 574              		@ args = 0, pretend = 0, frame = 0
 575              		@ frame_needed = 0, uses_anonymous_args = 0
 576 0000 10B5     		push	{r4, lr}
 577              		.cfi_def_cfa_offset 8
 578              		.cfi_offset 4, -8
 579              		.cfi_offset 14, -4
ARM GAS  e:\temp\cc6qBBth.s 			page 35


 188:..\common/instrumentation.c **** #if RESET_ON_ERROR_ENABLE
 189:..\common/instrumentation.c ****     /* Start the timer used for watchdog reset. */
 190:..\common/instrumentation.c ****     timer_start (0, WATCHDOG_TIMER_ID, WATCHDOG_RESET_PERIOD_MS, watchdog_timer_cb);
 580              		.loc 1 190 0
 581 0002 034B     		ldr	r3, .L13
 582 0004 034A     		ldr	r2, .L13+4
 583 0006 D021     		movs	r1, #208
 584 0008 0020     		movs	r0, #0
 585 000a FFF7FEFF 		bl	timer_start
 586              	.LVL9:
 191:..\common/instrumentation.c **** #endif /* RESET_ON_ERROR_ENABLE */
 192:..\common/instrumentation.c **** }
 587              		.loc 1 192 0
 588              		@ sp needed
 589 000e 10BD     		pop	{r4, pc}
 590              	.L14:
 591              		.align	2
 592              	.L13:
 593 0010 00000000 		.word	watchdog_timer_cb
 594 0014 EE020000 		.word	750
 595              		.cfi_endproc
 596              	.LFE34:
 597              		.size	instrumentation_start, .-instrumentation_start
 598              		.section	.text.instrumentation_task,"ax",%progbits
 599              		.align	1
 600              		.global	instrumentation_task
 601              		.code	16
 602              		.thumb_func
 603              		.type	instrumentation_task, %function
 604              	instrumentation_task:
 605              	.LFB35:
 193:..\common/instrumentation.c **** 
 194:..\common/instrumentation.c **** void instrumentation_task(void)
 195:..\common/instrumentation.c **** {
 606              		.loc 1 195 0
 607              		.cfi_startproc
 608              		@ args = 0, pretend = 0, frame = 0
 609              		@ frame_needed = 0, uses_anonymous_args = 0
 610              		@ link register save eliminated.
 196:..\common/instrumentation.c **** #if STACK_USAGE_CHECK_ENABLE
 197:..\common/instrumentation.c ****     uint32_t *addr_p = gStackBottom;
 198:..\common/instrumentation.c **** #endif /* STACK_USAGE_CHECK_ENABLE */
 199:..\common/instrumentation.c **** 
 200:..\common/instrumentation.c **** #if RESET_ON_ERROR_ENABLE
 201:..\common/instrumentation.c **** 
 202:..\common/instrumentation.c ****     /* Clear the variable to indicate main loop has been run. */
 203:..\common/instrumentation.c ****     gMainLoopDelay = 0;
 611              		.loc 1 203 0
 612 0000 0022     		movs	r2, #0
 613 0002 014B     		ldr	r3, .L16
 204:..\common/instrumentation.c **** 
 205:..\common/instrumentation.c **** #if CALCULATE_TIMER_MARGINS
 206:..\common/instrumentation.c ****     /* Calculate how much time is left before device could get reset. */
 207:..\common/instrumentation.c ****     gMinResetMargin = GET_MIN(gMinResetMargin,
 208:..\common/instrumentation.c ****             ((1 - gMainLoopDelay) * WATCHDOG_RESET_PERIOD_MS) + timer_get_count(0, WATCHDOG_TIMER_I
 209:..\common/instrumentation.c **** #if CCG_HPI_ENABLE
 210:..\common/instrumentation.c ****     hpi_set_reserved_reg_35 (gMinResetMargin);
ARM GAS  e:\temp\cc6qBBth.s 			page 36


 211:..\common/instrumentation.c **** #endif /* CCG_HPI_ENABLE */
 212:..\common/instrumentation.c **** 
 213:..\common/instrumentation.c ****     /* Stop and restart the timer. */
 214:..\common/instrumentation.c ****     timer_stop (0, WATCHDOG_TIMER_ID);
 215:..\common/instrumentation.c ****     timer_start (0, WATCHDOG_TIMER_ID, WATCHDOG_RESET_PERIOD_MS, watchdog_timer_cb);
 216:..\common/instrumentation.c **** #endif /* CALCULATE_TIMER_MARGINS */
 217:..\common/instrumentation.c **** 
 218:..\common/instrumentation.c **** #endif /* RESET_ON_ERROR_ENABLE */
 219:..\common/instrumentation.c **** 
 220:..\common/instrumentation.c **** #if STACK_USAGE_CHECK_ENABLE
 221:..\common/instrumentation.c ****     for (addr_p = gStackBottom; addr_p < (uint32_t *)((CYDEV_SRAM_BASE + CYDEV_SRAM_SIZE) - MIN_STA
 222:..\common/instrumentation.c ****     {
 223:..\common/instrumentation.c ****         if (*addr_p != STACK_UNUSED_SIG)
 224:..\common/instrumentation.c ****         {
 225:..\common/instrumentation.c ****             break;
 226:..\common/instrumentation.c ****         }
 227:..\common/instrumentation.c ****     }
 228:..\common/instrumentation.c ****     
 229:..\common/instrumentation.c ****     /* Calculate the minimum stack availability margin and update debug register. */
 230:..\common/instrumentation.c ****     gMinStackMargin = GET_MIN(gMinStackMargin, ((uint32_t)addr_p - (uint32_t)gStackBottom));
 231:..\common/instrumentation.c **** #if CCG_HPI_ENABLE
 232:..\common/instrumentation.c ****     hpi_set_reserved_reg_37(gMinStackMargin);
 233:..\common/instrumentation.c **** #endif /* CCG_HPI_ENABLE */
 234:..\common/instrumentation.c **** 
 235:..\common/instrumentation.c **** #endif /* STACK_USAGE_CHECK_ENABLE */
 236:..\common/instrumentation.c **** }
 614              		.loc 1 236 0
 615              		@ sp needed
 203:..\common/instrumentation.c **** 
 616              		.loc 1 203 0
 617 0004 1A60     		str	r2, [r3]
 618              		.loc 1 236 0
 619 0006 7047     		bx	lr
 620              	.L17:
 621              		.align	2
 622              	.L16:
 623 0008 00000000 		.word	.LANCHOR0
 624              		.cfi_endproc
 625              	.LFE35:
 626              		.size	instrumentation_task, .-instrumentation_task
 627              		.section	.text.CyBoot_IntDefaultHandler_Exception_EntryCallback,"ax",%progbits
 628              		.align	1
 629              		.global	CyBoot_IntDefaultHandler_Exception_EntryCallback
 630              		.code	16
 631              		.thumb_func
 632              		.type	CyBoot_IntDefaultHandler_Exception_EntryCallback, %function
 633              	CyBoot_IntDefaultHandler_Exception_EntryCallback:
 634              	.LFB36:
 237:..\common/instrumentation.c **** 
 238:..\common/instrumentation.c **** void CyBoot_IntDefaultHandler_Exception_EntryCallback(void)
 239:..\common/instrumentation.c **** {
 635              		.loc 1 239 0
 636              		.cfi_startproc
 637              		@ args = 0, pretend = 0, frame = 0
 638              		@ frame_needed = 0, uses_anonymous_args = 0
 639 0000 10B5     		push	{r4, lr}
 640              		.cfi_def_cfa_offset 8
ARM GAS  e:\temp\cc6qBBth.s 			page 37


 641              		.cfi_offset 4, -8
 642              		.cfi_offset 14, -4
 240:..\common/instrumentation.c **** #if RESET_ON_ERROR_ENABLE
 241:..\common/instrumentation.c ****     /* Store the reset signature into RAM. */
 242:..\common/instrumentation.c ****     gRunTimeDataAddr[WATCHDOG_RESET_OFFSET] = WATCHDOG_RESET_SIG;
 643              		.loc 1 242 0
 644 0002 034B     		ldr	r3, .L19
 645 0004 034A     		ldr	r2, .L19+4
 646 0006 1B68     		ldr	r3, [r3]
 243:..\common/instrumentation.c ****     CySoftwareReset ();
 244:..\common/instrumentation.c **** #endif /* RESET_ON_ERROR_ENABLE */
 245:..\common/instrumentation.c **** }
 647              		.loc 1 245 0
 648              		@ sp needed
 242:..\common/instrumentation.c ****     CySoftwareReset ();
 649              		.loc 1 242 0
 650 0008 5A60     		str	r2, [r3, #4]
 243:..\common/instrumentation.c ****     CySoftwareReset ();
 651              		.loc 1 243 0
 652 000a FFF7FEFF 		bl	CySoftwareReset
 653              	.LVL10:
 654              		.loc 1 245 0
 655 000e 10BD     		pop	{r4, pc}
 656              	.L20:
 657              		.align	2
 658              	.L19:
 659 0010 00000000 		.word	.LANCHOR1
 660 0014 0C3003C0 		.word	-1073532916
 661              		.cfi_endproc
 662              	.LFE36:
 663              		.size	CyBoot_IntDefaultHandler_Exception_EntryCallback, .-CyBoot_IntDefaultHandler_Exception_Entry
 664              		.global	gMinResetMargin
 665              		.global	gMainLoopDelay
 666              		.global	gRunTimeDataAddr
 667              		.data
 668              		.align	2
 669              		.set	.LANCHOR1,. + 0
 670              		.type	gRunTimeDataAddr, %object
 671              		.size	gRunTimeDataAddr, 4
 672              	gRunTimeDataAddr:
 673 0000 00000020 		.word	536870912
 674              		.type	gMinResetMargin, %object
 675              		.size	gMinResetMargin, 2
 676              	gMinResetMargin:
 677 0004 EE02     		.short	750
 678              		.bss
 679              		.align	2
 680              		.set	.LANCHOR0,. + 0
 681              		.type	gMainLoopDelay, %object
 682              		.size	gMainLoopDelay, 4
 683              	gMainLoopDelay:
 684 0000 00000000 		.space	4
 685              		.text
 686              	.Letext0:
 687              		.file 2 "e:\\cypress\\psoc creator\\4.2\\psoc creator\\import\\gnu\\arm\\5.4.1\\arm-none-eabi\\inc
 688              		.file 3 "e:\\cypress\\psoc creator\\4.2\\psoc creator\\import\\gnu\\arm\\5.4.1\\arm-none-eabi\\inc
 689              		.file 4 "..\\src\\system/timer.h"
ARM GAS  e:\temp\cc6qBBth.s 			page 38


 690              		.file 5 "Generated_Source\\PSoC4/CyLib.h"
 691              		.file 6 "..\\src\\hpiss/hpi.h"