ARM GAS  e:\temp\ccdmNCtc.s 			page 1


   1              		.syntax unified
   2              		.cpu cortex-m0
   3              		.fpu softvfp
   4              		.eabi_attribute 20, 1
   5              		.eabi_attribute 21, 1
   6              		.eabi_attribute 23, 3
   7              		.eabi_attribute 24, 1
   8              		.eabi_attribute 25, 1
   9              		.eabi_attribute 26, 1
  10              		.eabi_attribute 30, 1
  11              		.eabi_attribute 34, 0
  12              		.eabi_attribute 18, 4
  13              		.thumb
  14              		.syntax unified
  15              		.file	"alt_mode_hw.c"
  16              		.text
  17              	.Ltext0:
  18              		.cfi_sections	.debug_frame
  19              		.section	.text.dp_src_hpd_cbk,"ax",%progbits
  20              		.align	2
  21              		.code	16
  22              		.thumb_func
  23              		.type	dp_src_hpd_cbk, %function
  24              	dp_src_hpd_cbk:
  25              	.LFB36:
  26              		.file 1 "..\\src\\app\\alt_mode\\alt_mode_hw.c"
   1:..\src\app\alt_mode/alt_mode_hw.c **** /**
   2:..\src\app\alt_mode/alt_mode_hw.c ****  * @file alt_mode_hw.c
   3:..\src\app\alt_mode/alt_mode_hw.c ****  *
   4:..\src\app\alt_mode/alt_mode_hw.c ****  * @brief @{Hardware control for Alternate mode implementation.@}
   5:..\src\app\alt_mode/alt_mode_hw.c ****  *
   6:..\src\app\alt_mode/alt_mode_hw.c ****  *******************************************************************************
   7:..\src\app\alt_mode/alt_mode_hw.c ****  *
   8:..\src\app\alt_mode/alt_mode_hw.c ****  * Copyright (2014-2018), Cypress Semiconductor Corporation or a subsidiary of
   9:..\src\app\alt_mode/alt_mode_hw.c ****  * Cypress Semiconductor Corporation. All rights reserved.
  10:..\src\app\alt_mode/alt_mode_hw.c ****  *
  11:..\src\app\alt_mode/alt_mode_hw.c ****  * This software, including source code, documentation and related materials
  12:..\src\app\alt_mode/alt_mode_hw.c ****  * (“Software”), is owned by Cypress Semiconductor Corporation or one of its
  13:..\src\app\alt_mode/alt_mode_hw.c ****  * subsidiaries (“Cypress”) and is protected by and subject to worldwide patent
  14:..\src\app\alt_mode/alt_mode_hw.c ****  * protection (United States and foreign), United States copyright laws and
  15:..\src\app\alt_mode/alt_mode_hw.c ****  * international treaty provisions. Therefore, you may use this Software only
  16:..\src\app\alt_mode/alt_mode_hw.c ****  * as provided in the license agreement accompanying the software package from
  17:..\src\app\alt_mode/alt_mode_hw.c ****  * which you obtained this Software (“EULA”).
  18:..\src\app\alt_mode/alt_mode_hw.c ****  *
  19:..\src\app\alt_mode/alt_mode_hw.c ****  * If no EULA applies, Cypress hereby grants you a personal, nonexclusive,
  20:..\src\app\alt_mode/alt_mode_hw.c ****  * non-transferable license to copy, modify, and compile the Software source
  21:..\src\app\alt_mode/alt_mode_hw.c ****  * code solely for use in connection with Cypress’s integrated circuit
  22:..\src\app\alt_mode/alt_mode_hw.c ****  * products. Any reproduction, modification, translation, compilation, or
  23:..\src\app\alt_mode/alt_mode_hw.c ****  * representation of this Software except as specified above is prohibited
  24:..\src\app\alt_mode/alt_mode_hw.c ****  * without the express written permission of Cypress. Disclaimer: THIS SOFTWARE
  25:..\src\app\alt_mode/alt_mode_hw.c ****  * IS PROVIDED AS-IS, WITH NO WARRANTY OF ANY KIND, EXPRESS OR IMPLIED,
  26:..\src\app\alt_mode/alt_mode_hw.c ****  * INCLUDING, BUT NOT LIMITED TO, NONINFRINGEMENT, IMPLIED WARRANTIES OF
  27:..\src\app\alt_mode/alt_mode_hw.c ****  * MERCHANTABILITY AND FITNESS FOR A PARTICULAR PURPOSE. Cypress reserves the
  28:..\src\app\alt_mode/alt_mode_hw.c ****  * right to make changes to the Software without notice. Cypress does not
  29:..\src\app\alt_mode/alt_mode_hw.c ****  * assume any liability arising out of the application or use of the Software
  30:..\src\app\alt_mode/alt_mode_hw.c ****  * or any product or circuit described in the Software. Cypress does not
  31:..\src\app\alt_mode/alt_mode_hw.c ****  * authorize its products for use in any products where a malfunction or
ARM GAS  e:\temp\ccdmNCtc.s 			page 2


  32:..\src\app\alt_mode/alt_mode_hw.c ****  * failure of the Cypress product may reasonably be expected to result in
  33:..\src\app\alt_mode/alt_mode_hw.c ****  * significant property damage, injury or death (“High Risk Product”). By
  34:..\src\app\alt_mode/alt_mode_hw.c ****  * including Cypress’s product in a High Risk Product, the manufacturer of such
  35:..\src\app\alt_mode/alt_mode_hw.c ****  * system or application assumes all risk of such use and in doing so agrees to
  36:..\src\app\alt_mode/alt_mode_hw.c ****  * indemnify Cypress against all liability.
  37:..\src\app\alt_mode/alt_mode_hw.c ****  */
  38:..\src\app\alt_mode/alt_mode_hw.c **** 
  39:..\src\app\alt_mode/alt_mode_hw.c **** #include <config.h>
  40:..\src\app\alt_mode/alt_mode_hw.c **** #include <dpm.h>
  41:..\src\app\alt_mode/alt_mode_hw.c **** #include <alt_mode_hw.h>
  42:..\src\app\alt_mode/alt_mode_hw.c **** #include <app.h>
  43:..\src\app\alt_mode/alt_mode_hw.c **** #include <hpi.h>
  44:..\src\app\alt_mode/alt_mode_hw.c **** #include <timer.h>
  45:..\src\app\alt_mode/alt_mode_hw.c **** 
  46:..\src\app\alt_mode/alt_mode_hw.c **** #if ((DP_DFP_SUPP) || (DP_UFP_SUPP))
  47:..\src\app\alt_mode/alt_mode_hw.c **** #include <gpio.h>
  48:..\src\app\alt_mode/alt_mode_hw.c **** #include <hpd.h>
  49:..\src\app\alt_mode/alt_mode_hw.c **** #endif /* (DP_DFP_SUPP) || (DP_UFP_SUPP) */
  50:..\src\app\alt_mode/alt_mode_hw.c **** 
  51:..\src\app\alt_mode/alt_mode_hw.c **** #if (RIDGE_SLAVE_ENABLE)
  52:..\src\app\alt_mode/alt_mode_hw.c **** #include <intel_ridge.h>
  53:..\src\app\alt_mode/alt_mode_hw.c **** #include <ridge_slave.h>
  54:..\src\app\alt_mode/alt_mode_hw.c **** #endif /* (RIDGE_SLAVE_ENABLE) */
  55:..\src\app\alt_mode/alt_mode_hw.c **** 
  56:..\src\app\alt_mode/alt_mode_hw.c **** /* Holds hw solution event/command data */
  57:..\src\app\alt_mode/alt_mode_hw.c **** #if ((DP_DFP_SUPP) || (DP_UFP_SUPP))
  58:..\src\app\alt_mode/alt_mode_hw.c **** static uint32_t hw_sln_data[NO_OF_TYPEC_PORTS];
  59:..\src\app\alt_mode/alt_mode_hw.c **** /* Holds command callback information. */
  60:..\src\app\alt_mode/alt_mode_hw.c **** static alt_mode_hw_cmd_cbk_t gl_hw_cmd_cbk[NO_OF_TYPEC_PORTS];
  61:..\src\app\alt_mode/alt_mode_hw.c **** #endif /* (DP_DFP_SUPP) || (DP_UFP_SUPP) */
  62:..\src\app\alt_mode/alt_mode_hw.c **** 
  63:..\src\app\alt_mode/alt_mode_hw.c **** /* Holds current HPD command status. */
  64:..\src\app\alt_mode/alt_mode_hw.c **** static volatile bool gl_alt_mode_cmd_pending[NO_OF_TYPEC_PORTS];
  65:..\src\app\alt_mode/alt_mode_hw.c **** /* Holds current HPD pin status */
  66:..\src\app\alt_mode/alt_mode_hw.c **** #if ((DP_DFP_SUPP) || (DP_UFP_SUPP))
  67:..\src\app\alt_mode/alt_mode_hw.c **** static volatile hpd_event_type_t gl_alt_mode_hpd_state[NO_OF_TYPEC_PORTS];
  68:..\src\app\alt_mode/alt_mode_hw.c **** #endif /* (DP_DFP_SUPP) || (DP_UFP_SUPP) */
  69:..\src\app\alt_mode/alt_mode_hw.c **** 
  70:..\src\app\alt_mode/alt_mode_hw.c **** #if DP_DFP_SUPP
  71:..\src\app\alt_mode/alt_mode_hw.c **** /* DFP HPD callback */
  72:..\src\app\alt_mode/alt_mode_hw.c **** static void
  73:..\src\app\alt_mode/alt_mode_hw.c **** dp_src_hpd_cbk(uint8_t port, hpd_event_type_t event);
  74:..\src\app\alt_mode/alt_mode_hw.c **** #endif /* DP_DFP_SUPP */
  75:..\src\app\alt_mode/alt_mode_hw.c **** 
  76:..\src\app\alt_mode/alt_mode_hw.c **** #if DP_UFP_SUPP
  77:..\src\app\alt_mode/alt_mode_hw.c **** /* UFP HPD callback */
  78:..\src\app\alt_mode/alt_mode_hw.c **** static void dp_snk_hpd_cbk(uint8_t port, hpd_event_type_t event);
  79:..\src\app\alt_mode/alt_mode_hw.c **** #endif /* DP_UFP_SUPP */
  80:..\src\app\alt_mode/alt_mode_hw.c **** 
  81:..\src\app\alt_mode/alt_mode_hw.c **** static mux_select_t app_mux_state[NO_OF_TYPEC_PORTS];
  82:..\src\app\alt_mode/alt_mode_hw.c **** 
  83:..\src\app\alt_mode/alt_mode_hw.c **** /************************** Function definitions *****************************/
  84:..\src\app\alt_mode/alt_mode_hw.c **** 
  85:..\src\app\alt_mode/alt_mode_hw.c **** bool eval_app_alt_hw_cmd(uint8_t port, uint8_t *cmd_param)
  86:..\src\app\alt_mode/alt_mode_hw.c **** {
  87:..\src\app\alt_mode/alt_mode_hw.c ****     uint8_t             hw_type, data_role;
  88:..\src\app\alt_mode/alt_mode_hw.c ****     alt_mode_hw_evt_t     cmd_info;
ARM GAS  e:\temp\ccdmNCtc.s 			page 3


  89:..\src\app\alt_mode/alt_mode_hw.c **** 
  90:..\src\app\alt_mode/alt_mode_hw.c ****     /* Convert received cmd bytes as info and data */
  91:..\src\app\alt_mode/alt_mode_hw.c ****     cmd_info  = (alt_mode_hw_evt_t)MAKE_DWORD(cmd_param[3], cmd_param[2], cmd_param[1], cmd_param[0
  92:..\src\app\alt_mode/alt_mode_hw.c ****     hw_type   = cmd_info.hw_evt.hw_type;
  93:..\src\app\alt_mode/alt_mode_hw.c ****     data_role = cmd_info.hw_evt.data_role;
  94:..\src\app\alt_mode/alt_mode_hw.c **** 
  95:..\src\app\alt_mode/alt_mode_hw.c ****     if (data_role == gl_dpm_port_type[port])
  96:..\src\app\alt_mode/alt_mode_hw.c ****     {
  97:..\src\app\alt_mode/alt_mode_hw.c ****         switch (hw_type)
  98:..\src\app\alt_mode/alt_mode_hw.c ****         {
  99:..\src\app\alt_mode/alt_mode_hw.c ****             case ALT_MODE_MUX:
 100:..\src\app\alt_mode/alt_mode_hw.c ****                 return eval_mux_cmd(port, cmd_info.hw_evt.evt_data);
 101:..\src\app\alt_mode/alt_mode_hw.c **** 
 102:..\src\app\alt_mode/alt_mode_hw.c **** #if ((DP_DFP_SUPP) || (DP_UFP_SUPP))
 103:..\src\app\alt_mode/alt_mode_hw.c ****             case ALT_MODE_HPD:
 104:..\src\app\alt_mode/alt_mode_hw.c ****                 return eval_hpd_cmd(port, cmd_info.hw_evt.evt_data);
 105:..\src\app\alt_mode/alt_mode_hw.c **** #endif /* (DP_DFP_SUPP) || (DP_UFP_SUPP) */
 106:..\src\app\alt_mode/alt_mode_hw.c **** 
 107:..\src\app\alt_mode/alt_mode_hw.c ****             default:
 108:..\src\app\alt_mode/alt_mode_hw.c ****                 break;
 109:..\src\app\alt_mode/alt_mode_hw.c ****         }
 110:..\src\app\alt_mode/alt_mode_hw.c ****     }
 111:..\src\app\alt_mode/alt_mode_hw.c **** 
 112:..\src\app\alt_mode/alt_mode_hw.c ****     return false;
 113:..\src\app\alt_mode/alt_mode_hw.c **** }
 114:..\src\app\alt_mode/alt_mode_hw.c **** 
 115:..\src\app\alt_mode/alt_mode_hw.c **** bool eval_mux_cmd(uint8_t port, uint32_t cmd)
 116:..\src\app\alt_mode/alt_mode_hw.c **** {
 117:..\src\app\alt_mode/alt_mode_hw.c ****     if ((cmd >= MUX_CONFIG_ISOLATE)&&(cmd <= MUX_CONFIG_DP_4_LANE))
 118:..\src\app\alt_mode/alt_mode_hw.c ****     {
 119:..\src\app\alt_mode/alt_mode_hw.c ****         return set_mux(port, (mux_select_t)cmd, NO_DATA);
 120:..\src\app\alt_mode/alt_mode_hw.c ****     }
 121:..\src\app\alt_mode/alt_mode_hw.c **** 
 122:..\src\app\alt_mode/alt_mode_hw.c ****     return false;
 123:..\src\app\alt_mode/alt_mode_hw.c **** }
 124:..\src\app\alt_mode/alt_mode_hw.c **** 
 125:..\src\app\alt_mode/alt_mode_hw.c **** #if ((DP_DFP_SUPP) || (DP_UFP_SUPP))
 126:..\src\app\alt_mode/alt_mode_hw.c **** void alt_mode_hw_set_cbk(uint8_t port, alt_mode_hw_cmd_cbk_t cbk)
 127:..\src\app\alt_mode/alt_mode_hw.c **** {
 128:..\src\app\alt_mode/alt_mode_hw.c ****     /* Register the callback if the port is valid. */
 129:..\src\app\alt_mode/alt_mode_hw.c ****     if (port < NO_OF_TYPEC_PORTS)
 130:..\src\app\alt_mode/alt_mode_hw.c ****     {
 131:..\src\app\alt_mode/alt_mode_hw.c ****         gl_hw_cmd_cbk[port] = cbk;
 132:..\src\app\alt_mode/alt_mode_hw.c ****     }
 133:..\src\app\alt_mode/alt_mode_hw.c **** }
 134:..\src\app\alt_mode/alt_mode_hw.c **** 
 135:..\src\app\alt_mode/alt_mode_hw.c **** bool eval_hpd_cmd(uint8_t  port, uint32_t cmd)
 136:..\src\app\alt_mode/alt_mode_hw.c **** {
 137:..\src\app\alt_mode/alt_mode_hw.c ****     if (cmd == HPD_DISABLE_CMD)
 138:..\src\app\alt_mode/alt_mode_hw.c ****     {
 139:..\src\app\alt_mode/alt_mode_hw.c ****         gl_alt_mode_cmd_pending[port] = false;
 140:..\src\app\alt_mode/alt_mode_hw.c **** 
 141:..\src\app\alt_mode/alt_mode_hw.c **** #if RIDGE_I2C_HPD_ENABLE
 142:..\src\app\alt_mode/alt_mode_hw.c ****         tr_hpd_deinit(port);
 143:..\src\app\alt_mode/alt_mode_hw.c **** #else /* !RIDGE_I2C_HPD_ENABLE */
 144:..\src\app\alt_mode/alt_mode_hw.c ****         hpd_deinit(port);
 145:..\src\app\alt_mode/alt_mode_hw.c **** #endif /* RIDGE_I2C_HPD_ENABLE */
ARM GAS  e:\temp\ccdmNCtc.s 			page 4


 146:..\src\app\alt_mode/alt_mode_hw.c **** 
 147:..\src\app\alt_mode/alt_mode_hw.c ****         return true;
 148:..\src\app\alt_mode/alt_mode_hw.c ****     }
 149:..\src\app\alt_mode/alt_mode_hw.c **** 
 150:..\src\app\alt_mode/alt_mode_hw.c **** #if DP_DFP_SUPP
 151:..\src\app\alt_mode/alt_mode_hw.c ****     if (gl_dpm_port_type[port] != PRT_TYPE_UFP)
 152:..\src\app\alt_mode/alt_mode_hw.c ****     {
 153:..\src\app\alt_mode/alt_mode_hw.c ****         if (cmd == HPD_ENABLE_CMD)
 154:..\src\app\alt_mode/alt_mode_hw.c ****         {
 155:..\src\app\alt_mode/alt_mode_hw.c ****             gl_alt_mode_cmd_pending[port] = false;
 156:..\src\app\alt_mode/alt_mode_hw.c **** 
 157:..\src\app\alt_mode/alt_mode_hw.c **** #if RIDGE_I2C_HPD_ENABLE
 158:..\src\app\alt_mode/alt_mode_hw.c ****             tr_hpd_init(port, dp_src_hpd_cbk);
 159:..\src\app\alt_mode/alt_mode_hw.c **** #else /* !RIDGE_I2C_HPD_ENABLE */
 160:..\src\app\alt_mode/alt_mode_hw.c ****             hpd_transmit_init(port, dp_src_hpd_cbk);
 161:..\src\app\alt_mode/alt_mode_hw.c **** #endif /* RIDGE_I2C_HPD_ENABLE */
 162:..\src\app\alt_mode/alt_mode_hw.c **** 
 163:..\src\app\alt_mode/alt_mode_hw.c ****             return true;
 164:..\src\app\alt_mode/alt_mode_hw.c ****         }
 165:..\src\app\alt_mode/alt_mode_hw.c ****         else
 166:..\src\app\alt_mode/alt_mode_hw.c ****         {
 167:..\src\app\alt_mode/alt_mode_hw.c ****             if (cmd < HPD_DISABLE_CMD)
 168:..\src\app\alt_mode/alt_mode_hw.c ****             {
 169:..\src\app\alt_mode/alt_mode_hw.c ****                 gl_alt_mode_cmd_pending[port] = true;
 170:..\src\app\alt_mode/alt_mode_hw.c ****                 gl_alt_mode_hpd_state[port]   = (hpd_event_type_t)cmd;
 171:..\src\app\alt_mode/alt_mode_hw.c **** 
 172:..\src\app\alt_mode/alt_mode_hw.c **** #if RIDGE_I2C_HPD_ENABLE
 173:..\src\app\alt_mode/alt_mode_hw.c ****                 tr_hpd_sendevt(port, (hpd_event_type_t)cmd);
 174:..\src\app\alt_mode/alt_mode_hw.c **** #else /* !RIDGE_I2C_HPD_ENABLE */
 175:..\src\app\alt_mode/alt_mode_hw.c ****                 hpd_transmit_sendevt(port, (hpd_event_type_t)cmd , false);
 176:..\src\app\alt_mode/alt_mode_hw.c **** #endif /* RIDGE_I2C_HPD_ENABLE */
 177:..\src\app\alt_mode/alt_mode_hw.c **** 
 178:..\src\app\alt_mode/alt_mode_hw.c ****                 return true;
 179:..\src\app\alt_mode/alt_mode_hw.c ****             }
 180:..\src\app\alt_mode/alt_mode_hw.c ****         }
 181:..\src\app\alt_mode/alt_mode_hw.c ****     }
 182:..\src\app\alt_mode/alt_mode_hw.c **** #endif /* DP_DFP_SUPP */
 183:..\src\app\alt_mode/alt_mode_hw.c **** 
 184:..\src\app\alt_mode/alt_mode_hw.c **** #if DP_UFP_SUPP
 185:..\src\app\alt_mode/alt_mode_hw.c ****     if (gl_dpm_port_type[port] == PRT_TYPE_UFP)
 186:..\src\app\alt_mode/alt_mode_hw.c ****     {
 187:..\src\app\alt_mode/alt_mode_hw.c ****         if (cmd == HPD_ENABLE_CMD)
 188:..\src\app\alt_mode/alt_mode_hw.c ****         {
 189:..\src\app\alt_mode/alt_mode_hw.c ****             gl_alt_mode_hpd_state[port] = HPD_EVENT_UNPLUG;
 190:..\src\app\alt_mode/alt_mode_hw.c **** 
 191:..\src\app\alt_mode/alt_mode_hw.c **** #if RIDGE_I2C_HPD_ENABLE
 192:..\src\app\alt_mode/alt_mode_hw.c ****             tr_hpd_init(port, dp_snk_hpd_cbk);
 193:..\src\app\alt_mode/alt_mode_hw.c **** #else /* !RIDGE_I2C_HPD_ENABLE */
 194:..\src\app\alt_mode/alt_mode_hw.c ****             hpd_receive_init(port, dp_snk_hpd_cbk);
 195:..\src\app\alt_mode/alt_mode_hw.c **** #endif /* RIDGE_I2C_HPD_ENABLE */
 196:..\src\app\alt_mode/alt_mode_hw.c **** 
 197:..\src\app\alt_mode/alt_mode_hw.c ****             return true;
 198:..\src\app\alt_mode/alt_mode_hw.c ****         }
 199:..\src\app\alt_mode/alt_mode_hw.c **** #if RIDGE_I2C_HPD_ENABLE
 200:..\src\app\alt_mode/alt_mode_hw.c ****         else if (cmd == HPD_COMMAND_DONE)
 201:..\src\app\alt_mode/alt_mode_hw.c ****         {
 202:..\src\app\alt_mode/alt_mode_hw.c ****             tr_hpd_sendevt(port, (hpd_event_type_t)cmd);
ARM GAS  e:\temp\ccdmNCtc.s 			page 5


 203:..\src\app\alt_mode/alt_mode_hw.c ****         }
 204:..\src\app\alt_mode/alt_mode_hw.c **** #endif /* RIDGE_I2C_HPD_ENABLE */
 205:..\src\app\alt_mode/alt_mode_hw.c ****     }
 206:..\src\app\alt_mode/alt_mode_hw.c **** #endif /* DP_UFP_SUPP */
 207:..\src\app\alt_mode/alt_mode_hw.c **** 
 208:..\src\app\alt_mode/alt_mode_hw.c ****     return false;
 209:..\src\app\alt_mode/alt_mode_hw.c **** }
 210:..\src\app\alt_mode/alt_mode_hw.c **** 
 211:..\src\app\alt_mode/alt_mode_hw.c **** #endif /* (DP_DFP_SUPP) || (DP_UFP_SUPP) */
 212:..\src\app\alt_mode/alt_mode_hw.c **** 
 213:..\src\app\alt_mode/alt_mode_hw.c **** 
 214:..\src\app\alt_mode/alt_mode_hw.c **** #if DP_UFP_SUPP
 215:..\src\app\alt_mode/alt_mode_hw.c **** static void dp_snk_hpd_cbk(uint8_t port, hpd_event_type_t event)
 216:..\src\app\alt_mode/alt_mode_hw.c **** {
 217:..\src\app\alt_mode/alt_mode_hw.c ****     alt_mode_hw_evt_t alt_mode_hw_data;
 218:..\src\app\alt_mode/alt_mode_hw.c **** 
 219:..\src\app\alt_mode/alt_mode_hw.c ****     if ((event > HPD_ENABLE_CMD) && (event < HPD_DISABLE_CMD))
 220:..\src\app\alt_mode/alt_mode_hw.c ****     {
 221:..\src\app\alt_mode/alt_mode_hw.c ****         alt_mode_hw_data.hw_evt.data_role = PRT_TYPE_UFP;
 222:..\src\app\alt_mode/alt_mode_hw.c ****         alt_mode_hw_data.hw_evt.hw_type   = ALT_MODE_HPD;
 223:..\src\app\alt_mode/alt_mode_hw.c **** 
 224:..\src\app\alt_mode/alt_mode_hw.c ****         /* Save first 4 bytes of event */
 225:..\src\app\alt_mode/alt_mode_hw.c ****         alt_mode_hw_data.hw_evt.evt_data = (uint32_t)event;
 226:..\src\app\alt_mode/alt_mode_hw.c ****         hw_sln_data[port] = (uint32_t)alt_mode_hw_data.val;
 227:..\src\app\alt_mode/alt_mode_hw.c **** 
 228:..\src\app\alt_mode/alt_mode_hw.c ****         /* Store current HPD event. */
 229:..\src\app\alt_mode/alt_mode_hw.c ****         gl_alt_mode_hpd_state[port] = event;
 230:..\src\app\alt_mode/alt_mode_hw.c **** 
 231:..\src\app\alt_mode/alt_mode_hw.c ****         /* Call the event callback, if it exists. */
 232:..\src\app\alt_mode/alt_mode_hw.c ****         if (gl_hw_cmd_cbk[port] != NULL)
 233:..\src\app\alt_mode/alt_mode_hw.c ****         {
 234:..\src\app\alt_mode/alt_mode_hw.c ****             gl_hw_cmd_cbk[port] (port, alt_mode_hw_data.val);
 235:..\src\app\alt_mode/alt_mode_hw.c ****         }
 236:..\src\app\alt_mode/alt_mode_hw.c **** 
 237:..\src\app\alt_mode/alt_mode_hw.c ****         /* Send notification to the solution. */
 238:..\src\app\alt_mode/alt_mode_hw.c ****         sln_pd_event_handler (port, APP_EVT_APP_HW, &(hw_sln_data[port]));
 239:..\src\app\alt_mode/alt_mode_hw.c ****     }
 240:..\src\app\alt_mode/alt_mode_hw.c **** }
 241:..\src\app\alt_mode/alt_mode_hw.c **** 
 242:..\src\app\alt_mode/alt_mode_hw.c **** bool dp_snk_get_hpd_state(uint8_t port)
 243:..\src\app\alt_mode/alt_mode_hw.c **** {
 244:..\src\app\alt_mode/alt_mode_hw.c ****     /*
 245:..\src\app\alt_mode/alt_mode_hw.c ****      * Return HPD state based on last HPD event from HAL.
 246:..\src\app\alt_mode/alt_mode_hw.c ****      * If last event was UNPLUG, HPD is not connected. If it was
 247:..\src\app\alt_mode/alt_mode_hw.c ****      * PLUG or IRQ, HPD is connected.
 248:..\src\app\alt_mode/alt_mode_hw.c ****      */
 249:..\src\app\alt_mode/alt_mode_hw.c **** #ifdef CCG4_DOCK
 250:..\src\app\alt_mode/alt_mode_hw.c ****     return  hpd_receive_get_status(port);
 251:..\src\app\alt_mode/alt_mode_hw.c **** #else    
 252:..\src\app\alt_mode/alt_mode_hw.c ****     if (gl_alt_mode_hpd_state[port] == HPD_EVENT_UNPLUG)
 253:..\src\app\alt_mode/alt_mode_hw.c ****     {
 254:..\src\app\alt_mode/alt_mode_hw.c ****         return false;
 255:..\src\app\alt_mode/alt_mode_hw.c ****     }
 256:..\src\app\alt_mode/alt_mode_hw.c ****     else
 257:..\src\app\alt_mode/alt_mode_hw.c ****     {
 258:..\src\app\alt_mode/alt_mode_hw.c ****         return true;
 259:..\src\app\alt_mode/alt_mode_hw.c ****     }
ARM GAS  e:\temp\ccdmNCtc.s 			page 6


 260:..\src\app\alt_mode/alt_mode_hw.c **** #endif /* CCG4_DOCK */
 261:..\src\app\alt_mode/alt_mode_hw.c **** }
 262:..\src\app\alt_mode/alt_mode_hw.c **** #endif /* DP_UFP_SUPP */
 263:..\src\app\alt_mode/alt_mode_hw.c **** 
 264:..\src\app\alt_mode/alt_mode_hw.c **** #if DP_DFP_SUPP
 265:..\src\app\alt_mode/alt_mode_hw.c **** static void dp_src_hpd_cbk(uint8_t port, hpd_event_type_t event)
 266:..\src\app\alt_mode/alt_mode_hw.c **** {
  27              		.loc 1 266 0
  28              		.cfi_startproc
  29              		@ args = 0, pretend = 0, frame = 0
  30              		@ frame_needed = 0, uses_anonymous_args = 0
  31              	.LVL0:
  32 0000 10B5     		push	{r4, lr}
  33              		.cfi_def_cfa_offset 8
  34              		.cfi_offset 4, -8
  35              		.cfi_offset 14, -4
  36 0002 0400     		movs	r4, r0
 267:..\src\app\alt_mode/alt_mode_hw.c ****     if (event == HPD_COMMAND_DONE)
  37              		.loc 1 267 0
  38 0004 0429     		cmp	r1, #4
  39 0006 18D1     		bne	.L1
  40              	.LBB2:
 268:..\src\app\alt_mode/alt_mode_hw.c ****     {
 269:..\src\app\alt_mode/alt_mode_hw.c ****         alt_mode_hw_evt_t alt_mode_hw_data;
 270:..\src\app\alt_mode/alt_mode_hw.c **** 
 271:..\src\app\alt_mode/alt_mode_hw.c ****         /* ALT. MODE command completed. */
 272:..\src\app\alt_mode/alt_mode_hw.c ****         gl_alt_mode_cmd_pending[port] = false;
  41              		.loc 1 272 0
  42 0008 0C4A     		ldr	r2, .L4
  43 000a 0023     		movs	r3, #0
  44 000c 1354     		strb	r3, [r2, r0]
 273:..\src\app\alt_mode/alt_mode_hw.c **** 
 274:..\src\app\alt_mode/alt_mode_hw.c ****         /* Set data role and HW type */
 275:..\src\app\alt_mode/alt_mode_hw.c ****         alt_mode_hw_data.hw_evt.data_role = PRT_TYPE_DFP;
 276:..\src\app\alt_mode/alt_mode_hw.c ****         alt_mode_hw_data.hw_evt.hw_type   = ALT_MODE_HPD;
 277:..\src\app\alt_mode/alt_mode_hw.c **** 
 278:..\src\app\alt_mode/alt_mode_hw.c ****         /* If HPD command done */
 279:..\src\app\alt_mode/alt_mode_hw.c ****         alt_mode_hw_data.hw_evt.evt_data = (uint32_t)event;
  45              		.loc 1 279 0
  46 000e 8020     		movs	r0, #128
  47              	.LVL1:
  48 0010 8002     		lsls	r0, r0, #10
  49 0012 8023     		movs	r3, #128
  50 0014 5B04     		lsls	r3, r3, #17
  51 0016 0343     		orrs	r3, r0
  52 0018 1943     		orrs	r1, r3
  53              	.LVL2:
 280:..\src\app\alt_mode/alt_mode_hw.c ****         hw_sln_data[port] = (uint32_t)alt_mode_hw_data.val;
  54              		.loc 1 280 0
  55 001a A300     		lsls	r3, r4, #2
  56 001c D318     		adds	r3, r2, r3
  57              	.LVL3:
  58 001e 5960     		str	r1, [r3, #4]
 281:..\src\app\alt_mode/alt_mode_hw.c **** 
 282:..\src\app\alt_mode/alt_mode_hw.c ****         /* Call the event callback, if it exists. */
 283:..\src\app\alt_mode/alt_mode_hw.c ****         if (gl_hw_cmd_cbk[port] != NULL)
  59              		.loc 1 283 0
ARM GAS  e:\temp\ccdmNCtc.s 			page 7


  60 0020 DB68     		ldr	r3, [r3, #12]
  61 0022 002B     		cmp	r3, #0
  62 0024 01D0     		beq	.L3
 284:..\src\app\alt_mode/alt_mode_hw.c ****         {
 285:..\src\app\alt_mode/alt_mode_hw.c ****             gl_hw_cmd_cbk[port] (port, alt_mode_hw_data.val);
  63              		.loc 1 285 0
  64 0026 2000     		movs	r0, r4
  65 0028 9847     		blx	r3
  66              	.LVL4:
  67              	.L3:
 286:..\src\app\alt_mode/alt_mode_hw.c ****         }
 287:..\src\app\alt_mode/alt_mode_hw.c **** 
 288:..\src\app\alt_mode/alt_mode_hw.c ****         /* Send notification to the solution. */
 289:..\src\app\alt_mode/alt_mode_hw.c ****         sln_pd_event_handler(port, APP_EVT_APP_HW, &(hw_sln_data[port]));
  68              		.loc 1 289 0
  69 002a A300     		lsls	r3, r4, #2
  70 002c 034A     		ldr	r2, .L4
  71 002e 0432     		adds	r2, r2, #4
  72 0030 D218     		adds	r2, r2, r3
  73 0032 0721     		movs	r1, #7
  74              	.LVL5:
  75 0034 2000     		movs	r0, r4
  76 0036 FFF7FEFF 		bl	sln_pd_event_handler
  77              	.LVL6:
  78              	.L1:
  79              	.LBE2:
 290:..\src\app\alt_mode/alt_mode_hw.c ****     }
 291:..\src\app\alt_mode/alt_mode_hw.c **** }
  80              		.loc 1 291 0
  81              		@ sp needed
  82 003a 10BD     		pop	{r4, pc}
  83              	.L5:
  84              		.align	2
  85              	.L4:
  86 003c 00000000 		.word	.LANCHOR0
  87              		.cfi_endproc
  88              	.LFE36:
  89              		.size	dp_src_hpd_cbk, .-dp_src_hpd_cbk
  90              		.section	.text.alt_mode_hw_set_cbk,"ax",%progbits
  91              		.align	2
  92              		.global	alt_mode_hw_set_cbk
  93              		.code	16
  94              		.thumb_func
  95              		.type	alt_mode_hw_set_cbk, %function
  96              	alt_mode_hw_set_cbk:
  97              	.LFB34:
 127:..\src\app\alt_mode/alt_mode_hw.c ****     /* Register the callback if the port is valid. */
  98              		.loc 1 127 0
  99              		.cfi_startproc
 100              		@ args = 0, pretend = 0, frame = 0
 101              		@ frame_needed = 0, uses_anonymous_args = 0
 102              		@ link register save eliminated.
 103              	.LVL7:
 129:..\src\app\alt_mode/alt_mode_hw.c ****     {
 104              		.loc 1 129 0
 105 0000 0128     		cmp	r0, #1
 106 0002 03D8     		bhi	.L6
ARM GAS  e:\temp\ccdmNCtc.s 			page 8


 131:..\src\app\alt_mode/alt_mode_hw.c ****     }
 107              		.loc 1 131 0
 108 0004 8000     		lsls	r0, r0, #2
 109              	.LVL8:
 110 0006 024B     		ldr	r3, .L8
 111 0008 1818     		adds	r0, r3, r0
 112 000a C160     		str	r1, [r0, #12]
 113              	.L6:
 133:..\src\app\alt_mode/alt_mode_hw.c **** 
 114              		.loc 1 133 0
 115              		@ sp needed
 116 000c 7047     		bx	lr
 117              	.L9:
 118 000e C046     		.align	2
 119              	.L8:
 120 0010 00000000 		.word	.LANCHOR0
 121              		.cfi_endproc
 122              	.LFE34:
 123              		.size	alt_mode_hw_set_cbk, .-alt_mode_hw_set_cbk
 124              		.section	.text.eval_hpd_cmd,"ax",%progbits
 125              		.align	2
 126              		.global	eval_hpd_cmd
 127              		.code	16
 128              		.thumb_func
 129              		.type	eval_hpd_cmd, %function
 130              	eval_hpd_cmd:
 131              	.LFB35:
 136:..\src\app\alt_mode/alt_mode_hw.c ****     if (cmd == HPD_DISABLE_CMD)
 132              		.loc 1 136 0
 133              		.cfi_startproc
 134              		@ args = 0, pretend = 0, frame = 0
 135              		@ frame_needed = 0, uses_anonymous_args = 0
 136              	.LVL9:
 137 0000 10B5     		push	{r4, lr}
 138              		.cfi_def_cfa_offset 8
 139              		.cfi_offset 4, -8
 140              		.cfi_offset 14, -4
 137:..\src\app\alt_mode/alt_mode_hw.c ****     {
 141              		.loc 1 137 0
 142 0002 0529     		cmp	r1, #5
 143 0004 06D1     		bne	.L11
 139:..\src\app\alt_mode/alt_mode_hw.c **** 
 144              		.loc 1 139 0
 145 0006 0022     		movs	r2, #0
 146 0008 124B     		ldr	r3, .L16
 147 000a 1A54     		strb	r2, [r3, r0]
 144:..\src\app\alt_mode/alt_mode_hw.c **** #endif /* RIDGE_I2C_HPD_ENABLE */
 148              		.loc 1 144 0
 149 000c FFF7FEFF 		bl	hpd_deinit
 150              	.LVL10:
 147:..\src\app\alt_mode/alt_mode_hw.c ****     }
 151              		.loc 1 147 0
 152 0010 0120     		movs	r0, #1
 153 0012 1DE0     		b	.L12
 154              	.LVL11:
 155              	.L11:
 151:..\src\app\alt_mode/alt_mode_hw.c ****     {
ARM GAS  e:\temp\ccdmNCtc.s 			page 9


 156              		.loc 1 151 0
 157 0014 104B     		ldr	r3, .L16+4
 158 0016 1B5C     		ldrb	r3, [r3, r0]
 159 0018 002B     		cmp	r3, #0
 160 001a 16D0     		beq	.L14
 153:..\src\app\alt_mode/alt_mode_hw.c ****         {
 161              		.loc 1 153 0
 162 001c 0029     		cmp	r1, #0
 163 001e 07D1     		bne	.L13
 155:..\src\app\alt_mode/alt_mode_hw.c **** 
 164              		.loc 1 155 0
 165 0020 0022     		movs	r2, #0
 166 0022 0C4B     		ldr	r3, .L16
 167 0024 1A54     		strb	r2, [r3, r0]
 160:..\src\app\alt_mode/alt_mode_hw.c **** #endif /* RIDGE_I2C_HPD_ENABLE */
 168              		.loc 1 160 0
 169 0026 0D49     		ldr	r1, .L16+8
 170              	.LVL12:
 171 0028 FFF7FEFF 		bl	hpd_transmit_init
 172              	.LVL13:
 163:..\src\app\alt_mode/alt_mode_hw.c ****         }
 173              		.loc 1 163 0
 174 002c 0120     		movs	r0, #1
 175 002e 0FE0     		b	.L12
 176              	.LVL14:
 177              	.L13:
 167:..\src\app\alt_mode/alt_mode_hw.c ****             {
 178              		.loc 1 167 0
 179 0030 0429     		cmp	r1, #4
 180 0032 0CD8     		bhi	.L15
 169:..\src\app\alt_mode/alt_mode_hw.c ****                 gl_alt_mode_hpd_state[port]   = (hpd_event_type_t)cmd;
 181              		.loc 1 169 0
 182 0034 074B     		ldr	r3, .L16
 183 0036 0122     		movs	r2, #1
 184 0038 1A54     		strb	r2, [r3, r0]
 170:..\src\app\alt_mode/alt_mode_hw.c **** 
 185              		.loc 1 170 0
 186 003a C9B2     		uxtb	r1, r1
 187              	.LVL15:
 188 003c 1B18     		adds	r3, r3, r0
 189 003e 1975     		strb	r1, [r3, #20]
 175:..\src\app\alt_mode/alt_mode_hw.c **** #endif /* RIDGE_I2C_HPD_ENABLE */
 190              		.loc 1 175 0
 191 0040 0022     		movs	r2, #0
 192 0042 FFF7FEFF 		bl	hpd_transmit_sendevt
 193              	.LVL16:
 178:..\src\app\alt_mode/alt_mode_hw.c ****             }
 194              		.loc 1 178 0
 195 0046 0120     		movs	r0, #1
 196 0048 02E0     		b	.L12
 197              	.LVL17:
 198              	.L14:
 208:..\src\app\alt_mode/alt_mode_hw.c **** }
 199              		.loc 1 208 0
 200 004a 0020     		movs	r0, #0
 201              	.LVL18:
 202 004c 00E0     		b	.L12
ARM GAS  e:\temp\ccdmNCtc.s 			page 10


 203              	.LVL19:
 204              	.L15:
 205 004e 0020     		movs	r0, #0
 206              	.LVL20:
 207              	.L12:
 209:..\src\app\alt_mode/alt_mode_hw.c **** 
 208              		.loc 1 209 0
 209              		@ sp needed
 210 0050 10BD     		pop	{r4, pc}
 211              	.L17:
 212 0052 C046     		.align	2
 213              	.L16:
 214 0054 00000000 		.word	.LANCHOR0
 215 0058 00000000 		.word	gl_dpm_port_type
 216 005c 00000000 		.word	dp_src_hpd_cbk
 217              		.cfi_endproc
 218              	.LFE35:
 219              		.size	eval_hpd_cmd, .-eval_hpd_cmd
 220              		.section	.text.get_mux_state,"ax",%progbits
 221              		.align	2
 222              		.global	get_mux_state
 223              		.code	16
 224              		.thumb_func
 225              		.type	get_mux_state, %function
 226              	get_mux_state:
 227              	.LFB38:
 292:..\src\app\alt_mode/alt_mode_hw.c **** #endif /* DP_DFP_SUPP */
 293:..\src\app\alt_mode/alt_mode_hw.c **** 
 294:..\src\app\alt_mode/alt_mode_hw.c **** void alt_mode_hw_deinit(uint8_t port)
 295:..\src\app\alt_mode/alt_mode_hw.c **** {
 296:..\src\app\alt_mode/alt_mode_hw.c ****     /* If we still have a device connected, switch MUX to USB mode. */
 297:..\src\app\alt_mode/alt_mode_hw.c ****     if (dpm_get_info(port)->attach)
 298:..\src\app\alt_mode/alt_mode_hw.c ****     {
 299:..\src\app\alt_mode/alt_mode_hw.c ****         if(dpm_get_info(port)->fault_active == false)
 300:..\src\app\alt_mode/alt_mode_hw.c ****         {
 301:..\src\app\alt_mode/alt_mode_hw.c ****             set_mux(port, MUX_CONFIG_SS_ONLY, NO_DATA);
 302:..\src\app\alt_mode/alt_mode_hw.c ****         }
 303:..\src\app\alt_mode/alt_mode_hw.c ****         else
 304:..\src\app\alt_mode/alt_mode_hw.c ****         {
 305:..\src\app\alt_mode/alt_mode_hw.c ****             /* CDT277908: in fault condition switch MUX to isolate state */
 306:..\src\app\alt_mode/alt_mode_hw.c ****             set_mux(port, MUX_CONFIG_ISOLATE, NO_DATA);
 307:..\src\app\alt_mode/alt_mode_hw.c ****         }
 308:..\src\app\alt_mode/alt_mode_hw.c ****     }
 309:..\src\app\alt_mode/alt_mode_hw.c **** 
 310:..\src\app\alt_mode/alt_mode_hw.c **** #if ((DP_DFP_SUPP) || (DP_UFP_SUPP))
 311:..\src\app\alt_mode/alt_mode_hw.c **** 
 312:..\src\app\alt_mode/alt_mode_hw.c **** #if RIDGE_I2C_HPD_ENABLE
 313:..\src\app\alt_mode/alt_mode_hw.c ****     tr_hpd_deinit(port);
 314:..\src\app\alt_mode/alt_mode_hw.c **** #else /* !RIDGE_I2C_HPD_ENABLE */
 315:..\src\app\alt_mode/alt_mode_hw.c ****     hpd_deinit(port);
 316:..\src\app\alt_mode/alt_mode_hw.c **** #endif /* RIDGE_I2C_HPD_ENABLE */
 317:..\src\app\alt_mode/alt_mode_hw.c **** 
 318:..\src\app\alt_mode/alt_mode_hw.c ****     /* Clear state variables. */
 319:..\src\app\alt_mode/alt_mode_hw.c ****     gl_alt_mode_cmd_pending[port] = false;
 320:..\src\app\alt_mode/alt_mode_hw.c ****     gl_alt_mode_hpd_state[port]   = HPD_EVENT_NONE;
 321:..\src\app\alt_mode/alt_mode_hw.c ****     gl_hw_cmd_cbk[port]           = NULL;
 322:..\src\app\alt_mode/alt_mode_hw.c **** #endif /* (DP_DFP_SUPP) || (DP_UFP_SUPP) */
ARM GAS  e:\temp\ccdmNCtc.s 			page 11


 323:..\src\app\alt_mode/alt_mode_hw.c **** }
 324:..\src\app\alt_mode/alt_mode_hw.c **** 
 325:..\src\app\alt_mode/alt_mode_hw.c **** mux_select_t get_mux_state(uint8_t port)
 326:..\src\app\alt_mode/alt_mode_hw.c **** {
 228              		.loc 1 326 0
 229              		.cfi_startproc
 230              		@ args = 0, pretend = 0, frame = 0
 231              		@ frame_needed = 0, uses_anonymous_args = 0
 232              		@ link register save eliminated.
 233              	.LVL21:
 327:..\src\app\alt_mode/alt_mode_hw.c ****     if (port < NO_OF_TYPEC_PORTS)
 234              		.loc 1 327 0
 235 0000 0128     		cmp	r0, #1
 236 0002 03D8     		bhi	.L20
 328:..\src\app\alt_mode/alt_mode_hw.c ****         return (app_mux_state[port]);
 237              		.loc 1 328 0
 238 0004 024B     		ldr	r3, .L21
 239 0006 1818     		adds	r0, r3, r0
 240              	.LVL22:
 241 0008 007E     		ldrb	r0, [r0, #24]
 242 000a 00E0     		b	.L19
 243              	.LVL23:
 244              	.L20:
 329:..\src\app\alt_mode/alt_mode_hw.c ****     return (MUX_CONFIG_ISOLATE);
 245              		.loc 1 329 0
 246 000c 0020     		movs	r0, #0
 247              	.LVL24:
 248              	.L19:
 330:..\src\app\alt_mode/alt_mode_hw.c **** }
 249              		.loc 1 330 0
 250              		@ sp needed
 251 000e 7047     		bx	lr
 252              	.L22:
 253              		.align	2
 254              	.L21:
 255 0010 00000000 		.word	.LANCHOR0
 256              		.cfi_endproc
 257              	.LFE38:
 258              		.size	get_mux_state, .-get_mux_state
 259              		.section	.text.set_mux,"ax",%progbits
 260              		.align	2
 261              		.global	set_mux
 262              		.code	16
 263              		.thumb_func
 264              		.type	set_mux, %function
 265              	set_mux:
 266              	.LFB39:
 331:..\src\app\alt_mode/alt_mode_hw.c **** 
 332:..\src\app\alt_mode/alt_mode_hw.c **** #if MUX_DELAY_EN
 333:..\src\app\alt_mode/alt_mode_hw.c **** void mux_cbk (uint8_t port, timer_id_t id)
 334:..\src\app\alt_mode/alt_mode_hw.c **** {
 335:..\src\app\alt_mode/alt_mode_hw.c ****     (void)id;
 336:..\src\app\alt_mode/alt_mode_hw.c ****     app_status_t* app_stat = app_get_status(port);
 337:..\src\app\alt_mode/alt_mode_hw.c ****     /* Stop Delay timer */
 338:..\src\app\alt_mode/alt_mode_hw.c ****     timer_stop(port, APP_MUX_DELAY_TIMER);
 339:..\src\app\alt_mode/alt_mode_hw.c ****     /* If UFP should respond to VDM then send VDM response */
 340:..\src\app\alt_mode/alt_mode_hw.c ****     if ((gl_dpm_port_type[port] == PRT_TYPE_UFP) && (app_stat->is_vdm_pending != false))
ARM GAS  e:\temp\ccdmNCtc.s 			page 12


 341:..\src\app\alt_mode/alt_mode_hw.c ****     {
 342:..\src\app\alt_mode/alt_mode_hw.c ****         app_stat->vdm_resp_cbk(port, &app_stat->vdm_resp);
 343:..\src\app\alt_mode/alt_mode_hw.c ****         app_stat->is_vdm_pending = false;
 344:..\src\app\alt_mode/alt_mode_hw.c ****     }
 345:..\src\app\alt_mode/alt_mode_hw.c ****     app_stat->is_mux_busy = false;
 346:..\src\app\alt_mode/alt_mode_hw.c **** #if MUX_POLL_EN
 347:..\src\app\alt_mode/alt_mode_hw.c ****     timer_stop(port, APP_MUX_POLL_TIMER);
 348:..\src\app\alt_mode/alt_mode_hw.c **** #if (CCG_HPI_ENABLE) && (CCG_HPI_PD_ENABLE)
 349:..\src\app\alt_mode/alt_mode_hw.c ****     /* Send MUX Error notification if MUX failed */
 350:..\src\app\alt_mode/alt_mode_hw.c ****     if (
 351:..\src\app\alt_mode/alt_mode_hw.c ****             (app_stat->vdm_resp.resp_buf[VDM_HEADER_IDX].std_vdm_hdr.cmd_type == CMD_TYPE_RESP_NAK)
 352:..\src\app\alt_mode/alt_mode_hw.c ****             (app_stat->vdm_resp.resp_buf[VDM_HEADER_IDX].std_vdm_hdr.cmd_type = CMD_TYPE_RESP_BUSY)
 353:..\src\app\alt_mode/alt_mode_hw.c ****        )
 354:..\src\app\alt_mode/alt_mode_hw.c ****         /* Notify the EC if there is a MUX access error. */
 355:..\src\app\alt_mode/alt_mode_hw.c ****         hpi_send_hw_error_event (port, SYS_HW_ERROR_MUX_ACCESS);
 356:..\src\app\alt_mode/alt_mode_hw.c **** #endif
 357:..\src\app\alt_mode/alt_mode_hw.c **** #endif /* MUX_POLL_EN */
 358:..\src\app\alt_mode/alt_mode_hw.c **** }
 359:..\src\app\alt_mode/alt_mode_hw.c **** 
 360:..\src\app\alt_mode/alt_mode_hw.c **** #if MUX_POLL_EN
 361:..\src\app\alt_mode/alt_mode_hw.c **** void mux_poll_cbk (uint8_t port, timer_id_t id)
 362:..\src\app\alt_mode/alt_mode_hw.c **** {
 363:..\src\app\alt_mode/alt_mode_hw.c ****     (void)id;
 364:..\src\app\alt_mode/alt_mode_hw.c ****     mux_poll_status_t mux_stat;
 365:..\src\app\alt_mode/alt_mode_hw.c ****     app_status_t*     app_stat = app_get_status(port);
 366:..\src\app\alt_mode/alt_mode_hw.c **** 
 367:..\src\app\alt_mode/alt_mode_hw.c ****     if (app_stat->mux_poll_cbk != NULL)
 368:..\src\app\alt_mode/alt_mode_hw.c ****     {
 369:..\src\app\alt_mode/alt_mode_hw.c ****         /* Run and analyse MUX polling function */
 370:..\src\app\alt_mode/alt_mode_hw.c ****         mux_stat = app_stat->mux_poll_cbk(port);
 371:..\src\app\alt_mode/alt_mode_hw.c ****         switch(mux_stat)
 372:..\src\app\alt_mode/alt_mode_hw.c ****         {
 373:..\src\app\alt_mode/alt_mode_hw.c ****             case MUX_STATE_FAIL:
 374:..\src\app\alt_mode/alt_mode_hw.c ****                 /* Save status and goto MUX handler */
 375:..\src\app\alt_mode/alt_mode_hw.c ****                 app_stat->vdm_resp.resp_buf[VDM_HEADER_IDX].std_vdm_hdr.cmd_type = CMD_TYPE_RESP_NA
 376:..\src\app\alt_mode/alt_mode_hw.c ****                 mux_cbk(port, APP_MUX_DELAY_TIMER);
 377:..\src\app\alt_mode/alt_mode_hw.c ****                 break;
 378:..\src\app\alt_mode/alt_mode_hw.c ****             case MUX_STATE_SUCCESS:
 379:..\src\app\alt_mode/alt_mode_hw.c ****                 /* Save status and goto MUX handler */
 380:..\src\app\alt_mode/alt_mode_hw.c ****                 app_stat->vdm_resp.resp_buf[VDM_HEADER_IDX].std_vdm_hdr.cmd_type = CMD_TYPE_RESP_AC
 381:..\src\app\alt_mode/alt_mode_hw.c ****                 mux_cbk(port, APP_MUX_DELAY_TIMER);
 382:..\src\app\alt_mode/alt_mode_hw.c ****                 break;
 383:..\src\app\alt_mode/alt_mode_hw.c ****             default:
 384:..\src\app\alt_mode/alt_mode_hw.c ****                 /* Run polling again */
 385:..\src\app\alt_mode/alt_mode_hw.c ****                 app_stat->vdm_resp.resp_buf[VDM_HEADER_IDX].std_vdm_hdr.cmd_type = CMD_TYPE_RESP_BU
 386:..\src\app\alt_mode/alt_mode_hw.c ****                 timer_start(port, APP_MUX_POLL_TIMER, APP_MUX_POLL_TIMER_PERIOD, mux_poll_cbk);
 387:..\src\app\alt_mode/alt_mode_hw.c ****         }
 388:..\src\app\alt_mode/alt_mode_hw.c ****     }
 389:..\src\app\alt_mode/alt_mode_hw.c **** }
 390:..\src\app\alt_mode/alt_mode_hw.c **** #endif /* MUX_POLL_EN */
 391:..\src\app\alt_mode/alt_mode_hw.c **** #endif /* MUX_DELAY_EN */
 392:..\src\app\alt_mode/alt_mode_hw.c **** 
 393:..\src\app\alt_mode/alt_mode_hw.c **** bool set_mux(uint8_t port, mux_select_t cfg, uint32_t custom_data)
 394:..\src\app\alt_mode/alt_mode_hw.c **** {
 267              		.loc 1 394 0
 268              		.cfi_startproc
 269              		@ args = 0, pretend = 0, frame = 0
ARM GAS  e:\temp\ccdmNCtc.s 			page 13


 270              		@ frame_needed = 0, uses_anonymous_args = 0
 271              	.LVL25:
 272 0000 70B5     		push	{r4, r5, r6, lr}
 273              		.cfi_def_cfa_offset 16
 274              		.cfi_offset 4, -16
 275              		.cfi_offset 5, -12
 276              		.cfi_offset 6, -8
 277              		.cfi_offset 14, -4
 278 0002 0500     		movs	r5, r0
 279 0004 0C00     		movs	r4, r1
 280              	.LVL26:
 395:..\src\app\alt_mode/alt_mode_hw.c ****     bool retval = true;
 396:..\src\app\alt_mode/alt_mode_hw.c **** 
 397:..\src\app\alt_mode/alt_mode_hw.c ****     (void)custom_data;
 398:..\src\app\alt_mode/alt_mode_hw.c **** 
 399:..\src\app\alt_mode/alt_mode_hw.c ****     /* Store the current MUX configuration. */
 400:..\src\app\alt_mode/alt_mode_hw.c ****     app_mux_state[port] = cfg;
 281              		.loc 1 400 0
 282 0006 0B4B     		ldr	r3, .L26
 283 0008 1B18     		adds	r3, r3, r0
 284 000a 1976     		strb	r1, [r3, #24]
 401:..\src\app\alt_mode/alt_mode_hw.c **** 
 402:..\src\app\alt_mode/alt_mode_hw.c **** #if (MUX_TYPE == DP_MUX)
 403:..\src\app\alt_mode/alt_mode_hw.c ****     if (cfg <= MUX_CONFIG_RIDGE_CUSTOM)
 285              		.loc 1 403 0
 286 000c 0529     		cmp	r1, #5
 287 000e 0DD8     		bhi	.L25
 404:..\src\app\alt_mode/alt_mode_hw.c ****     {
 405:..\src\app\alt_mode/alt_mode_hw.c ****         retval = mux_ctrl_set_cfg (port, cfg,  dpm_get_polarity (port));
 288              		.loc 1 405 0
 289 0010 FFF7FEFF 		bl	dpm_get_polarity
 290              	.LVL27:
 291 0014 0200     		movs	r2, r0
 292 0016 2100     		movs	r1, r4
 293 0018 2800     		movs	r0, r5
 294 001a FFF7FEFF 		bl	mux_ctrl_set_cfg
 295              	.LVL28:
 296 001e 041E     		subs	r4, r0, #0
 297              	.LVL29:
 406:..\src\app\alt_mode/alt_mode_hw.c **** #if (CCG_HPI_ENABLE) && (CCG_HPI_PD_ENABLE)
 407:..\src\app\alt_mode/alt_mode_hw.c ****         if (!retval)
 298              		.loc 1 407 0
 299 0020 05D1     		bne	.L24
 408:..\src\app\alt_mode/alt_mode_hw.c ****         {
 409:..\src\app\alt_mode/alt_mode_hw.c ****             /* Notify the EC if there is a MUX access error. */
 410:..\src\app\alt_mode/alt_mode_hw.c ****             hpi_send_hw_error_event (port, SYS_HW_ERROR_MUX_ACCESS);
 300              		.loc 1 410 0
 301 0022 0121     		movs	r1, #1
 302 0024 2800     		movs	r0, r5
 303              	.LVL30:
 304 0026 FFF7FEFF 		bl	hpi_send_hw_error_event
 305              	.LVL31:
 306 002a 00E0     		b	.L24
 307              	.LVL32:
 308              	.L25:
 411:..\src\app\alt_mode/alt_mode_hw.c ****         }
 412:..\src\app\alt_mode/alt_mode_hw.c **** #endif
ARM GAS  e:\temp\ccdmNCtc.s 			page 14


 413:..\src\app\alt_mode/alt_mode_hw.c ****     }
 414:..\src\app\alt_mode/alt_mode_hw.c ****     else
 415:..\src\app\alt_mode/alt_mode_hw.c ****     {
 416:..\src\app\alt_mode/alt_mode_hw.c ****         retval = false;
 309              		.loc 1 416 0
 310 002c 0024     		movs	r4, #0
 311              	.LVL33:
 312              	.L24:
 417:..\src\app\alt_mode/alt_mode_hw.c ****     }
 418:..\src\app\alt_mode/alt_mode_hw.c **** #elif (MUX_TYPE == RIDGE_MUX)
 419:..\src\app\alt_mode/alt_mode_hw.c ****     /* In TBT use cases, this call is used to configure the SBU Mux.
 420:..\src\app\alt_mode/alt_mode_hw.c ****      * This has to be configured before notifying Alpine/Titan Ridge. */
 421:..\src\app\alt_mode/alt_mode_hw.c ****     if (cfg <= MUX_CONFIG_RIDGE_CUSTOM)
 422:..\src\app\alt_mode/alt_mode_hw.c ****     {
 423:..\src\app\alt_mode/alt_mode_hw.c ****         retval = mux_ctrl_set_cfg (port, cfg,  dpm_get_polarity (port));
 424:..\src\app\alt_mode/alt_mode_hw.c **** #if CCG_HPI_ENABLE
 425:..\src\app\alt_mode/alt_mode_hw.c ****         if (!retval)
 426:..\src\app\alt_mode/alt_mode_hw.c ****         {
 427:..\src\app\alt_mode/alt_mode_hw.c ****             /* Notify the EC if there is a MUX access error. */
 428:..\src\app\alt_mode/alt_mode_hw.c ****             hpi_send_hw_error_event (port, SYS_HW_ERROR_MUX_ACCESS);
 429:..\src\app\alt_mode/alt_mode_hw.c ****         }
 430:..\src\app\alt_mode/alt_mode_hw.c **** #endif
 431:..\src\app\alt_mode/alt_mode_hw.c ****     }
 432:..\src\app\alt_mode/alt_mode_hw.c **** 
 433:..\src\app\alt_mode/alt_mode_hw.c **** #if RIDGE_SLAVE_ENABLE
 434:..\src\app\alt_mode/alt_mode_hw.c ****     /*
 435:..\src\app\alt_mode/alt_mode_hw.c ****        Update the Alpine/Titan Ridge status register. Do this even if the above call failed.
 436:..\src\app\alt_mode/alt_mode_hw.c ****        This function is not expected to fail as it is an internal operation.
 437:..\src\app\alt_mode/alt_mode_hw.c ****      */
 438:..\src\app\alt_mode/alt_mode_hw.c ****     ridge_set_mux (port, cfg, dpm_get_polarity(port), custom_data);
 439:..\src\app\alt_mode/alt_mode_hw.c **** #endif /* RIDGE_SLAVE_ENABLE */
 440:..\src\app\alt_mode/alt_mode_hw.c **** #endif /* MUX_TYPE */
 441:..\src\app\alt_mode/alt_mode_hw.c **** 
 442:..\src\app\alt_mode/alt_mode_hw.c **** #if MUX_DELAY_EN
 443:..\src\app\alt_mode/alt_mode_hw.c ****     if (retval != false)
 444:..\src\app\alt_mode/alt_mode_hw.c ****     {
 445:..\src\app\alt_mode/alt_mode_hw.c ****         /* Run MUX delay timer */
 446:..\src\app\alt_mode/alt_mode_hw.c ****         app_get_status(port)->is_mux_busy = true;
 447:..\src\app\alt_mode/alt_mode_hw.c ****         timer_start(port, APP_MUX_DELAY_TIMER, APP_MUX_VDM_DELAY_TIMER_PERIOD, mux_cbk);
 448:..\src\app\alt_mode/alt_mode_hw.c **** #if MUX_POLL_EN
 449:..\src\app\alt_mode/alt_mode_hw.c ****         /* Run MUX polling timer */
 450:..\src\app\alt_mode/alt_mode_hw.c ****         timer_start(port, APP_MUX_POLL_TIMER, APP_MUX_POLL_TIMER_PERIOD, mux_poll_cbk);
 451:..\src\app\alt_mode/alt_mode_hw.c **** #endif /* MUX_POLL_EN */
 452:..\src\app\alt_mode/alt_mode_hw.c ****     }
 453:..\src\app\alt_mode/alt_mode_hw.c **** #endif /* MUX_DELAY_EN */
 454:..\src\app\alt_mode/alt_mode_hw.c **** 
 455:..\src\app\alt_mode/alt_mode_hw.c ****     return retval;
 456:..\src\app\alt_mode/alt_mode_hw.c **** }
 313              		.loc 1 456 0
 314 002e 2000     		movs	r0, r4
 315              		@ sp needed
 316              	.LVL34:
 317 0030 70BD     		pop	{r4, r5, r6, pc}
 318              	.L27:
 319 0032 C046     		.align	2
 320              	.L26:
 321 0034 00000000 		.word	.LANCHOR0
ARM GAS  e:\temp\ccdmNCtc.s 			page 15


 322              		.cfi_endproc
 323              	.LFE39:
 324              		.size	set_mux, .-set_mux
 325              		.section	.text.eval_mux_cmd,"ax",%progbits
 326              		.align	2
 327              		.global	eval_mux_cmd
 328              		.code	16
 329              		.thumb_func
 330              		.type	eval_mux_cmd, %function
 331              	eval_mux_cmd:
 332              	.LFB33:
 116:..\src\app\alt_mode/alt_mode_hw.c ****     if ((cmd >= MUX_CONFIG_ISOLATE)&&(cmd <= MUX_CONFIG_DP_4_LANE))
 333              		.loc 1 116 0
 334              		.cfi_startproc
 335              		@ args = 0, pretend = 0, frame = 0
 336              		@ frame_needed = 0, uses_anonymous_args = 0
 337              	.LVL35:
 338 0000 10B5     		push	{r4, lr}
 339              		.cfi_def_cfa_offset 8
 340              		.cfi_offset 4, -8
 341              		.cfi_offset 14, -4
 117:..\src\app\alt_mode/alt_mode_hw.c ****     {
 342              		.loc 1 117 0
 343 0002 0429     		cmp	r1, #4
 344 0004 04D8     		bhi	.L30
 119:..\src\app\alt_mode/alt_mode_hw.c ****     }
 345              		.loc 1 119 0
 346 0006 C9B2     		uxtb	r1, r1
 347              	.LVL36:
 348 0008 0022     		movs	r2, #0
 349 000a FFF7FEFF 		bl	set_mux
 350              	.LVL37:
 351 000e 00E0     		b	.L29
 352              	.LVL38:
 353              	.L30:
 122:..\src\app\alt_mode/alt_mode_hw.c **** }
 354              		.loc 1 122 0
 355 0010 0020     		movs	r0, #0
 356              	.LVL39:
 357              	.L29:
 123:..\src\app\alt_mode/alt_mode_hw.c **** 
 358              		.loc 1 123 0
 359              		@ sp needed
 360 0012 10BD     		pop	{r4, pc}
 361              		.cfi_endproc
 362              	.LFE33:
 363              		.size	eval_mux_cmd, .-eval_mux_cmd
 364              		.section	.text.eval_app_alt_hw_cmd,"ax",%progbits
 365              		.align	2
 366              		.global	eval_app_alt_hw_cmd
 367              		.code	16
 368              		.thumb_func
 369              		.type	eval_app_alt_hw_cmd, %function
 370              	eval_app_alt_hw_cmd:
 371              	.LFB32:
  86:..\src\app\alt_mode/alt_mode_hw.c ****     uint8_t             hw_type, data_role;
 372              		.loc 1 86 0
ARM GAS  e:\temp\ccdmNCtc.s 			page 16


 373              		.cfi_startproc
 374              		@ args = 0, pretend = 0, frame = 0
 375              		@ frame_needed = 0, uses_anonymous_args = 0
 376              	.LVL40:
 377 0000 10B5     		push	{r4, lr}
 378              		.cfi_def_cfa_offset 8
 379              		.cfi_offset 4, -8
 380              		.cfi_offset 14, -4
  91:..\src\app\alt_mode/alt_mode_hw.c ****     hw_type   = cmd_info.hw_evt.hw_type;
 381              		.loc 1 91 0
 382 0002 CB78     		ldrb	r3, [r1, #3]
 383 0004 1A06     		lsls	r2, r3, #24
 384 0006 8B78     		ldrb	r3, [r1, #2]
 385 0008 1B04     		lsls	r3, r3, #16
 386 000a 1343     		orrs	r3, r2
 387 000c 4A78     		ldrb	r2, [r1, #1]
 388 000e 1202     		lsls	r2, r2, #8
 389 0010 1343     		orrs	r3, r2
 390 0012 0978     		ldrb	r1, [r1]
 391              	.LVL41:
 392 0014 0B43     		orrs	r3, r1
 393              	.LVL42:
  92:..\src\app\alt_mode/alt_mode_hw.c ****     data_role = cmd_info.hw_evt.data_role;
 394              		.loc 1 92 0
 395 0016 1A02     		lsls	r2, r3, #8
 396 0018 120E     		lsrs	r2, r2, #24
 397              	.LVL43:
  93:..\src\app\alt_mode/alt_mode_hw.c **** 
 398              		.loc 1 93 0
 399 001a 1C0E     		lsrs	r4, r3, #24
 400              	.LVL44:
  95:..\src\app\alt_mode/alt_mode_hw.c ****     {
 401              		.loc 1 95 0
 402 001c 0A49     		ldr	r1, .L38
 403 001e 095C     		ldrb	r1, [r1, r0]
 404 0020 8C42     		cmp	r4, r1
 405 0022 0CD1     		bne	.L35
  97:..\src\app\alt_mode/alt_mode_hw.c ****         {
 406              		.loc 1 97 0
 407 0024 012A     		cmp	r2, #1
 408 0026 02D0     		beq	.L33
 409 0028 022A     		cmp	r2, #2
 410 002a 04D0     		beq	.L34
 411 002c 09E0     		b	.L37
 412              	.L33:
 100:..\src\app\alt_mode/alt_mode_hw.c **** 
 413              		.loc 1 100 0
 414 002e 99B2     		uxth	r1, r3
 415 0030 FFF7FEFF 		bl	eval_mux_cmd
 416              	.LVL45:
 417 0034 06E0     		b	.L32
 418              	.LVL46:
 419              	.L34:
 104:..\src\app\alt_mode/alt_mode_hw.c **** #endif /* (DP_DFP_SUPP) || (DP_UFP_SUPP) */
 420              		.loc 1 104 0
 421 0036 99B2     		uxth	r1, r3
 422 0038 FFF7FEFF 		bl	eval_hpd_cmd
ARM GAS  e:\temp\ccdmNCtc.s 			page 17


 423              	.LVL47:
 424 003c 02E0     		b	.L32
 425              	.LVL48:
 426              	.L35:
 112:..\src\app\alt_mode/alt_mode_hw.c **** }
 427              		.loc 1 112 0
 428 003e 0020     		movs	r0, #0
 429              	.LVL49:
 430 0040 00E0     		b	.L32
 431              	.LVL50:
 432              	.L37:
 433 0042 0020     		movs	r0, #0
 434              	.LVL51:
 435              	.L32:
 113:..\src\app\alt_mode/alt_mode_hw.c **** 
 436              		.loc 1 113 0
 437              		@ sp needed
 438 0044 10BD     		pop	{r4, pc}
 439              	.L39:
 440 0046 C046     		.align	2
 441              	.L38:
 442 0048 00000000 		.word	gl_dpm_port_type
 443              		.cfi_endproc
 444              	.LFE32:
 445              		.size	eval_app_alt_hw_cmd, .-eval_app_alt_hw_cmd
 446              		.section	.text.alt_mode_hw_deinit,"ax",%progbits
 447              		.align	2
 448              		.global	alt_mode_hw_deinit
 449              		.code	16
 450              		.thumb_func
 451              		.type	alt_mode_hw_deinit, %function
 452              	alt_mode_hw_deinit:
 453              	.LFB37:
 295:..\src\app\alt_mode/alt_mode_hw.c ****     /* If we still have a device connected, switch MUX to USB mode. */
 454              		.loc 1 295 0
 455              		.cfi_startproc
 456              		@ args = 0, pretend = 0, frame = 0
 457              		@ frame_needed = 0, uses_anonymous_args = 0
 458              	.LVL52:
 459 0000 10B5     		push	{r4, lr}
 460              		.cfi_def_cfa_offset 8
 461              		.cfi_offset 4, -8
 462              		.cfi_offset 14, -4
 463 0002 0400     		movs	r4, r0
 297:..\src\app\alt_mode/alt_mode_hw.c ****     {
 464              		.loc 1 297 0
 465 0004 FFF7FEFF 		bl	dpm_get_info
 466              	.LVL53:
 467 0008 7223     		movs	r3, #114
 468 000a C35C     		ldrb	r3, [r0, r3]
 469 000c 002B     		cmp	r3, #0
 470 000e 11D0     		beq	.L41
 299:..\src\app\alt_mode/alt_mode_hw.c ****         {
 471              		.loc 1 299 0
 472 0010 2000     		movs	r0, r4
 473 0012 FFF7FEFF 		bl	dpm_get_info
 474              	.LVL54:
ARM GAS  e:\temp\ccdmNCtc.s 			page 18


 475 0016 A123     		movs	r3, #161
 476 0018 C35C     		ldrb	r3, [r0, r3]
 477 001a 002B     		cmp	r3, #0
 478 001c 05D1     		bne	.L42
 301:..\src\app\alt_mode/alt_mode_hw.c ****         }
 479              		.loc 1 301 0
 480 001e 0022     		movs	r2, #0
 481 0020 0221     		movs	r1, #2
 482 0022 2000     		movs	r0, r4
 483 0024 FFF7FEFF 		bl	set_mux
 484              	.LVL55:
 485 0028 04E0     		b	.L41
 486              	.L42:
 306:..\src\app\alt_mode/alt_mode_hw.c ****         }
 487              		.loc 1 306 0
 488 002a 0022     		movs	r2, #0
 489 002c 0021     		movs	r1, #0
 490 002e 2000     		movs	r0, r4
 491 0030 FFF7FEFF 		bl	set_mux
 492              	.LVL56:
 493              	.L41:
 315:..\src\app\alt_mode/alt_mode_hw.c **** #endif /* RIDGE_I2C_HPD_ENABLE */
 494              		.loc 1 315 0
 495 0034 2000     		movs	r0, r4
 496 0036 FFF7FEFF 		bl	hpd_deinit
 497              	.LVL57:
 319:..\src\app\alt_mode/alt_mode_hw.c ****     gl_alt_mode_hpd_state[port]   = HPD_EVENT_NONE;
 498              		.loc 1 319 0
 499 003a 044A     		ldr	r2, .L43
 500 003c 0023     		movs	r3, #0
 501 003e 1355     		strb	r3, [r2, r4]
 320:..\src\app\alt_mode/alt_mode_hw.c ****     gl_hw_cmd_cbk[port]           = NULL;
 502              		.loc 1 320 0
 503 0040 1119     		adds	r1, r2, r4
 504 0042 0B75     		strb	r3, [r1, #20]
 321:..\src\app\alt_mode/alt_mode_hw.c **** #endif /* (DP_DFP_SUPP) || (DP_UFP_SUPP) */
 505              		.loc 1 321 0
 506 0044 A400     		lsls	r4, r4, #2
 507 0046 1419     		adds	r4, r2, r4
 508 0048 E360     		str	r3, [r4, #12]
 323:..\src\app\alt_mode/alt_mode_hw.c **** 
 509              		.loc 1 323 0
 510              		@ sp needed
 511 004a 10BD     		pop	{r4, pc}
 512              	.L44:
 513              		.align	2
 514              	.L43:
 515 004c 00000000 		.word	.LANCHOR0
 516              		.cfi_endproc
 517              	.LFE37:
 518              		.size	alt_mode_hw_deinit, .-alt_mode_hw_deinit
 519              		.section	.text.alt_mode_hw_is_idle,"ax",%progbits
 520              		.align	2
 521              		.global	alt_mode_hw_is_idle
 522              		.code	16
 523              		.thumb_func
 524              		.type	alt_mode_hw_is_idle, %function
ARM GAS  e:\temp\ccdmNCtc.s 			page 19


 525              	alt_mode_hw_is_idle:
 526              	.LFB40:
 457:..\src\app\alt_mode/alt_mode_hw.c **** 
 458:..\src\app\alt_mode/alt_mode_hw.c **** bool alt_mode_hw_is_idle(uint8_t port)
 459:..\src\app\alt_mode/alt_mode_hw.c **** {
 527              		.loc 1 459 0
 528              		.cfi_startproc
 529              		@ args = 0, pretend = 0, frame = 0
 530              		@ frame_needed = 0, uses_anonymous_args = 0
 531              		@ link register save eliminated.
 532              	.LVL58:
 460:..\src\app\alt_mode/alt_mode_hw.c ****     return (!gl_alt_mode_cmd_pending[port]);
 533              		.loc 1 460 0
 534 0000 024B     		ldr	r3, .L46
 535 0002 185C     		ldrb	r0, [r3, r0]
 536              	.LVL59:
 537 0004 0123     		movs	r3, #1
 538 0006 5840     		eors	r0, r3
 539 0008 C0B2     		uxtb	r0, r0
 461:..\src\app\alt_mode/alt_mode_hw.c **** }
 540              		.loc 1 461 0
 541              		@ sp needed
 542 000a 7047     		bx	lr
 543              	.L47:
 544              		.align	2
 545              	.L46:
 546 000c 00000000 		.word	.LANCHOR0
 547              		.cfi_endproc
 548              	.LFE40:
 549              		.size	alt_mode_hw_is_idle, .-alt_mode_hw_is_idle
 550              		.section	.text.alt_mode_hw_sleep,"ax",%progbits
 551              		.align	2
 552              		.global	alt_mode_hw_sleep
 553              		.code	16
 554              		.thumb_func
 555              		.type	alt_mode_hw_sleep, %function
 556              	alt_mode_hw_sleep:
 557              	.LFB41:
 462:..\src\app\alt_mode/alt_mode_hw.c **** 
 463:..\src\app\alt_mode/alt_mode_hw.c **** void alt_mode_hw_sleep(uint8_t port)
 464:..\src\app\alt_mode/alt_mode_hw.c **** {
 558              		.loc 1 464 0
 559              		.cfi_startproc
 560              		@ args = 0, pretend = 0, frame = 0
 561              		@ frame_needed = 0, uses_anonymous_args = 0
 562              	.LVL60:
 563 0000 10B5     		push	{r4, lr}
 564              		.cfi_def_cfa_offset 8
 565              		.cfi_offset 4, -8
 566              		.cfi_offset 14, -4
 567 0002 0400     		movs	r4, r0
 465:..\src\app\alt_mode/alt_mode_hw.c **** #if (RIDGE_I2C_HPD_ENABLE == 0)
 466:..\src\app\alt_mode/alt_mode_hw.c **** 
 467:..\src\app\alt_mode/alt_mode_hw.c **** #if DP_DFP_SUPP
 468:..\src\app\alt_mode/alt_mode_hw.c ****     /* We can use the presence of a callback as indication that the HPD block is active. */
 469:..\src\app\alt_mode/alt_mode_hw.c ****     if (gl_hw_cmd_cbk[port] != NULL)
 568              		.loc 1 469 0
ARM GAS  e:\temp\ccdmNCtc.s 			page 20


 569 0004 8300     		lsls	r3, r0, #2
 570 0006 104A     		ldr	r2, .L52
 571 0008 D318     		adds	r3, r2, r3
 572 000a DB68     		ldr	r3, [r3, #12]
 573 000c 002B     		cmp	r3, #0
 574 000e 1AD0     		beq	.L48
 470:..\src\app\alt_mode/alt_mode_hw.c ****     {
 471:..\src\app\alt_mode/alt_mode_hw.c ****         /* Set the value of the HPD GPIO based on the last event. */
 472:..\src\app\alt_mode/alt_mode_hw.c ****         if (port == 0)
 575              		.loc 1 472 0
 576 0010 0028     		cmp	r0, #0
 577 0012 0AD1     		bne	.L50
 473:..\src\app\alt_mode/alt_mode_hw.c ****         {
 474:..\src\app\alt_mode/alt_mode_hw.c ****             gpio_set_value (HPD_P0_PORT_PIN, (gl_alt_mode_hpd_state[port] > HPD_EVENT_UNPLUG));
 578              		.loc 1 474 0
 579 0014 1318     		adds	r3, r2, r0
 580 0016 197D     		ldrb	r1, [r3, #20]
 581 0018 C9B2     		uxtb	r1, r1
 582 001a 0123     		movs	r3, #1
 583 001c 8B42     		cmp	r3, r1
 584 001e 8941     		sbcs	r1, r1, r1
 585 0020 4942     		rsbs	r1, r1, #0
 586 0022 3020     		movs	r0, #48
 587              	.LVL61:
 588 0024 FFF7FEFF 		bl	gpio_set_value
 589              	.LVL62:
 590 0028 0AE0     		b	.L51
 591              	.LVL63:
 592              	.L50:
 475:..\src\app\alt_mode/alt_mode_hw.c ****         }
 476:..\src\app\alt_mode/alt_mode_hw.c ****         else
 477:..\src\app\alt_mode/alt_mode_hw.c ****         {
 478:..\src\app\alt_mode/alt_mode_hw.c ****             gpio_set_value (HPD_P1_PORT_PIN, (gl_alt_mode_hpd_state[port] > HPD_EVENT_UNPLUG));
 593              		.loc 1 478 0
 594 002a 074B     		ldr	r3, .L52
 595 002c 1B18     		adds	r3, r3, r0
 596 002e 197D     		ldrb	r1, [r3, #20]
 597 0030 C9B2     		uxtb	r1, r1
 598 0032 0123     		movs	r3, #1
 599 0034 8B42     		cmp	r3, r1
 600 0036 8941     		sbcs	r1, r1, r1
 601 0038 4942     		rsbs	r1, r1, #0
 602 003a 3420     		movs	r0, #52
 603              	.LVL64:
 604 003c FFF7FEFF 		bl	gpio_set_value
 605              	.LVL65:
 606              	.L51:
 479:..\src\app\alt_mode/alt_mode_hw.c ****         }
 480:..\src\app\alt_mode/alt_mode_hw.c **** 
 481:..\src\app\alt_mode/alt_mode_hw.c ****         /* Move the HPD pin from HPD IO mode to GPIO mode. */
 482:..\src\app\alt_mode/alt_mode_hw.c ****         hpd_sleep_entry (port);
 607              		.loc 1 482 0
 608 0040 2000     		movs	r0, r4
 609 0042 FFF7FEFF 		bl	hpd_sleep_entry
 610              	.LVL66:
 611              	.L48:
 483:..\src\app\alt_mode/alt_mode_hw.c ****     }
ARM GAS  e:\temp\ccdmNCtc.s 			page 21


 484:..\src\app\alt_mode/alt_mode_hw.c **** #endif
 485:..\src\app\alt_mode/alt_mode_hw.c **** 
 486:..\src\app\alt_mode/alt_mode_hw.c **** #if (DP_UFP_SUPP) && (CCG_HPD_RX_ENABLE)
 487:..\src\app\alt_mode/alt_mode_hw.c ****     /* CDT 245126 workaround: Prepare to enter deep sleep. */
 488:..\src\app\alt_mode/alt_mode_hw.c ****     hpd_rx_sleep_entry (port, dp_snk_get_hpd_state(port));
 489:..\src\app\alt_mode/alt_mode_hw.c **** #endif /* DP_UFP_SUPP  && CCG_HPD_RX_ENABLE */
 490:..\src\app\alt_mode/alt_mode_hw.c **** 
 491:..\src\app\alt_mode/alt_mode_hw.c **** #endif /* (RIDGE_I2C_HPD_ENABLE == 0) */
 492:..\src\app\alt_mode/alt_mode_hw.c **** }
 612              		.loc 1 492 0
 613              		@ sp needed
 614 0046 10BD     		pop	{r4, pc}
 615              	.L53:
 616              		.align	2
 617              	.L52:
 618 0048 00000000 		.word	.LANCHOR0
 619              		.cfi_endproc
 620              	.LFE41:
 621              		.size	alt_mode_hw_sleep, .-alt_mode_hw_sleep
 622              		.section	.text.alt_mode_hw_wakeup,"ax",%progbits
 623              		.align	2
 624              		.global	alt_mode_hw_wakeup
 625              		.code	16
 626              		.thumb_func
 627              		.type	alt_mode_hw_wakeup, %function
 628              	alt_mode_hw_wakeup:
 629              	.LFB42:
 493:..\src\app\alt_mode/alt_mode_hw.c **** 
 494:..\src\app\alt_mode/alt_mode_hw.c **** void alt_mode_hw_wakeup(uint8_t port)
 495:..\src\app\alt_mode/alt_mode_hw.c **** {
 630              		.loc 1 495 0
 631              		.cfi_startproc
 632              		@ args = 0, pretend = 0, frame = 0
 633              		@ frame_needed = 0, uses_anonymous_args = 0
 634              	.LVL67:
 635 0000 10B5     		push	{r4, lr}
 636              		.cfi_def_cfa_offset 8
 637              		.cfi_offset 4, -8
 638              		.cfi_offset 14, -4
 496:..\src\app\alt_mode/alt_mode_hw.c **** #if (RIDGE_I2C_HPD_ENABLE == 0)
 497:..\src\app\alt_mode/alt_mode_hw.c **** 
 498:..\src\app\alt_mode/alt_mode_hw.c **** #if DP_DFP_SUPP
 499:..\src\app\alt_mode/alt_mode_hw.c ****     /* We can use the presence of a callback as indication that the HPD block is active. */
 500:..\src\app\alt_mode/alt_mode_hw.c ****     if (gl_hw_cmd_cbk[port] != NULL)
 639              		.loc 1 500 0
 640 0002 8300     		lsls	r3, r0, #2
 641 0004 074A     		ldr	r2, .L56
 642 0006 D318     		adds	r3, r2, r3
 643 0008 DB68     		ldr	r3, [r3, #12]
 644 000a 002B     		cmp	r3, #0
 645 000c 08D0     		beq	.L54
 501:..\src\app\alt_mode/alt_mode_hw.c ****     {
 502:..\src\app\alt_mode/alt_mode_hw.c ****         /* Move the HPD pin back to HPD IO mode. */
 503:..\src\app\alt_mode/alt_mode_hw.c ****         hpd_wakeup (port, (gl_alt_mode_hpd_state[port] > HPD_EVENT_UNPLUG));
 646              		.loc 1 503 0
 647 000e 1318     		adds	r3, r2, r0
 648 0010 197D     		ldrb	r1, [r3, #20]
ARM GAS  e:\temp\ccdmNCtc.s 			page 22


 649 0012 C9B2     		uxtb	r1, r1
 650 0014 0123     		movs	r3, #1
 651 0016 8B42     		cmp	r3, r1
 652 0018 8941     		sbcs	r1, r1, r1
 653 001a 4942     		rsbs	r1, r1, #0
 654 001c FFF7FEFF 		bl	hpd_wakeup
 655              	.LVL68:
 656              	.L54:
 504:..\src\app\alt_mode/alt_mode_hw.c ****     }
 505:..\src\app\alt_mode/alt_mode_hw.c **** #endif
 506:..\src\app\alt_mode/alt_mode_hw.c **** 
 507:..\src\app\alt_mode/alt_mode_hw.c **** #if (DP_UFP_SUPP) && (CCG_HPD_RX_ENABLE)
 508:..\src\app\alt_mode/alt_mode_hw.c ****     /* CDT 245126 workaround: Wakeup and revert HPD RX configurations. */
 509:..\src\app\alt_mode/alt_mode_hw.c ****     hpd_rx_wakeup (port);
 510:..\src\app\alt_mode/alt_mode_hw.c **** #endif /* DP_UFP_SUPP  && CCG_HPD_RX_ENABLE */
 511:..\src\app\alt_mode/alt_mode_hw.c **** 
 512:..\src\app\alt_mode/alt_mode_hw.c **** #endif /* (RIDGE_I2C_HPD_ENABLE == 0) */
 513:..\src\app\alt_mode/alt_mode_hw.c **** }
 657              		.loc 1 513 0
 658              		@ sp needed
 659 0020 10BD     		pop	{r4, pc}
 660              	.L57:
 661 0022 C046     		.align	2
 662              	.L56:
 663 0024 00000000 		.word	.LANCHOR0
 664              		.cfi_endproc
 665              	.LFE42:
 666              		.size	alt_mode_hw_wakeup, .-alt_mode_hw_wakeup
 667              		.bss
 668              		.align	2
 669              		.set	.LANCHOR0,. + 0
 670              		.type	gl_alt_mode_cmd_pending, %object
 671              		.size	gl_alt_mode_cmd_pending, 2
 672              	gl_alt_mode_cmd_pending:
 673 0000 0000     		.space	2
 674 0002 0000     		.space	2
 675              		.type	hw_sln_data, %object
 676              		.size	hw_sln_data, 8
 677              	hw_sln_data:
 678 0004 00000000 		.space	8
 678      00000000 
 679              		.type	gl_hw_cmd_cbk, %object
 680              		.size	gl_hw_cmd_cbk, 8
 681              	gl_hw_cmd_cbk:
 682 000c 00000000 		.space	8
 682      00000000 
 683              		.type	gl_alt_mode_hpd_state, %object
 684              		.size	gl_alt_mode_hpd_state, 2
 685              	gl_alt_mode_hpd_state:
 686 0014 0000     		.space	2
 687 0016 0000     		.space	2
 688              		.type	app_mux_state, %object
 689              		.size	app_mux_state, 2
 690              	app_mux_state:
 691 0018 0000     		.space	2
 692              		.text
 693              	.Letext0:
ARM GAS  e:\temp\ccdmNCtc.s 			page 23


 694              		.file 2 "e:\\cypress\\psoc creator\\4.2\\psoc creator\\import\\gnu\\arm\\5.4.1\\arm-none-eabi\\inc
 695              		.file 3 "e:\\cypress\\psoc creator\\4.2\\psoc creator\\import\\gnu\\arm\\5.4.1\\arm-none-eabi\\inc
 696              		.file 4 "..\\src\\pd_common/pd.h"
 697              		.file 5 "..\\src\\app\\alt_mode/alt_mode_hw.h"
 698              		.file 6 "..\\src\\app/app.h"
 699              		.file 7 "..\\src\\system/gpio.h"
 700              		.file 8 "..\\src\\pd_hal/hpd.h"
 701              		.file 9 "..\\src\\pd_common/dpm.h"
 702              		.file 10 "..\\src\\hpiss/hpi.h"