ARM GAS  e:\temp\ccP12Hvn.s 			page 1


   1              		.syntax unified
   2              		.cpu cortex-m0
   3              		.fpu softvfp
   4              		.eabi_attribute 20, 1
   5              		.eabi_attribute 21, 1
   6              		.eabi_attribute 23, 3
   7              		.eabi_attribute 24, 1
   8              		.eabi_attribute 25, 1
   9              		.eabi_attribute 26, 1
  10              		.eabi_attribute 30, 1
  11              		.eabi_attribute 34, 0
  12              		.eabi_attribute 18, 4
  13              		.thumb
  14              		.syntax unified
  15              		.file	"alt_modes_mngr.c"
  16              		.text
  17              	.Ltext0:
  18              		.cfi_sections	.debug_frame
  19              		.section	.text.set_disc_mode_params,"ax",%progbits
  20              		.align	2
  21              		.code	16
  22              		.thumb_func
  23              		.type	set_disc_mode_params, %function
  24              	set_disc_mode_params:
  25              	.LFB37:
  26              		.file 1 "..\\src\\app\\alt_mode\\alt_modes_mngr.c"
   1:..\src\app\alt_mode/alt_modes_mngr.c **** /**
   2:..\src\app\alt_mode/alt_modes_mngr.c ****  * @file alt_modes_mngr.c
   3:..\src\app\alt_mode/alt_modes_mngr.c ****  *
   4:..\src\app\alt_mode/alt_modes_mngr.c ****  * @brief @{Alternate Mode Manager source file.@}
   5:..\src\app\alt_mode/alt_modes_mngr.c ****  *
   6:..\src\app\alt_mode/alt_modes_mngr.c ****  *******************************************************************************
   7:..\src\app\alt_mode/alt_modes_mngr.c ****  *
   8:..\src\app\alt_mode/alt_modes_mngr.c ****  * Copyright (2014-2018), Cypress Semiconductor Corporation or a subsidiary of
   9:..\src\app\alt_mode/alt_modes_mngr.c ****  * Cypress Semiconductor Corporation. All rights reserved.
  10:..\src\app\alt_mode/alt_modes_mngr.c ****  *
  11:..\src\app\alt_mode/alt_modes_mngr.c ****  * This software, including source code, documentation and related materials
  12:..\src\app\alt_mode/alt_modes_mngr.c ****  * (“Software”), is owned by Cypress Semiconductor Corporation or one of its
  13:..\src\app\alt_mode/alt_modes_mngr.c ****  * subsidiaries (“Cypress”) and is protected by and subject to worldwide patent
  14:..\src\app\alt_mode/alt_modes_mngr.c ****  * protection (United States and foreign), United States copyright laws and
  15:..\src\app\alt_mode/alt_modes_mngr.c ****  * international treaty provisions. Therefore, you may use this Software only
  16:..\src\app\alt_mode/alt_modes_mngr.c ****  * as provided in the license agreement accompanying the software package from
  17:..\src\app\alt_mode/alt_modes_mngr.c ****  * which you obtained this Software (“EULA”).
  18:..\src\app\alt_mode/alt_modes_mngr.c ****  *
  19:..\src\app\alt_mode/alt_modes_mngr.c ****  * If no EULA applies, Cypress hereby grants you a personal, nonexclusive,
  20:..\src\app\alt_mode/alt_modes_mngr.c ****  * non-transferable license to copy, modify, and compile the Software source
  21:..\src\app\alt_mode/alt_modes_mngr.c ****  * code solely for use in connection with Cypress’s integrated circuit
  22:..\src\app\alt_mode/alt_modes_mngr.c ****  * products. Any reproduction, modification, translation, compilation, or
  23:..\src\app\alt_mode/alt_modes_mngr.c ****  * representation of this Software except as specified above is prohibited
  24:..\src\app\alt_mode/alt_modes_mngr.c ****  * without the express written permission of Cypress. Disclaimer: THIS SOFTWARE
  25:..\src\app\alt_mode/alt_modes_mngr.c ****  * IS PROVIDED AS-IS, WITH NO WARRANTY OF ANY KIND, EXPRESS OR IMPLIED,
  26:..\src\app\alt_mode/alt_modes_mngr.c ****  * INCLUDING, BUT NOT LIMITED TO, NONINFRINGEMENT, IMPLIED WARRANTIES OF
  27:..\src\app\alt_mode/alt_modes_mngr.c ****  * MERCHANTABILITY AND FITNESS FOR A PARTICULAR PURPOSE. Cypress reserves the
  28:..\src\app\alt_mode/alt_modes_mngr.c ****  * right to make changes to the Software without notice. Cypress does not
  29:..\src\app\alt_mode/alt_modes_mngr.c ****  * assume any liability arising out of the application or use of the Software
  30:..\src\app\alt_mode/alt_modes_mngr.c ****  * or any product or circuit described in the Software. Cypress does not
  31:..\src\app\alt_mode/alt_modes_mngr.c ****  * authorize its products for use in any products where a malfunction or
ARM GAS  e:\temp\ccP12Hvn.s 			page 2


  32:..\src\app\alt_mode/alt_modes_mngr.c ****  * failure of the Cypress product may reasonably be expected to result in
  33:..\src\app\alt_mode/alt_modes_mngr.c ****  * significant property damage, injury or death (“High Risk Product”). By
  34:..\src\app\alt_mode/alt_modes_mngr.c ****  * including Cypress’s product in a High Risk Product, the manufacturer of such
  35:..\src\app\alt_mode/alt_modes_mngr.c ****  * system or application assumes all risk of such use and in doing so agrees to
  36:..\src\app\alt_mode/alt_modes_mngr.c ****  * indemnify Cypress against all liability.
  37:..\src\app\alt_mode/alt_modes_mngr.c ****  */
  38:..\src\app\alt_mode/alt_modes_mngr.c **** 
  39:..\src\app\alt_mode/alt_modes_mngr.c **** #include "config.h"
  40:..\src\app\alt_mode/alt_modes_mngr.c **** #include <alt_modes_mngr.h>
  41:..\src\app\alt_mode/alt_modes_mngr.c **** #include <alt_modes_config.h>
  42:..\src\app\alt_mode/alt_modes_mngr.c **** #include <pd.h>
  43:..\src\app\alt_mode/alt_modes_mngr.c **** #include <dpm.h>
  44:..\src\app\alt_mode/alt_modes_mngr.c **** #include <app.h>
  45:..\src\app\alt_mode/alt_modes_mngr.c **** #include <vdm.h>
  46:..\src\app\alt_mode/alt_modes_mngr.c **** #include <timer.h>
  47:..\src\app\alt_mode/alt_modes_mngr.c **** #include <vdm_task_mngr.h>
  48:..\src\app\alt_mode/alt_modes_mngr.c **** #include <vdm.h>
  49:..\src\app\alt_mode/alt_modes_mngr.c **** 
  50:..\src\app\alt_mode/alt_modes_mngr.c **** #if (CCG_BB_ENABLE != 0)
  51:..\src\app\alt_mode/alt_modes_mngr.c **** #include <billboard.h>
  52:..\src\app\alt_mode/alt_modes_mngr.c **** #endif /* (CCG_BB_ENABLE != 0) */
  53:..\src\app\alt_mode/alt_modes_mngr.c **** 
  54:..\src\app\alt_mode/alt_modes_mngr.c **** #if ((MAX_SUPP_ALT_MODES < MAX_SVID_SUPP) && ((DFP_ALT_MODE_SUPP) || (UFP_ALT_MODE_SUPP)))  
  55:..\src\app\alt_mode/alt_modes_mngr.c **** #error "The number of user alternate modes exceed maximum supported alt modes. \
  56:..\src\app\alt_mode/alt_modes_mngr.c **** 	    Please increase MAX_SUPP_ALT_MODES"
  57:..\src\app\alt_mode/alt_modes_mngr.c **** #endif
  58:..\src\app\alt_mode/alt_modes_mngr.c **** /**
  59:..\src\app\alt_mode/alt_modes_mngr.c ****  * @typedef alt_mode_status_t
  60:..\src\app\alt_mode/alt_modes_mngr.c ****  * @brief struct to hold alt modes manager status
  61:..\src\app\alt_mode/alt_modes_mngr.c ****  */
  62:..\src\app\alt_mode/alt_modes_mngr.c **** typedef struct
  63:..\src\app\alt_mode/alt_modes_mngr.c **** {
  64:..\src\app\alt_mode/alt_modes_mngr.c ****     /* Holds info when register alt mode */
  65:..\src\app\alt_mode/alt_modes_mngr.c ****     alt_mode_reg_info_t   reg_info;
  66:..\src\app\alt_mode/alt_modes_mngr.c ****     /* Supported alternate modes. */
  67:..\src\app\alt_mode/alt_modes_mngr.c ****     uint32_t              am_supported_modes;
  68:..\src\app\alt_mode/alt_modes_mngr.c ****     /* Exited alternate modes. */
  69:..\src\app\alt_mode/alt_modes_mngr.c ****     uint32_t              am_exited_modes;
  70:..\src\app\alt_mode/alt_modes_mngr.c ****     /* Active alternate modes. */
  71:..\src\app\alt_mode/alt_modes_mngr.c ****     uint32_t              am_active_modes;
  72:..\src\app\alt_mode/alt_modes_mngr.c ****     /* Pointers to each alt mode info structure */
  73:..\src\app\alt_mode/alt_modes_mngr.c ****     alt_mode_info_t*      alt_mode_info[MAX_SUPP_ALT_MODES];
  74:..\src\app\alt_mode/alt_modes_mngr.c ****     /* Number of existed alt modes */
  75:..\src\app\alt_mode/alt_modes_mngr.c ****     uint8_t               alt_modes_numb;
  76:..\src\app\alt_mode/alt_modes_mngr.c ****     /* Buffer to hold VDM */
  77:..\src\app\alt_mode/alt_modes_mngr.c ****     dpm_pd_cmd_buf_t      vdm_buf;
  78:..\src\app\alt_mode/alt_modes_mngr.c ****     /* Holds application event data */
  79:..\src\app\alt_mode/alt_modes_mngr.c ****     uint32_t              app_evt_data[ALT_MODE_EVT_SIZE];
  80:..\src\app\alt_mode/alt_modes_mngr.c ****     /* Current alt modes mngr status */
  81:..\src\app\alt_mode/alt_modes_mngr.c ****     alt_mode_mngr_state_t state;
  82:..\src\app\alt_mode/alt_modes_mngr.c ****     /* Pointer to vdm_msg_info_t struct in vdm task mngr */
  83:..\src\app\alt_mode/alt_modes_mngr.c ****     vdm_msg_info_t       *vdm_info;
  84:..\src\app\alt_mode/alt_modes_mngr.c ****     /* Hold current SVID index for discovery mode command */
  85:..\src\app\alt_mode/alt_modes_mngr.c ****     uint8_t               svid_idx;
  86:..\src\app\alt_mode/alt_modes_mngr.c ****     /* Check whether the device is a PD 3.0 supporting UFP. */
  87:..\src\app\alt_mode/alt_modes_mngr.c ****     uint8_t               pd3_ufp;
  88:..\src\app\alt_mode/alt_modes_mngr.c ****     
ARM GAS  e:\temp\ccP12Hvn.s 			page 3


  89:..\src\app\alt_mode/alt_modes_mngr.c **** }alt_mode_mngr_status_t;
  90:..\src\app\alt_mode/alt_modes_mngr.c **** 
  91:..\src\app\alt_mode/alt_modes_mngr.c **** /*Main structure to hold alt modes manager status */
  92:..\src\app\alt_mode/alt_modes_mngr.c **** alt_mode_mngr_status_t alt_mode[NO_OF_TYPEC_PORTS];
  93:..\src\app\alt_mode/alt_modes_mngr.c **** 
  94:..\src\app\alt_mode/alt_modes_mngr.c **** #if (!UCSI_ALT_MODE_ENABLED)
  95:..\src\app\alt_mode/alt_modes_mngr.c **** /* Composes alt mode info to vdm_msg_info_t struct before sending */
  96:..\src\app\alt_mode/alt_modes_mngr.c **** static uint8_t move_to_vdm_info(uint8_t port, alt_mode_info_t* alt_mode_vdm, sop_t sop_type);
  97:..\src\app\alt_mode/alt_modes_mngr.c **** /* Parces received VDM info and moves it to alt mode info struct */
  98:..\src\app\alt_mode/alt_modes_mngr.c **** static void get_vdm_info_vdo(uint8_t port, alt_mode_info_t* alt_mode_vdm, sop_t sop_type);
  99:..\src\app\alt_mode/alt_modes_mngr.c **** #endif /*UCSI_ALT_MODE_ENABLED*/    
 100:..\src\app\alt_mode/alt_modes_mngr.c **** 
 101:..\src\app\alt_mode/alt_modes_mngr.c **** #if DFP_ALT_MODE_SUPP
 102:..\src\app\alt_mode/alt_modes_mngr.c **** /* Find next avaliable alt mode for processing if previous exited */
 103:..\src\app\alt_mode/alt_modes_mngr.c **** static uint8_t get_next_alt_mode(uint8_t port);
 104:..\src\app\alt_mode/alt_modes_mngr.c **** #endif /* DFP_ALT_MODE_SUPP   */
 105:..\src\app\alt_mode/alt_modes_mngr.c **** 
 106:..\src\app\alt_mode/alt_modes_mngr.c **** #if UFP_ALT_MODE_SUPP
 107:..\src\app\alt_mode/alt_modes_mngr.c **** /* This function verifies possibility of entering of corresponding UFP alt mode */
 108:..\src\app\alt_mode/alt_modes_mngr.c **** static bool is_mode_activated(uint8_t port, const pd_packet_t *vdm);
 109:..\src\app\alt_mode/alt_modes_mngr.c **** /* UFP function for alt modes processing */
 110:..\src\app\alt_mode/alt_modes_mngr.c **** static bool ufp_reg_alt_mode(uint8_t port, const pd_packet_t *vdm);
 111:..\src\app\alt_mode/alt_modes_mngr.c **** #endif /* UFP_ALT_MODE_SUPP */
 112:..\src\app\alt_mode/alt_modes_mngr.c **** 
 113:..\src\app\alt_mode/alt_modes_mngr.c **** #if (!UCSI_ALT_MODE_ENABLED)
 114:..\src\app\alt_mode/alt_modes_mngr.c **** #if ((DFP_ALT_MODE_SUPP) || (UFP_ALT_MODE_SUPP))    
 115:..\src\app\alt_mode/alt_modes_mngr.c **** /* Returns alt mode index for given svid */
 116:..\src\app\alt_mode/alt_modes_mngr.c **** static uint8_t get_alt_mode_svid_idx(uint8_t port, uint16_t svid);
 117:..\src\app\alt_mode/alt_modes_mngr.c **** /* Returns alt mode index in compatibility table */
 118:..\src\app\alt_mode/alt_modes_mngr.c **** static uint8_t get_alt_mode_tbl_idx(uint8_t port, uint16_t svid, uint8_t id);
 119:..\src\app\alt_mode/alt_modes_mngr.c **** #endif /* (DFP_ALT_MODE_SUPP) || (UFP_ALT_MODE_SUPP) */    
 120:..\src\app\alt_mode/alt_modes_mngr.c **** 
 121:..\src\app\alt_mode/alt_modes_mngr.c **** /* Resets alt mode mngr info */
 122:..\src\app\alt_mode/alt_modes_mngr.c **** static void reset_mngr_info(uint8_t port);
 123:..\src\app\alt_mode/alt_modes_mngr.c **** 
 124:..\src\app\alt_mode/alt_modes_mngr.c **** /* Fast access functions */
 125:..\src\app\alt_mode/alt_modes_mngr.c **** alt_mode_info_t* get_mode_info(uint8_t port, uint8_t alt_mode_idx);
 126:..\src\app\alt_mode/alt_modes_mngr.c **** 
 127:..\src\app\alt_mode/alt_modes_mngr.c **** #endif /*UCSI_ALT_MODE_ENABLED*/ 
 128:..\src\app\alt_mode/alt_modes_mngr.c **** 
 129:..\src\app\alt_mode/alt_modes_mngr.c **** /* Alt modes mngr AMS Prototypes */
 130:..\src\app\alt_mode/alt_modes_mngr.c **** static vdm_task_t run_disc_mode(uint8_t port);
 131:..\src\app\alt_mode/alt_modes_mngr.c **** static vdm_task_t eval_disc_mode(uint8_t port);
 132:..\src\app\alt_mode/alt_modes_mngr.c **** static vdm_task_t disc_mode_fail(uint8_t port);
 133:..\src\app\alt_mode/alt_modes_mngr.c **** static vdm_task_t monitor_alt_modes(uint8_t port);
 134:..\src\app\alt_mode/alt_modes_mngr.c **** static vdm_task_t eval_alt_modes(uint8_t port);
 135:..\src\app\alt_mode/alt_modes_mngr.c **** static vdm_task_t fail_alt_modes(uint8_t port);
 136:..\src\app\alt_mode/alt_modes_mngr.c **** static vdm_task_t alt_mode_mngr_deinit(uint8_t port);
 137:..\src\app\alt_mode/alt_modes_mngr.c **** 
 138:..\src\app\alt_mode/alt_modes_mngr.c **** /*State Table*/
 139:..\src\app\alt_mode/alt_modes_mngr.c **** static vdm_task_t (*const alt_mode_ams_table [ALT_MODE_MNGR_STATE_PROCESS + 1]
 140:..\src\app\alt_mode/alt_modes_mngr.c ****         [VDM_EVT_EXIT + 1]) (uint8_t port) = {
 141:..\src\app\alt_mode/alt_modes_mngr.c ****     {
 142:..\src\app\alt_mode/alt_modes_mngr.c ****         /* Send next discovery svid */
 143:..\src\app\alt_mode/alt_modes_mngr.c ****         run_disc_mode,
 144:..\src\app\alt_mode/alt_modes_mngr.c ****         /* Evaluate disc svid response */
 145:..\src\app\alt_mode/alt_modes_mngr.c ****         eval_disc_mode,
ARM GAS  e:\temp\ccP12Hvn.s 			page 4


 146:..\src\app\alt_mode/alt_modes_mngr.c ****         /* Process failed disc svid response */
 147:..\src\app\alt_mode/alt_modes_mngr.c ****         disc_mode_fail,
 148:..\src\app\alt_mode/alt_modes_mngr.c ****         /* Exit from alt mode manager */
 149:..\src\app\alt_mode/alt_modes_mngr.c ****         alt_mode_mngr_deinit
 150:..\src\app\alt_mode/alt_modes_mngr.c ****     },
 151:..\src\app\alt_mode/alt_modes_mngr.c ****     {
 152:..\src\app\alt_mode/alt_modes_mngr.c ****         /* Monitor if any changes appears in modes  */
 153:..\src\app\alt_mode/alt_modes_mngr.c ****         monitor_alt_modes,
 154:..\src\app\alt_mode/alt_modes_mngr.c ****         /* Evaluate alt mode response */
 155:..\src\app\alt_mode/alt_modes_mngr.c ****         eval_alt_modes,
 156:..\src\app\alt_mode/alt_modes_mngr.c ****         /* Process failed alt modes response */
 157:..\src\app\alt_mode/alt_modes_mngr.c ****         fail_alt_modes,
 158:..\src\app\alt_mode/alt_modes_mngr.c ****         /* Exit from alt mode manager */
 159:..\src\app\alt_mode/alt_modes_mngr.c ****         alt_mode_mngr_deinit
 160:..\src\app\alt_mode/alt_modes_mngr.c ****     }
 161:..\src\app\alt_mode/alt_modes_mngr.c **** };
 162:..\src\app\alt_mode/alt_modes_mngr.c **** 
 163:..\src\app\alt_mode/alt_modes_mngr.c **** /************************* DFP Related Function definitions *******************/
 164:..\src\app\alt_mode/alt_modes_mngr.c **** 
 165:..\src\app\alt_mode/alt_modes_mngr.c **** vdm_task_t reg_alt_mode_mngr(uint8_t port, atch_tgt_info_t* atch_tgt_info, vdm_msg_info_t* vdm_msg_
 166:..\src\app\alt_mode/alt_modes_mngr.c **** {
 167:..\src\app\alt_mode/alt_modes_mngr.c **** #if ((CCG_PD_REV3_ENABLE) && (UFP_ALT_MODE_SUPP) && (UFP_MODE_DISC_ENABLE))
 168:..\src\app\alt_mode/alt_modes_mngr.c ****     bool pd3_live = (bool)(dpm_get_info(port)->spec_rev_sop_live >= PD_REV3);
 169:..\src\app\alt_mode/alt_modes_mngr.c **** #endif
 170:..\src\app\alt_mode/alt_modes_mngr.c **** 
 171:..\src\app\alt_mode/alt_modes_mngr.c ****     alt_mode[port].alt_modes_numb = get_alt_mode_numb(port);
 172:..\src\app\alt_mode/alt_modes_mngr.c ****     alt_mode[port].vdm_info       = vdm_msg_info;
 173:..\src\app\alt_mode/alt_modes_mngr.c **** 
 174:..\src\app\alt_mode/alt_modes_mngr.c ****     /* Check device role to start with. */
 175:..\src\app\alt_mode/alt_modes_mngr.c ****     if (gl_dpm_port_type[port] != PRT_TYPE_UFP)
 176:..\src\app\alt_mode/alt_modes_mngr.c ****     {
 177:..\src\app\alt_mode/alt_modes_mngr.c ****         if (atch_tgt_info->tgt_svid[0] == NO_DATA)
 178:..\src\app\alt_mode/alt_modes_mngr.c ****         {
 179:..\src\app\alt_mode/alt_modes_mngr.c ****             /* UFP does not support any of the SVIDs of interest. Exit VDM manager. */
 180:..\src\app\alt_mode/alt_modes_mngr.c ****             return VDM_TASK_EXIT;
 181:..\src\app\alt_mode/alt_modes_mngr.c ****         }
 182:..\src\app\alt_mode/alt_modes_mngr.c ****         else
 183:..\src\app\alt_mode/alt_modes_mngr.c ****         {
 184:..\src\app\alt_mode/alt_modes_mngr.c ****             if (get_alt_mode_numb(port) != false)
 185:..\src\app\alt_mode/alt_modes_mngr.c ****             {
 186:..\src\app\alt_mode/alt_modes_mngr.c ****                 /* Register pointers to VDM mngr info */
 187:..\src\app\alt_mode/alt_modes_mngr.c ****                 alt_mode[port].reg_info.atch_tgt_info  = atch_tgt_info;
 188:..\src\app\alt_mode/alt_modes_mngr.c ****                 /* Set alt modes mngr state to Discovery Mode process */
 189:..\src\app\alt_mode/alt_modes_mngr.c ****                 alt_mode[port].reg_info.data_role      = PRT_TYPE_DFP;
 190:..\src\app\alt_mode/alt_modes_mngr.c ****                 alt_mode[port].state                   = ALT_MODE_MNGR_STATE_DISC_MODE;
 191:..\src\app\alt_mode/alt_modes_mngr.c ****                 /* Set alt mode trigger based on config */
 192:..\src\app\alt_mode/alt_modes_mngr.c ****                 app_get_status(port)->alt_mode_trig_mask = get_pd_port_config(port)->dp_mode_trigge
 193:..\src\app\alt_mode/alt_modes_mngr.c ****                 return VDM_TASK_ALT_MODE;
 194:..\src\app\alt_mode/alt_modes_mngr.c ****             }
 195:..\src\app\alt_mode/alt_modes_mngr.c ****         }
 196:..\src\app\alt_mode/alt_modes_mngr.c ****     }
 197:..\src\app\alt_mode/alt_modes_mngr.c ****     else
 198:..\src\app\alt_mode/alt_modes_mngr.c ****     {
 199:..\src\app\alt_mode/alt_modes_mngr.c **** #if ((CCG_PD_REV3_ENABLE) && (UFP_ALT_MODE_SUPP) && (UFP_MODE_DISC_ENABLE))
 200:..\src\app\alt_mode/alt_modes_mngr.c ****         alt_mode[port].pd3_ufp = pd3_live;
 201:..\src\app\alt_mode/alt_modes_mngr.c **** #endif /* (CCG_PD_REV3_ENABLE) && (UFP_ALT_MODE_SUPP) && (UFP_MODE_DISC_ENABLE) */
 202:..\src\app\alt_mode/alt_modes_mngr.c **** 
ARM GAS  e:\temp\ccP12Hvn.s 			page 5


 203:..\src\app\alt_mode/alt_modes_mngr.c ****         if (atch_tgt_info->tgt_svid[0] == NO_DATA)
 204:..\src\app\alt_mode/alt_modes_mngr.c ****         {
 205:..\src\app\alt_mode/alt_modes_mngr.c ****             /* If we have no SVIDs to evaluate by UFP then go to regular monitoring */
 206:..\src\app\alt_mode/alt_modes_mngr.c ****             alt_mode[port].state    = ALT_MODE_MNGR_STATE_PROCESS;
 207:..\src\app\alt_mode/alt_modes_mngr.c ****             return VDM_TASK_ALT_MODE;
 208:..\src\app\alt_mode/alt_modes_mngr.c ****         }
 209:..\src\app\alt_mode/alt_modes_mngr.c **** #if ((CCG_PD_REV3_ENABLE) && (UFP_ALT_MODE_SUPP) && (UFP_MODE_DISC_ENABLE))
 210:..\src\app\alt_mode/alt_modes_mngr.c ****         else
 211:..\src\app\alt_mode/alt_modes_mngr.c ****         {
 212:..\src\app\alt_mode/alt_modes_mngr.c ****             if (pd3_live)
 213:..\src\app\alt_mode/alt_modes_mngr.c ****             {
 214:..\src\app\alt_mode/alt_modes_mngr.c ****                 /* If PD spec revision is 3.0, we can start with discover mode process. */
 215:..\src\app\alt_mode/alt_modes_mngr.c ****                 return VDM_TASK_ALT_MODE;
 216:..\src\app\alt_mode/alt_modes_mngr.c ****             }
 217:..\src\app\alt_mode/alt_modes_mngr.c ****         }
 218:..\src\app\alt_mode/alt_modes_mngr.c **** #endif /* (CCG_PD_REV3_ENABLE) && (UFP_ALT_MODE_SUPP) && (UFP_MODE_DISC_ENABLE) */
 219:..\src\app\alt_mode/alt_modes_mngr.c ****     }
 220:..\src\app\alt_mode/alt_modes_mngr.c **** 
 221:..\src\app\alt_mode/alt_modes_mngr.c ****     return VDM_TASK_EXIT;
 222:..\src\app\alt_mode/alt_modes_mngr.c **** }
 223:..\src\app\alt_mode/alt_modes_mngr.c **** 
 224:..\src\app\alt_mode/alt_modes_mngr.c **** bool is_alt_mode_mngr_idle(uint8_t port)
 225:..\src\app\alt_mode/alt_modes_mngr.c **** {
 226:..\src\app\alt_mode/alt_modes_mngr.c ****     bool    is_idle = true;
 227:..\src\app\alt_mode/alt_modes_mngr.c **** #if ((DFP_ALT_MODE_SUPP) || (UFP_ALT_MODE_SUPP))
 228:..\src\app\alt_mode/alt_modes_mngr.c ****     uint8_t           alt_mode_idx;
 229:..\src\app\alt_mode/alt_modes_mngr.c **** 
 230:..\src\app\alt_mode/alt_modes_mngr.c ****     if ((alt_mode[port].state == ALT_MODE_MNGR_STATE_DISC_MODE) ||
 231:..\src\app\alt_mode/alt_modes_mngr.c ****         (!alt_mode_hw_is_idle(port)))
 232:..\src\app\alt_mode/alt_modes_mngr.c ****         return false;
 233:..\src\app\alt_mode/alt_modes_mngr.c **** 
 234:..\src\app\alt_mode/alt_modes_mngr.c ****     for (alt_mode_idx = 0; alt_mode_idx < alt_mode[port].alt_modes_numb; alt_mode_idx++)
 235:..\src\app\alt_mode/alt_modes_mngr.c ****     {
 236:..\src\app\alt_mode/alt_modes_mngr.c ****         /* If mode is active */
 237:..\src\app\alt_mode/alt_modes_mngr.c ****         if (IS_FLAG_CHECKED(alt_mode[port].am_active_modes, alt_mode_idx))
 238:..\src\app\alt_mode/alt_modes_mngr.c ****         {
 239:..\src\app\alt_mode/alt_modes_mngr.c ****             /* If alt mode not Idle then return current alt mode state */
 240:..\src\app\alt_mode/alt_modes_mngr.c ****             if ((get_mode_info(port, alt_mode_idx)->mode_state != ALT_MODE_STATE_IDLE) ||
 241:..\src\app\alt_mode/alt_modes_mngr.c ****                 (get_mode_info(port, alt_mode_idx)->app_evt_needed != false))
 242:..\src\app\alt_mode/alt_modes_mngr.c ****             {
 243:..\src\app\alt_mode/alt_modes_mngr.c ****                 is_idle = false;
 244:..\src\app\alt_mode/alt_modes_mngr.c ****             }
 245:..\src\app\alt_mode/alt_modes_mngr.c ****         }
 246:..\src\app\alt_mode/alt_modes_mngr.c ****     }
 247:..\src\app\alt_mode/alt_modes_mngr.c **** #endif /* ((DFP_ALT_MODE_SUPP) || (UFP_ALT_MODE_SUPP)) */
 248:..\src\app\alt_mode/alt_modes_mngr.c **** 
 249:..\src\app\alt_mode/alt_modes_mngr.c ****     return (is_idle);
 250:..\src\app\alt_mode/alt_modes_mngr.c **** }
 251:..\src\app\alt_mode/alt_modes_mngr.c **** 
 252:..\src\app\alt_mode/alt_modes_mngr.c **** void alt_mode_mngr_sleep(uint8_t port)
 253:..\src\app\alt_mode/alt_modes_mngr.c **** {
 254:..\src\app\alt_mode/alt_modes_mngr.c ****     alt_mode_hw_sleep (port);
 255:..\src\app\alt_mode/alt_modes_mngr.c **** }
 256:..\src\app\alt_mode/alt_modes_mngr.c **** 
 257:..\src\app\alt_mode/alt_modes_mngr.c **** void alt_mode_mngr_wakeup(uint8_t port)
 258:..\src\app\alt_mode/alt_modes_mngr.c **** {
 259:..\src\app\alt_mode/alt_modes_mngr.c ****     alt_mode_hw_wakeup (port);
ARM GAS  e:\temp\ccP12Hvn.s 			page 6


 260:..\src\app\alt_mode/alt_modes_mngr.c **** }
 261:..\src\app\alt_mode/alt_modes_mngr.c **** 
 262:..\src\app\alt_mode/alt_modes_mngr.c **** vdm_task_t vdm_task_mngr_alt_mode_process(uint8_t port, vdm_evt_t vdm_evt)
 263:..\src\app\alt_mode/alt_modes_mngr.c **** {
 264:..\src\app\alt_mode/alt_modes_mngr.c ****     /* Run alt modes manager ams table */
 265:..\src\app\alt_mode/alt_modes_mngr.c ****     return alt_mode_ams_table[alt_mode[port].state][vdm_evt](port);
 266:..\src\app\alt_mode/alt_modes_mngr.c **** }
 267:..\src\app\alt_mode/alt_modes_mngr.c **** 
 268:..\src\app\alt_mode/alt_modes_mngr.c **** #if ((DFP_ALT_MODE_SUPP) || (UFP_MODE_DISC_ENABLE))
 269:..\src\app\alt_mode/alt_modes_mngr.c **** 
 270:..\src\app\alt_mode/alt_modes_mngr.c **** static void set_disc_mode_params(uint8_t port, sop_t sop)
 271:..\src\app\alt_mode/alt_modes_mngr.c **** {
  27              		.loc 1 271 0
  28              		.cfi_startproc
  29              		@ args = 0, pretend = 0, frame = 0
  30              		@ frame_needed = 0, uses_anonymous_args = 0
  31              	.LVL0:
  32 0000 30B5     		push	{r4, r5, lr}
  33              		.cfi_def_cfa_offset 12
  34              		.cfi_offset 4, -12
  35              		.cfi_offset 5, -8
  36              		.cfi_offset 14, -4
 272:..\src\app\alt_mode/alt_modes_mngr.c ****     vdm_msg_info_t *vdm_p = alt_mode[port].vdm_info;
  37              		.loc 1 272 0
  38 0002 7423     		movs	r3, #116
  39 0004 5843     		muls	r0, r3
  40              	.LVL1:
  41 0006 0E4B     		ldr	r3, .L2
  42 0008 1818     		adds	r0, r3, r0
  43 000a C36E     		ldr	r3, [r0, #108]
  44              	.LVL2:
 273:..\src\app\alt_mode/alt_modes_mngr.c **** 
 274:..\src\app\alt_mode/alt_modes_mngr.c ****     vdm_p->vdm_header.val   = NO_DATA;
  45              		.loc 1 274 0
  46 000c 0024     		movs	r4, #0
  47 000e 1C60     		str	r4, [r3]
 275:..\src\app\alt_mode/alt_modes_mngr.c ****     vdm_p->VDM_HDR.svid     = alt_mode[port].reg_info.atch_tgt_info->tgt_svid[alt_mode[port].svid_i
  48              		.loc 1 275 0
  49 0010 C568     		ldr	r5, [r0, #12]
  50 0012 7030     		adds	r0, r0, #112
  51 0014 0078     		ldrb	r0, [r0]
  52 0016 021D     		adds	r2, r0, #4
  53 0018 5200     		lsls	r2, r2, #1
  54 001a AA18     		adds	r2, r5, r2
  55 001c 9288     		ldrh	r2, [r2, #4]
  56 001e 5A80     		strh	r2, [r3, #2]
 276:..\src\app\alt_mode/alt_modes_mngr.c ****     vdm_p->VDM_HDR.cmd      = VDM_CMD_DSC_MODES;
  57              		.loc 1 276 0
  58 0020 1A78     		ldrb	r2, [r3]
  59 0022 1F20     		movs	r0, #31
  60 0024 8243     		bics	r2, r0
  61 0026 0320     		movs	r0, #3
  62 0028 0243     		orrs	r2, r0
  63 002a 1A70     		strb	r2, [r3]
 277:..\src\app\alt_mode/alt_modes_mngr.c ****     vdm_p->VDM_HDR.obj_pos  = NO_DATA;
  64              		.loc 1 277 0
  65 002c 5A78     		ldrb	r2, [r3, #1]
ARM GAS  e:\temp\ccP12Hvn.s 			page 7


 278:..\src\app\alt_mode/alt_modes_mngr.c ****     vdm_p->sop_type         = sop;
  66              		.loc 1 278 0
  67 002e 1971     		strb	r1, [r3, #4]
 279:..\src\app\alt_mode/alt_modes_mngr.c ****     vdm_p->vdo_numb         = NO_DATA;
  68              		.loc 1 279 0
  69 0030 5C71     		strb	r4, [r3, #5]
 280:..\src\app\alt_mode/alt_modes_mngr.c ****     vdm_p->VDM_HDR.vdm_type = VDM_TYPE_STRUCTURED;
  70              		.loc 1 280 0
  71 0032 0721     		movs	r1, #7
  72              	.LVL3:
  73 0034 8A43     		bics	r2, r1
  74 0036 8739     		subs	r1, r1, #135
  75 0038 0A43     		orrs	r2, r1
  76 003a 5A70     		strb	r2, [r3, #1]
 281:..\src\app\alt_mode/alt_modes_mngr.c **** }
  77              		.loc 1 281 0
  78              		@ sp needed
  79 003c 30BD     		pop	{r4, r5, pc}
  80              	.L3:
  81 003e C046     		.align	2
  82              	.L2:
  83 0040 00000000 		.word	alt_mode
  84              		.cfi_endproc
  85              	.LFE37:
  86              		.size	set_disc_mode_params, .-set_disc_mode_params
  87              		.section	.text.get_next_alt_mode,"ax",%progbits
  88              		.align	2
  89              		.code	16
  90              		.thumb_func
  91              		.type	get_next_alt_mode, %function
  92              	get_next_alt_mode:
  93              	.LFB48:
 282:..\src\app\alt_mode/alt_modes_mngr.c **** 
 283:..\src\app\alt_mode/alt_modes_mngr.c **** static void send_sln_event_nodata(uint8_t port, uint16_t svid, uint8_t am_id, alt_mode_app_evt_t ev
 284:..\src\app\alt_mode/alt_modes_mngr.c **** {
 285:..\src\app\alt_mode/alt_modes_mngr.c ****     sln_pd_event_handler (port, APP_EVT_ALT_MODE,
 286:..\src\app\alt_mode/alt_modes_mngr.c ****             form_alt_mode_event (port, svid, am_id, evtype, NO_DATA)
 287:..\src\app\alt_mode/alt_modes_mngr.c ****             );
 288:..\src\app\alt_mode/alt_modes_mngr.c **** }
 289:..\src\app\alt_mode/alt_modes_mngr.c **** 
 290:..\src\app\alt_mode/alt_modes_mngr.c **** static void send_sln_app_evt(uint8_t port, uint32_t data)
 291:..\src\app\alt_mode/alt_modes_mngr.c **** {
 292:..\src\app\alt_mode/alt_modes_mngr.c ****     sln_pd_event_handler (port, APP_EVT_ALT_MODE,
 293:..\src\app\alt_mode/alt_modes_mngr.c ****             form_alt_mode_event (port, alt_mode[port].vdm_info->VDM_HDR.svid,
 294:..\src\app\alt_mode/alt_modes_mngr.c ****                 alt_mode[port].reg_info.alt_mode_id,
 295:..\src\app\alt_mode/alt_modes_mngr.c ****                     (data == NO_DATA) ? alt_mode[port].reg_info.app_evt : AM_EVT_DATA_EVT,
 296:..\src\app\alt_mode/alt_modes_mngr.c ****                         data)
 297:..\src\app\alt_mode/alt_modes_mngr.c ****             );
 298:..\src\app\alt_mode/alt_modes_mngr.c **** }
 299:..\src\app\alt_mode/alt_modes_mngr.c **** 
 300:..\src\app\alt_mode/alt_modes_mngr.c **** #endif /* ((DFP_ALT_MODE_SUPP) || (UFP_MODE_DISC_ENABLE)) */
 301:..\src\app\alt_mode/alt_modes_mngr.c **** 
 302:..\src\app\alt_mode/alt_modes_mngr.c **** static vdm_task_t run_disc_mode(uint8_t port)
 303:..\src\app\alt_mode/alt_modes_mngr.c **** {
 304:..\src\app\alt_mode/alt_modes_mngr.c **** #if ((DFP_ALT_MODE_SUPP) || (UFP_MODE_DISC_ENABLE))
 305:..\src\app\alt_mode/alt_modes_mngr.c ****     uint16_t cur_svid;
 306:..\src\app\alt_mode/alt_modes_mngr.c **** 
ARM GAS  e:\temp\ccP12Hvn.s 			page 8


 307:..\src\app\alt_mode/alt_modes_mngr.c ****     /* Set cable sop flag not needed at start*/
 308:..\src\app\alt_mode/alt_modes_mngr.c ****     alt_mode[port].reg_info.cbl_sop_flag = SOP_INVALID;
 309:..\src\app\alt_mode/alt_modes_mngr.c **** 
 310:..\src\app\alt_mode/alt_modes_mngr.c ****     /* Search for next SVID until svid array is not empty */
 311:..\src\app\alt_mode/alt_modes_mngr.c ****     while ((cur_svid = alt_mode[port].reg_info.atch_tgt_info->tgt_svid[alt_mode[port].svid_idx]) !=
 312:..\src\app\alt_mode/alt_modes_mngr.c ****     {
 313:..\src\app\alt_mode/alt_modes_mngr.c **** #if ((CCG_PD_REV3_ENABLE) && (UFP_ALT_MODE_SUPP) && (UFP_MODE_DISC_ENABLE))
 314:..\src\app\alt_mode/alt_modes_mngr.c ****         /* Check is current port date role UFP */
 315:..\src\app\alt_mode/alt_modes_mngr.c ****         if (alt_mode[port].pd3_ufp)
 316:..\src\app\alt_mode/alt_modes_mngr.c ****         {
 317:..\src\app\alt_mode/alt_modes_mngr.c ****             /* Send Disc Mode cmd */
 318:..\src\app\alt_mode/alt_modes_mngr.c ****             set_disc_mode_params (port, SOP);
 319:..\src\app\alt_mode/alt_modes_mngr.c ****             return VDM_TASK_SEND_MSG;
 320:..\src\app\alt_mode/alt_modes_mngr.c ****         }
 321:..\src\app\alt_mode/alt_modes_mngr.c **** #endif /* (CCG_PD_REV3_ENABLE) && (UFP_ALT_MODE_SUPP) && (UFP_MODE_DISC_ENABLE) */
 322:..\src\app\alt_mode/alt_modes_mngr.c **** 
 323:..\src\app\alt_mode/alt_modes_mngr.c **** #if DFP_ALT_MODE_SUPP
 324:..\src\app\alt_mode/alt_modes_mngr.c ****         if (is_svid_supported(cur_svid, port) != false)
 325:..\src\app\alt_mode/alt_modes_mngr.c ****         {
 326:..\src\app\alt_mode/alt_modes_mngr.c ****             /* Send notifications to the solution. */
 327:..\src\app\alt_mode/alt_modes_mngr.c ****             send_sln_event_nodata (port, cur_svid, 0, AM_EVT_SVID_SUPP);
 328:..\src\app\alt_mode/alt_modes_mngr.c **** 
 329:..\src\app\alt_mode/alt_modes_mngr.c ****             /* If SVID is supported send Disc Mode cmd */
 330:..\src\app\alt_mode/alt_modes_mngr.c ****             set_disc_mode_params (port, SOP);
 331:..\src\app\alt_mode/alt_modes_mngr.c ****             return VDM_TASK_SEND_MSG;
 332:..\src\app\alt_mode/alt_modes_mngr.c ****         }
 333:..\src\app\alt_mode/alt_modes_mngr.c **** 
 334:..\src\app\alt_mode/alt_modes_mngr.c **** #if (SAVE_SUPP_SVID_ONLY == 0)
 335:..\src\app\alt_mode/alt_modes_mngr.c ****         /* Send notifications to the solution. */
 336:..\src\app\alt_mode/alt_modes_mngr.c ****         send_sln_event_nodata (port, cur_svid, 0, AM_EVT_SVID_NOT_SUPP);
 337:..\src\app\alt_mode/alt_modes_mngr.c **** #endif /* SAVE_SUPP_SVID_ONLY */
 338:..\src\app\alt_mode/alt_modes_mngr.c **** 
 339:..\src\app\alt_mode/alt_modes_mngr.c ****         /* If svid not supported */
 340:..\src\app\alt_mode/alt_modes_mngr.c ****         alt_mode[port].svid_idx++;
 341:..\src\app\alt_mode/alt_modes_mngr.c **** #endif /* DFP_ALT_MODE_SUPP */
 342:..\src\app\alt_mode/alt_modes_mngr.c ****     }
 343:..\src\app\alt_mode/alt_modes_mngr.c **** 
 344:..\src\app\alt_mode/alt_modes_mngr.c ****     if (alt_mode[port].am_supported_modes == NONE_MODE_MASK)
 345:..\src\app\alt_mode/alt_modes_mngr.c ****     {
 346:..\src\app\alt_mode/alt_modes_mngr.c ****         /* No supp modes */
 347:..\src\app\alt_mode/alt_modes_mngr.c ****         return VDM_TASK_EXIT;
 348:..\src\app\alt_mode/alt_modes_mngr.c ****     }
 349:..\src\app\alt_mode/alt_modes_mngr.c **** 
 350:..\src\app\alt_mode/alt_modes_mngr.c ****     /* Send SVID discovery finished notification to the solution. */
 351:..\src\app\alt_mode/alt_modes_mngr.c ****     send_sln_event_nodata (port, 0, 0, AM_EVT_DISC_FINISHED);
 352:..\src\app\alt_mode/alt_modes_mngr.c **** 
 353:..\src\app\alt_mode/alt_modes_mngr.c **** #if DFP_ALT_MODE_SUPP
 354:..\src\app\alt_mode/alt_modes_mngr.c ****     /* Goto alt mode process */
 355:..\src\app\alt_mode/alt_modes_mngr.c ****     get_next_alt_mode(port);
 356:..\src\app\alt_mode/alt_modes_mngr.c **** #endif /* DFP_ALT_MODE_SUPP */
 357:..\src\app\alt_mode/alt_modes_mngr.c ****     alt_mode[port].state = ALT_MODE_MNGR_STATE_PROCESS;
 358:..\src\app\alt_mode/alt_modes_mngr.c **** #endif /* ((DFP_ALT_MODE_SUPP) || (UFP_MODE_DISC_ENABLE)) */
 359:..\src\app\alt_mode/alt_modes_mngr.c **** 
 360:..\src\app\alt_mode/alt_modes_mngr.c ****     return VDM_TASK_ALT_MODE;
 361:..\src\app\alt_mode/alt_modes_mngr.c **** }
 362:..\src\app\alt_mode/alt_modes_mngr.c **** 
 363:..\src\app\alt_mode/alt_modes_mngr.c **** #if ((DFP_ALT_MODE_SUPP) || (UFP_MODE_DISC_ENABLE))
ARM GAS  e:\temp\ccP12Hvn.s 			page 9


 364:..\src\app\alt_mode/alt_modes_mngr.c **** static void handle_cbl_disc_mode(uint8_t port, bool failed)
 365:..\src\app\alt_mode/alt_modes_mngr.c **** {
 366:..\src\app\alt_mode/alt_modes_mngr.c ****     uint8_t               tbl_svid_idx, tbl_alt_mode_idx, vdo_idx;
 367:..\src\app\alt_mode/alt_modes_mngr.c ****     alt_mode_info_t      *am_info_p;
 368:..\src\app\alt_mode/alt_modes_mngr.c ****     vdm_msg_info_t       *vdm_p = alt_mode[port].vdm_info;
 369:..\src\app\alt_mode/alt_modes_mngr.c ****     alt_mode_reg_info_t  *reg   = &(alt_mode[port].reg_info);
 370:..\src\app\alt_mode/alt_modes_mngr.c ****     /*
 371:..\src\app\alt_mode/alt_modes_mngr.c ****        Get index of function in alt_mode_config related to receive SVID.
 372:..\src\app\alt_mode/alt_modes_mngr.c ****        This is expected to be valid as we would already have gone through
 373:..\src\app\alt_mode/alt_modes_mngr.c ****        Discover MODE for the UFP.
 374:..\src\app\alt_mode/alt_modes_mngr.c ****      */
 375:..\src\app\alt_mode/alt_modes_mngr.c ****     tbl_svid_idx = get_alt_mode_svid_idx(port, vdm_p->VDM_HDR.svid);
 376:..\src\app\alt_mode/alt_modes_mngr.c ****     reg->atch_type = CABLE;
 377:..\src\app\alt_mode/alt_modes_mngr.c **** 
 378:..\src\app\alt_mode/alt_modes_mngr.c ****     /* Analyse all received VDOs. */
 379:..\src\app\alt_mode/alt_modes_mngr.c ****     for (vdo_idx = 0; ((failed) || (vdo_idx < vdm_p->vdo_numb)); vdo_idx++)
 380:..\src\app\alt_mode/alt_modes_mngr.c ****     {
 381:..\src\app\alt_mode/alt_modes_mngr.c ****         if (failed)
 382:..\src\app\alt_mode/alt_modes_mngr.c ****         {
 383:..\src\app\alt_mode/alt_modes_mngr.c ****             reg->cbl_sop_flag = SOP_INVALID;
 384:..\src\app\alt_mode/alt_modes_mngr.c ****         }
 385:..\src\app\alt_mode/alt_modes_mngr.c ****         else
 386:..\src\app\alt_mode/alt_modes_mngr.c ****         {
 387:..\src\app\alt_mode/alt_modes_mngr.c ****             /* Save current VDO and its position in svid structure */
 388:..\src\app\alt_mode/alt_modes_mngr.c ****             reg->svid_emca_vdo = vdm_p->vdo[vdo_idx];
 389:..\src\app\alt_mode/alt_modes_mngr.c ****         }
 390:..\src\app\alt_mode/alt_modes_mngr.c **** 
 391:..\src\app\alt_mode/alt_modes_mngr.c ****         /* Check if DFP support attached target alt mode */
 392:..\src\app\alt_mode/alt_modes_mngr.c ****         am_info_p = is_alt_mode_allowed[tbl_svid_idx] (port, reg);
 393:..\src\app\alt_mode/alt_modes_mngr.c ****         if (am_info_p == NULL)
 394:..\src\app\alt_mode/alt_modes_mngr.c ****         {
 395:..\src\app\alt_mode/alt_modes_mngr.c ****             /* Get index of alt mode in the compatibility table */
 396:..\src\app\alt_mode/alt_modes_mngr.c ****             tbl_alt_mode_idx = get_alt_mode_tbl_idx(port, vdm_p->VDM_HDR.svid, reg->alt_mode_id);
 397:..\src\app\alt_mode/alt_modes_mngr.c ****             if (tbl_alt_mode_idx != MODE_NOT_SUPPORTED)
 398:..\src\app\alt_mode/alt_modes_mngr.c ****             {
 399:..\src\app\alt_mode/alt_modes_mngr.c ****                 /* Remove pointer to alt mode info struct */
 400:..\src\app\alt_mode/alt_modes_mngr.c ****                 alt_mode[port].alt_mode_info[tbl_alt_mode_idx] = NULL;
 401:..\src\app\alt_mode/alt_modes_mngr.c ****                 /* Remove flag that alt mode could be runned */
 402:..\src\app\alt_mode/alt_modes_mngr.c ****                 REMOVE_FLAG(alt_mode[port].am_supported_modes, tbl_alt_mode_idx);
 403:..\src\app\alt_mode/alt_modes_mngr.c ****                 reg->cbl_sop_flag = SOP_INVALID;
 404:..\src\app\alt_mode/alt_modes_mngr.c ****             }
 405:..\src\app\alt_mode/alt_modes_mngr.c ****         }
 406:..\src\app\alt_mode/alt_modes_mngr.c ****         else
 407:..\src\app\alt_mode/alt_modes_mngr.c ****         {
 408:..\src\app\alt_mode/alt_modes_mngr.c ****             if (!failed)
 409:..\src\app\alt_mode/alt_modes_mngr.c ****                 am_info_p->cbl_obj_pos = (vdo_idx + VDO_START_IDX);
 410:..\src\app\alt_mode/alt_modes_mngr.c ****         }
 411:..\src\app\alt_mode/alt_modes_mngr.c **** 
 412:..\src\app\alt_mode/alt_modes_mngr.c ****         if (reg->app_evt != AM_NO_EVT)
 413:..\src\app\alt_mode/alt_modes_mngr.c ****         {
 414:..\src\app\alt_mode/alt_modes_mngr.c ****             /* Send notifications to the solution. */
 415:..\src\app\alt_mode/alt_modes_mngr.c ****             send_sln_app_evt (port, NO_DATA);
 416:..\src\app\alt_mode/alt_modes_mngr.c ****             reg->app_evt = AM_NO_EVT;
 417:..\src\app\alt_mode/alt_modes_mngr.c ****         }
 418:..\src\app\alt_mode/alt_modes_mngr.c **** 
 419:..\src\app\alt_mode/alt_modes_mngr.c ****         if (failed)
 420:..\src\app\alt_mode/alt_modes_mngr.c ****             break;
ARM GAS  e:\temp\ccP12Hvn.s 			page 10


 421:..\src\app\alt_mode/alt_modes_mngr.c ****     }
 422:..\src\app\alt_mode/alt_modes_mngr.c **** }
 423:..\src\app\alt_mode/alt_modes_mngr.c **** #endif /* ((DFP_ALT_MODE_SUPP) || (UFP_MODE_DISC_ENABLE)) */
 424:..\src\app\alt_mode/alt_modes_mngr.c **** 
 425:..\src\app\alt_mode/alt_modes_mngr.c **** static vdm_task_t eval_disc_mode(uint8_t port)
 426:..\src\app\alt_mode/alt_modes_mngr.c **** {
 427:..\src\app\alt_mode/alt_modes_mngr.c **** #if ((DFP_ALT_MODE_SUPP) || (UFP_MODE_DISC_ENABLE))
 428:..\src\app\alt_mode/alt_modes_mngr.c ****     uint8_t               vdo_idx, tbl_svid_idx, tbl_alt_mode_idx;
 429:..\src\app\alt_mode/alt_modes_mngr.c ****     alt_mode_info_t      *am_info_p;
 430:..\src\app\alt_mode/alt_modes_mngr.c ****     vdm_msg_info_t       *vdm_p = alt_mode[port].vdm_info;
 431:..\src\app\alt_mode/alt_modes_mngr.c ****     alt_mode_reg_info_t  *reg   = &(alt_mode[port].reg_info);
 432:..\src\app\alt_mode/alt_modes_mngr.c ****     
 433:..\src\app\alt_mode/alt_modes_mngr.c **** #if ((CCG_PD_REV3_ENABLE) && (UFP_ALT_MODE_SUPP) && (UFP_MODE_DISC_ENABLE))
 434:..\src\app\alt_mode/alt_modes_mngr.c ****     /* Check is current port date role UFP */
 435:..\src\app\alt_mode/alt_modes_mngr.c ****     if (alt_mode[port].pd3_ufp)
 436:..\src\app\alt_mode/alt_modes_mngr.c ****     {
 437:..\src\app\alt_mode/alt_modes_mngr.c ****         /* Goto next SVID */
 438:..\src\app\alt_mode/alt_modes_mngr.c ****         alt_mode[port].svid_idx++;
 439:..\src\app\alt_mode/alt_modes_mngr.c ****         return VDM_TASK_ALT_MODE;
 440:..\src\app\alt_mode/alt_modes_mngr.c ****     }
 441:..\src\app\alt_mode/alt_modes_mngr.c **** #endif /* (CCG_PD_REV3_ENABLE) && (UFP_ALT_MODE_SUPP) && (UFP_MODE_DISC_ENABLE) */
 442:..\src\app\alt_mode/alt_modes_mngr.c **** 
 443:..\src\app\alt_mode/alt_modes_mngr.c ****     /* Evaluate SOP response */
 444:..\src\app\alt_mode/alt_modes_mngr.c ****     if (vdm_p->sop_type == (uint8_t)SOP)
 445:..\src\app\alt_mode/alt_modes_mngr.c ****     {
 446:..\src\app\alt_mode/alt_modes_mngr.c ****         /* Get index of function in alt_mode_config related to receive SVID */
 447:..\src\app\alt_mode/alt_modes_mngr.c ****         tbl_svid_idx = get_alt_mode_svid_idx(port, vdm_p->VDM_HDR.svid);
 448:..\src\app\alt_mode/alt_modes_mngr.c ****         /* Additional check if we support current SVID operations */
 449:..\src\app\alt_mode/alt_modes_mngr.c ****         if (tbl_svid_idx != MODE_NOT_SUPPORTED)
 450:..\src\app\alt_mode/alt_modes_mngr.c ****         {
 451:..\src\app\alt_mode/alt_modes_mngr.c ****             reg->atch_type = ATCH_TGT;
 452:..\src\app\alt_mode/alt_modes_mngr.c ****             /* Analyse all rec VDOs */
 453:..\src\app\alt_mode/alt_modes_mngr.c ****             for (vdo_idx = 0; vdo_idx < vdm_p->vdo_numb; vdo_idx++)
 454:..\src\app\alt_mode/alt_modes_mngr.c ****             {
 455:..\src\app\alt_mode/alt_modes_mngr.c ****                 /* Save current VDO and its position in svid structure */
 456:..\src\app\alt_mode/alt_modes_mngr.c ****                 reg->svid_vdo = vdm_p->vdo[vdo_idx];
 457:..\src\app\alt_mode/alt_modes_mngr.c ****                 /* Check if DFP support attached target alt mode */
 458:..\src\app\alt_mode/alt_modes_mngr.c ****                 am_info_p = is_alt_mode_allowed[tbl_svid_idx](port, reg);
 459:..\src\app\alt_mode/alt_modes_mngr.c ****                 /* If VDO relates to any of supported alt modes */
 460:..\src\app\alt_mode/alt_modes_mngr.c ****                 if (reg->alt_mode_id != MODE_NOT_SUPPORTED)
 461:..\src\app\alt_mode/alt_modes_mngr.c ****                 {
 462:..\src\app\alt_mode/alt_modes_mngr.c ****                     if (reg->app_evt != AM_NO_EVT)
 463:..\src\app\alt_mode/alt_modes_mngr.c ****                     {
 464:..\src\app\alt_mode/alt_modes_mngr.c ****                         /* Send notifications to the solution. */
 465:..\src\app\alt_mode/alt_modes_mngr.c ****                         send_sln_app_evt(port, NO_DATA);
 466:..\src\app\alt_mode/alt_modes_mngr.c ****                         reg->app_evt = AM_NO_EVT;
 467:..\src\app\alt_mode/alt_modes_mngr.c ****                     }
 468:..\src\app\alt_mode/alt_modes_mngr.c ****                     /* If alternate modes discovered and could be runned */
 469:..\src\app\alt_mode/alt_modes_mngr.c ****                     if (am_info_p != NULL)
 470:..\src\app\alt_mode/alt_modes_mngr.c ****                     {
 471:..\src\app\alt_mode/alt_modes_mngr.c ****                         /* Save alt mode ID and object position */
 472:..\src\app\alt_mode/alt_modes_mngr.c ****                         am_info_p->alt_mode_id = reg->alt_mode_id;
 473:..\src\app\alt_mode/alt_modes_mngr.c ****                         am_info_p->obj_pos     = (vdo_idx + VDO_START_IDX);
 474:..\src\app\alt_mode/alt_modes_mngr.c ****                         if (am_info_p->app_evt_needed != false)
 475:..\src\app\alt_mode/alt_modes_mngr.c ****                         {
 476:..\src\app\alt_mode/alt_modes_mngr.c ****                             /* Send notifications to the solution. */
 477:..\src\app\alt_mode/alt_modes_mngr.c ****                             send_sln_app_evt (port, am_info_p->app_evt_data.val);
ARM GAS  e:\temp\ccP12Hvn.s 			page 11


 478:..\src\app\alt_mode/alt_modes_mngr.c ****                             am_info_p->app_evt_needed = false;
 479:..\src\app\alt_mode/alt_modes_mngr.c ****                         }
 480:..\src\app\alt_mode/alt_modes_mngr.c ****                         /* Get index of alt mode in the compatibility table */
 481:..\src\app\alt_mode/alt_modes_mngr.c ****                         tbl_alt_mode_idx = get_alt_mode_tbl_idx(port, vdm_p->VDM_HDR.svid,
 482:..\src\app\alt_mode/alt_modes_mngr.c ****                                 reg->alt_mode_id);
 483:..\src\app\alt_mode/alt_modes_mngr.c ****                         if (tbl_alt_mode_idx != MODE_NOT_SUPPORTED)
 484:..\src\app\alt_mode/alt_modes_mngr.c ****                         {
 485:..\src\app\alt_mode/alt_modes_mngr.c ****                             /* Save pointer to alt mode info struct */
 486:..\src\app\alt_mode/alt_modes_mngr.c ****                             alt_mode[port].alt_mode_info[tbl_alt_mode_idx] = am_info_p;
 487:..\src\app\alt_mode/alt_modes_mngr.c ****                             /* Set flag that alt mode could be runned */
 488:..\src\app\alt_mode/alt_modes_mngr.c ****                             SET_FLAG(alt_mode[port].am_supported_modes, tbl_alt_mode_idx);
 489:..\src\app\alt_mode/alt_modes_mngr.c ****                         }
 490:..\src\app\alt_mode/alt_modes_mngr.c ****                     }
 491:..\src\app\alt_mode/alt_modes_mngr.c ****                 }
 492:..\src\app\alt_mode/alt_modes_mngr.c ****             }
 493:..\src\app\alt_mode/alt_modes_mngr.c **** 
 494:..\src\app\alt_mode/alt_modes_mngr.c ****             /* If cable DISC Mode is needed - send VDM */
 495:..\src\app\alt_mode/alt_modes_mngr.c ****             if (reg->cbl_sop_flag != SOP_INVALID)
 496:..\src\app\alt_mode/alt_modes_mngr.c ****             {
 497:..\src\app\alt_mode/alt_modes_mngr.c ****                 set_disc_mode_params (port, SOP_PRIME);
 498:..\src\app\alt_mode/alt_modes_mngr.c ****                 return VDM_TASK_SEND_MSG;
 499:..\src\app\alt_mode/alt_modes_mngr.c ****             }
 500:..\src\app\alt_mode/alt_modes_mngr.c ****         }
 501:..\src\app\alt_mode/alt_modes_mngr.c ****     }
 502:..\src\app\alt_mode/alt_modes_mngr.c ****     /* Evaluate cable response: Packet type will be SOP' or SOP'' here. */
 503:..\src\app\alt_mode/alt_modes_mngr.c ****     else
 504:..\src\app\alt_mode/alt_modes_mngr.c ****     {
 505:..\src\app\alt_mode/alt_modes_mngr.c ****         handle_cbl_disc_mode(port, false);
 506:..\src\app\alt_mode/alt_modes_mngr.c **** 
 507:..\src\app\alt_mode/alt_modes_mngr.c ****         /* If cable DISC Mode is needed - send VDM */
 508:..\src\app\alt_mode/alt_modes_mngr.c ****         if (reg->cbl_sop_flag != SOP_INVALID)
 509:..\src\app\alt_mode/alt_modes_mngr.c ****         {
 510:..\src\app\alt_mode/alt_modes_mngr.c ****             set_disc_mode_params (port, SOP_DPRIME);
 511:..\src\app\alt_mode/alt_modes_mngr.c ****             return VDM_TASK_SEND_MSG;
 512:..\src\app\alt_mode/alt_modes_mngr.c ****         }
 513:..\src\app\alt_mode/alt_modes_mngr.c ****     }
 514:..\src\app\alt_mode/alt_modes_mngr.c **** 
 515:..\src\app\alt_mode/alt_modes_mngr.c ****     /* If no any result goto next SVID */
 516:..\src\app\alt_mode/alt_modes_mngr.c ****     alt_mode[port].svid_idx++;
 517:..\src\app\alt_mode/alt_modes_mngr.c **** 
 518:..\src\app\alt_mode/alt_modes_mngr.c **** #endif /* ((DFP_ALT_MODE_SUPP) || (UFP_MODE_DISC_ENABLE)) */
 519:..\src\app\alt_mode/alt_modes_mngr.c ****     return VDM_TASK_ALT_MODE;
 520:..\src\app\alt_mode/alt_modes_mngr.c **** }
 521:..\src\app\alt_mode/alt_modes_mngr.c **** 
 522:..\src\app\alt_mode/alt_modes_mngr.c **** static vdm_task_t disc_mode_fail(uint8_t port)
 523:..\src\app\alt_mode/alt_modes_mngr.c **** {
 524:..\src\app\alt_mode/alt_modes_mngr.c **** #if ((DFP_ALT_MODE_SUPP) || (UFP_MODE_DISC_ENABLE))
 525:..\src\app\alt_mode/alt_modes_mngr.c **** #if ((CCG_PD_REV3_ENABLE) && (UFP_ALT_MODE_SUPP) && (UFP_MODE_DISC_ENABLE))
 526:..\src\app\alt_mode/alt_modes_mngr.c ****     /* Check is current port date role UFP */
 527:..\src\app\alt_mode/alt_modes_mngr.c ****     if (alt_mode[port].pd3_ufp)
 528:..\src\app\alt_mode/alt_modes_mngr.c ****     {
 529:..\src\app\alt_mode/alt_modes_mngr.c ****         /* Goto next SVID */
 530:..\src\app\alt_mode/alt_modes_mngr.c ****         alt_mode[port].svid_idx++;
 531:..\src\app\alt_mode/alt_modes_mngr.c ****         return VDM_TASK_ALT_MODE;
 532:..\src\app\alt_mode/alt_modes_mngr.c ****     }
 533:..\src\app\alt_mode/alt_modes_mngr.c **** #endif /* (CCG_PD_REV3_ENABLE) && (UFP_ALT_MODE_SUPP) && (UFP_MODE_DISC_ENABLE) */
 534:..\src\app\alt_mode/alt_modes_mngr.c **** 
ARM GAS  e:\temp\ccP12Hvn.s 			page 12


 535:..\src\app\alt_mode/alt_modes_mngr.c ****     if (alt_mode[port].vdm_info->sop_type == (uint8_t)SOP_PRIME)
 536:..\src\app\alt_mode/alt_modes_mngr.c ****     {
 537:..\src\app\alt_mode/alt_modes_mngr.c ****         handle_cbl_disc_mode(port, true);
 538:..\src\app\alt_mode/alt_modes_mngr.c ****     }
 539:..\src\app\alt_mode/alt_modes_mngr.c ****     /* If Disc Mode cmd fails goto next SVID */
 540:..\src\app\alt_mode/alt_modes_mngr.c ****     alt_mode[port].svid_idx++;
 541:..\src\app\alt_mode/alt_modes_mngr.c **** #endif /* ((DFP_ALT_MODE_SUPP) || (UFP_MODE_DISC_ENABLE)) */
 542:..\src\app\alt_mode/alt_modes_mngr.c **** 
 543:..\src\app\alt_mode/alt_modes_mngr.c ****     return VDM_TASK_ALT_MODE;
 544:..\src\app\alt_mode/alt_modes_mngr.c **** }
 545:..\src\app\alt_mode/alt_modes_mngr.c **** 
 546:..\src\app\alt_mode/alt_modes_mngr.c **** static vdm_task_t monitor_alt_modes(uint8_t port)
 547:..\src\app\alt_mode/alt_modes_mngr.c **** {
 548:..\src\app\alt_mode/alt_modes_mngr.c ****     uint8_t          alt_mode_idx;
 549:..\src\app\alt_mode/alt_modes_mngr.c ****     alt_mode_state_t alt_mode_state;
 550:..\src\app\alt_mode/alt_modes_mngr.c ****     vdm_task_t       stat = VDM_TASK_ALT_MODE;
 551:..\src\app\alt_mode/alt_modes_mngr.c ****     sop_t            sop_state;
 552:..\src\app\alt_mode/alt_modes_mngr.c ****     alt_mode_info_t  *am_info_p  = NULL;
 553:..\src\app\alt_mode/alt_modes_mngr.c **** 
 554:..\src\app\alt_mode/alt_modes_mngr.c ****     /* Look through all alt modes  */
 555:..\src\app\alt_mode/alt_modes_mngr.c ****     for (alt_mode_idx = 0; alt_mode_idx < alt_mode[port].alt_modes_numb; alt_mode_idx++)
 556:..\src\app\alt_mode/alt_modes_mngr.c ****     {
 557:..\src\app\alt_mode/alt_modes_mngr.c ****         /* If mode is active */
 558:..\src\app\alt_mode/alt_modes_mngr.c ****         if (IS_FLAG_CHECKED(alt_mode[port].am_active_modes, alt_mode_idx))
 559:..\src\app\alt_mode/alt_modes_mngr.c ****         {
 560:..\src\app\alt_mode/alt_modes_mngr.c ****             am_info_p = get_mode_info(port, alt_mode_idx);
 561:..\src\app\alt_mode/alt_modes_mngr.c ****             /* Get alt mode state */
 562:..\src\app\alt_mode/alt_modes_mngr.c ****             alt_mode_state = am_info_p->mode_state;
 563:..\src\app\alt_mode/alt_modes_mngr.c ****             switch (alt_mode_state)
 564:..\src\app\alt_mode/alt_modes_mngr.c ****             {
 565:..\src\app\alt_mode/alt_modes_mngr.c ****             case ALT_MODE_STATE_SEND:
 566:..\src\app\alt_mode/alt_modes_mngr.c ****                 /* This case activates when VDM sequence for given alt mode */
 567:..\src\app\alt_mode/alt_modes_mngr.c ****                 /* was interrupted by alt mode with higher priority */
 568:..\src\app\alt_mode/alt_modes_mngr.c ****             case ALT_MODE_STATE_WAIT_FOR_RESP:
 569:..\src\app\alt_mode/alt_modes_mngr.c ****                 /* Check if Trigger mask is set */
 570:..\src\app\alt_mode/alt_modes_mngr.c ****                 if (am_info_p->VDM_HDR.cmd == VDM_CMD_ENTER_MODE)
 571:..\src\app\alt_mode/alt_modes_mngr.c ****                 {
 572:..\src\app\alt_mode/alt_modes_mngr.c ****                     if (app_get_status(port)->alt_mode_trig_mask & (1 << alt_mode_idx))
 573:..\src\app\alt_mode/alt_modes_mngr.c ****                     {
 574:..\src\app\alt_mode/alt_modes_mngr.c ****                         /* 
 575:..\src\app\alt_mode/alt_modes_mngr.c ****                          * If enter EC trigger for alt mode is set then wait 
 576:..\src\app\alt_mode/alt_modes_mngr.c ****                          * for the EC alt mode Enter command 
 577:..\src\app\alt_mode/alt_modes_mngr.c ****                          */
 578:..\src\app\alt_mode/alt_modes_mngr.c ****                         continue;
 579:..\src\app\alt_mode/alt_modes_mngr.c ****                     }
 580:..\src\app\alt_mode/alt_modes_mngr.c ****                 }
 581:..\src\app\alt_mode/alt_modes_mngr.c **** 
 582:..\src\app\alt_mode/alt_modes_mngr.c ****                 /* Check if SOP' is needed */
 583:..\src\app\alt_mode/alt_modes_mngr.c ****                 if (am_info_p->sop_state[SOP_PRIME] == ALT_MODE_STATE_SEND)
 584:..\src\app\alt_mode/alt_modes_mngr.c ****                 {
 585:..\src\app\alt_mode/alt_modes_mngr.c ****                     sop_state = SOP_PRIME;
 586:..\src\app\alt_mode/alt_modes_mngr.c ****                 }
 587:..\src\app\alt_mode/alt_modes_mngr.c ****                 else if (am_info_p->sop_state[SOP_DPRIME] == ALT_MODE_STATE_SEND)
 588:..\src\app\alt_mode/alt_modes_mngr.c ****                 {
 589:..\src\app\alt_mode/alt_modes_mngr.c ****                     sop_state = SOP_DPRIME;
 590:..\src\app\alt_mode/alt_modes_mngr.c ****                 }
 591:..\src\app\alt_mode/alt_modes_mngr.c ****                 else
ARM GAS  e:\temp\ccP12Hvn.s 			page 13


 592:..\src\app\alt_mode/alt_modes_mngr.c ****                 {
 593:..\src\app\alt_mode/alt_modes_mngr.c ****                     sop_state = SOP;
 594:..\src\app\alt_mode/alt_modes_mngr.c ****                 }
 595:..\src\app\alt_mode/alt_modes_mngr.c **** 
 596:..\src\app\alt_mode/alt_modes_mngr.c ****                 /* Check if MUX should and could be set*/
 597:..\src\app\alt_mode/alt_modes_mngr.c ****                 if (
 598:..\src\app\alt_mode/alt_modes_mngr.c ****                         ((am_info_p->VDM_HDR.cmd == VDM_CMD_ENTER_MODE) ||
 599:..\src\app\alt_mode/alt_modes_mngr.c ****                          (am_info_p->VDM_HDR.cmd == VDM_CMD_EXIT_MODE)) &&
 600:..\src\app\alt_mode/alt_modes_mngr.c ****                         (am_info_p->set_mux_isolate != false)          &&
 601:..\src\app\alt_mode/alt_modes_mngr.c ****                         ((alt_mode[port].am_active_modes & (~(1 << alt_mode_idx))) == false)
 602:..\src\app\alt_mode/alt_modes_mngr.c ****                    )
 603:..\src\app\alt_mode/alt_modes_mngr.c ****                 {
 604:..\src\app\alt_mode/alt_modes_mngr.c ****                     set_mux(port, MUX_CONFIG_ISOLATE, NO_DATA);
 605:..\src\app\alt_mode/alt_modes_mngr.c ****                 }
 606:..\src\app\alt_mode/alt_modes_mngr.c **** 
 607:..\src\app\alt_mode/alt_modes_mngr.c ****                 if ((am_info_p->is_active) || (am_info_p->VDM_HDR.cmd == VDM_CMD_ENTER_MODE))
 608:..\src\app\alt_mode/alt_modes_mngr.c ****                 {
 609:..\src\app\alt_mode/alt_modes_mngr.c ****                     /* Copy to vdm info and send vdm */
 610:..\src\app\alt_mode/alt_modes_mngr.c ****                     move_to_vdm_info(port, am_info_p, sop_state);
 611:..\src\app\alt_mode/alt_modes_mngr.c ****                     am_info_p->mode_state = ALT_MODE_STATE_WAIT_FOR_RESP;
 612:..\src\app\alt_mode/alt_modes_mngr.c ****                 }
 613:..\src\app\alt_mode/alt_modes_mngr.c **** 
 614:..\src\app\alt_mode/alt_modes_mngr.c ****                 return VDM_TASK_SEND_MSG;
 615:..\src\app\alt_mode/alt_modes_mngr.c **** 
 616:..\src\app\alt_mode/alt_modes_mngr.c ****             case ALT_MODE_STATE_EXIT:
 617:..\src\app\alt_mode/alt_modes_mngr.c **** #if DFP_ALT_MODE_SUPP
 618:..\src\app\alt_mode/alt_modes_mngr.c ****                 if (gl_dpm_port_type[port] != PRT_TYPE_UFP)
 619:..\src\app\alt_mode/alt_modes_mngr.c ****                 {
 620:..\src\app\alt_mode/alt_modes_mngr.c ****                     /* Remove flag from active mode */
 621:..\src\app\alt_mode/alt_modes_mngr.c ****                     REMOVE_FLAG(alt_mode[port].am_active_modes, alt_mode_idx);
 622:..\src\app\alt_mode/alt_modes_mngr.c ****                     /* Set alt mode as disabled */
 623:..\src\app\alt_mode/alt_modes_mngr.c ****                     am_info_p->mode_state = ALT_MODE_STATE_DISABLE;
 624:..\src\app\alt_mode/alt_modes_mngr.c ****                     /* Set flag as exited mode */
 625:..\src\app\alt_mode/alt_modes_mngr.c ****                     SET_FLAG(alt_mode[port].am_exited_modes, alt_mode_idx);
 626:..\src\app\alt_mode/alt_modes_mngr.c **** 
 627:..\src\app\alt_mode/alt_modes_mngr.c ****                     /* If any active modes are present */
 628:..\src\app\alt_mode/alt_modes_mngr.c ****                     if (alt_mode[port].am_active_modes == NONE_MODE_MASK)
 629:..\src\app\alt_mode/alt_modes_mngr.c ****                     {
 630:..\src\app\alt_mode/alt_modes_mngr.c ****                         /* Notify APP layer that ALT mode has been exited. */
 631:..\src\app\alt_mode/alt_modes_mngr.c ****                         app_get_status(port)->alt_mode_entered = false;
 632:..\src\app\alt_mode/alt_modes_mngr.c ****                         /* Set MUX to SS config */
 633:..\src\app\alt_mode/alt_modes_mngr.c ****                         set_mux(port, MUX_CONFIG_SS_ONLY, NO_DATA);
 634:..\src\app\alt_mode/alt_modes_mngr.c ****                         /* Get next alt mode if avaliable */
 635:..\src\app\alt_mode/alt_modes_mngr.c ****                         get_next_alt_mode(port);
 636:..\src\app\alt_mode/alt_modes_mngr.c ****                     }
 637:..\src\app\alt_mode/alt_modes_mngr.c ****                 }
 638:..\src\app\alt_mode/alt_modes_mngr.c **** #endif /* DFP_ALT_MODE_SUPP */
 639:..\src\app\alt_mode/alt_modes_mngr.c **** 
 640:..\src\app\alt_mode/alt_modes_mngr.c **** #if UFP_ALT_MODE_SUPP
 641:..\src\app\alt_mode/alt_modes_mngr.c ****                 if (gl_dpm_port_type[port] == PRT_TYPE_UFP)
 642:..\src\app\alt_mode/alt_modes_mngr.c ****                 {
 643:..\src\app\alt_mode/alt_modes_mngr.c ****                     if (alt_mode[port].am_active_modes != NONE_MODE_MASK)
 644:..\src\app\alt_mode/alt_modes_mngr.c ****                     {
 645:..\src\app\alt_mode/alt_modes_mngr.c ****                         /* Notify APP layer that ALT mode has been exited. */
 646:..\src\app\alt_mode/alt_modes_mngr.c ****                         app_get_status(port)->alt_mode_entered = false;
 647:..\src\app\alt_mode/alt_modes_mngr.c ****                     }
 648:..\src\app\alt_mode/alt_modes_mngr.c **** 
ARM GAS  e:\temp\ccP12Hvn.s 			page 14


 649:..\src\app\alt_mode/alt_modes_mngr.c ****                     /* Send notifications to the solution if alt mode was entered. */
 650:..\src\app\alt_mode/alt_modes_mngr.c ****                     sln_pd_event_handler (port, APP_EVT_ALT_MODE,
 651:..\src\app\alt_mode/alt_modes_mngr.c ****                             form_alt_mode_event (port,
 652:..\src\app\alt_mode/alt_modes_mngr.c ****                                 am_info_p->VDM_HDR.svid,
 653:..\src\app\alt_mode/alt_modes_mngr.c ****                                 am_info_p->alt_mode_id,
 654:..\src\app\alt_mode/alt_modes_mngr.c ****                                 AM_EVT_ALT_MODE_EXITED, NO_DATA));
 655:..\src\app\alt_mode/alt_modes_mngr.c **** 
 656:..\src\app\alt_mode/alt_modes_mngr.c ****                     /* Set alt mode not active */
 657:..\src\app\alt_mode/alt_modes_mngr.c ****                     am_info_p->is_active = false;
 658:..\src\app\alt_mode/alt_modes_mngr.c ****                     /* Remove flag that alt mode could be processed */
 659:..\src\app\alt_mode/alt_modes_mngr.c ****                     REMOVE_FLAG(alt_mode[port].am_active_modes, alt_mode_idx);
 660:..\src\app\alt_mode/alt_modes_mngr.c ****                 }
 661:..\src\app\alt_mode/alt_modes_mngr.c **** #endif /* UFP_ALT_MODE_SUPP   */
 662:..\src\app\alt_mode/alt_modes_mngr.c ****                 break;
 663:..\src\app\alt_mode/alt_modes_mngr.c **** 
 664:..\src\app\alt_mode/alt_modes_mngr.c ****             case ALT_MODE_STATE_IDLE:
 665:..\src\app\alt_mode/alt_modes_mngr.c ****                 /* If alt modes need to send app event data */
 666:..\src\app\alt_mode/alt_modes_mngr.c ****                 if (am_info_p->app_evt_needed != false)
 667:..\src\app\alt_mode/alt_modes_mngr.c ****                 {
 668:..\src\app\alt_mode/alt_modes_mngr.c ****                     /* Send notifications to the solution. */
 669:..\src\app\alt_mode/alt_modes_mngr.c ****                     sln_pd_event_handler (port, APP_EVT_ALT_MODE,
 670:..\src\app\alt_mode/alt_modes_mngr.c ****                             form_alt_mode_event (port,
 671:..\src\app\alt_mode/alt_modes_mngr.c ****                                 am_info_p->VDM_HDR.svid,
 672:..\src\app\alt_mode/alt_modes_mngr.c ****                                 am_info_p->alt_mode_id,
 673:..\src\app\alt_mode/alt_modes_mngr.c ****                                 AM_EVT_DATA_EVT, 
 674:..\src\app\alt_mode/alt_modes_mngr.c ****                                 am_info_p->app_evt_data.val));
 675:..\src\app\alt_mode/alt_modes_mngr.c ****                     am_info_p->app_evt_needed = false;
 676:..\src\app\alt_mode/alt_modes_mngr.c ****                 }
 677:..\src\app\alt_mode/alt_modes_mngr.c ****                 break;
 678:..\src\app\alt_mode/alt_modes_mngr.c **** 
 679:..\src\app\alt_mode/alt_modes_mngr.c ****             case ALT_MODE_STATE_RUN:
 680:..\src\app\alt_mode/alt_modes_mngr.c ****                 /* Run ufp evaluation function */
 681:..\src\app\alt_mode/alt_modes_mngr.c ****                 am_info_p->cbk(port);
 682:..\src\app\alt_mode/alt_modes_mngr.c ****                 break;
 683:..\src\app\alt_mode/alt_modes_mngr.c **** 
 684:..\src\app\alt_mode/alt_modes_mngr.c ****             default:
 685:..\src\app\alt_mode/alt_modes_mngr.c ****                 break;
 686:..\src\app\alt_mode/alt_modes_mngr.c **** 
 687:..\src\app\alt_mode/alt_modes_mngr.c ****             }    
 688:..\src\app\alt_mode/alt_modes_mngr.c ****         }
 689:..\src\app\alt_mode/alt_modes_mngr.c ****     }
 690:..\src\app\alt_mode/alt_modes_mngr.c **** 
 691:..\src\app\alt_mode/alt_modes_mngr.c ****     return stat;
 692:..\src\app\alt_mode/alt_modes_mngr.c **** }
 693:..\src\app\alt_mode/alt_modes_mngr.c **** 
 694:..\src\app\alt_mode/alt_modes_mngr.c **** static vdm_task_t eval_alt_modes(uint8_t port)
 695:..\src\app\alt_mode/alt_modes_mngr.c **** {
 696:..\src\app\alt_mode/alt_modes_mngr.c ****     uint8_t            alt_mode_idx;
 697:..\src\app\alt_mode/alt_modes_mngr.c ****     alt_mode_state_t   alt_mode_state;
 698:..\src\app\alt_mode/alt_modes_mngr.c ****     vdm_task_t         stat = VDM_TASK_ALT_MODE;
 699:..\src\app\alt_mode/alt_modes_mngr.c ****     alt_mode_app_evt_t appevt_type = AM_NO_EVT;
 700:..\src\app\alt_mode/alt_modes_mngr.c ****     alt_mode_info_t    *am_info_p  = NULL;
 701:..\src\app\alt_mode/alt_modes_mngr.c ****     uint32_t           appevt_data = NO_DATA;
 702:..\src\app\alt_mode/alt_modes_mngr.c ****     vdm_msg_info_t     *vdm_p = alt_mode[port].vdm_info;
 703:..\src\app\alt_mode/alt_modes_mngr.c ****     
 704:..\src\app\alt_mode/alt_modes_mngr.c ****     /* Look through all alt modes  */
 705:..\src\app\alt_mode/alt_modes_mngr.c ****     for (alt_mode_idx = 0; alt_mode_idx < alt_mode[port].alt_modes_numb; alt_mode_idx++)
ARM GAS  e:\temp\ccP12Hvn.s 			page 15


 706:..\src\app\alt_mode/alt_modes_mngr.c ****     {
 707:..\src\app\alt_mode/alt_modes_mngr.c ****         /* If mode is active */
 708:..\src\app\alt_mode/alt_modes_mngr.c ****         if (IS_FLAG_CHECKED(alt_mode[port].am_active_modes, alt_mode_idx))
 709:..\src\app\alt_mode/alt_modes_mngr.c ****         {
 710:..\src\app\alt_mode/alt_modes_mngr.c ****             am_info_p = get_mode_info(port, alt_mode_idx);
 711:..\src\app\alt_mode/alt_modes_mngr.c **** 
 712:..\src\app\alt_mode/alt_modes_mngr.c ****             /* If pointer to cbk is NULL then return */
 713:..\src\app\alt_mode/alt_modes_mngr.c ****             if (am_info_p->cbk == NULL) 
 714:..\src\app\alt_mode/alt_modes_mngr.c ****                 break;
 715:..\src\app\alt_mode/alt_modes_mngr.c **** 
 716:..\src\app\alt_mode/alt_modes_mngr.c ****             /* Get alt mode state */
 717:..\src\app\alt_mode/alt_modes_mngr.c ****             alt_mode_state = am_info_p->mode_state;
 718:..\src\app\alt_mode/alt_modes_mngr.c ****             switch (alt_mode_state)
 719:..\src\app\alt_mode/alt_modes_mngr.c ****             {
 720:..\src\app\alt_mode/alt_modes_mngr.c ****                 case ALT_MODE_STATE_WAIT_FOR_RESP:
 721:..\src\app\alt_mode/alt_modes_mngr.c ****                     /* Set flag that send transaction passed successful */
 722:..\src\app\alt_mode/alt_modes_mngr.c ****                     am_info_p->sop_state[vdm_p->sop_type] = ALT_MODE_STATE_IDLE;
 723:..\src\app\alt_mode/alt_modes_mngr.c ****                     /* Copy received resp to alt mode info struct */
 724:..\src\app\alt_mode/alt_modes_mngr.c ****                     get_vdm_info_vdo(port, am_info_p, vdm_p->sop_type);
 725:..\src\app\alt_mode/alt_modes_mngr.c ****                     /* If received VDM is SOP */
 726:..\src\app\alt_mode/alt_modes_mngr.c ****                     if (vdm_p->sop_type == SOP)
 727:..\src\app\alt_mode/alt_modes_mngr.c ****                     {
 728:..\src\app\alt_mode/alt_modes_mngr.c ****                         /* Run alt mode analisys function */
 729:..\src\app\alt_mode/alt_modes_mngr.c ****                         am_info_p->cbk(port);
 730:..\src\app\alt_mode/alt_modes_mngr.c ****                         /* If UVDM command then break */
 731:..\src\app\alt_mode/alt_modes_mngr.c ****                         if (vdm_p->VDM_HDR.vdm_type != VDM_TYPE_STRUCTURED)
 732:..\src\app\alt_mode/alt_modes_mngr.c ****                         {
 733:..\src\app\alt_mode/alt_modes_mngr.c ****                             break;
 734:..\src\app\alt_mode/alt_modes_mngr.c ****                         }
 735:..\src\app\alt_mode/alt_modes_mngr.c ****                         /* If alt mode entered */
 736:..\src\app\alt_mode/alt_modes_mngr.c ****                         if (vdm_p->VDM_HDR.cmd == VDM_CMD_ENTER_MODE)
 737:..\src\app\alt_mode/alt_modes_mngr.c ****                         {
 738:..\src\app\alt_mode/alt_modes_mngr.c ****                             /* Notify APP layer that ALT mode has been entered. */
 739:..\src\app\alt_mode/alt_modes_mngr.c ****                             app_get_status(port)->alt_mode_entered = true;
 740:..\src\app\alt_mode/alt_modes_mngr.c ****                             /* Set mode as active */
 741:..\src\app\alt_mode/alt_modes_mngr.c ****                             am_info_p->is_active = true;
 742:..\src\app\alt_mode/alt_modes_mngr.c ****                             /* Queue notifications to the solution. */
 743:..\src\app\alt_mode/alt_modes_mngr.c ****                             appevt_type = AM_EVT_ALT_MODE_ENTERED;
 744:..\src\app\alt_mode/alt_modes_mngr.c ****                         }
 745:..\src\app\alt_mode/alt_modes_mngr.c **** 
 746:..\src\app\alt_mode/alt_modes_mngr.c ****                         if (vdm_p->VDM_HDR.cmd == VDM_CMD_EXIT_MODE)
 747:..\src\app\alt_mode/alt_modes_mngr.c ****                         {
 748:..\src\app\alt_mode/alt_modes_mngr.c ****                             /* Set mode as not active */
 749:..\src\app\alt_mode/alt_modes_mngr.c ****                             am_info_p->is_active = false;
 750:..\src\app\alt_mode/alt_modes_mngr.c ****                             /* Queue notifications to the solution. */
 751:..\src\app\alt_mode/alt_modes_mngr.c ****                             appevt_type = AM_EVT_ALT_MODE_EXITED;
 752:..\src\app\alt_mode/alt_modes_mngr.c ****                         }
 753:..\src\app\alt_mode/alt_modes_mngr.c **** 
 754:..\src\app\alt_mode/alt_modes_mngr.c ****                         /* If alt modes need to send app event data */
 755:..\src\app\alt_mode/alt_modes_mngr.c ****                         if (am_info_p->app_evt_needed != false)
 756:..\src\app\alt_mode/alt_modes_mngr.c ****                         {
 757:..\src\app\alt_mode/alt_modes_mngr.c ****                             /* Queue notifications to the solution. */
 758:..\src\app\alt_mode/alt_modes_mngr.c ****                             appevt_type = AM_EVT_DATA_EVT;
 759:..\src\app\alt_mode/alt_modes_mngr.c ****                             appevt_data = am_info_p->app_evt_data.val;
 760:..\src\app\alt_mode/alt_modes_mngr.c ****                             am_info_p->app_evt_needed = false;
 761:..\src\app\alt_mode/alt_modes_mngr.c ****                         }
 762:..\src\app\alt_mode/alt_modes_mngr.c **** 
ARM GAS  e:\temp\ccP12Hvn.s 			page 16


 763:..\src\app\alt_mode/alt_modes_mngr.c ****                         /* Send event to solution space, if required. */
 764:..\src\app\alt_mode/alt_modes_mngr.c ****                         if (appevt_type != AM_NO_EVT)
 765:..\src\app\alt_mode/alt_modes_mngr.c ****                         {
 766:..\src\app\alt_mode/alt_modes_mngr.c ****                             sln_pd_event_handler (port, APP_EVT_ALT_MODE,
 767:..\src\app\alt_mode/alt_modes_mngr.c ****                                     form_alt_mode_event (port,
 768:..\src\app\alt_mode/alt_modes_mngr.c ****                                         am_info_p->VDM_HDR.svid,
 769:..\src\app\alt_mode/alt_modes_mngr.c ****                                             am_info_p->alt_mode_id,
 770:..\src\app\alt_mode/alt_modes_mngr.c ****                                                 appevt_type, appevt_data));
 771:..\src\app\alt_mode/alt_modes_mngr.c ****                         }
 772:..\src\app\alt_mode/alt_modes_mngr.c ****                     }
 773:..\src\app\alt_mode/alt_modes_mngr.c ****                     else
 774:..\src\app\alt_mode/alt_modes_mngr.c ****                     {
 775:..\src\app\alt_mode/alt_modes_mngr.c ****                         /* If received VDM is SOP' type, check if SOP'' is needed.
 776:..\src\app\alt_mode/alt_modes_mngr.c ****                            If received VDM is SOP'', the check on SOP_DPRIME will fail trivially. *
 777:..\src\app\alt_mode/alt_modes_mngr.c ****                         if (am_info_p->sop_state[SOP_DPRIME] == ALT_MODE_STATE_SEND)
 778:..\src\app\alt_mode/alt_modes_mngr.c ****                         {
 779:..\src\app\alt_mode/alt_modes_mngr.c ****                             /* If needed send SOP'' VDM */
 780:..\src\app\alt_mode/alt_modes_mngr.c ****                             move_to_vdm_info(port,am_info_p, SOP_DPRIME);
 781:..\src\app\alt_mode/alt_modes_mngr.c ****                             stat = VDM_TASK_SEND_MSG;
 782:..\src\app\alt_mode/alt_modes_mngr.c ****                         }
 783:..\src\app\alt_mode/alt_modes_mngr.c ****                         else if (am_info_p->sop_state[SOP] == ALT_MODE_STATE_SEND)
 784:..\src\app\alt_mode/alt_modes_mngr.c ****                         {
 785:..\src\app\alt_mode/alt_modes_mngr.c ****                             /* If SOP'' not needed - send SOP VDM */
 786:..\src\app\alt_mode/alt_modes_mngr.c ****                             move_to_vdm_info(port,am_info_p, SOP);
 787:..\src\app\alt_mode/alt_modes_mngr.c ****                             stat = VDM_TASK_SEND_MSG;
 788:..\src\app\alt_mode/alt_modes_mngr.c ****                         }
 789:..\src\app\alt_mode/alt_modes_mngr.c ****                         else
 790:..\src\app\alt_mode/alt_modes_mngr.c ****                         {
 791:..\src\app\alt_mode/alt_modes_mngr.c ****                             am_info_p->cbk(port);
 792:..\src\app\alt_mode/alt_modes_mngr.c ****                         }
 793:..\src\app\alt_mode/alt_modes_mngr.c ****                     }
 794:..\src\app\alt_mode/alt_modes_mngr.c ****                     break;
 795:..\src\app\alt_mode/alt_modes_mngr.c **** 
 796:..\src\app\alt_mode/alt_modes_mngr.c ****                 default:
 797:..\src\app\alt_mode/alt_modes_mngr.c ****                     break;
 798:..\src\app\alt_mode/alt_modes_mngr.c ****             }
 799:..\src\app\alt_mode/alt_modes_mngr.c ****         }
 800:..\src\app\alt_mode/alt_modes_mngr.c ****     }
 801:..\src\app\alt_mode/alt_modes_mngr.c **** 
 802:..\src\app\alt_mode/alt_modes_mngr.c ****     return stat;
 803:..\src\app\alt_mode/alt_modes_mngr.c **** }
 804:..\src\app\alt_mode/alt_modes_mngr.c **** 
 805:..\src\app\alt_mode/alt_modes_mngr.c **** static vdm_task_t fail_alt_modes(uint8_t port)
 806:..\src\app\alt_mode/alt_modes_mngr.c **** {
 807:..\src\app\alt_mode/alt_modes_mngr.c ****     uint8_t             alt_mode_idx;
 808:..\src\app\alt_mode/alt_modes_mngr.c ****     alt_mode_state_t    alt_mode_state;
 809:..\src\app\alt_mode/alt_modes_mngr.c ****     alt_mode_app_evt_t  appevt_type = AM_EVT_CBL_RESP_FAILED;
 810:..\src\app\alt_mode/alt_modes_mngr.c ****     alt_mode_info_t     *am_info_p = NULL;
 811:..\src\app\alt_mode/alt_modes_mngr.c ****     vdm_msg_info_t      *vdm_p = alt_mode[port].vdm_info;
 812:..\src\app\alt_mode/alt_modes_mngr.c ****     
 813:..\src\app\alt_mode/alt_modes_mngr.c ****     /* Look through all alt modes */
 814:..\src\app\alt_mode/alt_modes_mngr.c ****     for (alt_mode_idx = 0; alt_mode_idx < alt_mode[port].alt_modes_numb; alt_mode_idx++)
 815:..\src\app\alt_mode/alt_modes_mngr.c ****     {
 816:..\src\app\alt_mode/alt_modes_mngr.c ****         /* If mode is active */
 817:..\src\app\alt_mode/alt_modes_mngr.c ****         if (IS_FLAG_CHECKED(alt_mode[port].am_active_modes, alt_mode_idx))
 818:..\src\app\alt_mode/alt_modes_mngr.c ****         {
 819:..\src\app\alt_mode/alt_modes_mngr.c ****             am_info_p = get_mode_info(port, alt_mode_idx);
ARM GAS  e:\temp\ccP12Hvn.s 			page 17


 820:..\src\app\alt_mode/alt_modes_mngr.c ****             /* Get alt mode state */
 821:..\src\app\alt_mode/alt_modes_mngr.c ****             alt_mode_state = am_info_p->mode_state;
 822:..\src\app\alt_mode/alt_modes_mngr.c ****             /* If mode waits for response */
 823:..\src\app\alt_mode/alt_modes_mngr.c ****             if (alt_mode_state == ALT_MODE_STATE_WAIT_FOR_RESP)
 824:..\src\app\alt_mode/alt_modes_mngr.c ****             {
 825:..\src\app\alt_mode/alt_modes_mngr.c ****                 /* Change status to fail */
 826:..\src\app\alt_mode/alt_modes_mngr.c ****                 am_info_p->sop_state[vdm_p->sop_type] = ALT_MODE_STATE_FAIL;
 827:..\src\app\alt_mode/alt_modes_mngr.c ****                 /* Set Failure code at the object pos field */
 828:..\src\app\alt_mode/alt_modes_mngr.c ****                 am_info_p->VDM_HDR.obj_pos = vdm_p->VDM_HDR.obj_pos;
 829:..\src\app\alt_mode/alt_modes_mngr.c **** 
 830:..\src\app\alt_mode/alt_modes_mngr.c ****                 if (vdm_p->sop_type == SOP)
 831:..\src\app\alt_mode/alt_modes_mngr.c ****                 {
 832:..\src\app\alt_mode/alt_modes_mngr.c ****                     appevt_type = AM_EVT_SOP_RESP_FAILED;
 833:..\src\app\alt_mode/alt_modes_mngr.c ****                 }
 834:..\src\app\alt_mode/alt_modes_mngr.c **** 
 835:..\src\app\alt_mode/alt_modes_mngr.c ****                 /* Send notifications to the solution. */
 836:..\src\app\alt_mode/alt_modes_mngr.c ****                 sln_pd_event_handler (port, APP_EVT_ALT_MODE,
 837:..\src\app\alt_mode/alt_modes_mngr.c ****                         form_alt_mode_event (port,
 838:..\src\app\alt_mode/alt_modes_mngr.c ****                             am_info_p->VDM_HDR.svid,
 839:..\src\app\alt_mode/alt_modes_mngr.c ****                                 am_info_p->alt_mode_id, appevt_type, NO_DATA));
 840:..\src\app\alt_mode/alt_modes_mngr.c **** 
 841:..\src\app\alt_mode/alt_modes_mngr.c ****                 /* Run alt mode analisys function */
 842:..\src\app\alt_mode/alt_modes_mngr.c ****                 am_info_p->mode_state = ALT_MODE_STATE_FAIL;
 843:..\src\app\alt_mode/alt_modes_mngr.c ****                 if (am_info_p->cbk != NULL)
 844:..\src\app\alt_mode/alt_modes_mngr.c ****                 {
 845:..\src\app\alt_mode/alt_modes_mngr.c ****                     am_info_p->cbk(port);
 846:..\src\app\alt_mode/alt_modes_mngr.c ****                 }
 847:..\src\app\alt_mode/alt_modes_mngr.c ****             }
 848:..\src\app\alt_mode/alt_modes_mngr.c ****         }
 849:..\src\app\alt_mode/alt_modes_mngr.c ****     }
 850:..\src\app\alt_mode/alt_modes_mngr.c **** 
 851:..\src\app\alt_mode/alt_modes_mngr.c ****     return VDM_TASK_ALT_MODE;
 852:..\src\app\alt_mode/alt_modes_mngr.c **** }
 853:..\src\app\alt_mode/alt_modes_mngr.c **** 
 854:..\src\app\alt_mode/alt_modes_mngr.c **** #if DFP_ALT_MODE_SUPP
 855:..\src\app\alt_mode/alt_modes_mngr.c **** uint8_t is_svid_supported(uint16_t svid, uint8_t port)
 856:..\src\app\alt_mode/alt_modes_mngr.c **** {
 857:..\src\app\alt_mode/alt_modes_mngr.c ****     uint8_t idx, am_numb;
 858:..\src\app\alt_mode/alt_modes_mngr.c ****     const comp_tbl_t* tbl_addr = NULL;
 859:..\src\app\alt_mode/alt_modes_mngr.c ****     
 860:..\src\app\alt_mode/alt_modes_mngr.c ****     am_numb = get_alt_mode_numb(port);
 861:..\src\app\alt_mode/alt_modes_mngr.c **** 
 862:..\src\app\alt_mode/alt_modes_mngr.c ****     /* Look through all alt modes */
 863:..\src\app\alt_mode/alt_modes_mngr.c ****     for (idx = 0; idx < am_numb; idx++)
 864:..\src\app\alt_mode/alt_modes_mngr.c ****     {
 865:..\src\app\alt_mode/alt_modes_mngr.c **** #if ALT_MODE_DIFF_CONFIG        
 866:..\src\app\alt_mode/alt_modes_mngr.c ****         if (port == TYPEC_PORT_0_IDX)
 867:..\src\app\alt_mode/alt_modes_mngr.c **** #endif /* ALT_MODE_DIFF_CONFIG */            
 868:..\src\app\alt_mode/alt_modes_mngr.c ****         {
 869:..\src\app\alt_mode/alt_modes_mngr.c ****             tbl_addr = &dfp_compatibility_mode_table[idx][idx];
 870:..\src\app\alt_mode/alt_modes_mngr.c ****         }
 871:..\src\app\alt_mode/alt_modes_mngr.c **** #if ALT_MODE_DIFF_CONFIG
 872:..\src\app\alt_mode/alt_modes_mngr.c ****         else
 873:..\src\app\alt_mode/alt_modes_mngr.c ****         {
 874:..\src\app\alt_mode/alt_modes_mngr.c ****             tbl_addr = &dfp_compatibility_mode_table_p1[idx][idx];
 875:..\src\app\alt_mode/alt_modes_mngr.c ****         }
 876:..\src\app\alt_mode/alt_modes_mngr.c **** #endif /* ALT_MODE_DIFF_CONFIG */    
ARM GAS  e:\temp\ccP12Hvn.s 			page 18


 877:..\src\app\alt_mode/alt_modes_mngr.c ****         /* if alt mode with given index is supported by CCG */
 878:..\src\app\alt_mode/alt_modes_mngr.c ****         if (tbl_addr->svid == svid)
 879:..\src\app\alt_mode/alt_modes_mngr.c ****         {
 880:..\src\app\alt_mode/alt_modes_mngr.c ****             return true;
 881:..\src\app\alt_mode/alt_modes_mngr.c ****         }
 882:..\src\app\alt_mode/alt_modes_mngr.c ****     }
 883:..\src\app\alt_mode/alt_modes_mngr.c **** 
 884:..\src\app\alt_mode/alt_modes_mngr.c ****     return false;
 885:..\src\app\alt_mode/alt_modes_mngr.c **** }
 886:..\src\app\alt_mode/alt_modes_mngr.c **** 
 887:..\src\app\alt_mode/alt_modes_mngr.c **** static uint8_t get_next_alt_mode(uint8_t port)
 888:..\src\app\alt_mode/alt_modes_mngr.c **** {
  94              		.loc 1 888 0
  95              		.cfi_startproc
  96              		@ args = 0, pretend = 0, frame = 0
  97              		@ frame_needed = 0, uses_anonymous_args = 0
  98              	.LVL4:
  99 0000 70B5     		push	{r4, r5, r6, lr}
 100              		.cfi_def_cfa_offset 16
 101              		.cfi_offset 4, -16
 102              		.cfi_offset 5, -12
 103              		.cfi_offset 6, -8
 104              		.cfi_offset 14, -4
 889:..\src\app\alt_mode/alt_modes_mngr.c ****     uint32_t idx1, idx2;
 890:..\src\app\alt_mode/alt_modes_mngr.c ****     uint32_t am_numb    = alt_mode[port].alt_modes_numb;
 105              		.loc 1 890 0
 106 0002 7423     		movs	r3, #116
 107 0004 4343     		muls	r3, r0
 108 0006 164A     		ldr	r2, .L14
 109 0008 D318     		adds	r3, r2, r3
 110 000a 1A00     		movs	r2, r3
 111 000c 3032     		adds	r2, r2, #48
 112 000e 1478     		ldrb	r4, [r2]
 113              	.LVL5:
 891:..\src\app\alt_mode/alt_modes_mngr.c ****     uint32_t aval_modes = (alt_mode[port].am_supported_modes) & (~alt_mode[port].am_exited_modes);
 114              		.loc 1 891 0
 115 0010 5969     		ldr	r1, [r3, #20]
 116 0012 9A69     		ldr	r2, [r3, #24]
 117 0014 9143     		bics	r1, r2
 118              	.LVL6:
 892:..\src\app\alt_mode/alt_modes_mngr.c ****     const comp_tbl_t* tbl_addr = NULL;
 893:..\src\app\alt_mode/alt_modes_mngr.c ****     
 894:..\src\app\alt_mode/alt_modes_mngr.c ****     /* Set active modes bit map to zero */
 895:..\src\app\alt_mode/alt_modes_mngr.c ****     alt_mode[port].am_active_modes = NONE_MODE_MASK;
 119              		.loc 1 895 0
 120 0016 0022     		movs	r2, #0
 121 0018 DA61     		str	r2, [r3, #28]
 122              	.LVL7:
 896:..\src\app\alt_mode/alt_modes_mngr.c ****     /* Start looking for next supported alt modes */
 897:..\src\app\alt_mode/alt_modes_mngr.c ****     for (idx1 = 0; idx1 < am_numb; idx1++)
 123              		.loc 1 897 0
 124 001a 0023     		movs	r3, #0
 125 001c 1BE0     		b	.L5
 126              	.LVL8:
 127              	.L11:
 898:..\src\app\alt_mode/alt_modes_mngr.c ****     {
 899:..\src\app\alt_mode/alt_modes_mngr.c ****         /* If mode supported by CCG and not processed yet */
ARM GAS  e:\temp\ccP12Hvn.s 			page 19


 900:..\src\app\alt_mode/alt_modes_mngr.c ****         if (IS_FLAG_CHECKED((aval_modes), idx1))
 128              		.loc 1 900 0
 129 001e 0A00     		movs	r2, r1
 130 0020 DA40     		lsrs	r2, r2, r3
 131 0022 D207     		lsls	r2, r2, #31
 132 0024 16D5     		bpl	.L13
 133 0026 10E0     		b	.L12
 134              	.LVL9:
 135              	.L9:
 901:..\src\app\alt_mode/alt_modes_mngr.c ****         {
 902:..\src\app\alt_mode/alt_modes_mngr.c ****             /* Look for the alt modes which could be runned */
 903:..\src\app\alt_mode/alt_modes_mngr.c ****             for (idx2 = 0; idx2 < am_numb; idx2++)
 904:..\src\app\alt_mode/alt_modes_mngr.c ****             {
 905:..\src\app\alt_mode/alt_modes_mngr.c **** #if ALT_MODE_DIFF_CONFIG        
 906:..\src\app\alt_mode/alt_modes_mngr.c ****                 if (port == TYPEC_PORT_0_IDX)
 907:..\src\app\alt_mode/alt_modes_mngr.c **** #endif /* ALT_MODE_DIFF_CONFIG */    
 908:..\src\app\alt_mode/alt_modes_mngr.c ****                 {
 909:..\src\app\alt_mode/alt_modes_mngr.c ****                     tbl_addr = &dfp_compatibility_mode_table[idx1][idx2];
 910:..\src\app\alt_mode/alt_modes_mngr.c ****                 }
 911:..\src\app\alt_mode/alt_modes_mngr.c **** #if ALT_MODE_DIFF_CONFIG
 912:..\src\app\alt_mode/alt_modes_mngr.c ****                 else
 913:..\src\app\alt_mode/alt_modes_mngr.c ****                 {
 914:..\src\app\alt_mode/alt_modes_mngr.c ****                     tbl_addr = &dfp_compatibility_mode_table_p1[idx1][idx2];
 915:..\src\app\alt_mode/alt_modes_mngr.c ****                 }
 916:..\src\app\alt_mode/alt_modes_mngr.c **** #endif /* ALT_MODE_DIFF_CONFIG */    
 917:..\src\app\alt_mode/alt_modes_mngr.c ****                 /* Check if this entry has a valid SVID. */
 918:..\src\app\alt_mode/alt_modes_mngr.c ****                 if (tbl_addr->svid != NO_DATA)
 136              		.loc 1 918 0
 137 0028 9918     		adds	r1, r3, r2
 138 002a 8900     		lsls	r1, r1, #2
 139 002c 0D4D     		ldr	r5, .L14+4
 140 002e 495B     		ldrh	r1, [r1, r5]
 141 0030 0029     		cmp	r1, #0
 142 0032 08D0     		beq	.L8
 919:..\src\app\alt_mode/alt_modes_mngr.c ****                 {
 920:..\src\app\alt_mode/alt_modes_mngr.c ****                     SET_FLAG(alt_mode[port].am_active_modes, idx2);
 143              		.loc 1 920 0
 144 0034 0125     		movs	r5, #1
 145 0036 9540     		lsls	r5, r5, r2
 146 0038 7421     		movs	r1, #116
 147              	.LVL10:
 148 003a 4143     		muls	r1, r0
 149              	.LVL11:
 150 003c 084E     		ldr	r6, .L14
 151              	.LVL12:
 152 003e 7118     		adds	r1, r6, r1
 153 0040 CE69     		ldr	r6, [r1, #28]
 154              	.LVL13:
 155 0042 3543     		orrs	r5, r6
 156 0044 CD61     		str	r5, [r1, #28]
 157              	.L8:
 903:..\src\app\alt_mode/alt_modes_mngr.c ****             {
 158              		.loc 1 903 0 discriminator 2
 159 0046 0132     		adds	r2, r2, #1
 160              	.LVL14:
 161 0048 00E0     		b	.L6
 162              	.LVL15:
ARM GAS  e:\temp\ccP12Hvn.s 			page 20


 163              	.L12:
 164 004a 0022     		movs	r2, #0
 165              	.LVL16:
 166              	.L6:
 903:..\src\app\alt_mode/alt_modes_mngr.c ****             {
 167              		.loc 1 903 0 is_stmt 0 discriminator 1
 168 004c A242     		cmp	r2, r4
 169 004e EBD3     		bcc	.L9
 921:..\src\app\alt_mode/alt_modes_mngr.c ****                 }
 922:..\src\app\alt_mode/alt_modes_mngr.c ****             }
 923:..\src\app\alt_mode/alt_modes_mngr.c **** 
 924:..\src\app\alt_mode/alt_modes_mngr.c ****             return true;
 170              		.loc 1 924 0 is_stmt 1
 171 0050 0120     		movs	r0, #1
 172              	.LVL17:
 173 0052 03E0     		b	.L10
 174              	.LVL18:
 175              	.L13:
 897:..\src\app\alt_mode/alt_modes_mngr.c ****     {
 176              		.loc 1 897 0 discriminator 2
 177 0054 0133     		adds	r3, r3, #1
 178              	.LVL19:
 179              	.L5:
 897:..\src\app\alt_mode/alt_modes_mngr.c ****     {
 180              		.loc 1 897 0 is_stmt 0 discriminator 1
 181 0056 A342     		cmp	r3, r4
 182 0058 E1D3     		bcc	.L11
 925:..\src\app\alt_mode/alt_modes_mngr.c ****         }
 926:..\src\app\alt_mode/alt_modes_mngr.c ****     }
 927:..\src\app\alt_mode/alt_modes_mngr.c **** 
 928:..\src\app\alt_mode/alt_modes_mngr.c ****     return false;
 183              		.loc 1 928 0 is_stmt 1
 184 005a 0020     		movs	r0, #0
 185              	.LVL20:
 186              	.L10:
 929:..\src\app\alt_mode/alt_modes_mngr.c **** }
 187              		.loc 1 929 0
 188              		@ sp needed
 189              	.LVL21:
 190 005c 70BD     		pop	{r4, r5, r6, pc}
 191              	.L15:
 192 005e C046     		.align	2
 193              	.L14:
 194 0060 00000000 		.word	alt_mode
 195 0064 20000000 		.word	.LANCHOR0
 196              		.cfi_endproc
 197              	.LFE48:
 198              		.size	get_next_alt_mode, .-get_next_alt_mode
 199              		.section	.text.get_alt_mode_tbl_idx,"ax",%progbits
 200              		.align	2
 201              		.code	16
 202              		.thumb_func
 203              		.type	get_alt_mode_tbl_idx, %function
 204              	get_alt_mode_tbl_idx:
 205              	.LFB54:
 930:..\src\app\alt_mode/alt_modes_mngr.c **** 
 931:..\src\app\alt_mode/alt_modes_mngr.c **** #endif /* DFP_ALT_MODE_SUPP   */
ARM GAS  e:\temp\ccP12Hvn.s 			page 21


 932:..\src\app\alt_mode/alt_modes_mngr.c **** 
 933:..\src\app\alt_mode/alt_modes_mngr.c **** #if (!UCSI_ALT_MODE_ENABLED)
 934:..\src\app\alt_mode/alt_modes_mngr.c **** static uint8_t move_to_vdm_info(uint8_t port, alt_mode_info_t *info, sop_t sop_type)
 935:..\src\app\alt_mode/alt_modes_mngr.c **** #else
 936:..\src\app\alt_mode/alt_modes_mngr.c **** uint8_t move_to_vdm_info(uint8_t port, alt_mode_info_t *info, sop_t sop_type)
 937:..\src\app\alt_mode/alt_modes_mngr.c **** #endif /*UCSI_ALT_MODE_ENABLED*/
 938:..\src\app\alt_mode/alt_modes_mngr.c **** {
 939:..\src\app\alt_mode/alt_modes_mngr.c ****     vdm_msg_info_t *vdm_p = alt_mode[port].vdm_info;
 940:..\src\app\alt_mode/alt_modes_mngr.c ****     
 941:..\src\app\alt_mode/alt_modes_mngr.c ****     vdm_p->sop_type   = sop_type;
 942:..\src\app\alt_mode/alt_modes_mngr.c ****     vdm_p->vdo_numb   = NO_DATA;
 943:..\src\app\alt_mode/alt_modes_mngr.c ****     vdm_p->vdm_header = info->vdm_header;    
 944:..\src\app\alt_mode/alt_modes_mngr.c ****     if ((info->vdo[sop_type] != NULL) && (info->vdo_numb[sop_type] != NO_DATA))
 945:..\src\app\alt_mode/alt_modes_mngr.c ****     {
 946:..\src\app\alt_mode/alt_modes_mngr.c ****         vdm_p->vdo_numb = info->vdo_numb[sop_type];
 947:..\src\app\alt_mode/alt_modes_mngr.c ****         /* Save received VDO */
 948:..\src\app\alt_mode/alt_modes_mngr.c ****         memcpy(vdm_p->vdo, info->vdo[sop_type],(info->vdo_numb[sop_type]) << 2);
 949:..\src\app\alt_mode/alt_modes_mngr.c ****     }
 950:..\src\app\alt_mode/alt_modes_mngr.c ****     if (
 951:..\src\app\alt_mode/alt_modes_mngr.c ****             (info->uvdm_supp == false) 
 952:..\src\app\alt_mode/alt_modes_mngr.c ****     
 953:..\src\app\alt_mode/alt_modes_mngr.c ****     /* If SVDM */
 954:..\src\app\alt_mode/alt_modes_mngr.c **** #if UVDM_SUPP        
 955:..\src\app\alt_mode/alt_modes_mngr.c ****         ||  ((info->VDM_HDR.vdm_type == VDM_TYPE_STRUCTURED) 
 956:..\src\app\alt_mode/alt_modes_mngr.c ****         &&   (info->uvdm_supp))
 957:..\src\app\alt_mode/alt_modes_mngr.c **** #endif /* UVDM_SUPP */        
 958:..\src\app\alt_mode/alt_modes_mngr.c ****         )
 959:..\src\app\alt_mode/alt_modes_mngr.c ****     {
 960:..\src\app\alt_mode/alt_modes_mngr.c ****         vdm_p->VDM_HDR.vdm_type = VDM_TYPE_STRUCTURED;
 961:..\src\app\alt_mode/alt_modes_mngr.c ****         vdm_p->VDM_HDR.obj_pos = info->obj_pos;
 962:..\src\app\alt_mode/alt_modes_mngr.c ****         /* Set object position if custom Attention should be send */
 963:..\src\app\alt_mode/alt_modes_mngr.c ****         if ((info->VDM_HDR.cmd == VDM_CMD_ATTENTION) && (info->custom_att_obj_pos))
 964:..\src\app\alt_mode/alt_modes_mngr.c ****         {
 965:..\src\app\alt_mode/alt_modes_mngr.c ****             vdm_p->VDM_HDR.obj_pos = info->VDM_HDR.obj_pos;
 966:..\src\app\alt_mode/alt_modes_mngr.c ****         }
 967:..\src\app\alt_mode/alt_modes_mngr.c ****         if (sop_type != SOP)
 968:..\src\app\alt_mode/alt_modes_mngr.c ****         {
 969:..\src\app\alt_mode/alt_modes_mngr.c ****             vdm_p->VDM_HDR.obj_pos  = info->cbl_obj_pos;
 970:..\src\app\alt_mode/alt_modes_mngr.c ****         }
 971:..\src\app\alt_mode/alt_modes_mngr.c ****     }
 972:..\src\app\alt_mode/alt_modes_mngr.c ****     
 973:..\src\app\alt_mode/alt_modes_mngr.c ****     return true;
 974:..\src\app\alt_mode/alt_modes_mngr.c **** }
 975:..\src\app\alt_mode/alt_modes_mngr.c **** 
 976:..\src\app\alt_mode/alt_modes_mngr.c **** #if (!UCSI_ALT_MODE_ENABLED)
 977:..\src\app\alt_mode/alt_modes_mngr.c **** static void get_vdm_info_vdo(uint8_t port, alt_mode_info_t* info, sop_t sop_type)
 978:..\src\app\alt_mode/alt_modes_mngr.c **** #else
 979:..\src\app\alt_mode/alt_modes_mngr.c **** void get_vdm_info_vdo(uint8_t port, alt_mode_info_t* info, sop_t sop_type)
 980:..\src\app\alt_mode/alt_modes_mngr.c **** #endif/*UCSI_ALT_MODE_ENABLED*/
 981:..\src\app\alt_mode/alt_modes_mngr.c **** {
 982:..\src\app\alt_mode/alt_modes_mngr.c ****     vdm_msg_info_t *vdm_p = alt_mode[port].vdm_info;
 983:..\src\app\alt_mode/alt_modes_mngr.c ****     uint8_t         vdo_numb;
 984:..\src\app\alt_mode/alt_modes_mngr.c **** 
 985:..\src\app\alt_mode/alt_modes_mngr.c **** #if UVDM_SUPP        
 986:..\src\app\alt_mode/alt_modes_mngr.c ****     if (info->VDM_HDR.vdm_type == VDM_TYPE_STRUCTURED)
 987:..\src\app\alt_mode/alt_modes_mngr.c **** #endif /* UVDM_SUPP */        
 988:..\src\app\alt_mode/alt_modes_mngr.c ****     {
ARM GAS  e:\temp\ccP12Hvn.s 			page 22


 989:..\src\app\alt_mode/alt_modes_mngr.c ****         /* Copy object position to the VDM Header */
 990:..\src\app\alt_mode/alt_modes_mngr.c ****         info->VDM_HDR.obj_pos = vdm_p->VDM_HDR.obj_pos;
 991:..\src\app\alt_mode/alt_modes_mngr.c ****     }
 992:..\src\app\alt_mode/alt_modes_mngr.c ****     vdo_numb = vdm_p->vdo_numb;
 993:..\src\app\alt_mode/alt_modes_mngr.c ****     /* Copy received VDO to alt mode info */
 994:..\src\app\alt_mode/alt_modes_mngr.c ****     if ((vdo_numb != 0) && (info->vdo[sop_type] != NULL))
 995:..\src\app\alt_mode/alt_modes_mngr.c ****     {
 996:..\src\app\alt_mode/alt_modes_mngr.c ****         info->vdo_numb[sop_type] = vdm_p->vdo_numb;
 997:..\src\app\alt_mode/alt_modes_mngr.c ****         /* Save Rec VDO */
 998:..\src\app\alt_mode/alt_modes_mngr.c ****         if (vdm_p->vdo_numb <= info->vdo_max_numb)
 999:..\src\app\alt_mode/alt_modes_mngr.c ****         {
1000:..\src\app\alt_mode/alt_modes_mngr.c ****             /* Save received VDO */
1001:..\src\app\alt_mode/alt_modes_mngr.c ****             memcpy(info->vdo[sop_type], vdm_p->vdo,(vdm_p->vdo_numb) << 2);
1002:..\src\app\alt_mode/alt_modes_mngr.c ****         }
1003:..\src\app\alt_mode/alt_modes_mngr.c ****     }
1004:..\src\app\alt_mode/alt_modes_mngr.c **** }
1005:..\src\app\alt_mode/alt_modes_mngr.c **** 
1006:..\src\app\alt_mode/alt_modes_mngr.c **** static vdm_task_t alt_mode_mngr_deinit(uint8_t port)
1007:..\src\app\alt_mode/alt_modes_mngr.c **** {
1008:..\src\app\alt_mode/alt_modes_mngr.c ****     uint8_t             alt_mode_idx;
1009:..\src\app\alt_mode/alt_modes_mngr.c ****     alt_mode_info_t     *am_info_p = NULL;
1010:..\src\app\alt_mode/alt_modes_mngr.c **** 
1011:..\src\app\alt_mode/alt_modes_mngr.c ****     /* Find and reset alt modes info structures */
1012:..\src\app\alt_mode/alt_modes_mngr.c ****     for (alt_mode_idx = 0; alt_mode_idx < alt_mode[port].alt_modes_numb; alt_mode_idx++)
1013:..\src\app\alt_mode/alt_modes_mngr.c ****     {
1014:..\src\app\alt_mode/alt_modes_mngr.c ****         am_info_p = get_mode_info(port, alt_mode_idx);
1015:..\src\app\alt_mode/alt_modes_mngr.c ****         if (am_info_p != NULL)
1016:..\src\app\alt_mode/alt_modes_mngr.c ****         {
1017:..\src\app\alt_mode/alt_modes_mngr.c ****             /* If current data role is UFP - set mode to idle */
1018:..\src\app\alt_mode/alt_modes_mngr.c ****             if (gl_dpm_port_type[port] == PRT_TYPE_UFP)
1019:..\src\app\alt_mode/alt_modes_mngr.c ****             {
1020:..\src\app\alt_mode/alt_modes_mngr.c ****                 /* CDT 232310 fix */
1021:..\src\app\alt_mode/alt_modes_mngr.c ****                 am_info_p->mode_state = ALT_MODE_STATE_IDLE;
1022:..\src\app\alt_mode/alt_modes_mngr.c ****             }
1023:..\src\app\alt_mode/alt_modes_mngr.c ****             else
1024:..\src\app\alt_mode/alt_modes_mngr.c ****             {
1025:..\src\app\alt_mode/alt_modes_mngr.c ****                 /* If DFP - wait for response */
1026:..\src\app\alt_mode/alt_modes_mngr.c ****                 am_info_p->mode_state = ALT_MODE_STATE_WAIT_FOR_RESP;
1027:..\src\app\alt_mode/alt_modes_mngr.c ****             }
1028:..\src\app\alt_mode/alt_modes_mngr.c **** 
1029:..\src\app\alt_mode/alt_modes_mngr.c ****             /* Exit from alt mode */
1030:..\src\app\alt_mode/alt_modes_mngr.c ****             am_info_p->VDM_HDR.cmd = VDM_CMD_EXIT_MODE;
1031:..\src\app\alt_mode/alt_modes_mngr.c ****             am_info_p->cbk(port);
1032:..\src\app\alt_mode/alt_modes_mngr.c **** 
1033:..\src\app\alt_mode/alt_modes_mngr.c ****             /* Reset alt mode info */
1034:..\src\app\alt_mode/alt_modes_mngr.c ****             reset_alt_mode_info(am_info_p);
1035:..\src\app\alt_mode/alt_modes_mngr.c ****         }
1036:..\src\app\alt_mode/alt_modes_mngr.c ****     }
1037:..\src\app\alt_mode/alt_modes_mngr.c **** 
1038:..\src\app\alt_mode/alt_modes_mngr.c ****     /* Reset alt mode mngr info */
1039:..\src\app\alt_mode/alt_modes_mngr.c ****     reset_mngr_info(port);
1040:..\src\app\alt_mode/alt_modes_mngr.c **** 
1041:..\src\app\alt_mode/alt_modes_mngr.c **** #if (CCG_BB_ENABLE != 0)
1042:..\src\app\alt_mode/alt_modes_mngr.c ****     bb_disable(port, true);
1043:..\src\app\alt_mode/alt_modes_mngr.c ****     bb_update_all_status(port, BB_ALT_MODE_STATUS_INIT_VAL);
1044:..\src\app\alt_mode/alt_modes_mngr.c **** #endif /* (CCG_BB_ENABLE != 0) */
1045:..\src\app\alt_mode/alt_modes_mngr.c **** 
ARM GAS  e:\temp\ccP12Hvn.s 			page 23


1046:..\src\app\alt_mode/alt_modes_mngr.c ****     return VDM_TASK_EXIT;
1047:..\src\app\alt_mode/alt_modes_mngr.c **** }
1048:..\src\app\alt_mode/alt_modes_mngr.c **** 
1049:..\src\app\alt_mode/alt_modes_mngr.c **** 
1050:..\src\app\alt_mode/alt_modes_mngr.c **** /******************** Common ALT Mode DFP and UFP functions *******************/
1051:..\src\app\alt_mode/alt_modes_mngr.c **** 
1052:..\src\app\alt_mode/alt_modes_mngr.c **** uint8_t get_alt_mode_numb(uint8_t port)
1053:..\src\app\alt_mode/alt_modes_mngr.c **** {
1054:..\src\app\alt_mode/alt_modes_mngr.c ****     uint8_t am_numb = NO_DATA;    
1055:..\src\app\alt_mode/alt_modes_mngr.c **** 
1056:..\src\app\alt_mode/alt_modes_mngr.c **** #if DFP_ALT_MODE_SUPP
1057:..\src\app\alt_mode/alt_modes_mngr.c ****     if (gl_dpm_port_type[port] != PRT_TYPE_UFP)
1058:..\src\app\alt_mode/alt_modes_mngr.c ****     {
1059:..\src\app\alt_mode/alt_modes_mngr.c ****         am_numb = DFP_MAX_SVID_SUPP;
1060:..\src\app\alt_mode/alt_modes_mngr.c **** #if ALT_MODE_DIFF_CONFIG
1061:..\src\app\alt_mode/alt_modes_mngr.c ****         if (port == TYPEC_PORT_1_IDX) 
1062:..\src\app\alt_mode/alt_modes_mngr.c ****         {
1063:..\src\app\alt_mode/alt_modes_mngr.c ****             am_numb = DFP_MAX_SVID_SUPP_P1;
1064:..\src\app\alt_mode/alt_modes_mngr.c ****         }
1065:..\src\app\alt_mode/alt_modes_mngr.c **** #endif /* ALT_MODE_DIFF_CONFIG */    
1066:..\src\app\alt_mode/alt_modes_mngr.c ****     }
1067:..\src\app\alt_mode/alt_modes_mngr.c **** #endif /* DFP_ALT_MODE_SUPP */
1068:..\src\app\alt_mode/alt_modes_mngr.c **** 
1069:..\src\app\alt_mode/alt_modes_mngr.c **** #if UFP_ALT_MODE_SUPP
1070:..\src\app\alt_mode/alt_modes_mngr.c ****     if (gl_dpm_port_type[port] == PRT_TYPE_UFP)
1071:..\src\app\alt_mode/alt_modes_mngr.c ****     {
1072:..\src\app\alt_mode/alt_modes_mngr.c ****         am_numb = UFP_MAX_SVID_SUPP;
1073:..\src\app\alt_mode/alt_modes_mngr.c **** #if ALT_MODE_DIFF_CONFIG
1074:..\src\app\alt_mode/alt_modes_mngr.c ****         if (port == TYPEC_PORT_1_IDX)
1075:..\src\app\alt_mode/alt_modes_mngr.c ****         {
1076:..\src\app\alt_mode/alt_modes_mngr.c ****             am_numb = UFP_MAX_SVID_SUPP_P1;
1077:..\src\app\alt_mode/alt_modes_mngr.c ****         }
1078:..\src\app\alt_mode/alt_modes_mngr.c **** #endif /* ALT_MODE_DIFF_CONFIG */    
1079:..\src\app\alt_mode/alt_modes_mngr.c ****     }
1080:..\src\app\alt_mode/alt_modes_mngr.c **** #endif /* UFP_ALT_MODE_SUPP */
1081:..\src\app\alt_mode/alt_modes_mngr.c **** 
1082:..\src\app\alt_mode/alt_modes_mngr.c ****     return am_numb;
1083:..\src\app\alt_mode/alt_modes_mngr.c **** }
1084:..\src\app\alt_mode/alt_modes_mngr.c **** 
1085:..\src\app\alt_mode/alt_modes_mngr.c **** uint8_t is_alt_modes_available(uint8_t port)
1086:..\src\app\alt_mode/alt_modes_mngr.c **** {
1087:..\src\app\alt_mode/alt_modes_mngr.c ****     uint8_t stat = false;
1088:..\src\app\alt_mode/alt_modes_mngr.c **** 
1089:..\src\app\alt_mode/alt_modes_mngr.c **** #if ((DFP_ALT_MODE_SUPP) || (UFP_ALT_MODE_SUPP))    
1090:..\src\app\alt_mode/alt_modes_mngr.c ****     uint8_t idx;
1091:..\src\app\alt_mode/alt_modes_mngr.c ****     const comp_tbl_t* tbl_addr = NULL;
1092:..\src\app\alt_mode/alt_modes_mngr.c ****     port_type_t port_type      = gl_dpm_port_type[port];
1093:..\src\app\alt_mode/alt_modes_mngr.c **** 
1094:..\src\app\alt_mode/alt_modes_mngr.c ****     for (idx = 0; idx < alt_mode[port].alt_modes_numb; idx++)
1095:..\src\app\alt_mode/alt_modes_mngr.c ****     {
1096:..\src\app\alt_mode/alt_modes_mngr.c **** #if DFP_ALT_MODE_SUPP
1097:..\src\app\alt_mode/alt_modes_mngr.c ****         if (port_type != PRT_TYPE_UFP)
1098:..\src\app\alt_mode/alt_modes_mngr.c ****         {
1099:..\src\app\alt_mode/alt_modes_mngr.c ****             tbl_addr = &dfp_compatibility_mode_table[idx][idx];
1100:..\src\app\alt_mode/alt_modes_mngr.c ****         }
1101:..\src\app\alt_mode/alt_modes_mngr.c **** #endif
1102:..\src\app\alt_mode/alt_modes_mngr.c **** 
ARM GAS  e:\temp\ccP12Hvn.s 			page 24


1103:..\src\app\alt_mode/alt_modes_mngr.c **** #if UFP_ALT_MODE_SUPP
1104:..\src\app\alt_mode/alt_modes_mngr.c ****         if (port_type == PRT_TYPE_UFP)
1105:..\src\app\alt_mode/alt_modes_mngr.c ****         {
1106:..\src\app\alt_mode/alt_modes_mngr.c ****             tbl_addr = &ufp_compatibility_mode_table[idx][idx];
1107:..\src\app\alt_mode/alt_modes_mngr.c ****         }
1108:..\src\app\alt_mode/alt_modes_mngr.c **** #endif
1109:..\src\app\alt_mode/alt_modes_mngr.c **** 
1110:..\src\app\alt_mode/alt_modes_mngr.c ****         /* if any alt mode is avaliable */
1111:..\src\app\alt_mode/alt_modes_mngr.c ****         if ((tbl_addr != NULL) && (tbl_addr->svid != NO_DATA))
1112:..\src\app\alt_mode/alt_modes_mngr.c ****         {
1113:..\src\app\alt_mode/alt_modes_mngr.c ****             if (port_type == PRT_TYPE_UFP)
1114:..\src\app\alt_mode/alt_modes_mngr.c ****             {
1115:..\src\app\alt_mode/alt_modes_mngr.c ****                 /* Set svid idx to zero to start Disc Mode process */
1116:..\src\app\alt_mode/alt_modes_mngr.c ****                 alt_mode[port].svid_idx = 0;
1117:..\src\app\alt_mode/alt_modes_mngr.c ****             }
1118:..\src\app\alt_mode/alt_modes_mngr.c ****             stat = true;
1119:..\src\app\alt_mode/alt_modes_mngr.c ****             break;
1120:..\src\app\alt_mode/alt_modes_mngr.c ****         }
1121:..\src\app\alt_mode/alt_modes_mngr.c ****     }
1122:..\src\app\alt_mode/alt_modes_mngr.c **** #endif /* (DFP_ALT_MODE_SUPP) || (UFP_ALT_MODE_SUPP) */    
1123:..\src\app\alt_mode/alt_modes_mngr.c **** 
1124:..\src\app\alt_mode/alt_modes_mngr.c ****     return stat;
1125:..\src\app\alt_mode/alt_modes_mngr.c **** }
1126:..\src\app\alt_mode/alt_modes_mngr.c **** 
1127:..\src\app\alt_mode/alt_modes_mngr.c **** #if ((DFP_ALT_MODE_SUPP) || (UFP_ALT_MODE_SUPP))
1128:..\src\app\alt_mode/alt_modes_mngr.c **** #if (!UCSI_ALT_MODE_ENABLED)
1129:..\src\app\alt_mode/alt_modes_mngr.c **** static uint8_t get_alt_mode_tbl_idx(uint8_t port, uint16_t svid, uint8_t id)
1130:..\src\app\alt_mode/alt_modes_mngr.c **** #else
1131:..\src\app\alt_mode/alt_modes_mngr.c **** uint8_t get_alt_mode_tbl_idx(uint8_t port, uint16_t svid, uint8_t id)
1132:..\src\app\alt_mode/alt_modes_mngr.c **** #endif /*UCSI_ALT_MODE_ENABLED*/
1133:..\src\app\alt_mode/alt_modes_mngr.c **** {
 206              		.loc 1 1133 0
 207              		.cfi_startproc
 208              		@ args = 0, pretend = 0, frame = 0
 209              		@ frame_needed = 0, uses_anonymous_args = 0
 210              	.LVL22:
 211 0000 70B5     		push	{r4, r5, r6, lr}
 212              		.cfi_def_cfa_offset 16
 213              		.cfi_offset 4, -16
 214              		.cfi_offset 5, -12
 215              		.cfi_offset 6, -8
 216              		.cfi_offset 14, -4
 217 0002 0600     		movs	r6, r0
 218              	.LVL23:
1134:..\src\app\alt_mode/alt_modes_mngr.c ****     uint8_t idx;   
1135:..\src\app\alt_mode/alt_modes_mngr.c ****     const comp_tbl_t* tbl_addr = NULL;
 219              		.loc 1 1135 0
 220 0004 0025     		movs	r5, #0
1136:..\src\app\alt_mode/alt_modes_mngr.c **** 
1137:..\src\app\alt_mode/alt_modes_mngr.c ****     for (idx = 0; idx < alt_mode[port].alt_modes_numb; idx++)
 221              		.loc 1 1137 0
 222 0006 0024     		movs	r4, #0
 223 0008 10E0     		b	.L17
 224              	.LVL24:
 225              	.L21:
1138:..\src\app\alt_mode/alt_modes_mngr.c ****     {
1139:..\src\app\alt_mode/alt_modes_mngr.c **** #if DFP_ALT_MODE_SUPP
ARM GAS  e:\temp\ccP12Hvn.s 			page 25


1140:..\src\app\alt_mode/alt_modes_mngr.c ****         if (gl_dpm_port_type[port] != PRT_TYPE_UFP)
 226              		.loc 1 1140 0
 227 000a 0E4B     		ldr	r3, .L23
 228 000c 9B5D     		ldrb	r3, [r3, r6]
 229 000e 002B     		cmp	r3, #0
 230 0010 02D0     		beq	.L18
1141:..\src\app\alt_mode/alt_modes_mngr.c ****         {
1142:..\src\app\alt_mode/alt_modes_mngr.c ****             tbl_addr = &dfp_compatibility_mode_table[idx][idx];
 231              		.loc 1 1142 0
 232 0012 E300     		lsls	r3, r4, #3
 233 0014 0C4D     		ldr	r5, .L23+4
 234              	.LVL25:
 235 0016 ED18     		adds	r5, r5, r3
 236              	.LVL26:
 237              	.L18:
1143:..\src\app\alt_mode/alt_modes_mngr.c **** #if ALT_MODE_DIFF_CONFIG        
1144:..\src\app\alt_mode/alt_modes_mngr.c ****             if (port == TYPEC_PORT_1_IDX) 
1145:..\src\app\alt_mode/alt_modes_mngr.c ****             {
1146:..\src\app\alt_mode/alt_modes_mngr.c ****                 tbl_addr = &dfp_compatibility_mode_table_p1[idx][idx];;
1147:..\src\app\alt_mode/alt_modes_mngr.c ****             }
1148:..\src\app\alt_mode/alt_modes_mngr.c **** #endif /* ALT_MODE_DIFF_CONFIG */                
1149:..\src\app\alt_mode/alt_modes_mngr.c ****         }
1150:..\src\app\alt_mode/alt_modes_mngr.c **** #endif
1151:..\src\app\alt_mode/alt_modes_mngr.c **** #if UFP_ALT_MODE_SUPP
1152:..\src\app\alt_mode/alt_modes_mngr.c ****         if (gl_dpm_port_type[port] == PRT_TYPE_UFP)
1153:..\src\app\alt_mode/alt_modes_mngr.c ****         {
1154:..\src\app\alt_mode/alt_modes_mngr.c ****             tbl_addr = &ufp_compatibility_mode_table[idx][idx];
1155:..\src\app\alt_mode/alt_modes_mngr.c **** #if ALT_MODE_DIFF_CONFIG        
1156:..\src\app\alt_mode/alt_modes_mngr.c ****             if (port == TYPEC_PORT_1_IDX) 
1157:..\src\app\alt_mode/alt_modes_mngr.c ****             {
1158:..\src\app\alt_mode/alt_modes_mngr.c ****                 tbl_addr = &ufp_compatibility_mode_table_p1[idx][idx];;
1159:..\src\app\alt_mode/alt_modes_mngr.c ****             }
1160:..\src\app\alt_mode/alt_modes_mngr.c **** #endif /* ALT_MODE_DIFF_CONFIG */    
1161:..\src\app\alt_mode/alt_modes_mngr.c ****         }
1162:..\src\app\alt_mode/alt_modes_mngr.c **** #endif
1163:..\src\app\alt_mode/alt_modes_mngr.c ****         /* if any alt mode is avaliable */
1164:..\src\app\alt_mode/alt_modes_mngr.c ****         if ((tbl_addr != NULL) && (tbl_addr->svid == svid) && (tbl_addr->alt_mode_id == id))
 238              		.loc 1 1164 0
 239 0018 002D     		cmp	r5, #0
 240 001a 05D0     		beq	.L19
 241              		.loc 1 1164 0 is_stmt 0 discriminator 1
 242 001c 2B88     		ldrh	r3, [r5]
 243 001e 8B42     		cmp	r3, r1
 244 0020 02D1     		bne	.L19
 245              		.loc 1 1164 0 discriminator 2
 246 0022 AB78     		ldrb	r3, [r5, #2]
 247 0024 9342     		cmp	r3, r2
 248 0026 0BD0     		beq	.L22
 249              	.L19:
1137:..\src\app\alt_mode/alt_modes_mngr.c ****     {
 250              		.loc 1 1137 0 is_stmt 1 discriminator 2
 251 0028 0134     		adds	r4, r4, #1
 252              	.LVL27:
 253 002a E4B2     		uxtb	r4, r4
 254              	.LVL28:
 255              	.L17:
1137:..\src\app\alt_mode/alt_modes_mngr.c ****     {
ARM GAS  e:\temp\ccP12Hvn.s 			page 26


 256              		.loc 1 1137 0 is_stmt 0 discriminator 1
 257 002c 7423     		movs	r3, #116
 258 002e 7343     		muls	r3, r6
 259 0030 0648     		ldr	r0, .L23+8
 260 0032 C318     		adds	r3, r0, r3
 261 0034 3033     		adds	r3, r3, #48
 262 0036 1B78     		ldrb	r3, [r3]
 263 0038 9C42     		cmp	r4, r3
 264 003a E6D3     		bcc	.L21
1165:..\src\app\alt_mode/alt_modes_mngr.c ****         {
1166:..\src\app\alt_mode/alt_modes_mngr.c ****             return idx;
1167:..\src\app\alt_mode/alt_modes_mngr.c ****         }
1168:..\src\app\alt_mode/alt_modes_mngr.c ****     }
1169:..\src\app\alt_mode/alt_modes_mngr.c **** 
1170:..\src\app\alt_mode/alt_modes_mngr.c ****     return MODE_NOT_SUPPORTED;
 265              		.loc 1 1170 0 is_stmt 1
 266 003c FF20     		movs	r0, #255
 267 003e 00E0     		b	.L20
 268              	.L22:
1166:..\src\app\alt_mode/alt_modes_mngr.c ****         }
 269              		.loc 1 1166 0
 270 0040 2000     		movs	r0, r4
 271              	.L20:
1171:..\src\app\alt_mode/alt_modes_mngr.c **** }
 272              		.loc 1 1171 0
 273              		@ sp needed
 274              	.LVL29:
 275              	.LVL30:
 276 0042 70BD     		pop	{r4, r5, r6, pc}
 277              	.L24:
 278              		.align	2
 279              	.L23:
 280 0044 00000000 		.word	gl_dpm_port_type
 281 0048 20000000 		.word	.LANCHOR0
 282 004c 00000000 		.word	alt_mode
 283              		.cfi_endproc
 284              	.LFE54:
 285              		.size	get_alt_mode_tbl_idx, .-get_alt_mode_tbl_idx
 286              		.section	.text.get_alt_mode_svid_idx,"ax",%progbits
 287              		.align	2
 288              		.code	16
 289              		.thumb_func
 290              		.type	get_alt_mode_svid_idx, %function
 291              	get_alt_mode_svid_idx:
 292              	.LFB55:
1172:..\src\app\alt_mode/alt_modes_mngr.c **** 
1173:..\src\app\alt_mode/alt_modes_mngr.c **** #if (!UCSI_ALT_MODE_ENABLED)
1174:..\src\app\alt_mode/alt_modes_mngr.c **** static uint8_t get_alt_mode_svid_idx(uint8_t port, uint16_t svid)
1175:..\src\app\alt_mode/alt_modes_mngr.c **** #else 
1176:..\src\app\alt_mode/alt_modes_mngr.c **** uint8_t get_alt_mode_svid_idx(uint8_t port, uint16_t svid)
1177:..\src\app\alt_mode/alt_modes_mngr.c **** #endif /*UCSI_ALT_MODE_ENABLED*/
1178:..\src\app\alt_mode/alt_modes_mngr.c **** {
 293              		.loc 1 1178 0
 294              		.cfi_startproc
 295              		@ args = 0, pretend = 0, frame = 0
 296              		@ frame_needed = 0, uses_anonymous_args = 0
 297              	.LVL31:
ARM GAS  e:\temp\ccP12Hvn.s 			page 27


 298 0000 10B5     		push	{r4, lr}
 299              		.cfi_def_cfa_offset 8
 300              		.cfi_offset 4, -8
 301              		.cfi_offset 14, -4
 302              	.LVL32:
1179:..\src\app\alt_mode/alt_modes_mngr.c ****     uint8_t idx;
1180:..\src\app\alt_mode/alt_modes_mngr.c **** 
1181:..\src\app\alt_mode/alt_modes_mngr.c ****     /* Look through all alt modes */
1182:..\src\app\alt_mode/alt_modes_mngr.c ****     for (idx = 0; idx < alt_mode[port].alt_modes_numb; idx++)
 303              		.loc 1 1182 0
 304 0002 0022     		movs	r2, #0
 305 0004 04E0     		b	.L26
 306              	.LVL33:
 307              	.L28:
1183:..\src\app\alt_mode/alt_modes_mngr.c ****     {
1184:..\src\app\alt_mode/alt_modes_mngr.c ****         /* if alt mode with given index is supported by CCG */
1185:..\src\app\alt_mode/alt_modes_mngr.c ****         if (supp_svid_tbl[idx] == svid)
 308              		.loc 1 1185 0
 309 0006 084B     		ldr	r3, .L30
 310 0008 9942     		cmp	r1, r3
 311 000a 0BD0     		beq	.L29
1182:..\src\app\alt_mode/alt_modes_mngr.c ****     {
 312              		.loc 1 1182 0 discriminator 2
 313 000c 0132     		adds	r2, r2, #1
 314              	.LVL34:
 315 000e D2B2     		uxtb	r2, r2
 316              	.LVL35:
 317              	.L26:
1182:..\src\app\alt_mode/alt_modes_mngr.c ****     {
 318              		.loc 1 1182 0 is_stmt 0 discriminator 1
 319 0010 7423     		movs	r3, #116
 320 0012 4343     		muls	r3, r0
 321 0014 054C     		ldr	r4, .L30+4
 322 0016 E318     		adds	r3, r4, r3
 323 0018 3033     		adds	r3, r3, #48
 324 001a 1B78     		ldrb	r3, [r3]
 325 001c 9A42     		cmp	r2, r3
 326 001e F2D3     		bcc	.L28
1186:..\src\app\alt_mode/alt_modes_mngr.c ****         {
1187:..\src\app\alt_mode/alt_modes_mngr.c ****             return idx;
1188:..\src\app\alt_mode/alt_modes_mngr.c ****         }
1189:..\src\app\alt_mode/alt_modes_mngr.c ****     }
1190:..\src\app\alt_mode/alt_modes_mngr.c ****     
1191:..\src\app\alt_mode/alt_modes_mngr.c ****     return MODE_NOT_SUPPORTED;
 327              		.loc 1 1191 0 is_stmt 1
 328 0020 FF20     		movs	r0, #255
 329              	.LVL36:
 330 0022 00E0     		b	.L27
 331              	.LVL37:
 332              	.L29:
1187:..\src\app\alt_mode/alt_modes_mngr.c ****         }
 333              		.loc 1 1187 0
 334 0024 1000     		movs	r0, r2
 335              	.LVL38:
 336              	.L27:
1192:..\src\app\alt_mode/alt_modes_mngr.c **** }
 337              		.loc 1 1192 0
ARM GAS  e:\temp\ccP12Hvn.s 			page 28


 338              		@ sp needed
 339 0026 10BD     		pop	{r4, pc}
 340              	.L31:
 341              		.align	2
 342              	.L30:
 343 0028 01FF0000 		.word	65281
 344 002c 00000000 		.word	alt_mode
 345              		.cfi_endproc
 346              	.LFE55:
 347              		.size	get_alt_mode_svid_idx, .-get_alt_mode_svid_idx
 348              		.section	.text.get_vdm_info_vdo,"ax",%progbits
 349              		.align	2
 350              		.code	16
 351              		.thumb_func
 352              		.type	get_vdm_info_vdo, %function
 353              	get_vdm_info_vdo:
 354              	.LFB50:
 981:..\src\app\alt_mode/alt_modes_mngr.c ****     vdm_msg_info_t *vdm_p = alt_mode[port].vdm_info;
 355              		.loc 1 981 0
 356              		.cfi_startproc
 357              		@ args = 0, pretend = 0, frame = 0
 358              		@ frame_needed = 0, uses_anonymous_args = 0
 359              	.LVL39:
 360 0000 70B5     		push	{r4, r5, r6, lr}
 361              		.cfi_def_cfa_offset 16
 362              		.cfi_offset 4, -16
 363              		.cfi_offset 5, -12
 364              		.cfi_offset 6, -8
 365              		.cfi_offset 14, -4
 982:..\src\app\alt_mode/alt_modes_mngr.c ****     uint8_t         vdo_numb;
 366              		.loc 1 982 0
 367 0002 7423     		movs	r3, #116
 368 0004 5843     		muls	r0, r3
 369              	.LVL40:
 370 0006 124B     		ldr	r3, .L34
 371 0008 1818     		adds	r0, r3, r0
 372 000a C46E     		ldr	r4, [r0, #108]
 373              	.LVL41:
 990:..\src\app\alt_mode/alt_modes_mngr.c ****     }
 374              		.loc 1 990 0
 375 000c 6378     		ldrb	r3, [r4, #1]
 376 000e 5B07     		lsls	r3, r3, #29
 377 0010 580F     		lsrs	r0, r3, #29
 378 0012 4B7A     		ldrb	r3, [r1, #9]
 379 0014 0725     		movs	r5, #7
 380 0016 AB43     		bics	r3, r5
 381 0018 0343     		orrs	r3, r0
 382 001a 4B72     		strb	r3, [r1, #9]
 992:..\src\app\alt_mode/alt_modes_mngr.c ****     /* Copy received VDO to alt mode info */
 383              		.loc 1 992 0
 384 001c 6079     		ldrb	r0, [r4, #5]
 385              	.LVL42:
 994:..\src\app\alt_mode/alt_modes_mngr.c ****     {
 386              		.loc 1 994 0
 387 001e 0028     		cmp	r0, #0
 388 0020 14D0     		beq	.L32
 994:..\src\app\alt_mode/alt_modes_mngr.c ****     {
ARM GAS  e:\temp\ccP12Hvn.s 			page 29


 389              		.loc 1 994 0 is_stmt 0 discriminator 1
 390 0022 931C     		adds	r3, r2, #2
 391 0024 9B00     		lsls	r3, r3, #2
 392 0026 CB18     		adds	r3, r1, r3
 393 0028 5B68     		ldr	r3, [r3, #4]
 394 002a 002B     		cmp	r3, #0
 395 002c 0ED0     		beq	.L32
 996:..\src\app\alt_mode/alt_modes_mngr.c ****         /* Save Rec VDO */
 396              		.loc 1 996 0 is_stmt 1
 397 002e 8B18     		adds	r3, r1, r2
 398 0030 1876     		strb	r0, [r3, #24]
 998:..\src\app\alt_mode/alt_modes_mngr.c ****         {
 399              		.loc 1 998 0
 400 0032 6379     		ldrb	r3, [r4, #5]
 401 0034 0879     		ldrb	r0, [r1, #4]
 402              	.LVL43:
 403 0036 8342     		cmp	r3, r0
 404 0038 08D8     		bhi	.L32
1001:..\src\app\alt_mode/alt_modes_mngr.c ****         }
 405              		.loc 1 1001 0
 406 003a 0232     		adds	r2, r2, #2
 407              	.LVL44:
 408 003c 9200     		lsls	r2, r2, #2
 409              	.LVL45:
 410 003e 8918     		adds	r1, r1, r2
 411              	.LVL46:
 412 0040 4868     		ldr	r0, [r1, #4]
 413 0042 2100     		movs	r1, r4
 414 0044 0831     		adds	r1, r1, #8
 415 0046 9A00     		lsls	r2, r3, #2
 416 0048 FFF7FEFF 		bl	memcpy
 417              	.LVL47:
 418              	.L32:
1004:..\src\app\alt_mode/alt_modes_mngr.c **** 
 419              		.loc 1 1004 0
 420              		@ sp needed
 421              	.LVL48:
 422 004c 70BD     		pop	{r4, r5, r6, pc}
 423              	.L35:
 424 004e C046     		.align	2
 425              	.L34:
 426 0050 00000000 		.word	alt_mode
 427              		.cfi_endproc
 428              	.LFE50:
 429              		.size	get_vdm_info_vdo, .-get_vdm_info_vdo
 430              		.section	.text.move_to_vdm_info,"ax",%progbits
 431              		.align	2
 432              		.code	16
 433              		.thumb_func
 434              		.type	move_to_vdm_info, %function
 435              	move_to_vdm_info:
 436              	.LFB49:
 938:..\src\app\alt_mode/alt_modes_mngr.c ****     vdm_msg_info_t *vdm_p = alt_mode[port].vdm_info;
 437              		.loc 1 938 0
 438              		.cfi_startproc
 439              		@ args = 0, pretend = 0, frame = 0
 440              		@ frame_needed = 0, uses_anonymous_args = 0
ARM GAS  e:\temp\ccP12Hvn.s 			page 30


 441              	.LVL49:
 442 0000 70B5     		push	{r4, r5, r6, lr}
 443              		.cfi_def_cfa_offset 16
 444              		.cfi_offset 4, -16
 445              		.cfi_offset 5, -12
 446              		.cfi_offset 6, -8
 447              		.cfi_offset 14, -4
 448 0002 0D00     		movs	r5, r1
 449 0004 1600     		movs	r6, r2
 939:..\src\app\alt_mode/alt_modes_mngr.c ****     
 450              		.loc 1 939 0
 451 0006 7423     		movs	r3, #116
 452 0008 5843     		muls	r0, r3
 453              	.LVL50:
 454 000a 254B     		ldr	r3, .L40
 455 000c 1818     		adds	r0, r3, r0
 456 000e C46E     		ldr	r4, [r0, #108]
 457              	.LVL51:
 941:..\src\app\alt_mode/alt_modes_mngr.c ****     vdm_p->vdo_numb   = NO_DATA;
 458              		.loc 1 941 0
 459 0010 2271     		strb	r2, [r4, #4]
 942:..\src\app\alt_mode/alt_modes_mngr.c ****     vdm_p->vdm_header = info->vdm_header;    
 460              		.loc 1 942 0
 461 0012 0023     		movs	r3, #0
 462 0014 6371     		strb	r3, [r4, #5]
 943:..\src\app\alt_mode/alt_modes_mngr.c ****     if ((info->vdo[sop_type] != NULL) && (info->vdo_numb[sop_type] != NO_DATA))
 463              		.loc 1 943 0
 464 0016 8B68     		ldr	r3, [r1, #8]
 465 0018 2360     		str	r3, [r4]
 944:..\src\app\alt_mode/alt_modes_mngr.c ****     {
 466              		.loc 1 944 0
 467 001a 931C     		adds	r3, r2, #2
 468 001c 9B00     		lsls	r3, r3, #2
 469 001e CB18     		adds	r3, r1, r3
 470 0020 5B68     		ldr	r3, [r3, #4]
 471 0022 002B     		cmp	r3, #0
 472 0024 0FD0     		beq	.L37
 944:..\src\app\alt_mode/alt_modes_mngr.c ****     {
 473              		.loc 1 944 0 is_stmt 0 discriminator 1
 474 0026 8B18     		adds	r3, r1, r2
 475 0028 1B7E     		ldrb	r3, [r3, #24]
 476 002a 002B     		cmp	r3, #0
 477 002c 0BD0     		beq	.L37
 946:..\src\app\alt_mode/alt_modes_mngr.c ****         /* Save received VDO */
 478              		.loc 1 946 0 is_stmt 1
 479 002e 6371     		strb	r3, [r4, #5]
 948:..\src\app\alt_mode/alt_modes_mngr.c ****     }
 480              		.loc 1 948 0
 481 0030 2000     		movs	r0, r4
 482 0032 0830     		adds	r0, r0, #8
 483 0034 931C     		adds	r3, r2, #2
 484 0036 9B00     		lsls	r3, r3, #2
 485 0038 CB18     		adds	r3, r1, r3
 486 003a 5968     		ldr	r1, [r3, #4]
 487              	.LVL52:
 488 003c AB18     		adds	r3, r5, r2
 489 003e 1A7E     		ldrb	r2, [r3, #24]
ARM GAS  e:\temp\ccP12Hvn.s 			page 31


 490              	.LVL53:
 491 0040 9200     		lsls	r2, r2, #2
 492 0042 FFF7FEFF 		bl	memcpy
 493              	.LVL54:
 494              	.L37:
 951:..\src\app\alt_mode/alt_modes_mngr.c ****     
 495              		.loc 1 951 0
 496 0046 2223     		movs	r3, #34
 497 0048 EB5C     		ldrb	r3, [r5, r3]
 950:..\src\app\alt_mode/alt_modes_mngr.c ****             (info->uvdm_supp == false) 
 498              		.loc 1 950 0
 499 004a 002B     		cmp	r3, #0
 500 004c 26D1     		bne	.L38
 960:..\src\app\alt_mode/alt_modes_mngr.c ****         vdm_p->VDM_HDR.obj_pos = info->obj_pos;
 501              		.loc 1 960 0
 502 004e 6378     		ldrb	r3, [r4, #1]
 503 0050 8022     		movs	r2, #128
 504 0052 5242     		rsbs	r2, r2, #0
 505 0054 1343     		orrs	r3, r2
 506 0056 6370     		strb	r3, [r4, #1]
 961:..\src\app\alt_mode/alt_modes_mngr.c ****         /* Set object position if custom Attention should be send */
 507              		.loc 1 961 0
 508 0058 6B79     		ldrb	r3, [r5, #5]
 509 005a 8732     		adds	r2, r2, #135
 510 005c 1A40     		ands	r2, r3
 511 005e 6378     		ldrb	r3, [r4, #1]
 512 0060 0721     		movs	r1, #7
 513 0062 8B43     		bics	r3, r1
 514 0064 1343     		orrs	r3, r2
 515 0066 6370     		strb	r3, [r4, #1]
 963:..\src\app\alt_mode/alt_modes_mngr.c ****         {
 516              		.loc 1 963 0
 517 0068 2B7A     		ldrb	r3, [r5, #8]
 518 006a 1F22     		movs	r2, #31
 519 006c 1340     		ands	r3, r2
 520 006e 062B     		cmp	r3, #6
 521 0070 0AD1     		bne	.L39
 963:..\src\app\alt_mode/alt_modes_mngr.c ****         {
 522              		.loc 1 963 0 is_stmt 0 discriminator 1
 523 0072 1B33     		adds	r3, r3, #27
 524 0074 EB5C     		ldrb	r3, [r5, r3]
 525 0076 002B     		cmp	r3, #0
 526 0078 06D0     		beq	.L39
 965:..\src\app\alt_mode/alt_modes_mngr.c ****         }
 527              		.loc 1 965 0 is_stmt 1
 528 007a 6B7A     		ldrb	r3, [r5, #9]
 529 007c 5B07     		lsls	r3, r3, #29
 530 007e 5A0F     		lsrs	r2, r3, #29
 531 0080 6378     		ldrb	r3, [r4, #1]
 532 0082 8B43     		bics	r3, r1
 533 0084 1343     		orrs	r3, r2
 534 0086 6370     		strb	r3, [r4, #1]
 535              	.L39:
 967:..\src\app\alt_mode/alt_modes_mngr.c ****         {
 536              		.loc 1 967 0
 537 0088 002E     		cmp	r6, #0
 538 008a 07D0     		beq	.L38
ARM GAS  e:\temp\ccP12Hvn.s 			page 32


 969:..\src\app\alt_mode/alt_modes_mngr.c ****         }
 539              		.loc 1 969 0
 540 008c AB79     		ldrb	r3, [r5, #6]
 541 008e 0722     		movs	r2, #7
 542 0090 1A40     		ands	r2, r3
 543 0092 6378     		ldrb	r3, [r4, #1]
 544 0094 0721     		movs	r1, #7
 545 0096 8B43     		bics	r3, r1
 546 0098 1343     		orrs	r3, r2
 547 009a 6370     		strb	r3, [r4, #1]
 548              	.L38:
 974:..\src\app\alt_mode/alt_modes_mngr.c **** 
 549              		.loc 1 974 0
 550 009c 0120     		movs	r0, #1
 551              		@ sp needed
 552              	.LVL55:
 553              	.LVL56:
 554 009e 70BD     		pop	{r4, r5, r6, pc}
 555              	.L41:
 556              		.align	2
 557              	.L40:
 558 00a0 00000000 		.word	alt_mode
 559              		.cfi_endproc
 560              	.LFE49:
 561              		.size	move_to_vdm_info, .-move_to_vdm_info
 562              		.section	.text.reset_mngr_info,"ax",%progbits
 563              		.align	2
 564              		.code	16
 565              		.thumb_func
 566              		.type	reset_mngr_info, %function
 567              	reset_mngr_info:
 568              	.LFB57:
1193:..\src\app\alt_mode/alt_modes_mngr.c **** #endif /* (DFP_ALT_MODE_SUPP) || (UFP_ALT_MODE_SUPP) */
1194:..\src\app\alt_mode/alt_modes_mngr.c **** 
1195:..\src\app\alt_mode/alt_modes_mngr.c **** void reset_alt_mode_info(alt_mode_info_t *info)
1196:..\src\app\alt_mode/alt_modes_mngr.c **** {
1197:..\src\app\alt_mode/alt_modes_mngr.c ****     memset(info, 0, sizeof(*info));
1198:..\src\app\alt_mode/alt_modes_mngr.c **** }
1199:..\src\app\alt_mode/alt_modes_mngr.c **** 
1200:..\src\app\alt_mode/alt_modes_mngr.c **** void reset_mngr_info(uint8_t port)
1201:..\src\app\alt_mode/alt_modes_mngr.c **** {
 569              		.loc 1 1201 0
 570              		.cfi_startproc
 571              		@ args = 0, pretend = 0, frame = 0
 572              		@ frame_needed = 0, uses_anonymous_args = 0
 573              	.LVL57:
 574 0000 10B5     		push	{r4, lr}
 575              		.cfi_def_cfa_offset 8
 576              		.cfi_offset 4, -8
 577              		.cfi_offset 14, -4
1202:..\src\app\alt_mode/alt_modes_mngr.c ****     memset(&alt_mode[port], 0, sizeof(alt_mode[port]));
 578              		.loc 1 1202 0
 579 0002 7423     		movs	r3, #116
 580 0004 5843     		muls	r0, r3
 581              	.LVL58:
 582 0006 034B     		ldr	r3, .L43
 583 0008 C018     		adds	r0, r0, r3
ARM GAS  e:\temp\ccP12Hvn.s 			page 33


 584 000a 7422     		movs	r2, #116
 585 000c 0021     		movs	r1, #0
 586 000e FFF7FEFF 		bl	memset
 587              	.LVL59:
1203:..\src\app\alt_mode/alt_modes_mngr.c **** }
 588              		.loc 1 1203 0
 589              		@ sp needed
 590 0012 10BD     		pop	{r4, pc}
 591              	.L44:
 592              		.align	2
 593              	.L43:
 594 0014 00000000 		.word	alt_mode
 595              		.cfi_endproc
 596              	.LFE57:
 597              		.size	reset_mngr_info, .-reset_mngr_info
 598              		.section	.text.alt_mode_mngr_sleep,"ax",%progbits
 599              		.align	2
 600              		.global	alt_mode_mngr_sleep
 601              		.code	16
 602              		.thumb_func
 603              		.type	alt_mode_mngr_sleep, %function
 604              	alt_mode_mngr_sleep:
 605              	.LFB34:
 253:..\src\app\alt_mode/alt_modes_mngr.c ****     alt_mode_hw_sleep (port);
 606              		.loc 1 253 0
 607              		.cfi_startproc
 608              		@ args = 0, pretend = 0, frame = 0
 609              		@ frame_needed = 0, uses_anonymous_args = 0
 610              	.LVL60:
 611 0000 10B5     		push	{r4, lr}
 612              		.cfi_def_cfa_offset 8
 613              		.cfi_offset 4, -8
 614              		.cfi_offset 14, -4
 254:..\src\app\alt_mode/alt_modes_mngr.c **** }
 615              		.loc 1 254 0
 616 0002 FFF7FEFF 		bl	alt_mode_hw_sleep
 617              	.LVL61:
 255:..\src\app\alt_mode/alt_modes_mngr.c **** 
 618              		.loc 1 255 0
 619              		@ sp needed
 620 0006 10BD     		pop	{r4, pc}
 621              		.cfi_endproc
 622              	.LFE34:
 623              		.size	alt_mode_mngr_sleep, .-alt_mode_mngr_sleep
 624              		.section	.text.alt_mode_mngr_wakeup,"ax",%progbits
 625              		.align	2
 626              		.global	alt_mode_mngr_wakeup
 627              		.code	16
 628              		.thumb_func
 629              		.type	alt_mode_mngr_wakeup, %function
 630              	alt_mode_mngr_wakeup:
 631              	.LFB35:
 258:..\src\app\alt_mode/alt_modes_mngr.c ****     alt_mode_hw_wakeup (port);
 632              		.loc 1 258 0
 633              		.cfi_startproc
 634              		@ args = 0, pretend = 0, frame = 0
 635              		@ frame_needed = 0, uses_anonymous_args = 0
ARM GAS  e:\temp\ccP12Hvn.s 			page 34


 636              	.LVL62:
 637 0000 10B5     		push	{r4, lr}
 638              		.cfi_def_cfa_offset 8
 639              		.cfi_offset 4, -8
 640              		.cfi_offset 14, -4
 259:..\src\app\alt_mode/alt_modes_mngr.c **** }
 641              		.loc 1 259 0
 642 0002 FFF7FEFF 		bl	alt_mode_hw_wakeup
 643              	.LVL63:
 260:..\src\app\alt_mode/alt_modes_mngr.c **** 
 644              		.loc 1 260 0
 645              		@ sp needed
 646 0006 10BD     		pop	{r4, pc}
 647              		.cfi_endproc
 648              	.LFE35:
 649              		.size	alt_mode_mngr_wakeup, .-alt_mode_mngr_wakeup
 650              		.section	.text.vdm_task_mngr_alt_mode_process,"ax",%progbits
 651              		.align	2
 652              		.global	vdm_task_mngr_alt_mode_process
 653              		.code	16
 654              		.thumb_func
 655              		.type	vdm_task_mngr_alt_mode_process, %function
 656              	vdm_task_mngr_alt_mode_process:
 657              	.LFB36:
 263:..\src\app\alt_mode/alt_modes_mngr.c ****     /* Run alt modes manager ams table */
 658              		.loc 1 263 0
 659              		.cfi_startproc
 660              		@ args = 0, pretend = 0, frame = 0
 661              		@ frame_needed = 0, uses_anonymous_args = 0
 662              	.LVL64:
 663 0000 10B5     		push	{r4, lr}
 664              		.cfi_def_cfa_offset 8
 665              		.cfi_offset 4, -8
 666              		.cfi_offset 14, -4
 265:..\src\app\alt_mode/alt_modes_mngr.c **** }
 667              		.loc 1 265 0
 668 0002 7423     		movs	r3, #116
 669 0004 4343     		muls	r3, r0
 670 0006 064A     		ldr	r2, .L48
 671 0008 D318     		adds	r3, r2, r3
 672 000a 6833     		adds	r3, r3, #104
 673 000c 1B78     		ldrb	r3, [r3]
 674 000e 9B00     		lsls	r3, r3, #2
 675 0010 5918     		adds	r1, r3, r1
 676              	.LVL65:
 677 0012 8900     		lsls	r1, r1, #2
 678 0014 034B     		ldr	r3, .L48+4
 679 0016 5918     		adds	r1, r3, r1
 680 0018 4B68     		ldr	r3, [r1, #4]
 681 001a 9847     		blx	r3
 682              	.LVL66:
 266:..\src\app\alt_mode/alt_modes_mngr.c **** 
 683              		.loc 1 266 0
 684              		@ sp needed
 685 001c 10BD     		pop	{r4, pc}
 686              	.L49:
 687 001e C046     		.align	2
ARM GAS  e:\temp\ccP12Hvn.s 			page 35


 688              	.L48:
 689 0020 00000000 		.word	alt_mode
 690 0024 20000000 		.word	.LANCHOR0
 691              		.cfi_endproc
 692              	.LFE36:
 693              		.size	vdm_task_mngr_alt_mode_process, .-vdm_task_mngr_alt_mode_process
 694              		.section	.text.get_alt_mode_numb,"ax",%progbits
 695              		.align	2
 696              		.global	get_alt_mode_numb
 697              		.code	16
 698              		.thumb_func
 699              		.type	get_alt_mode_numb, %function
 700              	get_alt_mode_numb:
 701              	.LFB52:
1053:..\src\app\alt_mode/alt_modes_mngr.c ****     uint8_t am_numb = NO_DATA;    
 702              		.loc 1 1053 0
 703              		.cfi_startproc
 704              		@ args = 0, pretend = 0, frame = 0
 705              		@ frame_needed = 0, uses_anonymous_args = 0
 706              		@ link register save eliminated.
 707              	.LVL67:
1057:..\src\app\alt_mode/alt_modes_mngr.c ****     {
 708              		.loc 1 1057 0
 709 0000 034B     		ldr	r3, .L53
 710 0002 1B5C     		ldrb	r3, [r3, r0]
 711 0004 002B     		cmp	r3, #0
 712 0006 01D1     		bne	.L52
1054:..\src\app\alt_mode/alt_modes_mngr.c **** 
 713              		.loc 1 1054 0
 714 0008 0020     		movs	r0, #0
 715              	.LVL68:
 716 000a 00E0     		b	.L51
 717              	.LVL69:
 718              	.L52:
1059:..\src\app\alt_mode/alt_modes_mngr.c **** #if ALT_MODE_DIFF_CONFIG
 719              		.loc 1 1059 0
 720 000c 0120     		movs	r0, #1
 721              	.LVL70:
 722              	.L51:
1083:..\src\app\alt_mode/alt_modes_mngr.c **** 
 723              		.loc 1 1083 0
 724              		@ sp needed
 725 000e 7047     		bx	lr
 726              	.L54:
 727              		.align	2
 728              	.L53:
 729 0010 00000000 		.word	gl_dpm_port_type
 730              		.cfi_endproc
 731              	.LFE52:
 732              		.size	get_alt_mode_numb, .-get_alt_mode_numb
 733              		.section	.text.reg_alt_mode_mngr,"ax",%progbits
 734              		.align	2
 735              		.global	reg_alt_mode_mngr
 736              		.code	16
 737              		.thumb_func
 738              		.type	reg_alt_mode_mngr, %function
 739              	reg_alt_mode_mngr:
ARM GAS  e:\temp\ccP12Hvn.s 			page 36


 740              	.LFB32:
 166:..\src\app\alt_mode/alt_modes_mngr.c **** #if ((CCG_PD_REV3_ENABLE) && (UFP_ALT_MODE_SUPP) && (UFP_MODE_DISC_ENABLE))
 741              		.loc 1 166 0
 742              		.cfi_startproc
 743              		@ args = 0, pretend = 0, frame = 0
 744              		@ frame_needed = 0, uses_anonymous_args = 0
 745              	.LVL71:
 746 0000 70B5     		push	{r4, r5, r6, lr}
 747              		.cfi_def_cfa_offset 16
 748              		.cfi_offset 4, -16
 749              		.cfi_offset 5, -12
 750              		.cfi_offset 6, -8
 751              		.cfi_offset 14, -4
 752 0002 0400     		movs	r4, r0
 753 0004 0D00     		movs	r5, r1
 754 0006 1600     		movs	r6, r2
 171:..\src\app\alt_mode/alt_modes_mngr.c ****     alt_mode[port].vdm_info       = vdm_msg_info;
 755              		.loc 1 171 0
 756 0008 FFF7FEFF 		bl	get_alt_mode_numb
 757              	.LVL72:
 758 000c 7423     		movs	r3, #116
 759 000e 6343     		muls	r3, r4
 760 0010 1D4A     		ldr	r2, .L61
 761 0012 D318     		adds	r3, r2, r3
 762 0014 1A00     		movs	r2, r3
 763 0016 3032     		adds	r2, r2, #48
 764 0018 1070     		strb	r0, [r2]
 172:..\src\app\alt_mode/alt_modes_mngr.c **** 
 765              		.loc 1 172 0
 766 001a DE66     		str	r6, [r3, #108]
 175:..\src\app\alt_mode/alt_modes_mngr.c ****     {
 767              		.loc 1 175 0
 768 001c 1B4B     		ldr	r3, .L61+4
 769 001e 1B5D     		ldrb	r3, [r3, r4]
 770 0020 002B     		cmp	r3, #0
 771 0022 1ED0     		beq	.L56
 177:..\src\app\alt_mode/alt_modes_mngr.c ****         {
 772              		.loc 1 177 0
 773 0024 AB89     		ldrh	r3, [r5, #12]
 774 0026 002B     		cmp	r3, #0
 775 0028 27D0     		beq	.L58
 184:..\src\app\alt_mode/alt_modes_mngr.c ****             {
 776              		.loc 1 184 0
 777 002a 2000     		movs	r0, r4
 778 002c FFF7FEFF 		bl	get_alt_mode_numb
 779              	.LVL73:
 780 0030 0028     		cmp	r0, #0
 781 0032 24D0     		beq	.L59
 187:..\src\app\alt_mode/alt_modes_mngr.c ****                 /* Set alt modes mngr state to Discovery Mode process */
 782              		.loc 1 187 0
 783 0034 7423     		movs	r3, #116
 784 0036 6343     		muls	r3, r4
 785 0038 134A     		ldr	r2, .L61
 786 003a D318     		adds	r3, r2, r3
 787 003c DD60     		str	r5, [r3, #12]
 189:..\src\app\alt_mode/alt_modes_mngr.c ****                 alt_mode[port].state                   = ALT_MODE_MNGR_STATE_DISC_MODE;
 788              		.loc 1 189 0
ARM GAS  e:\temp\ccP12Hvn.s 			page 37


 789 003e 0122     		movs	r2, #1
 790 0040 5A70     		strb	r2, [r3, #1]
 190:..\src\app\alt_mode/alt_modes_mngr.c ****                 /* Set alt mode trigger based on config */
 791              		.loc 1 190 0
 792 0042 6833     		adds	r3, r3, #104
 793 0044 0022     		movs	r2, #0
 794 0046 1A70     		strb	r2, [r3]
 192:..\src\app\alt_mode/alt_modes_mngr.c ****                 return VDM_TASK_ALT_MODE;
 795              		.loc 1 192 0
 796 0048 2000     		movs	r0, r4
 797 004a FFF7FEFF 		bl	app_get_status
 798              	.LVL74:
 799 004e 0500     		movs	r5, r0
 800              	.LVL75:
 801 0050 2000     		movs	r0, r4
 802 0052 FFF7FEFF 		bl	get_pd_port_config
 803              	.LVL76:
 804 0056 A223     		movs	r3, #162
 805 0058 C25C     		ldrb	r2, [r0, r3]
 806 005a 673B     		subs	r3, r3, #103
 807 005c EA54     		strb	r2, [r5, r3]
 193:..\src\app\alt_mode/alt_modes_mngr.c ****             }
 808              		.loc 1 193 0
 809 005e 0720     		movs	r0, #7
 810 0060 10E0     		b	.L57
 811              	.LVL77:
 812              	.L56:
 203:..\src\app\alt_mode/alt_modes_mngr.c ****         {
 813              		.loc 1 203 0
 814 0062 AB89     		ldrh	r3, [r5, #12]
 815 0064 002B     		cmp	r3, #0
 816 0066 0CD1     		bne	.L60
 206:..\src\app\alt_mode/alt_modes_mngr.c ****             return VDM_TASK_ALT_MODE;
 817              		.loc 1 206 0
 818 0068 7433     		adds	r3, r3, #116
 819 006a 5C43     		muls	r4, r3
 820 006c 064B     		ldr	r3, .L61
 821 006e 1C19     		adds	r4, r3, r4
 822 0070 6834     		adds	r4, r4, #104
 823 0072 0123     		movs	r3, #1
 824 0074 2370     		strb	r3, [r4]
 207:..\src\app\alt_mode/alt_modes_mngr.c ****         }
 825              		.loc 1 207 0
 826 0076 0720     		movs	r0, #7
 827 0078 04E0     		b	.L57
 828              	.L58:
 180:..\src\app\alt_mode/alt_modes_mngr.c ****         }
 829              		.loc 1 180 0
 830 007a 0520     		movs	r0, #5
 831 007c 02E0     		b	.L57
 832              	.L59:
 221:..\src\app\alt_mode/alt_modes_mngr.c **** }
 833              		.loc 1 221 0
 834 007e 0520     		movs	r0, #5
 835 0080 00E0     		b	.L57
 836              	.L60:
 837 0082 0520     		movs	r0, #5
ARM GAS  e:\temp\ccP12Hvn.s 			page 38


 838              	.LVL78:
 839              	.L57:
 222:..\src\app\alt_mode/alt_modes_mngr.c **** 
 840              		.loc 1 222 0
 841              		@ sp needed
 842              	.LVL79:
 843 0084 70BD     		pop	{r4, r5, r6, pc}
 844              	.L62:
 845 0086 C046     		.align	2
 846              	.L61:
 847 0088 00000000 		.word	alt_mode
 848 008c 00000000 		.word	gl_dpm_port_type
 849              		.cfi_endproc
 850              	.LFE32:
 851              		.size	reg_alt_mode_mngr, .-reg_alt_mode_mngr
 852              		.section	.text.is_svid_supported,"ax",%progbits
 853              		.align	2
 854              		.global	is_svid_supported
 855              		.code	16
 856              		.thumb_func
 857              		.type	is_svid_supported, %function
 858              	is_svid_supported:
 859              	.LFB47:
 856:..\src\app\alt_mode/alt_modes_mngr.c ****     uint8_t idx, am_numb;
 860              		.loc 1 856 0
 861              		.cfi_startproc
 862              		@ args = 0, pretend = 0, frame = 0
 863              		@ frame_needed = 0, uses_anonymous_args = 0
 864              	.LVL80:
 865 0000 10B5     		push	{r4, lr}
 866              		.cfi_def_cfa_offset 8
 867              		.cfi_offset 4, -8
 868              		.cfi_offset 14, -4
 869 0002 0400     		movs	r4, r0
 870              	.LVL81:
 860:..\src\app\alt_mode/alt_modes_mngr.c **** 
 871              		.loc 1 860 0
 872 0004 0800     		movs	r0, r1
 873              	.LVL82:
 874 0006 FFF7FEFF 		bl	get_alt_mode_numb
 875              	.LVL83:
 863:..\src\app\alt_mode/alt_modes_mngr.c ****     {
 876              		.loc 1 863 0
 877 000a 0023     		movs	r3, #0
 878 000c 06E0     		b	.L64
 879              	.LVL84:
 880              	.L66:
 878:..\src\app\alt_mode/alt_modes_mngr.c ****         {
 881              		.loc 1 878 0
 882 000e DA00     		lsls	r2, r3, #3
 883 0010 0549     		ldr	r1, .L68
 884 0012 525A     		ldrh	r2, [r2, r1]
 885 0014 A242     		cmp	r2, r4
 886 0016 05D0     		beq	.L67
 863:..\src\app\alt_mode/alt_modes_mngr.c ****     {
 887              		.loc 1 863 0 discriminator 2
 888 0018 0133     		adds	r3, r3, #1
ARM GAS  e:\temp\ccP12Hvn.s 			page 39


 889              	.LVL85:
 890 001a DBB2     		uxtb	r3, r3
 891              	.LVL86:
 892              	.L64:
 863:..\src\app\alt_mode/alt_modes_mngr.c ****     {
 893              		.loc 1 863 0 is_stmt 0 discriminator 1
 894 001c 8342     		cmp	r3, r0
 895 001e F6D3     		bcc	.L66
 884:..\src\app\alt_mode/alt_modes_mngr.c **** }
 896              		.loc 1 884 0 is_stmt 1
 897 0020 0020     		movs	r0, #0
 898              	.LVL87:
 899 0022 00E0     		b	.L65
 900              	.LVL88:
 901              	.L67:
 880:..\src\app\alt_mode/alt_modes_mngr.c ****         }
 902              		.loc 1 880 0
 903 0024 0120     		movs	r0, #1
 904              	.LVL89:
 905              	.L65:
 885:..\src\app\alt_mode/alt_modes_mngr.c **** 
 906              		.loc 1 885 0
 907              		@ sp needed
 908 0026 10BD     		pop	{r4, pc}
 909              	.L69:
 910              		.align	2
 911              	.L68:
 912 0028 20000000 		.word	.LANCHOR0
 913              		.cfi_endproc
 914              	.LFE47:
 915              		.size	is_svid_supported, .-is_svid_supported
 916              		.section	.text.is_alt_modes_available,"ax",%progbits
 917              		.align	2
 918              		.global	is_alt_modes_available
 919              		.code	16
 920              		.thumb_func
 921              		.type	is_alt_modes_available, %function
 922              	is_alt_modes_available:
 923              	.LFB53:
1086:..\src\app\alt_mode/alt_modes_mngr.c ****     uint8_t stat = false;
 924              		.loc 1 1086 0
 925              		.cfi_startproc
 926              		@ args = 0, pretend = 0, frame = 0
 927              		@ frame_needed = 0, uses_anonymous_args = 0
 928              	.LVL90:
 929 0000 30B5     		push	{r4, r5, lr}
 930              		.cfi_def_cfa_offset 12
 931              		.cfi_offset 4, -12
 932              		.cfi_offset 5, -8
 933              		.cfi_offset 14, -4
 934              	.LVL91:
1092:..\src\app\alt_mode/alt_modes_mngr.c **** 
 935              		.loc 1 1092 0
 936 0002 144B     		ldr	r3, .L77
 937 0004 1D5C     		ldrb	r5, [r3, r0]
 938              	.LVL92:
1091:..\src\app\alt_mode/alt_modes_mngr.c ****     port_type_t port_type      = gl_dpm_port_type[port];
ARM GAS  e:\temp\ccP12Hvn.s 			page 40


 939              		.loc 1 1091 0
 940 0006 0021     		movs	r1, #0
1094:..\src\app\alt_mode/alt_modes_mngr.c ****     {
 941              		.loc 1 1094 0
 942 0008 0022     		movs	r2, #0
 943 000a 17E0     		b	.L71
 944              	.LVL93:
 945              	.L75:
1097:..\src\app\alt_mode/alt_modes_mngr.c ****         {
 946              		.loc 1 1097 0
 947 000c 002D     		cmp	r5, #0
 948 000e 02D0     		beq	.L72
1099:..\src\app\alt_mode/alt_modes_mngr.c ****         }
 949              		.loc 1 1099 0
 950 0010 D300     		lsls	r3, r2, #3
 951 0012 1149     		ldr	r1, .L77+4
 952              	.LVL94:
 953 0014 C918     		adds	r1, r1, r3
 954              	.LVL95:
 955              	.L72:
1111:..\src\app\alt_mode/alt_modes_mngr.c ****         {
 956              		.loc 1 1111 0
 957 0016 0029     		cmp	r1, #0
 958 0018 0ED0     		beq	.L73
1111:..\src\app\alt_mode/alt_modes_mngr.c ****         {
 959              		.loc 1 1111 0 is_stmt 0 discriminator 1
 960 001a 0B88     		ldrh	r3, [r1]
 961 001c 002B     		cmp	r3, #0
 962 001e 0BD0     		beq	.L73
1113:..\src\app\alt_mode/alt_modes_mngr.c ****             {
 963              		.loc 1 1113 0 is_stmt 1
 964 0020 002D     		cmp	r5, #0
 965 0022 15D1     		bne	.L76
1116:..\src\app\alt_mode/alt_modes_mngr.c ****             }
 966              		.loc 1 1116 0
 967 0024 7423     		movs	r3, #116
 968 0026 5843     		muls	r0, r3
 969              	.LVL96:
 970 0028 0C4B     		ldr	r3, .L77+8
 971 002a 1818     		adds	r0, r3, r0
 972 002c 0300     		movs	r3, r0
 973 002e 7033     		adds	r3, r3, #112
 974 0030 0022     		movs	r2, #0
 975              	.LVL97:
 976 0032 1A70     		strb	r2, [r3]
1118:..\src\app\alt_mode/alt_modes_mngr.c ****             break;
 977              		.loc 1 1118 0
 978 0034 0120     		movs	r0, #1
 979 0036 0CE0     		b	.L74
 980              	.LVL98:
 981              	.L73:
1094:..\src\app\alt_mode/alt_modes_mngr.c ****     {
 982              		.loc 1 1094 0 discriminator 2
 983 0038 0132     		adds	r2, r2, #1
 984              	.LVL99:
 985 003a D2B2     		uxtb	r2, r2
 986              	.LVL100:
ARM GAS  e:\temp\ccP12Hvn.s 			page 41


 987              	.L71:
1094:..\src\app\alt_mode/alt_modes_mngr.c ****     {
 988              		.loc 1 1094 0 is_stmt 0 discriminator 1
 989 003c 7423     		movs	r3, #116
 990 003e 4343     		muls	r3, r0
 991 0040 064C     		ldr	r4, .L77+8
 992 0042 E318     		adds	r3, r4, r3
 993 0044 3033     		adds	r3, r3, #48
 994 0046 1B78     		ldrb	r3, [r3]
 995 0048 9A42     		cmp	r2, r3
 996 004a DFD3     		bcc	.L75
1087:..\src\app\alt_mode/alt_modes_mngr.c **** 
 997              		.loc 1 1087 0 is_stmt 1
 998 004c 0020     		movs	r0, #0
 999              	.LVL101:
 1000 004e 00E0     		b	.L74
 1001              	.LVL102:
 1002              	.L76:
1118:..\src\app\alt_mode/alt_modes_mngr.c ****             break;
 1003              		.loc 1 1118 0
 1004 0050 0120     		movs	r0, #1
 1005              	.LVL103:
 1006              	.L74:
1125:..\src\app\alt_mode/alt_modes_mngr.c **** 
 1007              		.loc 1 1125 0
 1008              		@ sp needed
 1009              	.LVL104:
 1010 0052 30BD     		pop	{r4, r5, pc}
 1011              	.L78:
 1012              		.align	2
 1013              	.L77:
 1014 0054 00000000 		.word	gl_dpm_port_type
 1015 0058 20000000 		.word	.LANCHOR0
 1016 005c 00000000 		.word	alt_mode
 1017              		.cfi_endproc
 1018              	.LFE53:
 1019              		.size	is_alt_modes_available, .-is_alt_modes_available
 1020              		.section	.text.reset_alt_mode_info,"ax",%progbits
 1021              		.align	2
 1022              		.global	reset_alt_mode_info
 1023              		.code	16
 1024              		.thumb_func
 1025              		.type	reset_alt_mode_info, %function
 1026              	reset_alt_mode_info:
 1027              	.LFB56:
1196:..\src\app\alt_mode/alt_modes_mngr.c ****     memset(info, 0, sizeof(*info));
 1028              		.loc 1 1196 0
 1029              		.cfi_startproc
 1030              		@ args = 0, pretend = 0, frame = 0
 1031              		@ frame_needed = 0, uses_anonymous_args = 0
 1032              	.LVL105:
 1033 0000 10B5     		push	{r4, lr}
 1034              		.cfi_def_cfa_offset 8
 1035              		.cfi_offset 4, -8
 1036              		.cfi_offset 14, -4
1197:..\src\app\alt_mode/alt_modes_mngr.c **** }
 1037              		.loc 1 1197 0
ARM GAS  e:\temp\ccP12Hvn.s 			page 42


 1038 0002 3022     		movs	r2, #48
 1039 0004 0021     		movs	r1, #0
 1040 0006 FFF7FEFF 		bl	memset
 1041              	.LVL106:
1198:..\src\app\alt_mode/alt_modes_mngr.c **** 
 1042              		.loc 1 1198 0
 1043              		@ sp needed
 1044 000a 10BD     		pop	{r4, pc}
 1045              		.cfi_endproc
 1046              	.LFE56:
 1047              		.size	reset_alt_mode_info, .-reset_alt_mode_info
 1048              		.section	.text.get_vdm_buff,"ax",%progbits
 1049              		.align	2
 1050              		.global	get_vdm_buff
 1051              		.code	16
 1052              		.thumb_func
 1053              		.type	get_vdm_buff, %function
 1054              	get_vdm_buff:
 1055              	.LFB58:
1204:..\src\app\alt_mode/alt_modes_mngr.c **** 
1205:..\src\app\alt_mode/alt_modes_mngr.c **** dpm_pd_cmd_buf_t* get_vdm_buff(uint8_t port)
1206:..\src\app\alt_mode/alt_modes_mngr.c **** {
 1056              		.loc 1 1206 0
 1057              		.cfi_startproc
 1058              		@ args = 0, pretend = 0, frame = 0
 1059              		@ frame_needed = 0, uses_anonymous_args = 0
 1060              		@ link register save eliminated.
 1061              	.LVL107:
1207:..\src\app\alt_mode/alt_modes_mngr.c ****     return &(alt_mode[port].vdm_buf);
 1062              		.loc 1 1207 0
 1063 0000 7423     		movs	r3, #116
 1064 0002 5843     		muls	r0, r3
 1065              	.LVL108:
 1066 0004 3030     		adds	r0, r0, #48
 1067 0006 024B     		ldr	r3, .L81
 1068 0008 C018     		adds	r0, r0, r3
 1069 000a 0430     		adds	r0, r0, #4
1208:..\src\app\alt_mode/alt_modes_mngr.c **** }
 1070              		.loc 1 1208 0
 1071              		@ sp needed
 1072 000c 7047     		bx	lr
 1073              	.L82:
 1074 000e C046     		.align	2
 1075              	.L81:
 1076 0010 00000000 		.word	alt_mode
 1077              		.cfi_endproc
 1078              	.LFE58:
 1079              		.size	get_vdm_buff, .-get_vdm_buff
 1080              		.section	.text.form_alt_mode_event,"ax",%progbits
 1081              		.align	2
 1082              		.global	form_alt_mode_event
 1083              		.code	16
 1084              		.thumb_func
 1085              		.type	form_alt_mode_event, %function
 1086              	form_alt_mode_event:
 1087              	.LFB61:
1209:..\src\app\alt_mode/alt_modes_mngr.c **** 
ARM GAS  e:\temp\ccP12Hvn.s 			page 43


1210:..\src\app\alt_mode/alt_modes_mngr.c **** /******************* ALT MODE Solution Related Functions ****************************/
1211:..\src\app\alt_mode/alt_modes_mngr.c **** 
1212:..\src\app\alt_mode/alt_modes_mngr.c **** /* Function to exit all active alternate modes. */
1213:..\src\app\alt_mode/alt_modes_mngr.c **** void alt_mode_mngr_exit_all(uint8_t port)
1214:..\src\app\alt_mode/alt_modes_mngr.c **** {
1215:..\src\app\alt_mode/alt_modes_mngr.c **** #if DFP_ALT_MODE_SUPP
1216:..\src\app\alt_mode/alt_modes_mngr.c ****     uint8_t             alt_mode_idx;
1217:..\src\app\alt_mode/alt_modes_mngr.c ****     alt_mode_info_t     *am_info_p = NULL;
1218:..\src\app\alt_mode/alt_modes_mngr.c **** 
1219:..\src\app\alt_mode/alt_modes_mngr.c ****     if (gl_dpm_port_type[port] != PRT_TYPE_DFP)
1220:..\src\app\alt_mode/alt_modes_mngr.c ****     {
1221:..\src\app\alt_mode/alt_modes_mngr.c ****         /* Nothing to do if the port is not DFP. */
1222:..\src\app\alt_mode/alt_modes_mngr.c ****         return;
1223:..\src\app\alt_mode/alt_modes_mngr.c ****     }
1224:..\src\app\alt_mode/alt_modes_mngr.c **** 
1225:..\src\app\alt_mode/alt_modes_mngr.c ****     /* For each alternate mode, initiate mode exit. */
1226:..\src\app\alt_mode/alt_modes_mngr.c ****     for (alt_mode_idx = 0; alt_mode_idx < alt_mode[port].alt_modes_numb; alt_mode_idx++)
1227:..\src\app\alt_mode/alt_modes_mngr.c ****     {
1228:..\src\app\alt_mode/alt_modes_mngr.c ****         if (IS_FLAG_CHECKED(alt_mode[port].am_active_modes, alt_mode_idx))
1229:..\src\app\alt_mode/alt_modes_mngr.c ****         {
1230:..\src\app\alt_mode/alt_modes_mngr.c ****             am_info_p = get_mode_info (port, alt_mode_idx);
1231:..\src\app\alt_mode/alt_modes_mngr.c ****             if (am_info_p != NULL)
1232:..\src\app\alt_mode/alt_modes_mngr.c ****             {
1233:..\src\app\alt_mode/alt_modes_mngr.c ****                 am_info_p->mode_state = ALT_MODE_STATE_EXIT;
1234:..\src\app\alt_mode/alt_modes_mngr.c ****                 if (am_info_p->cbk != NULL)
1235:..\src\app\alt_mode/alt_modes_mngr.c ****                 {
1236:..\src\app\alt_mode/alt_modes_mngr.c ****                     am_info_p->cbk (port);
1237:..\src\app\alt_mode/alt_modes_mngr.c ****                 }
1238:..\src\app\alt_mode/alt_modes_mngr.c ****             }
1239:..\src\app\alt_mode/alt_modes_mngr.c ****         }
1240:..\src\app\alt_mode/alt_modes_mngr.c ****     }
1241:..\src\app\alt_mode/alt_modes_mngr.c **** #endif /* DFP_ALT_MODE_SUPP */
1242:..\src\app\alt_mode/alt_modes_mngr.c **** }
1243:..\src\app\alt_mode/alt_modes_mngr.c **** 
1244:..\src\app\alt_mode/alt_modes_mngr.c **** #if ((CCG_HPI_ENABLE) || (APP_ALTMODE_CMD_ENABLE))
1245:..\src\app\alt_mode/alt_modes_mngr.c **** 
1246:..\src\app\alt_mode/alt_modes_mngr.c **** bool eval_app_alt_mode_cmd(uint8_t port, uint8_t *cmd, uint8_t *data)
1247:..\src\app\alt_mode/alt_modes_mngr.c **** {
1248:..\src\app\alt_mode/alt_modes_mngr.c ****     alt_mode_evt_t  cmd_info, cmd_data;
1249:..\src\app\alt_mode/alt_modes_mngr.c ****     alt_mode_info_t *am_info_p = NULL;
1250:..\src\app\alt_mode/alt_modes_mngr.c ****     uint8_t         alt_mode_idx;
1251:..\src\app\alt_mode/alt_modes_mngr.c ****     bool            found = false;
1252:..\src\app\alt_mode/alt_modes_mngr.c **** 
1253:..\src\app\alt_mode/alt_modes_mngr.c ****     /* Convert received cmd bytes as info and data */
1254:..\src\app\alt_mode/alt_modes_mngr.c ****     cmd_info = (alt_mode_evt_t)MAKE_DWORD(cmd[3], cmd[2], cmd[1], cmd[0]);
1255:..\src\app\alt_mode/alt_modes_mngr.c ****     cmd_data = (alt_mode_evt_t)MAKE_DWORD(data[3], data[2], data[1], data[0]);
1256:..\src\app\alt_mode/alt_modes_mngr.c **** 
1257:..\src\app\alt_mode/alt_modes_mngr.c **** #if ((CCG_PD_REV3_ENABLE) && (UFP_ALT_MODE_SUPP) && (UFP_MODE_DISC_ENABLE))
1258:..\src\app\alt_mode/alt_modes_mngr.c ****     /* Check if received app command is start discover process for UFP when PD 3.0 supported */
1259:..\src\app\alt_mode/alt_modes_mngr.c ****     if (
1260:..\src\app\alt_mode/alt_modes_mngr.c ****             (alt_mode[port].pd3_ufp) &&
1261:..\src\app\alt_mode/alt_modes_mngr.c ****             (cmd_info.alt_mode_event.data_role == PRT_TYPE_UFP) &&
1262:..\src\app\alt_mode/alt_modes_mngr.c ****             (cmd_info.alt_mode_event.alt_mode_evt == AM_CMD_RUN_UFP_DISC)
1263:..\src\app\alt_mode/alt_modes_mngr.c ****        )
1264:..\src\app\alt_mode/alt_modes_mngr.c ****     {
1265:..\src\app\alt_mode/alt_modes_mngr.c ****         /* Try to start Discovery process if VDM manager is not busy  */
1266:..\src\app\alt_mode/alt_modes_mngr.c ****         return is_ufp_disc_started(port);
ARM GAS  e:\temp\ccP12Hvn.s 			page 44


1267:..\src\app\alt_mode/alt_modes_mngr.c ****     }
1268:..\src\app\alt_mode/alt_modes_mngr.c **** #endif /* (CCG_PD_REV3_ENABLE) && (UFP_ALT_MODE_SUPP) && (UFP_MODE_DISC_ENABLE)) */
1269:..\src\app\alt_mode/alt_modes_mngr.c **** 
1270:..\src\app\alt_mode/alt_modes_mngr.c ****     /* Look for the alternate mode entry which matches the SVID and alt mode id. */
1271:..\src\app\alt_mode/alt_modes_mngr.c ****     for (alt_mode_idx = 0; alt_mode_idx < alt_mode[port].alt_modes_numb; alt_mode_idx++)
1272:..\src\app\alt_mode/alt_modes_mngr.c ****     {
1273:..\src\app\alt_mode/alt_modes_mngr.c ****         /* If mode is supported. */
1274:..\src\app\alt_mode/alt_modes_mngr.c ****         if (IS_FLAG_CHECKED(alt_mode[port].am_supported_modes, alt_mode_idx))
1275:..\src\app\alt_mode/alt_modes_mngr.c ****         {
1276:..\src\app\alt_mode/alt_modes_mngr.c ****             am_info_p = get_mode_info (port, alt_mode_idx);
1277:..\src\app\alt_mode/alt_modes_mngr.c ****             if ((am_info_p->VDM_HDR.svid == cmd_info.alt_mode_event.svid) &&
1278:..\src\app\alt_mode/alt_modes_mngr.c ****                 (am_info_p->alt_mode_id  == cmd_info.alt_mode_event.alt_mode))
1279:..\src\app\alt_mode/alt_modes_mngr.c ****             {
1280:..\src\app\alt_mode/alt_modes_mngr.c ****                 found = true;
1281:..\src\app\alt_mode/alt_modes_mngr.c ****                 break;
1282:..\src\app\alt_mode/alt_modes_mngr.c ****             }
1283:..\src\app\alt_mode/alt_modes_mngr.c ****         }
1284:..\src\app\alt_mode/alt_modes_mngr.c ****     }
1285:..\src\app\alt_mode/alt_modes_mngr.c **** 
1286:..\src\app\alt_mode/alt_modes_mngr.c **** #if DFP_ALT_MODE_SUPP
1287:..\src\app\alt_mode/alt_modes_mngr.c ****     if ((gl_dpm_port_type[port] != PRT_TYPE_UFP) && (cmd_info.alt_mode_event.data_role != PRT_TYPE_
1288:..\src\app\alt_mode/alt_modes_mngr.c ****     {
1289:..\src\app\alt_mode/alt_modes_mngr.c **** 		if (cmd_info.alt_mode_event.alt_mode_evt == AM_SET_TRIGGER_MASK)
1290:..\src\app\alt_mode/alt_modes_mngr.c ****         {
1291:..\src\app\alt_mode/alt_modes_mngr.c **** 			app_get_status(port)->alt_mode_trig_mask = (uint8_t)cmd_data.alt_mode_event_data.evt_data;
1292:..\src\app\alt_mode/alt_modes_mngr.c ****             return true;
1293:..\src\app\alt_mode/alt_modes_mngr.c ****         }
1294:..\src\app\alt_mode/alt_modes_mngr.c ****         /* Check if Enter command and trigger is set */
1295:..\src\app\alt_mode/alt_modes_mngr.c ****         if (cmd_info.alt_mode_event.alt_mode_evt == AM_CMD_ENTER)
1296:..\src\app\alt_mode/alt_modes_mngr.c ****         {
1297:..\src\app\alt_mode/alt_modes_mngr.c ****             /* If we found an alternate mode entry for this {SVID, ID} pair. */
1298:..\src\app\alt_mode/alt_modes_mngr.c ****             if (found)
1299:..\src\app\alt_mode/alt_modes_mngr.c ****             {
1300:..\src\app\alt_mode/alt_modes_mngr.c ****                 if ((am_info_p->cbk != NULL) && (am_info_p->is_active == false))
1301:..\src\app\alt_mode/alt_modes_mngr.c ****                 {
1302:..\src\app\alt_mode/alt_modes_mngr.c ****                     /* Set flag as active mode */
1303:..\src\app\alt_mode/alt_modes_mngr.c ****                     SET_FLAG(alt_mode[port].am_active_modes, alt_mode_idx);
1304:..\src\app\alt_mode/alt_modes_mngr.c ****                     REMOVE_FLAG(alt_mode[port].am_exited_modes, alt_mode_idx);
1305:..\src\app\alt_mode/alt_modes_mngr.c **** 
1306:..\src\app\alt_mode/alt_modes_mngr.c ****                     /* Inits alt mode */
1307:..\src\app\alt_mode/alt_modes_mngr.c ****                     am_info_p->mode_state = ALT_MODE_STATE_INIT;
1308:..\src\app\alt_mode/alt_modes_mngr.c ****                     am_info_p->cbk(port);
1309:..\src\app\alt_mode/alt_modes_mngr.c **** 
1310:..\src\app\alt_mode/alt_modes_mngr.c ****                     /* Goto alt mode processing */
1311:..\src\app\alt_mode/alt_modes_mngr.c ****                     alt_mode[port].state = ALT_MODE_MNGR_STATE_PROCESS;
1312:..\src\app\alt_mode/alt_modes_mngr.c ****                     return true;
1313:..\src\app\alt_mode/alt_modes_mngr.c ****                 }
1314:..\src\app\alt_mode/alt_modes_mngr.c ****             }
1315:..\src\app\alt_mode/alt_modes_mngr.c ****             return false;
1316:..\src\app\alt_mode/alt_modes_mngr.c ****         }
1317:..\src\app\alt_mode/alt_modes_mngr.c ****     }
1318:..\src\app\alt_mode/alt_modes_mngr.c **** #endif /* DFP_ALT_MODE_SUPP */
1319:..\src\app\alt_mode/alt_modes_mngr.c **** 
1320:..\src\app\alt_mode/alt_modes_mngr.c ****     if ((found) && (am_info_p->is_active == true) && (am_info_p->mode_state == ALT_MODE_STATE_IDLE)
1321:..\src\app\alt_mode/alt_modes_mngr.c ****          (cmd_info.alt_mode_event.data_role == gl_dpm_port_type[port]))
1322:..\src\app\alt_mode/alt_modes_mngr.c ****     {
1323:..\src\app\alt_mode/alt_modes_mngr.c ****         /* If received cmd is specific alt mode command */
ARM GAS  e:\temp\ccP12Hvn.s 			page 45


1324:..\src\app\alt_mode/alt_modes_mngr.c ****         if (cmd_info.alt_mode_event.alt_mode_evt == AM_CMD_SPEC)
1325:..\src\app\alt_mode/alt_modes_mngr.c ****         {
1326:..\src\app\alt_mode/alt_modes_mngr.c ****             return (am_info_p->eval_app_cmd(port, cmd_data));
1327:..\src\app\alt_mode/alt_modes_mngr.c ****         }
1328:..\src\app\alt_mode/alt_modes_mngr.c **** #if DFP_ALT_MODE_SUPP
1329:..\src\app\alt_mode/alt_modes_mngr.c ****         else if (cmd_info.alt_mode_event.alt_mode_evt == AM_CMD_EXIT)
1330:..\src\app\alt_mode/alt_modes_mngr.c ****         {
1331:..\src\app\alt_mode/alt_modes_mngr.c ****             if (gl_dpm_port_type[port] != PRT_TYPE_UFP)
1332:..\src\app\alt_mode/alt_modes_mngr.c ****             {
1333:..\src\app\alt_mode/alt_modes_mngr.c ****                 am_info_p->mode_state = ALT_MODE_STATE_EXIT;
1334:..\src\app\alt_mode/alt_modes_mngr.c ****                 if (am_info_p->cbk != NULL)
1335:..\src\app\alt_mode/alt_modes_mngr.c ****                 {
1336:..\src\app\alt_mode/alt_modes_mngr.c ****                     am_info_p->cbk(port);
1337:..\src\app\alt_mode/alt_modes_mngr.c ****                     return true;
1338:..\src\app\alt_mode/alt_modes_mngr.c ****                 }
1339:..\src\app\alt_mode/alt_modes_mngr.c ****             }
1340:..\src\app\alt_mode/alt_modes_mngr.c ****         }
1341:..\src\app\alt_mode/alt_modes_mngr.c **** #endif /* DFP_ALT_MODE_SUPP */
1342:..\src\app\alt_mode/alt_modes_mngr.c ****     }
1343:..\src\app\alt_mode/alt_modes_mngr.c **** 
1344:..\src\app\alt_mode/alt_modes_mngr.c ****     return false;
1345:..\src\app\alt_mode/alt_modes_mngr.c **** }
1346:..\src\app\alt_mode/alt_modes_mngr.c **** 
1347:..\src\app\alt_mode/alt_modes_mngr.c **** #endif /* ((CCG_HPI_ENABLE) || (APP_ALTMODE_CMD_ENABLE)) */
1348:..\src\app\alt_mode/alt_modes_mngr.c **** 
1349:..\src\app\alt_mode/alt_modes_mngr.c **** const uint32_t* form_alt_mode_event(uint8_t port, uint16_t svid, uint8_t am_idx, alt_mode_app_evt_t
1350:..\src\app\alt_mode/alt_modes_mngr.c **** {
 1088              		.loc 1 1350 0
 1089              		.cfi_startproc
 1090              		@ args = 4, pretend = 0, frame = 0
 1091              		@ frame_needed = 0, uses_anonymous_args = 0
 1092              	.LVL109:
 1093 0000 10B5     		push	{r4, lr}
 1094              		.cfi_def_cfa_offset 8
 1095              		.cfi_offset 4, -8
 1096              		.cfi_offset 14, -4
1351:..\src\app\alt_mode/alt_modes_mngr.c ****     alt_mode_evt_t temp;
1352:..\src\app\alt_mode/alt_modes_mngr.c **** 
1353:..\src\app\alt_mode/alt_modes_mngr.c ****     temp.alt_mode_event.svid                           = (uint32_t)svid;
1354:..\src\app\alt_mode/alt_modes_mngr.c ****     temp.alt_mode_event.alt_mode                       = (uint32_t)am_idx;
 1097              		.loc 1 1354 0
 1098 0002 1202     		lsls	r2, r2, #8
 1099              	.LVL110:
 1100 0004 0904     		lsls	r1, r1, #16
 1101              	.LVL111:
1355:..\src\app\alt_mode/alt_modes_mngr.c ****     temp.alt_mode_event.alt_mode_evt                   = (uint32_t)evt;
 1102              		.loc 1 1355 0
 1103 0006 7F24     		movs	r4, #127
 1104 0008 2340     		ands	r3, r4
 1105              	.LVL112:
 1106 000a 5C00     		lsls	r4, r3, #1
 1107 000c 0B00     		movs	r3, r1
 1108 000e 1343     		orrs	r3, r2
 1109 0010 2343     		orrs	r3, r4
 1110              	.LVL113:
1356:..\src\app\alt_mode/alt_modes_mngr.c ****     temp.alt_mode_event.data_role                      = (uint32_t)gl_dpm_port_type[port];
 1111              		.loc 1 1356 0
ARM GAS  e:\temp\ccP12Hvn.s 			page 46


 1112 0012 0D4A     		ldr	r2, .L85
 1113 0014 125C     		ldrb	r2, [r2, r0]
 1114 0016 0121     		movs	r1, #1
 1115 0018 0A40     		ands	r2, r1
 1116              	.LVL114:
 1117 001a 1343     		orrs	r3, r2
 1118              	.LVL115:
1357:..\src\app\alt_mode/alt_modes_mngr.c ****     alt_mode[port].app_evt_data[ALT_MODE_EVT_IDX]      = temp.val;
 1119              		.loc 1 1357 0
 1120 001c 7422     		movs	r2, #116
 1121 001e 4243     		muls	r2, r0
 1122 0020 0A49     		ldr	r1, .L85+4
 1123 0022 8A18     		adds	r2, r1, r2
 1124              	.LVL116:
 1125 0024 1366     		str	r3, [r2, #96]
1358:..\src\app\alt_mode/alt_modes_mngr.c ****     alt_mode[port].app_evt_data[ALT_MODE_EVT_DATA_IDX] = NO_DATA;
 1126              		.loc 1 1358 0
 1127 0026 0023     		movs	r3, #0
 1128              	.LVL117:
 1129 0028 5366     		str	r3, [r2, #100]
1359:..\src\app\alt_mode/alt_modes_mngr.c **** 
1360:..\src\app\alt_mode/alt_modes_mngr.c ****     if (data != NO_DATA)
 1130              		.loc 1 1360 0
 1131 002a 029B     		ldr	r3, [sp, #8]
 1132 002c 002B     		cmp	r3, #0
 1133 002e 04D0     		beq	.L84
1361:..\src\app\alt_mode/alt_modes_mngr.c ****     {
1362:..\src\app\alt_mode/alt_modes_mngr.c ****         alt_mode[port].app_evt_data[ALT_MODE_EVT_DATA_IDX] = data;
 1134              		.loc 1 1362 0
 1135 0030 7423     		movs	r3, #116
 1136 0032 4343     		muls	r3, r0
 1137 0034 CB18     		adds	r3, r1, r3
 1138 0036 029A     		ldr	r2, [sp, #8]
 1139 0038 5A66     		str	r2, [r3, #100]
 1140              	.L84:
1363:..\src\app\alt_mode/alt_modes_mngr.c ****     }
1364:..\src\app\alt_mode/alt_modes_mngr.c **** 
1365:..\src\app\alt_mode/alt_modes_mngr.c ****     return alt_mode[port].app_evt_data;
 1141              		.loc 1 1365 0
 1142 003a 7423     		movs	r3, #116
 1143 003c 5843     		muls	r0, r3
 1144              	.LVL118:
 1145 003e 6030     		adds	r0, r0, #96
 1146 0040 024B     		ldr	r3, .L85+4
 1147 0042 C018     		adds	r0, r0, r3
1366:..\src\app\alt_mode/alt_modes_mngr.c **** }
 1148              		.loc 1 1366 0
 1149              		@ sp needed
 1150 0044 10BD     		pop	{r4, pc}
 1151              	.L86:
 1152 0046 C046     		.align	2
 1153              	.L85:
 1154 0048 00000000 		.word	gl_dpm_port_type
 1155 004c 00000000 		.word	alt_mode
 1156              		.cfi_endproc
 1157              	.LFE61:
 1158              		.size	form_alt_mode_event, .-form_alt_mode_event
ARM GAS  e:\temp\ccP12Hvn.s 			page 47


 1159              		.section	.text.send_sln_app_evt,"ax",%progbits
 1160              		.align	2
 1161              		.code	16
 1162              		.thumb_func
 1163              		.type	send_sln_app_evt, %function
 1164              	send_sln_app_evt:
 1165              	.LFB39:
 291:..\src\app\alt_mode/alt_modes_mngr.c ****     sln_pd_event_handler (port, APP_EVT_ALT_MODE,
 1166              		.loc 1 291 0
 1167              		.cfi_startproc
 1168              		@ args = 0, pretend = 0, frame = 0
 1169              		@ frame_needed = 0, uses_anonymous_args = 0
 1170              	.LVL119:
 1171 0000 30B5     		push	{r4, r5, lr}
 1172              		.cfi_def_cfa_offset 12
 1173              		.cfi_offset 4, -12
 1174              		.cfi_offset 5, -8
 1175              		.cfi_offset 14, -4
 1176 0002 83B0     		sub	sp, sp, #12
 1177              		.cfi_def_cfa_offset 24
 1178 0004 0400     		movs	r4, r0
 293:..\src\app\alt_mode/alt_modes_mngr.c ****                 alt_mode[port].reg_info.alt_mode_id,
 1179              		.loc 1 293 0
 1180 0006 7423     		movs	r3, #116
 1181 0008 4343     		muls	r3, r0
 1182 000a 0D4A     		ldr	r2, .L90
 1183 000c D318     		adds	r3, r2, r3
 1184 000e DA6E     		ldr	r2, [r3, #108]
 1185 0010 5088     		ldrh	r0, [r2, #2]
 1186              	.LVL120:
 1187 0012 9A78     		ldrb	r2, [r3, #2]
 1188 0014 0029     		cmp	r1, #0
 1189 0016 05D1     		bne	.L89
 293:..\src\app\alt_mode/alt_modes_mngr.c ****                 alt_mode[port].reg_info.alt_mode_id,
 1190              		.loc 1 293 0 is_stmt 0 discriminator 1
 1191 0018 7423     		movs	r3, #116
 1192 001a 6343     		muls	r3, r4
 1193 001c 084D     		ldr	r5, .L90
 1194 001e EB18     		adds	r3, r5, r3
 1195 0020 1B7C     		ldrb	r3, [r3, #16]
 1196 0022 00E0     		b	.L88
 1197              	.L89:
 293:..\src\app\alt_mode/alt_modes_mngr.c ****                 alt_mode[port].reg_info.alt_mode_id,
 1198              		.loc 1 293 0
 1199 0024 0C23     		movs	r3, #12
 1200              	.L88:
 293:..\src\app\alt_mode/alt_modes_mngr.c ****                 alt_mode[port].reg_info.alt_mode_id,
 1201              		.loc 1 293 0 discriminator 4
 1202 0026 0091     		str	r1, [sp]
 1203 0028 0100     		movs	r1, r0
 1204              	.LVL121:
 1205 002a 2000     		movs	r0, r4
 1206 002c FFF7FEFF 		bl	form_alt_mode_event
 1207              	.LVL122:
 1208 0030 0200     		movs	r2, r0
 292:..\src\app\alt_mode/alt_modes_mngr.c ****             form_alt_mode_event (port, alt_mode[port].vdm_info->VDM_HDR.svid,
 1209              		.loc 1 292 0 is_stmt 1 discriminator 4
ARM GAS  e:\temp\ccP12Hvn.s 			page 48


 1210 0032 0621     		movs	r1, #6
 1211 0034 2000     		movs	r0, r4
 1212 0036 FFF7FEFF 		bl	sln_pd_event_handler
 1213              	.LVL123:
 298:..\src\app\alt_mode/alt_modes_mngr.c **** 
 1214              		.loc 1 298 0 discriminator 4
 1215 003a 03B0     		add	sp, sp, #12
 1216              		@ sp needed
 1217 003c 30BD     		pop	{r4, r5, pc}
 1218              	.L91:
 1219 003e C046     		.align	2
 1220              	.L90:
 1221 0040 00000000 		.word	alt_mode
 1222              		.cfi_endproc
 1223              	.LFE39:
 1224              		.size	send_sln_app_evt, .-send_sln_app_evt
 1225              		.section	.text.handle_cbl_disc_mode,"ax",%progbits
 1226              		.align	2
 1227              		.code	16
 1228              		.thumb_func
 1229              		.type	handle_cbl_disc_mode, %function
 1230              	handle_cbl_disc_mode:
 1231              	.LFB41:
 365:..\src\app\alt_mode/alt_modes_mngr.c ****     uint8_t               tbl_svid_idx, tbl_alt_mode_idx, vdo_idx;
 1232              		.loc 1 365 0
 1233              		.cfi_startproc
 1234              		@ args = 0, pretend = 0, frame = 8
 1235              		@ frame_needed = 0, uses_anonymous_args = 0
 1236              	.LVL124:
 1237 0000 F0B5     		push	{r4, r5, r6, r7, lr}
 1238              		.cfi_def_cfa_offset 20
 1239              		.cfi_offset 4, -20
 1240              		.cfi_offset 5, -16
 1241              		.cfi_offset 6, -12
 1242              		.cfi_offset 7, -8
 1243              		.cfi_offset 14, -4
 1244 0002 5746     		mov	r7, r10
 1245 0004 80B4     		push	{r7}
 1246              		.cfi_def_cfa_offset 24
 1247              		.cfi_offset 10, -24
 1248 0006 82B0     		sub	sp, sp, #8
 1249              		.cfi_def_cfa_offset 32
 1250 0008 0090     		str	r0, [sp]
 1251 000a 0F00     		movs	r7, r1
 368:..\src\app\alt_mode/alt_modes_mngr.c ****     alt_mode_reg_info_t  *reg   = &(alt_mode[port].reg_info);
 1252              		.loc 1 368 0
 1253 000c 0500     		movs	r5, r0
 1254 000e 344B     		ldr	r3, .L101
 1255 0010 9A46     		mov	r10, r3
 1256 0012 7426     		movs	r6, #116
 1257 0014 4643     		muls	r6, r0
 1258 0016 5346     		mov	r3, r10
 1259 0018 9B19     		adds	r3, r3, r6
 1260 001a DC6E     		ldr	r4, [r3, #108]
 1261              	.LVL125:
 369:..\src\app\alt_mode/alt_modes_mngr.c ****     /*
 1262              		.loc 1 369 0
ARM GAS  e:\temp\ccP12Hvn.s 			page 49


 1263 001c 0193     		str	r3, [sp, #4]
 1264              	.LVL126:
 375:..\src\app\alt_mode/alt_modes_mngr.c ****     reg->atch_type = CABLE;
 1265              		.loc 1 375 0
 1266 001e 6188     		ldrh	r1, [r4, #2]
 1267              	.LVL127:
 1268 0020 FFF7FEFF 		bl	get_alt_mode_svid_idx
 1269              	.LVL128:
 376:..\src\app\alt_mode/alt_modes_mngr.c **** 
 1270              		.loc 1 376 0
 1271 0024 0223     		movs	r3, #2
 1272 0026 5246     		mov	r2, r10
 1273 0028 B354     		strb	r3, [r6, r2]
 1274              	.LVL129:
 379:..\src\app\alt_mode/alt_modes_mngr.c ****     {
 1275              		.loc 1 379 0
 1276 002a 0026     		movs	r6, #0
 1277 002c 4FE0     		b	.L93
 1278              	.LVL130:
 1279              	.L100:
 381:..\src\app\alt_mode/alt_modes_mngr.c ****         {
 1280              		.loc 1 381 0
 1281 002e 002F     		cmp	r7, #0
 1282 0030 06D0     		beq	.L94
 383:..\src\app\alt_mode/alt_modes_mngr.c ****         }
 1283              		.loc 1 383 0
 1284 0032 7423     		movs	r3, #116
 1285 0034 6B43     		muls	r3, r5
 1286 0036 2A4A     		ldr	r2, .L101
 1287 0038 D318     		adds	r3, r2, r3
 1288 003a 0722     		movs	r2, #7
 1289 003c DA70     		strb	r2, [r3, #3]
 1290 003e 07E0     		b	.L95
 1291              	.L94:
 388:..\src\app\alt_mode/alt_modes_mngr.c ****         }
 1292              		.loc 1 388 0
 1293 0040 7423     		movs	r3, #116
 1294 0042 6B43     		muls	r3, r5
 1295 0044 264A     		ldr	r2, .L101
 1296 0046 D318     		adds	r3, r2, r3
 1297 0048 B21C     		adds	r2, r6, #2
 1298 004a 9200     		lsls	r2, r2, #2
 1299 004c 1259     		ldr	r2, [r2, r4]
 1300 004e 5A60     		str	r2, [r3, #4]
 1301              	.L95:
 392:..\src\app\alt_mode/alt_modes_mngr.c ****         if (am_info_p == NULL)
 1302              		.loc 1 392 0
 1303 0050 0199     		ldr	r1, [sp, #4]
 1304 0052 0098     		ldr	r0, [sp]
 1305 0054 FFF7FEFF 		bl	reg_dp_modes
 1306              	.LVL131:
 393:..\src\app\alt_mode/alt_modes_mngr.c ****         {
 1307              		.loc 1 393 0
 1308 0058 0028     		cmp	r0, #0
 1309 005a 1FD1     		bne	.L96
 396:..\src\app\alt_mode/alt_modes_mngr.c ****             if (tbl_alt_mode_idx != MODE_NOT_SUPPORTED)
 1310              		.loc 1 396 0
ARM GAS  e:\temp\ccP12Hvn.s 			page 50


 1311 005c 6188     		ldrh	r1, [r4, #2]
 1312 005e 7423     		movs	r3, #116
 1313 0060 6B43     		muls	r3, r5
 1314 0062 1F4A     		ldr	r2, .L101
 1315 0064 D318     		adds	r3, r2, r3
 1316 0066 9A78     		ldrb	r2, [r3, #2]
 1317 0068 0098     		ldr	r0, [sp]
 1318              	.LVL132:
 1319 006a FFF7FEFF 		bl	get_alt_mode_tbl_idx
 1320              	.LVL133:
 397:..\src\app\alt_mode/alt_modes_mngr.c ****             {
 1321              		.loc 1 397 0
 1322 006e FF28     		cmp	r0, #255
 1323 0070 18D0     		beq	.L97
 400:..\src\app\alt_mode/alt_modes_mngr.c ****                 /* Remove flag that alt mode could be runned */
 1324              		.loc 1 400 0
 1325 0072 1B4A     		ldr	r2, .L101
 1326 0074 EB00     		lsls	r3, r5, #3
 1327 0076 5B1B     		subs	r3, r3, r5
 1328 0078 9B00     		lsls	r3, r3, #2
 1329 007a 5B19     		adds	r3, r3, r5
 1330 007c 1B18     		adds	r3, r3, r0
 1331 007e 0833     		adds	r3, r3, #8
 1332 0080 9B00     		lsls	r3, r3, #2
 1333 0082 0021     		movs	r1, #0
 1334 0084 9950     		str	r1, [r3, r2]
 402:..\src\app\alt_mode/alt_modes_mngr.c ****                 reg->cbl_sop_flag = SOP_INVALID;
 1335              		.loc 1 402 0
 1336 0086 0131     		adds	r1, r1, #1
 1337 0088 8140     		lsls	r1, r1, r0
 1338 008a 7423     		movs	r3, #116
 1339 008c 6B43     		muls	r3, r5
 1340 008e D218     		adds	r2, r2, r3
 1341 0090 5369     		ldr	r3, [r2, #20]
 1342 0092 8B43     		bics	r3, r1
 1343 0094 5361     		str	r3, [r2, #20]
 403:..\src\app\alt_mode/alt_modes_mngr.c ****             }
 1344              		.loc 1 403 0
 1345 0096 0723     		movs	r3, #7
 1346 0098 D370     		strb	r3, [r2, #3]
 1347 009a 03E0     		b	.L97
 1348              	.LVL134:
 1349              	.L96:
 408:..\src\app\alt_mode/alt_modes_mngr.c ****                 am_info_p->cbl_obj_pos = (vdo_idx + VDO_START_IDX);
 1350              		.loc 1 408 0
 1351 009c 002F     		cmp	r7, #0
 1352 009e 01D1     		bne	.L97
 409:..\src\app\alt_mode/alt_modes_mngr.c ****         }
 1353              		.loc 1 409 0
 1354 00a0 731C     		adds	r3, r6, #1
 1355 00a2 8371     		strb	r3, [r0, #6]
 1356              	.LVL135:
 1357              	.L97:
 412:..\src\app\alt_mode/alt_modes_mngr.c ****         {
 1358              		.loc 1 412 0
 1359 00a4 7423     		movs	r3, #116
 1360 00a6 6B43     		muls	r3, r5
ARM GAS  e:\temp\ccP12Hvn.s 			page 51


 1361 00a8 0D4A     		ldr	r2, .L101
 1362 00aa D318     		adds	r3, r2, r3
 1363 00ac 1B7C     		ldrb	r3, [r3, #16]
 1364 00ae 002B     		cmp	r3, #0
 1365 00b0 09D0     		beq	.L98
 415:..\src\app\alt_mode/alt_modes_mngr.c ****             reg->app_evt = AM_NO_EVT;
 1366              		.loc 1 415 0
 1367 00b2 0021     		movs	r1, #0
 1368 00b4 0098     		ldr	r0, [sp]
 1369 00b6 FFF7FEFF 		bl	send_sln_app_evt
 1370              	.LVL136:
 416:..\src\app\alt_mode/alt_modes_mngr.c ****         }
 1371              		.loc 1 416 0
 1372 00ba 7423     		movs	r3, #116
 1373 00bc 6B43     		muls	r3, r5
 1374 00be 084A     		ldr	r2, .L101
 1375 00c0 D318     		adds	r3, r2, r3
 1376 00c2 0022     		movs	r2, #0
 1377 00c4 1A74     		strb	r2, [r3, #16]
 1378              	.L98:
 419:..\src\app\alt_mode/alt_modes_mngr.c ****             break;
 1379              		.loc 1 419 0
 1380 00c6 002F     		cmp	r7, #0
 1381 00c8 06D1     		bne	.L92
 379:..\src\app\alt_mode/alt_modes_mngr.c ****     {
 1382              		.loc 1 379 0 discriminator 2
 1383 00ca 0136     		adds	r6, r6, #1
 1384              	.LVL137:
 1385 00cc F6B2     		uxtb	r6, r6
 1386              	.LVL138:
 1387              	.L93:
 379:..\src\app\alt_mode/alt_modes_mngr.c ****     {
 1388              		.loc 1 379 0 is_stmt 0 discriminator 1
 1389 00ce 002F     		cmp	r7, #0
 1390 00d0 ADD1     		bne	.L100
 379:..\src\app\alt_mode/alt_modes_mngr.c ****     {
 1391              		.loc 1 379 0 discriminator 3
 1392 00d2 6379     		ldrb	r3, [r4, #5]
 1393 00d4 9E42     		cmp	r6, r3
 1394 00d6 AAD3     		bcc	.L100
 1395              	.L92:
 422:..\src\app\alt_mode/alt_modes_mngr.c **** #endif /* ((DFP_ALT_MODE_SUPP) || (UFP_MODE_DISC_ENABLE)) */
 1396              		.loc 1 422 0 is_stmt 1
 1397 00d8 02B0     		add	sp, sp, #8
 1398              		@ sp needed
 1399              	.LVL139:
 1400              	.LVL140:
 1401 00da 04BC     		pop	{r2}
 1402 00dc 9246     		mov	r10, r2
 1403 00de F0BD     		pop	{r4, r5, r6, r7, pc}
 1404              	.L102:
 1405              		.align	2
 1406              	.L101:
 1407 00e0 00000000 		.word	alt_mode
 1408              		.cfi_endproc
 1409              	.LFE41:
 1410              		.size	handle_cbl_disc_mode, .-handle_cbl_disc_mode
ARM GAS  e:\temp\ccP12Hvn.s 			page 52


 1411              		.section	.text.disc_mode_fail,"ax",%progbits
 1412              		.align	2
 1413              		.code	16
 1414              		.thumb_func
 1415              		.type	disc_mode_fail, %function
 1416              	disc_mode_fail:
 1417              	.LFB43:
 523:..\src\app\alt_mode/alt_modes_mngr.c **** #if ((DFP_ALT_MODE_SUPP) || (UFP_MODE_DISC_ENABLE))
 1418              		.loc 1 523 0
 1419              		.cfi_startproc
 1420              		@ args = 0, pretend = 0, frame = 0
 1421              		@ frame_needed = 0, uses_anonymous_args = 0
 1422              	.LVL141:
 1423 0000 10B5     		push	{r4, lr}
 1424              		.cfi_def_cfa_offset 8
 1425              		.cfi_offset 4, -8
 1426              		.cfi_offset 14, -4
 1427 0002 0400     		movs	r4, r0
 535:..\src\app\alt_mode/alt_modes_mngr.c ****     {
 1428              		.loc 1 535 0
 1429 0004 7423     		movs	r3, #116
 1430 0006 4343     		muls	r3, r0
 1431 0008 094A     		ldr	r2, .L105
 1432 000a D318     		adds	r3, r2, r3
 1433 000c DB6E     		ldr	r3, [r3, #108]
 1434 000e 1B79     		ldrb	r3, [r3, #4]
 1435 0010 012B     		cmp	r3, #1
 1436 0012 02D1     		bne	.L104
 537:..\src\app\alt_mode/alt_modes_mngr.c ****     }
 1437              		.loc 1 537 0
 1438 0014 0121     		movs	r1, #1
 1439 0016 FFF7FEFF 		bl	handle_cbl_disc_mode
 1440              	.LVL142:
 1441              	.L104:
 540:..\src\app\alt_mode/alt_modes_mngr.c **** #endif /* ((DFP_ALT_MODE_SUPP) || (UFP_MODE_DISC_ENABLE)) */
 1442              		.loc 1 540 0
 1443 001a 7420     		movs	r0, #116
 1444 001c 6043     		muls	r0, r4
 1445 001e 044B     		ldr	r3, .L105
 1446 0020 1818     		adds	r0, r3, r0
 1447 0022 7030     		adds	r0, r0, #112
 1448 0024 0378     		ldrb	r3, [r0]
 1449 0026 0133     		adds	r3, r3, #1
 1450 0028 0370     		strb	r3, [r0]
 544:..\src\app\alt_mode/alt_modes_mngr.c **** 
 1451              		.loc 1 544 0
 1452 002a 0720     		movs	r0, #7
 1453              		@ sp needed
 1454 002c 10BD     		pop	{r4, pc}
 1455              	.L106:
 1456 002e C046     		.align	2
 1457              	.L105:
 1458 0030 00000000 		.word	alt_mode
 1459              		.cfi_endproc
 1460              	.LFE43:
 1461              		.size	disc_mode_fail, .-disc_mode_fail
 1462              		.section	.text.eval_disc_mode,"ax",%progbits
ARM GAS  e:\temp\ccP12Hvn.s 			page 53


 1463              		.align	2
 1464              		.code	16
 1465              		.thumb_func
 1466              		.type	eval_disc_mode, %function
 1467              	eval_disc_mode:
 1468              	.LFB42:
 426:..\src\app\alt_mode/alt_modes_mngr.c **** #if ((DFP_ALT_MODE_SUPP) || (UFP_MODE_DISC_ENABLE))
 1469              		.loc 1 426 0
 1470              		.cfi_startproc
 1471              		@ args = 0, pretend = 0, frame = 8
 1472              		@ frame_needed = 0, uses_anonymous_args = 0
 1473              	.LVL143:
 1474 0000 F0B5     		push	{r4, r5, r6, r7, lr}
 1475              		.cfi_def_cfa_offset 20
 1476              		.cfi_offset 4, -20
 1477              		.cfi_offset 5, -16
 1478              		.cfi_offset 6, -12
 1479              		.cfi_offset 7, -8
 1480              		.cfi_offset 14, -4
 1481 0002 4F46     		mov	r7, r9
 1482 0004 80B4     		push	{r7}
 1483              		.cfi_def_cfa_offset 24
 1484              		.cfi_offset 9, -24
 1485 0006 82B0     		sub	sp, sp, #8
 1486              		.cfi_def_cfa_offset 32
 1487 0008 0400     		movs	r4, r0
 1488 000a 0090     		str	r0, [sp]
 430:..\src\app\alt_mode/alt_modes_mngr.c ****     alt_mode_reg_info_t  *reg   = &(alt_mode[port].reg_info);
 1489              		.loc 1 430 0
 1490 000c 0600     		movs	r6, r0
 1491 000e 7427     		movs	r7, #116
 1492 0010 4743     		muls	r7, r0
 1493 0012 4E4B     		ldr	r3, .L116
 1494 0014 DB19     		adds	r3, r3, r7
 1495 0016 DF6E     		ldr	r7, [r3, #108]
 1496              	.LVL144:
 431:..\src\app\alt_mode/alt_modes_mngr.c ****     
 1497              		.loc 1 431 0
 1498 0018 0193     		str	r3, [sp, #4]
 1499              	.LVL145:
 444:..\src\app\alt_mode/alt_modes_mngr.c ****     {
 1500              		.loc 1 444 0
 1501 001a 3B79     		ldrb	r3, [r7, #4]
 1502              	.LVL146:
 1503 001c 002B     		cmp	r3, #0
 1504 001e 75D1     		bne	.L108
 447:..\src\app\alt_mode/alt_modes_mngr.c ****         /* Additional check if we support current SVID operations */
 1505              		.loc 1 447 0
 1506 0020 7988     		ldrh	r1, [r7, #2]
 1507 0022 FFF7FEFF 		bl	get_alt_mode_svid_idx
 1508              	.LVL147:
 449:..\src\app\alt_mode/alt_modes_mngr.c ****         {
 1509              		.loc 1 449 0
 1510 0026 FF28     		cmp	r0, #255
 1511 0028 00D1     		bne	.LCB1469
 1512 002a 81E0     		b	.L109	@long jump
 1513              	.LCB1469:
ARM GAS  e:\temp\ccP12Hvn.s 			page 54


 451:..\src\app\alt_mode/alt_modes_mngr.c ****             /* Analyse all rec VDOs */
 1514              		.loc 1 451 0
 1515 002c 7423     		movs	r3, #116
 1516 002e 6343     		muls	r3, r4
 1517 0030 0121     		movs	r1, #1
 1518 0032 464A     		ldr	r2, .L116
 1519 0034 9954     		strb	r1, [r3, r2]
 1520              	.LVL148:
 453:..\src\app\alt_mode/alt_modes_mngr.c ****             {
 1521              		.loc 1 453 0
 1522 0036 0025     		movs	r5, #0
 1523 0038 58E0     		b	.L110
 1524              	.LVL149:
 1525              	.L114:
 456:..\src\app\alt_mode/alt_modes_mngr.c ****                 /* Check if DFP support attached target alt mode */
 1526              		.loc 1 456 0
 1527 003a 7424     		movs	r4, #116
 1528 003c 7443     		muls	r4, r6
 1529 003e 434B     		ldr	r3, .L116
 1530 0040 1C19     		adds	r4, r3, r4
 1531 0042 AB1C     		adds	r3, r5, #2
 1532 0044 9B00     		lsls	r3, r3, #2
 1533 0046 DB59     		ldr	r3, [r3, r7]
 1534 0048 A360     		str	r3, [r4, #8]
 458:..\src\app\alt_mode/alt_modes_mngr.c ****                 /* If VDO relates to any of supported alt modes */
 1535              		.loc 1 458 0
 1536 004a 0199     		ldr	r1, [sp, #4]
 1537 004c 0098     		ldr	r0, [sp]
 1538 004e FFF7FEFF 		bl	reg_dp_modes
 1539              	.LVL150:
 1540 0052 8146     		mov	r9, r0
 1541              	.LVL151:
 460:..\src\app\alt_mode/alt_modes_mngr.c ****                 {
 1542              		.loc 1 460 0
 1543 0054 A378     		ldrb	r3, [r4, #2]
 1544 0056 FF2B     		cmp	r3, #255
 1545 0058 46D0     		beq	.L111
 462:..\src\app\alt_mode/alt_modes_mngr.c ****                     {
 1546              		.loc 1 462 0
 1547 005a 7423     		movs	r3, #116
 1548 005c 7343     		muls	r3, r6
 1549 005e 3B4A     		ldr	r2, .L116
 1550 0060 D318     		adds	r3, r2, r3
 1551 0062 1B7C     		ldrb	r3, [r3, #16]
 1552 0064 002B     		cmp	r3, #0
 1553 0066 09D0     		beq	.L112
 465:..\src\app\alt_mode/alt_modes_mngr.c ****                         reg->app_evt = AM_NO_EVT;
 1554              		.loc 1 465 0
 1555 0068 0021     		movs	r1, #0
 1556 006a 0098     		ldr	r0, [sp]
 1557              	.LVL152:
 1558 006c FFF7FEFF 		bl	send_sln_app_evt
 1559              	.LVL153:
 466:..\src\app\alt_mode/alt_modes_mngr.c ****                     }
 1560              		.loc 1 466 0
 1561 0070 7423     		movs	r3, #116
 1562 0072 7343     		muls	r3, r6
ARM GAS  e:\temp\ccP12Hvn.s 			page 55


 1563 0074 354A     		ldr	r2, .L116
 1564 0076 D318     		adds	r3, r2, r3
 1565 0078 0022     		movs	r2, #0
 1566 007a 1A74     		strb	r2, [r3, #16]
 1567              	.L112:
 469:..\src\app\alt_mode/alt_modes_mngr.c ****                     {
 1568              		.loc 1 469 0
 1569 007c 4B46     		mov	r3, r9
 1570 007e 002B     		cmp	r3, #0
 1571 0080 32D0     		beq	.L111
 1572              	.LVL154:
 472:..\src\app\alt_mode/alt_modes_mngr.c ****                         am_info_p->obj_pos     = (vdo_idx + VDO_START_IDX);
 1573              		.loc 1 472 0
 1574 0082 7423     		movs	r3, #116
 1575              	.LVL155:
 1576 0084 7343     		muls	r3, r6
 1577 0086 314A     		ldr	r2, .L116
 1578 0088 D318     		adds	r3, r2, r3
 1579 008a 9B78     		ldrb	r3, [r3, #2]
 1580 008c 4A46     		mov	r2, r9
 1581 008e D371     		strb	r3, [r2, #7]
 473:..\src\app\alt_mode/alt_modes_mngr.c ****                         if (am_info_p->app_evt_needed != false)
 1582              		.loc 1 473 0
 1583 0090 6B1C     		adds	r3, r5, #1
 1584 0092 5371     		strb	r3, [r2, #5]
 474:..\src\app\alt_mode/alt_modes_mngr.c ****                         {
 1585              		.loc 1 474 0
 1586 0094 2423     		movs	r3, #36
 1587 0096 D35C     		ldrb	r3, [r2, r3]
 1588 0098 002B     		cmp	r3, #0
 1589 009a 07D0     		beq	.L113
 1590              	.LVL156:
 477:..\src\app\alt_mode/alt_modes_mngr.c ****                             am_info_p->app_evt_needed = false;
 1591              		.loc 1 477 0
 1592 009c 916A     		ldr	r1, [r2, #40]
 1593 009e 0098     		ldr	r0, [sp]
 1594 00a0 FFF7FEFF 		bl	send_sln_app_evt
 1595              	.LVL157:
 478:..\src\app\alt_mode/alt_modes_mngr.c ****                         }
 1596              		.loc 1 478 0
 1597 00a4 0022     		movs	r2, #0
 1598 00a6 2423     		movs	r3, #36
 1599 00a8 4946     		mov	r1, r9
 1600 00aa CA54     		strb	r2, [r1, r3]
 1601              	.L113:
 481:..\src\app\alt_mode/alt_modes_mngr.c ****                                 reg->alt_mode_id);
 1602              		.loc 1 481 0
 1603 00ac 7988     		ldrh	r1, [r7, #2]
 1604 00ae 7423     		movs	r3, #116
 1605 00b0 7343     		muls	r3, r6
 1606 00b2 264A     		ldr	r2, .L116
 1607 00b4 D318     		adds	r3, r2, r3
 1608 00b6 9A78     		ldrb	r2, [r3, #2]
 1609 00b8 0098     		ldr	r0, [sp]
 1610 00ba FFF7FEFF 		bl	get_alt_mode_tbl_idx
 1611              	.LVL158:
 483:..\src\app\alt_mode/alt_modes_mngr.c ****                         {
ARM GAS  e:\temp\ccP12Hvn.s 			page 56


 1612              		.loc 1 483 0
 1613 00be FF28     		cmp	r0, #255
 1614 00c0 12D0     		beq	.L111
 486:..\src\app\alt_mode/alt_modes_mngr.c ****                             /* Set flag that alt mode could be runned */
 1615              		.loc 1 486 0
 1616 00c2 224A     		ldr	r2, .L116
 1617 00c4 F300     		lsls	r3, r6, #3
 1618 00c6 9B1B     		subs	r3, r3, r6
 1619 00c8 9B00     		lsls	r3, r3, #2
 1620 00ca 9B19     		adds	r3, r3, r6
 1621 00cc 1B18     		adds	r3, r3, r0
 1622 00ce 0833     		adds	r3, r3, #8
 1623 00d0 9B00     		lsls	r3, r3, #2
 1624 00d2 4946     		mov	r1, r9
 1625 00d4 9950     		str	r1, [r3, r2]
 488:..\src\app\alt_mode/alt_modes_mngr.c ****                         }
 1626              		.loc 1 488 0
 1627 00d6 0123     		movs	r3, #1
 1628 00d8 8340     		lsls	r3, r3, r0
 1629 00da 1900     		movs	r1, r3
 1630 00dc 7423     		movs	r3, #116
 1631 00de 7343     		muls	r3, r6
 1632 00e0 D218     		adds	r2, r2, r3
 1633 00e2 5369     		ldr	r3, [r2, #20]
 1634 00e4 0B43     		orrs	r3, r1
 1635 00e6 5361     		str	r3, [r2, #20]
 1636              	.LVL159:
 1637              	.L111:
 453:..\src\app\alt_mode/alt_modes_mngr.c ****             {
 1638              		.loc 1 453 0 discriminator 2
 1639 00e8 0135     		adds	r5, r5, #1
 1640              	.LVL160:
 1641 00ea EDB2     		uxtb	r5, r5
 1642              	.LVL161:
 1643              	.L110:
 453:..\src\app\alt_mode/alt_modes_mngr.c ****             {
 1644              		.loc 1 453 0 is_stmt 0 discriminator 1
 1645 00ec 7B79     		ldrb	r3, [r7, #5]
 1646 00ee 9D42     		cmp	r5, r3
 1647 00f0 A3D3     		bcc	.L114
 495:..\src\app\alt_mode/alt_modes_mngr.c ****             {
 1648              		.loc 1 495 0 is_stmt 1
 1649 00f2 7423     		movs	r3, #116
 1650 00f4 0098     		ldr	r0, [sp]
 1651 00f6 4343     		muls	r3, r0
 1652 00f8 144A     		ldr	r2, .L116
 1653 00fa D318     		adds	r3, r2, r3
 1654 00fc DB78     		ldrb	r3, [r3, #3]
 1655 00fe 072B     		cmp	r3, #7
 1656 0100 16D0     		beq	.L109
 497:..\src\app\alt_mode/alt_modes_mngr.c ****                 return VDM_TASK_SEND_MSG;
 1657              		.loc 1 497 0
 1658 0102 0121     		movs	r1, #1
 1659 0104 FFF7FEFF 		bl	set_disc_mode_params
 1660              	.LVL162:
 498:..\src\app\alt_mode/alt_modes_mngr.c ****             }
 1661              		.loc 1 498 0
ARM GAS  e:\temp\ccP12Hvn.s 			page 57


 1662 0108 0620     		movs	r0, #6
 1663 010a 1BE0     		b	.L115
 1664              	.LVL163:
 1665              	.L108:
 505:..\src\app\alt_mode/alt_modes_mngr.c **** 
 1666              		.loc 1 505 0
 1667 010c 0021     		movs	r1, #0
 1668 010e 009C     		ldr	r4, [sp]
 1669 0110 2000     		movs	r0, r4
 1670              	.LVL164:
 1671 0112 FFF7FEFF 		bl	handle_cbl_disc_mode
 1672              	.LVL165:
 508:..\src\app\alt_mode/alt_modes_mngr.c ****         {
 1673              		.loc 1 508 0
 1674 0116 7423     		movs	r3, #116
 1675 0118 6343     		muls	r3, r4
 1676 011a 0C4A     		ldr	r2, .L116
 1677 011c D318     		adds	r3, r2, r3
 1678 011e DB78     		ldrb	r3, [r3, #3]
 1679 0120 072B     		cmp	r3, #7
 1680 0122 05D0     		beq	.L109
 510:..\src\app\alt_mode/alt_modes_mngr.c ****             return VDM_TASK_SEND_MSG;
 1681              		.loc 1 510 0
 1682 0124 0221     		movs	r1, #2
 1683 0126 2000     		movs	r0, r4
 1684 0128 FFF7FEFF 		bl	set_disc_mode_params
 1685              	.LVL166:
 511:..\src\app\alt_mode/alt_modes_mngr.c ****         }
 1686              		.loc 1 511 0
 1687 012c 0620     		movs	r0, #6
 1688 012e 09E0     		b	.L115
 1689              	.L109:
 516:..\src\app\alt_mode/alt_modes_mngr.c **** 
 1690              		.loc 1 516 0
 1691 0130 7423     		movs	r3, #116
 1692 0132 009E     		ldr	r6, [sp]
 1693 0134 5E43     		muls	r6, r3
 1694 0136 054B     		ldr	r3, .L116
 1695 0138 9E19     		adds	r6, r3, r6
 1696 013a 7036     		adds	r6, r6, #112
 1697 013c 3378     		ldrb	r3, [r6]
 1698 013e 0133     		adds	r3, r3, #1
 1699 0140 3370     		strb	r3, [r6]
 519:..\src\app\alt_mode/alt_modes_mngr.c **** }
 1700              		.loc 1 519 0
 1701 0142 0720     		movs	r0, #7
 1702              	.L115:
 520:..\src\app\alt_mode/alt_modes_mngr.c **** 
 1703              		.loc 1 520 0
 1704 0144 02B0     		add	sp, sp, #8
 1705              		@ sp needed
 1706              	.LVL167:
 1707 0146 04BC     		pop	{r2}
 1708 0148 9146     		mov	r9, r2
 1709 014a F0BD     		pop	{r4, r5, r6, r7, pc}
 1710              	.L117:
 1711              		.align	2
ARM GAS  e:\temp\ccP12Hvn.s 			page 58


 1712              	.L116:
 1713 014c 00000000 		.word	alt_mode
 1714              		.cfi_endproc
 1715              	.LFE42:
 1716              		.size	eval_disc_mode, .-eval_disc_mode
 1717              		.section	.text.send_sln_event_nodata,"ax",%progbits
 1718              		.align	2
 1719              		.code	16
 1720              		.thumb_func
 1721              		.type	send_sln_event_nodata, %function
 1722              	send_sln_event_nodata:
 1723              	.LFB38:
 284:..\src\app\alt_mode/alt_modes_mngr.c ****     sln_pd_event_handler (port, APP_EVT_ALT_MODE,
 1724              		.loc 1 284 0
 1725              		.cfi_startproc
 1726              		@ args = 0, pretend = 0, frame = 0
 1727              		@ frame_needed = 0, uses_anonymous_args = 0
 1728              	.LVL168:
 1729 0000 10B5     		push	{r4, lr}
 1730              		.cfi_def_cfa_offset 8
 1731              		.cfi_offset 4, -8
 1732              		.cfi_offset 14, -4
 1733 0002 82B0     		sub	sp, sp, #8
 1734              		.cfi_def_cfa_offset 16
 1735 0004 0400     		movs	r4, r0
 286:..\src\app\alt_mode/alt_modes_mngr.c ****             );
 1736              		.loc 1 286 0
 1737 0006 0020     		movs	r0, #0
 1738              	.LVL169:
 1739 0008 0090     		str	r0, [sp]
 1740 000a 2000     		movs	r0, r4
 1741 000c FFF7FEFF 		bl	form_alt_mode_event
 1742              	.LVL170:
 1743 0010 0200     		movs	r2, r0
 285:..\src\app\alt_mode/alt_modes_mngr.c ****             form_alt_mode_event (port, svid, am_id, evtype, NO_DATA)
 1744              		.loc 1 285 0
 1745 0012 0621     		movs	r1, #6
 1746 0014 2000     		movs	r0, r4
 1747 0016 FFF7FEFF 		bl	sln_pd_event_handler
 1748              	.LVL171:
 288:..\src\app\alt_mode/alt_modes_mngr.c **** 
 1749              		.loc 1 288 0
 1750 001a 02B0     		add	sp, sp, #8
 1751              		@ sp needed
 1752 001c 10BD     		pop	{r4, pc}
 1753              		.cfi_endproc
 1754              	.LFE38:
 1755              		.size	send_sln_event_nodata, .-send_sln_event_nodata
 1756 001e C046     		.section	.text.run_disc_mode,"ax",%progbits
 1757              		.align	2
 1758              		.code	16
 1759              		.thumb_func
 1760              		.type	run_disc_mode, %function
 1761              	run_disc_mode:
 1762              	.LFB40:
 303:..\src\app\alt_mode/alt_modes_mngr.c **** #if ((DFP_ALT_MODE_SUPP) || (UFP_MODE_DISC_ENABLE))
 1763              		.loc 1 303 0
ARM GAS  e:\temp\ccP12Hvn.s 			page 59


 1764              		.cfi_startproc
 1765              		@ args = 0, pretend = 0, frame = 0
 1766              		@ frame_needed = 0, uses_anonymous_args = 0
 1767              	.LVL172:
 1768 0000 F8B5     		push	{r3, r4, r5, r6, r7, lr}
 1769              		.cfi_def_cfa_offset 24
 1770              		.cfi_offset 3, -24
 1771              		.cfi_offset 4, -20
 1772              		.cfi_offset 5, -16
 1773              		.cfi_offset 6, -12
 1774              		.cfi_offset 7, -8
 1775              		.cfi_offset 14, -4
 1776 0002 0400     		movs	r4, r0
 308:..\src\app\alt_mode/alt_modes_mngr.c **** 
 1777              		.loc 1 308 0
 1778 0004 0500     		movs	r5, r0
 1779 0006 7423     		movs	r3, #116
 1780 0008 4343     		muls	r3, r0
 1781 000a 234A     		ldr	r2, .L125
 1782 000c D318     		adds	r3, r2, r3
 1783 000e 0722     		movs	r2, #7
 1784 0010 DA70     		strb	r2, [r3, #3]
 311:..\src\app\alt_mode/alt_modes_mngr.c ****     {
 1785              		.loc 1 311 0
 1786 0012 18E0     		b	.L120
 1787              	.LVL173:
 1788              	.L123:
 324:..\src\app\alt_mode/alt_modes_mngr.c ****         {
 1789              		.loc 1 324 0
 1790 0014 2100     		movs	r1, r4
 1791 0016 3800     		movs	r0, r7
 1792 0018 FFF7FEFF 		bl	is_svid_supported
 1793              	.LVL174:
 1794 001c 0028     		cmp	r0, #0
 1795 001e 0BD0     		beq	.L121
 327:..\src\app\alt_mode/alt_modes_mngr.c **** 
 1796              		.loc 1 327 0
 1797 0020 0623     		movs	r3, #6
 1798 0022 0022     		movs	r2, #0
 1799 0024 3900     		movs	r1, r7
 1800 0026 2000     		movs	r0, r4
 1801 0028 FFF7FEFF 		bl	send_sln_event_nodata
 1802              	.LVL175:
 330:..\src\app\alt_mode/alt_modes_mngr.c ****             return VDM_TASK_SEND_MSG;
 1803              		.loc 1 330 0
 1804 002c 0021     		movs	r1, #0
 1805 002e 2000     		movs	r0, r4
 1806 0030 FFF7FEFF 		bl	set_disc_mode_params
 1807              	.LVL176:
 331:..\src\app\alt_mode/alt_modes_mngr.c ****         }
 1808              		.loc 1 331 0
 1809 0034 0620     		movs	r0, #6
 1810 0036 2EE0     		b	.L122
 1811              	.L121:
 340:..\src\app\alt_mode/alt_modes_mngr.c **** #endif /* DFP_ALT_MODE_SUPP */
 1812              		.loc 1 340 0
 1813 0038 7423     		movs	r3, #116
ARM GAS  e:\temp\ccP12Hvn.s 			page 60


 1814 003a 6B43     		muls	r3, r5
 1815 003c 164A     		ldr	r2, .L125
 1816 003e D318     		adds	r3, r2, r3
 1817 0040 7033     		adds	r3, r3, #112
 1818 0042 0136     		adds	r6, r6, #1
 1819 0044 1E70     		strb	r6, [r3]
 1820              	.LVL177:
 1821              	.L120:
 311:..\src\app\alt_mode/alt_modes_mngr.c ****     {
 1822              		.loc 1 311 0
 1823 0046 7423     		movs	r3, #116
 1824 0048 6B43     		muls	r3, r5
 1825 004a 134A     		ldr	r2, .L125
 1826 004c D318     		adds	r3, r2, r3
 1827 004e DA68     		ldr	r2, [r3, #12]
 1828 0050 7033     		adds	r3, r3, #112
 1829 0052 1E78     		ldrb	r6, [r3]
 1830 0054 331D     		adds	r3, r6, #4
 1831 0056 5B00     		lsls	r3, r3, #1
 1832 0058 D318     		adds	r3, r2, r3
 1833 005a 9F88     		ldrh	r7, [r3, #4]
 1834              	.LVL178:
 1835 005c 002F     		cmp	r7, #0
 1836 005e D9D1     		bne	.L123
 344:..\src\app\alt_mode/alt_modes_mngr.c ****     {
 1837              		.loc 1 344 0
 1838 0060 7423     		movs	r3, #116
 1839 0062 6343     		muls	r3, r4
 1840 0064 0C4A     		ldr	r2, .L125
 1841 0066 D318     		adds	r3, r2, r3
 1842 0068 5B69     		ldr	r3, [r3, #20]
 1843 006a 002B     		cmp	r3, #0
 1844 006c 12D0     		beq	.L124
 351:..\src\app\alt_mode/alt_modes_mngr.c **** 
 1845              		.loc 1 351 0
 1846 006e 0423     		movs	r3, #4
 1847 0070 0022     		movs	r2, #0
 1848 0072 0021     		movs	r1, #0
 1849 0074 2000     		movs	r0, r4
 1850 0076 FFF7FEFF 		bl	send_sln_event_nodata
 1851              	.LVL179:
 355:..\src\app\alt_mode/alt_modes_mngr.c **** #endif /* DFP_ALT_MODE_SUPP */
 1852              		.loc 1 355 0
 1853 007a 2000     		movs	r0, r4
 1854 007c FFF7FEFF 		bl	get_next_alt_mode
 1855              	.LVL180:
 357:..\src\app\alt_mode/alt_modes_mngr.c **** #endif /* ((DFP_ALT_MODE_SUPP) || (UFP_MODE_DISC_ENABLE)) */
 1856              		.loc 1 357 0
 1857 0080 7423     		movs	r3, #116
 1858 0082 5C43     		muls	r4, r3
 1859 0084 044B     		ldr	r3, .L125
 1860 0086 1C19     		adds	r4, r3, r4
 1861 0088 2300     		movs	r3, r4
 1862 008a 6833     		adds	r3, r3, #104
 1863 008c 0122     		movs	r2, #1
 1864 008e 1A70     		strb	r2, [r3]
 360:..\src\app\alt_mode/alt_modes_mngr.c **** }
ARM GAS  e:\temp\ccP12Hvn.s 			page 61


 1865              		.loc 1 360 0
 1866 0090 0720     		movs	r0, #7
 1867 0092 00E0     		b	.L122
 1868              	.L124:
 347:..\src\app\alt_mode/alt_modes_mngr.c ****     }
 1869              		.loc 1 347 0
 1870 0094 0520     		movs	r0, #5
 1871              	.L122:
 361:..\src\app\alt_mode/alt_modes_mngr.c **** 
 1872              		.loc 1 361 0
 1873              		@ sp needed
 1874              	.LVL181:
 1875 0096 F8BD     		pop	{r3, r4, r5, r6, r7, pc}
 1876              	.L126:
 1877              		.align	2
 1878              	.L125:
 1879 0098 00000000 		.word	alt_mode
 1880              		.cfi_endproc
 1881              	.LFE40:
 1882              		.size	run_disc_mode, .-run_disc_mode
 1883              		.section	.text.get_mode_info,"ax",%progbits
 1884              		.align	2
 1885              		.global	get_mode_info
 1886              		.code	16
 1887              		.thumb_func
 1888              		.type	get_mode_info, %function
 1889              	get_mode_info:
 1890              	.LFB62:
1367:..\src\app\alt_mode/alt_modes_mngr.c **** 
1368:..\src\app\alt_mode/alt_modes_mngr.c **** alt_mode_info_t* get_mode_info(uint8_t port, uint8_t alt_mode_idx)
1369:..\src\app\alt_mode/alt_modes_mngr.c **** {
 1891              		.loc 1 1369 0
 1892              		.cfi_startproc
 1893              		@ args = 0, pretend = 0, frame = 0
 1894              		@ frame_needed = 0, uses_anonymous_args = 0
 1895              		@ link register save eliminated.
 1896              	.LVL182:
1370:..\src\app\alt_mode/alt_modes_mngr.c ****     return alt_mode[port].alt_mode_info[alt_mode_idx];
 1897              		.loc 1 1370 0
 1898 0000 C300     		lsls	r3, r0, #3
 1899 0002 1B1A     		subs	r3, r3, r0
 1900 0004 9B00     		lsls	r3, r3, #2
 1901 0006 1818     		adds	r0, r3, r0
 1902              	.LVL183:
 1903 0008 4118     		adds	r1, r0, r1
 1904              	.LVL184:
 1905 000a 0831     		adds	r1, r1, #8
 1906 000c 8900     		lsls	r1, r1, #2
 1907 000e 014B     		ldr	r3, .L128
 1908 0010 C858     		ldr	r0, [r1, r3]
1371:..\src\app\alt_mode/alt_modes_mngr.c **** }
 1909              		.loc 1 1371 0
 1910              		@ sp needed
 1911 0012 7047     		bx	lr
 1912              	.L129:
 1913              		.align	2
 1914              	.L128:
ARM GAS  e:\temp\ccP12Hvn.s 			page 62


 1915 0014 00000000 		.word	alt_mode
 1916              		.cfi_endproc
 1917              	.LFE62:
 1918              		.size	get_mode_info, .-get_mode_info
 1919              		.section	.text.is_alt_mode_mngr_idle,"ax",%progbits
 1920              		.align	2
 1921              		.global	is_alt_mode_mngr_idle
 1922              		.code	16
 1923              		.thumb_func
 1924              		.type	is_alt_mode_mngr_idle, %function
 1925              	is_alt_mode_mngr_idle:
 1926              	.LFB33:
 225:..\src\app\alt_mode/alt_modes_mngr.c ****     bool    is_idle = true;
 1927              		.loc 1 225 0
 1928              		.cfi_startproc
 1929              		@ args = 0, pretend = 0, frame = 0
 1930              		@ frame_needed = 0, uses_anonymous_args = 0
 1931              	.LVL185:
 1932 0000 F8B5     		push	{r3, r4, r5, r6, r7, lr}
 1933              		.cfi_def_cfa_offset 24
 1934              		.cfi_offset 3, -24
 1935              		.cfi_offset 4, -20
 1936              		.cfi_offset 5, -16
 1937              		.cfi_offset 6, -12
 1938              		.cfi_offset 7, -8
 1939              		.cfi_offset 14, -4
 1940 0002 0400     		movs	r4, r0
 1941              	.LVL186:
 230:..\src\app\alt_mode/alt_modes_mngr.c ****         (!alt_mode_hw_is_idle(port)))
 1942              		.loc 1 230 0
 1943 0004 0600     		movs	r6, r0
 1944 0006 7423     		movs	r3, #116
 1945 0008 4343     		muls	r3, r0
 1946 000a 194A     		ldr	r2, .L139
 1947 000c D318     		adds	r3, r2, r3
 1948 000e 6833     		adds	r3, r3, #104
 1949 0010 1B78     		ldrb	r3, [r3]
 1950 0012 002B     		cmp	r3, #0
 1951 0014 2AD0     		beq	.L135
 231:..\src\app\alt_mode/alt_modes_mngr.c ****         return false;
 1952              		.loc 1 231 0 discriminator 1
 1953 0016 FFF7FEFF 		bl	alt_mode_hw_is_idle
 1954              	.LVL187:
 230:..\src\app\alt_mode/alt_modes_mngr.c ****         (!alt_mode_hw_is_idle(port)))
 1955              		.loc 1 230 0 discriminator 1
 1956 001a 0028     		cmp	r0, #0
 1957 001c 1AD1     		bne	.L136
 1958 001e 26E0     		b	.L131
 1959              	.LVL188:
 1960              	.L134:
 237:..\src\app\alt_mode/alt_modes_mngr.c ****         {
 1961              		.loc 1 237 0
 1962 0020 7423     		movs	r3, #116
 1963 0022 7343     		muls	r3, r6
 1964 0024 124A     		ldr	r2, .L139
 1965 0026 D318     		adds	r3, r2, r3
 1966 0028 DB69     		ldr	r3, [r3, #28]
ARM GAS  e:\temp\ccP12Hvn.s 			page 63


 1967 002a EB40     		lsrs	r3, r3, r5
 1968 002c DB07     		lsls	r3, r3, #31
 1969 002e 0ED5     		bpl	.L133
 240:..\src\app\alt_mode/alt_modes_mngr.c ****                 (get_mode_info(port, alt_mode_idx)->app_evt_needed != false))
 1970              		.loc 1 240 0
 1971 0030 2900     		movs	r1, r5
 1972 0032 2000     		movs	r0, r4
 1973 0034 FFF7FEFF 		bl	get_mode_info
 1974              	.LVL189:
 1975 0038 0378     		ldrb	r3, [r0]
 1976 003a 012B     		cmp	r3, #1
 1977 003c 04D1     		bne	.L137
 241:..\src\app\alt_mode/alt_modes_mngr.c ****             {
 1978              		.loc 1 241 0 discriminator 1
 1979 003e 2333     		adds	r3, r3, #35
 1980 0040 C35C     		ldrb	r3, [r0, r3]
 240:..\src\app\alt_mode/alt_modes_mngr.c ****                 (get_mode_info(port, alt_mode_idx)->app_evt_needed != false))
 1981              		.loc 1 240 0 discriminator 1
 1982 0042 002B     		cmp	r3, #0
 1983 0044 02D1     		bne	.L138
 1984 0046 02E0     		b	.L133
 1985              	.L137:
 243:..\src\app\alt_mode/alt_modes_mngr.c ****             }
 1986              		.loc 1 243 0
 1987 0048 0027     		movs	r7, #0
 1988              	.LVL190:
 1989 004a 00E0     		b	.L133
 1990              	.LVL191:
 1991              	.L138:
 1992 004c 0027     		movs	r7, #0
 1993              	.LVL192:
 1994              	.L133:
 234:..\src\app\alt_mode/alt_modes_mngr.c ****     {
 1995              		.loc 1 234 0 discriminator 2
 1996 004e 0135     		adds	r5, r5, #1
 1997              	.LVL193:
 1998 0050 EDB2     		uxtb	r5, r5
 1999              	.LVL194:
 2000 0052 01E0     		b	.L132
 2001              	.LVL195:
 2002              	.L136:
 2003 0054 0025     		movs	r5, #0
 2004 0056 0127     		movs	r7, #1
 2005              	.LVL196:
 2006              	.L132:
 234:..\src\app\alt_mode/alt_modes_mngr.c ****     {
 2007              		.loc 1 234 0 is_stmt 0 discriminator 1
 2008 0058 7423     		movs	r3, #116
 2009 005a 7343     		muls	r3, r6
 2010 005c 044A     		ldr	r2, .L139
 2011 005e D318     		adds	r3, r2, r3
 2012 0060 3033     		adds	r3, r3, #48
 2013 0062 1B78     		ldrb	r3, [r3]
 2014 0064 9D42     		cmp	r5, r3
 2015 0066 DBD3     		bcc	.L134
 249:..\src\app\alt_mode/alt_modes_mngr.c **** }
 2016              		.loc 1 249 0 is_stmt 1
ARM GAS  e:\temp\ccP12Hvn.s 			page 64


 2017 0068 3800     		movs	r0, r7
 2018 006a 00E0     		b	.L131
 2019              	.LVL197:
 2020              	.L135:
 232:..\src\app\alt_mode/alt_modes_mngr.c **** 
 2021              		.loc 1 232 0
 2022 006c 0020     		movs	r0, #0
 2023              	.LVL198:
 2024              	.L131:
 250:..\src\app\alt_mode/alt_modes_mngr.c **** 
 2025              		.loc 1 250 0
 2026              		@ sp needed
 2027 006e F8BD     		pop	{r3, r4, r5, r6, r7, pc}
 2028              	.L140:
 2029              		.align	2
 2030              	.L139:
 2031 0070 00000000 		.word	alt_mode
 2032              		.cfi_endproc
 2033              	.LFE33:
 2034              		.size	is_alt_mode_mngr_idle, .-is_alt_mode_mngr_idle
 2035              		.section	.text.fail_alt_modes,"ax",%progbits
 2036              		.align	2
 2037              		.code	16
 2038              		.thumb_func
 2039              		.type	fail_alt_modes, %function
 2040              	fail_alt_modes:
 2041              	.LFB46:
 806:..\src\app\alt_mode/alt_modes_mngr.c ****     uint8_t             alt_mode_idx;
 2042              		.loc 1 806 0
 2043              		.cfi_startproc
 2044              		@ args = 0, pretend = 0, frame = 8
 2045              		@ frame_needed = 0, uses_anonymous_args = 0
 2046              	.LVL199:
 2047 0000 F0B5     		push	{r4, r5, r6, r7, lr}
 2048              		.cfi_def_cfa_offset 20
 2049              		.cfi_offset 4, -20
 2050              		.cfi_offset 5, -16
 2051              		.cfi_offset 6, -12
 2052              		.cfi_offset 7, -8
 2053              		.cfi_offset 14, -4
 2054 0002 85B0     		sub	sp, sp, #20
 2055              		.cfi_def_cfa_offset 40
 2056 0004 0290     		str	r0, [sp, #8]
 2057              	.LVL200:
 811:..\src\app\alt_mode/alt_modes_mngr.c ****     
 2058              		.loc 1 811 0
 2059 0006 0700     		movs	r7, r0
 2060 0008 7423     		movs	r3, #116
 2061 000a 4343     		muls	r3, r0
 2062 000c 244A     		ldr	r2, .L147
 2063 000e D318     		adds	r3, r2, r3
 2064 0010 DD6E     		ldr	r5, [r3, #108]
 2065              	.LVL201:
 809:..\src\app\alt_mode/alt_modes_mngr.c ****     alt_mode_info_t     *am_info_p = NULL;
 2066              		.loc 1 809 0
 2067 0012 0923     		movs	r3, #9
 2068 0014 0393     		str	r3, [sp, #12]
ARM GAS  e:\temp\ccP12Hvn.s 			page 65


 814:..\src\app\alt_mode/alt_modes_mngr.c ****     {
 2069              		.loc 1 814 0
 2070 0016 0026     		movs	r6, #0
 2071 0018 36E0     		b	.L142
 2072              	.LVL202:
 2073              	.L145:
 817:..\src\app\alt_mode/alt_modes_mngr.c ****         {
 2074              		.loc 1 817 0
 2075 001a 7423     		movs	r3, #116
 2076 001c 7B43     		muls	r3, r7
 2077 001e 204A     		ldr	r2, .L147
 2078 0020 D318     		adds	r3, r2, r3
 2079 0022 DB69     		ldr	r3, [r3, #28]
 2080 0024 F340     		lsrs	r3, r3, r6
 2081 0026 DB07     		lsls	r3, r3, #31
 2082 0028 2CD5     		bpl	.L143
 819:..\src\app\alt_mode/alt_modes_mngr.c ****             /* Get alt mode state */
 2083              		.loc 1 819 0
 2084 002a 3100     		movs	r1, r6
 2085 002c 0298     		ldr	r0, [sp, #8]
 2086 002e FFF7FEFF 		bl	get_mode_info
 2087              	.LVL203:
 2088 0032 0400     		movs	r4, r0
 2089              	.LVL204:
 821:..\src\app\alt_mode/alt_modes_mngr.c ****             /* If mode waits for response */
 2090              		.loc 1 821 0
 2091 0034 0378     		ldrb	r3, [r0]
 2092              	.LVL205:
 823:..\src\app\alt_mode/alt_modes_mngr.c ****             {
 2093              		.loc 1 823 0
 2094 0036 042B     		cmp	r3, #4
 2095 0038 24D1     		bne	.L143
 826:..\src\app\alt_mode/alt_modes_mngr.c ****                 /* Set Failure code at the object pos field */
 2096              		.loc 1 826 0
 2097 003a 2B79     		ldrb	r3, [r5, #4]
 2098              	.LVL206:
 2099 003c C318     		adds	r3, r0, r3
 2100 003e 0522     		movs	r2, #5
 2101 0040 5A70     		strb	r2, [r3, #1]
 2102              	.LVL207:
 828:..\src\app\alt_mode/alt_modes_mngr.c **** 
 2103              		.loc 1 828 0
 2104 0042 6B78     		ldrb	r3, [r5, #1]
 2105 0044 5B07     		lsls	r3, r3, #29
 2106 0046 5A0F     		lsrs	r2, r3, #29
 2107 0048 437A     		ldrb	r3, [r0, #9]
 2108 004a 0721     		movs	r1, #7
 2109 004c 8B43     		bics	r3, r1
 2110 004e 1343     		orrs	r3, r2
 2111 0050 4372     		strb	r3, [r0, #9]
 2112              	.LVL208:
 830:..\src\app\alt_mode/alt_modes_mngr.c ****                 {
 2113              		.loc 1 830 0
 2114 0052 2B79     		ldrb	r3, [r5, #4]
 2115 0054 002B     		cmp	r3, #0
 2116 0056 01D1     		bne	.L144
 832:..\src\app\alt_mode/alt_modes_mngr.c ****                 }
ARM GAS  e:\temp\ccP12Hvn.s 			page 66


 2117              		.loc 1 832 0
 2118 0058 0833     		adds	r3, r3, #8
 2119 005a 0393     		str	r3, [sp, #12]
 2120              	.L144:
 2121              	.LVL209:
 837:..\src\app\alt_mode/alt_modes_mngr.c ****                             am_info_p->VDM_HDR.svid,
 2122              		.loc 1 837 0
 2123 005c E279     		ldrb	r2, [r4, #7]
 2124 005e 6189     		ldrh	r1, [r4, #10]
 2125 0060 0023     		movs	r3, #0
 2126 0062 0093     		str	r3, [sp]
 2127 0064 039B     		ldr	r3, [sp, #12]
 2128 0066 0298     		ldr	r0, [sp, #8]
 2129              	.LVL210:
 2130 0068 FFF7FEFF 		bl	form_alt_mode_event
 2131              	.LVL211:
 2132 006c 0200     		movs	r2, r0
 836:..\src\app\alt_mode/alt_modes_mngr.c ****                         form_alt_mode_event (port,
 2133              		.loc 1 836 0
 2134 006e 0621     		movs	r1, #6
 2135 0070 0298     		ldr	r0, [sp, #8]
 2136 0072 FFF7FEFF 		bl	sln_pd_event_handler
 2137              	.LVL212:
 842:..\src\app\alt_mode/alt_modes_mngr.c ****                 if (am_info_p->cbk != NULL)
 2138              		.loc 1 842 0
 2139 0076 0523     		movs	r3, #5
 2140 0078 2370     		strb	r3, [r4]
 843:..\src\app\alt_mode/alt_modes_mngr.c ****                 {
 2141              		.loc 1 843 0
 2142 007a E369     		ldr	r3, [r4, #28]
 2143 007c 002B     		cmp	r3, #0
 2144 007e 01D0     		beq	.L143
 845:..\src\app\alt_mode/alt_modes_mngr.c ****                 }
 2145              		.loc 1 845 0
 2146 0080 0298     		ldr	r0, [sp, #8]
 2147 0082 9847     		blx	r3
 2148              	.LVL213:
 2149              	.L143:
 814:..\src\app\alt_mode/alt_modes_mngr.c ****     {
 2150              		.loc 1 814 0 discriminator 2
 2151 0084 0136     		adds	r6, r6, #1
 2152              	.LVL214:
 2153 0086 F6B2     		uxtb	r6, r6
 2154              	.LVL215:
 2155              	.L142:
 814:..\src\app\alt_mode/alt_modes_mngr.c ****     {
 2156              		.loc 1 814 0 is_stmt 0 discriminator 1
 2157 0088 7423     		movs	r3, #116
 2158 008a 7B43     		muls	r3, r7
 2159 008c 044A     		ldr	r2, .L147
 2160 008e D318     		adds	r3, r2, r3
 2161 0090 3033     		adds	r3, r3, #48
 2162 0092 1B78     		ldrb	r3, [r3]
 2163 0094 9E42     		cmp	r6, r3
 2164 0096 C0D3     		bcc	.L145
 852:..\src\app\alt_mode/alt_modes_mngr.c **** 
 2165              		.loc 1 852 0 is_stmt 1
ARM GAS  e:\temp\ccP12Hvn.s 			page 67


 2166 0098 0720     		movs	r0, #7
 2167 009a 05B0     		add	sp, sp, #20
 2168              		@ sp needed
 2169              	.LVL216:
 2170              	.LVL217:
 2171 009c F0BD     		pop	{r4, r5, r6, r7, pc}
 2172              	.L148:
 2173 009e C046     		.align	2
 2174              	.L147:
 2175 00a0 00000000 		.word	alt_mode
 2176              		.cfi_endproc
 2177              	.LFE46:
 2178              		.size	fail_alt_modes, .-fail_alt_modes
 2179              		.section	.text.eval_alt_modes,"ax",%progbits
 2180              		.align	2
 2181              		.code	16
 2182              		.thumb_func
 2183              		.type	eval_alt_modes, %function
 2184              	eval_alt_modes:
 2185              	.LFB45:
 695:..\src\app\alt_mode/alt_modes_mngr.c ****     uint8_t            alt_mode_idx;
 2186              		.loc 1 695 0
 2187              		.cfi_startproc
 2188              		@ args = 0, pretend = 0, frame = 8
 2189              		@ frame_needed = 0, uses_anonymous_args = 0
 2190              	.LVL218:
 2191 0000 F0B5     		push	{r4, r5, r6, r7, lr}
 2192              		.cfi_def_cfa_offset 20
 2193              		.cfi_offset 4, -20
 2194              		.cfi_offset 5, -16
 2195              		.cfi_offset 6, -12
 2196              		.cfi_offset 7, -8
 2197              		.cfi_offset 14, -4
 2198 0002 5746     		mov	r7, r10
 2199 0004 4E46     		mov	r6, r9
 2200 0006 C0B4     		push	{r6, r7}
 2201              		.cfi_def_cfa_offset 28
 2202              		.cfi_offset 9, -28
 2203              		.cfi_offset 10, -24
 2204 0008 85B0     		sub	sp, sp, #20
 2205              		.cfi_def_cfa_offset 48
 2206 000a 0290     		str	r0, [sp, #8]
 2207              	.LVL219:
 702:..\src\app\alt_mode/alt_modes_mngr.c ****     
 2208              		.loc 1 702 0
 2209 000c 0700     		movs	r7, r0
 2210 000e 7423     		movs	r3, #116
 2211 0010 4343     		muls	r3, r0
 2212 0012 484A     		ldr	r2, .L161
 2213 0014 D318     		adds	r3, r2, r3
 2214 0016 DE6E     		ldr	r6, [r3, #108]
 2215              	.LVL220:
 701:..\src\app\alt_mode/alt_modes_mngr.c ****     vdm_msg_info_t     *vdm_p = alt_mode[port].vdm_info;
 2216              		.loc 1 701 0
 2217 0018 0023     		movs	r3, #0
 2218 001a 9A46     		mov	r10, r3
 699:..\src\app\alt_mode/alt_modes_mngr.c ****     alt_mode_info_t    *am_info_p  = NULL;
ARM GAS  e:\temp\ccP12Hvn.s 			page 68


 2219              		.loc 1 699 0
 2220 001c 9946     		mov	r9, r3
 698:..\src\app\alt_mode/alt_modes_mngr.c ****     alt_mode_app_evt_t appevt_type = AM_NO_EVT;
 2221              		.loc 1 698 0
 2222 001e 0733     		adds	r3, r3, #7
 2223 0020 0393     		str	r3, [sp, #12]
 705:..\src\app\alt_mode/alt_modes_mngr.c ****     {
 2224              		.loc 1 705 0
 2225 0022 0024     		movs	r4, #0
 2226 0024 76E0     		b	.L150
 2227              	.LVL221:
 2228              	.L160:
 708:..\src\app\alt_mode/alt_modes_mngr.c ****         {
 2229              		.loc 1 708 0
 2230 0026 7423     		movs	r3, #116
 2231 0028 7B43     		muls	r3, r7
 2232 002a 424A     		ldr	r2, .L161
 2233 002c D318     		adds	r3, r2, r3
 2234 002e DB69     		ldr	r3, [r3, #28]
 2235 0030 E340     		lsrs	r3, r3, r4
 2236 0032 DB07     		lsls	r3, r3, #31
 2237 0034 6CD5     		bpl	.L151
 710:..\src\app\alt_mode/alt_modes_mngr.c **** 
 2238              		.loc 1 710 0
 2239 0036 2100     		movs	r1, r4
 2240 0038 0298     		ldr	r0, [sp, #8]
 2241 003a FFF7FEFF 		bl	get_mode_info
 2242              	.LVL222:
 2243 003e 0500     		movs	r5, r0
 2244              	.LVL223:
 713:..\src\app\alt_mode/alt_modes_mngr.c ****                 break;
 2245              		.loc 1 713 0
 2246 0040 C369     		ldr	r3, [r0, #28]
 2247 0042 002B     		cmp	r3, #0
 2248 0044 6FD0     		beq	.L152
 717:..\src\app\alt_mode/alt_modes_mngr.c ****             switch (alt_mode_state)
 2249              		.loc 1 717 0
 2250 0046 0378     		ldrb	r3, [r0]
 2251              	.LVL224:
 718:..\src\app\alt_mode/alt_modes_mngr.c ****             {
 2252              		.loc 1 718 0
 2253 0048 042B     		cmp	r3, #4
 2254 004a 61D1     		bne	.L151
 722:..\src\app\alt_mode/alt_modes_mngr.c ****                     /* Copy received resp to alt mode info struct */
 2255              		.loc 1 722 0
 2256 004c 3379     		ldrb	r3, [r6, #4]
 2257              	.LVL225:
 2258 004e C318     		adds	r3, r0, r3
 2259 0050 0122     		movs	r2, #1
 2260 0052 5A70     		strb	r2, [r3, #1]
 2261              	.LVL226:
 724:..\src\app\alt_mode/alt_modes_mngr.c ****                     /* If received VDM is SOP */
 2262              		.loc 1 724 0
 2263 0054 3279     		ldrb	r2, [r6, #4]
 2264 0056 0100     		movs	r1, r0
 2265 0058 0298     		ldr	r0, [sp, #8]
 2266              	.LVL227:
ARM GAS  e:\temp\ccP12Hvn.s 			page 69


 2267 005a FFF7FEFF 		bl	get_vdm_info_vdo
 2268              	.LVL228:
 726:..\src\app\alt_mode/alt_modes_mngr.c ****                     {
 2269              		.loc 1 726 0
 2270 005e 3379     		ldrb	r3, [r6, #4]
 2271 0060 002B     		cmp	r3, #0
 2272 0062 3CD1     		bne	.L154
 729:..\src\app\alt_mode/alt_modes_mngr.c ****                         /* If UVDM command then break */
 2273              		.loc 1 729 0
 2274 0064 0298     		ldr	r0, [sp, #8]
 2275 0066 EB69     		ldr	r3, [r5, #28]
 2276 0068 9847     		blx	r3
 2277              	.LVL229:
 731:..\src\app\alt_mode/alt_modes_mngr.c ****                         {
 2278              		.loc 1 731 0
 2279 006a 7378     		ldrb	r3, [r6, #1]
 2280 006c 7F22     		movs	r2, #127
 2281 006e 9343     		bics	r3, r2
 2282 0070 4ED0     		beq	.L151
 736:..\src\app\alt_mode/alt_modes_mngr.c ****                         {
 2283              		.loc 1 736 0
 2284 0072 3378     		ldrb	r3, [r6]
 2285 0074 603A     		subs	r2, r2, #96
 2286 0076 1340     		ands	r3, r2
 2287 0078 042B     		cmp	r3, #4
 2288 007a 09D1     		bne	.L155
 739:..\src\app\alt_mode/alt_modes_mngr.c ****                             /* Set mode as active */
 2289              		.loc 1 739 0
 2290 007c 0298     		ldr	r0, [sp, #8]
 2291 007e FFF7FEFF 		bl	app_get_status
 2292              	.LVL230:
 2293 0082 0123     		movs	r3, #1
 2294 0084 3D22     		movs	r2, #61
 2295 0086 8354     		strb	r3, [r0, r2]
 741:..\src\app\alt_mode/alt_modes_mngr.c ****                             /* Queue notifications to the solution. */
 2296              		.loc 1 741 0
 2297 0088 1D3A     		subs	r2, r2, #29
 2298 008a AB54     		strb	r3, [r5, r2]
 2299              	.LVL231:
 743:..\src\app\alt_mode/alt_modes_mngr.c ****                         }
 2300              		.loc 1 743 0
 2301 008c 0133     		adds	r3, r3, #1
 2302 008e 9946     		mov	r9, r3
 2303              	.LVL232:
 2304              	.L155:
 746:..\src\app\alt_mode/alt_modes_mngr.c ****                         {
 2305              		.loc 1 746 0
 2306 0090 3378     		ldrb	r3, [r6]
 2307 0092 1F22     		movs	r2, #31
 2308 0094 1340     		ands	r3, r2
 2309 0096 052B     		cmp	r3, #5
 2310 0098 04D1     		bne	.L156
 749:..\src\app\alt_mode/alt_modes_mngr.c ****                             /* Queue notifications to the solution. */
 2311              		.loc 1 749 0
 2312 009a 0022     		movs	r2, #0
 2313 009c 1B33     		adds	r3, r3, #27
 2314 009e EA54     		strb	r2, [r5, r3]
ARM GAS  e:\temp\ccP12Hvn.s 			page 70


 2315              	.LVL233:
 751:..\src\app\alt_mode/alt_modes_mngr.c ****                         }
 2316              		.loc 1 751 0
 2317 00a0 1D3B     		subs	r3, r3, #29
 2318 00a2 9946     		mov	r9, r3
 2319              	.LVL234:
 2320              	.L156:
 755:..\src\app\alt_mode/alt_modes_mngr.c ****                         {
 2321              		.loc 1 755 0
 2322 00a4 2423     		movs	r3, #36
 2323 00a6 EB5C     		ldrb	r3, [r5, r3]
 2324 00a8 002B     		cmp	r3, #0
 2325 00aa 06D0     		beq	.L157
 2326              	.LVL235:
 759:..\src\app\alt_mode/alt_modes_mngr.c ****                             am_info_p->app_evt_needed = false;
 2327              		.loc 1 759 0
 2328 00ac AB6A     		ldr	r3, [r5, #40]
 2329 00ae 9A46     		mov	r10, r3
 2330              	.LVL236:
 760:..\src\app\alt_mode/alt_modes_mngr.c ****                         }
 2331              		.loc 1 760 0
 2332 00b0 0022     		movs	r2, #0
 2333 00b2 2423     		movs	r3, #36
 2334              	.LVL237:
 2335 00b4 EA54     		strb	r2, [r5, r3]
 758:..\src\app\alt_mode/alt_modes_mngr.c ****                             appevt_data = am_info_p->app_evt_data.val;
 2336              		.loc 1 758 0
 2337 00b6 183B     		subs	r3, r3, #24
 2338 00b8 9946     		mov	r9, r3
 2339              	.LVL238:
 2340              	.L157:
 764:..\src\app\alt_mode/alt_modes_mngr.c ****                         {
 2341              		.loc 1 764 0
 2342 00ba 4B46     		mov	r3, r9
 2343 00bc 002B     		cmp	r3, #0
 2344 00be 27D0     		beq	.L151
 767:..\src\app\alt_mode/alt_modes_mngr.c ****                                         am_info_p->VDM_HDR.svid,
 2345              		.loc 1 767 0
 2346 00c0 EA79     		ldrb	r2, [r5, #7]
 2347 00c2 6989     		ldrh	r1, [r5, #10]
 2348 00c4 5346     		mov	r3, r10
 2349 00c6 0093     		str	r3, [sp]
 2350 00c8 4B46     		mov	r3, r9
 2351 00ca 029D     		ldr	r5, [sp, #8]
 2352              	.LVL239:
 2353 00cc 2800     		movs	r0, r5
 2354 00ce FFF7FEFF 		bl	form_alt_mode_event
 2355              	.LVL240:
 2356 00d2 0200     		movs	r2, r0
 766:..\src\app\alt_mode/alt_modes_mngr.c ****                                     form_alt_mode_event (port,
 2357              		.loc 1 766 0
 2358 00d4 0621     		movs	r1, #6
 2359 00d6 2800     		movs	r0, r5
 2360 00d8 FFF7FEFF 		bl	sln_pd_event_handler
 2361              	.LVL241:
 2362 00dc 18E0     		b	.L151
 2363              	.LVL242:
ARM GAS  e:\temp\ccP12Hvn.s 			page 71


 2364              	.L154:
 777:..\src\app\alt_mode/alt_modes_mngr.c ****                         {
 2365              		.loc 1 777 0
 2366 00de EB78     		ldrb	r3, [r5, #3]
 2367 00e0 032B     		cmp	r3, #3
 2368 00e2 07D1     		bne	.L158
 780:..\src\app\alt_mode/alt_modes_mngr.c ****                             stat = VDM_TASK_SEND_MSG;
 2369              		.loc 1 780 0
 2370 00e4 0222     		movs	r2, #2
 2371 00e6 2900     		movs	r1, r5
 2372 00e8 0298     		ldr	r0, [sp, #8]
 2373 00ea FFF7FEFF 		bl	move_to_vdm_info
 2374              	.LVL243:
 781:..\src\app\alt_mode/alt_modes_mngr.c ****                         }
 2375              		.loc 1 781 0
 2376 00ee 0623     		movs	r3, #6
 2377 00f0 0393     		str	r3, [sp, #12]
 2378 00f2 0DE0     		b	.L151
 2379              	.LVL244:
 2380              	.L158:
 783:..\src\app\alt_mode/alt_modes_mngr.c ****                         {
 2381              		.loc 1 783 0
 2382 00f4 6B78     		ldrb	r3, [r5, #1]
 2383 00f6 032B     		cmp	r3, #3
 2384 00f8 07D1     		bne	.L159
 786:..\src\app\alt_mode/alt_modes_mngr.c ****                             stat = VDM_TASK_SEND_MSG;
 2385              		.loc 1 786 0
 2386 00fa 0022     		movs	r2, #0
 2387 00fc 2900     		movs	r1, r5
 2388 00fe 0298     		ldr	r0, [sp, #8]
 2389 0100 FFF7FEFF 		bl	move_to_vdm_info
 2390              	.LVL245:
 787:..\src\app\alt_mode/alt_modes_mngr.c ****                         }
 2391              		.loc 1 787 0
 2392 0104 0623     		movs	r3, #6
 2393 0106 0393     		str	r3, [sp, #12]
 2394 0108 02E0     		b	.L151
 2395              	.LVL246:
 2396              	.L159:
 791:..\src\app\alt_mode/alt_modes_mngr.c ****                         }
 2397              		.loc 1 791 0
 2398 010a EB69     		ldr	r3, [r5, #28]
 2399 010c 0298     		ldr	r0, [sp, #8]
 2400 010e 9847     		blx	r3
 2401              	.LVL247:
 2402              	.L151:
 705:..\src\app\alt_mode/alt_modes_mngr.c ****     {
 2403              		.loc 1 705 0 discriminator 2
 2404 0110 0134     		adds	r4, r4, #1
 2405              	.LVL248:
 2406 0112 E4B2     		uxtb	r4, r4
 2407              	.LVL249:
 2408              	.L150:
 705:..\src\app\alt_mode/alt_modes_mngr.c ****     {
 2409              		.loc 1 705 0 is_stmt 0 discriminator 1
 2410 0114 7423     		movs	r3, #116
 2411 0116 7B43     		muls	r3, r7
ARM GAS  e:\temp\ccP12Hvn.s 			page 72


 2412 0118 064A     		ldr	r2, .L161
 2413 011a D318     		adds	r3, r2, r3
 2414 011c 3033     		adds	r3, r3, #48
 2415 011e 1B78     		ldrb	r3, [r3]
 2416 0120 9C42     		cmp	r4, r3
 2417 0122 00D2     		bcs	.LCB2400
 2418 0124 7FE7     		b	.L160	@long jump
 2419              	.LCB2400:
 2420              	.L152:
 803:..\src\app\alt_mode/alt_modes_mngr.c **** 
 2421              		.loc 1 803 0 is_stmt 1
 2422 0126 0398     		ldr	r0, [sp, #12]
 2423 0128 05B0     		add	sp, sp, #20
 2424              		@ sp needed
 2425              	.LVL250:
 2426              	.LVL251:
 2427              	.LVL252:
 2428              	.LVL253:
 2429 012a 0CBC     		pop	{r2, r3}
 2430 012c 9146     		mov	r9, r2
 2431 012e 9A46     		mov	r10, r3
 2432 0130 F0BD     		pop	{r4, r5, r6, r7, pc}
 2433              	.L162:
 2434 0132 C046     		.align	2
 2435              	.L161:
 2436 0134 00000000 		.word	alt_mode
 2437              		.cfi_endproc
 2438              	.LFE45:
 2439              		.size	eval_alt_modes, .-eval_alt_modes
 2440              		.section	.text.monitor_alt_modes,"ax",%progbits
 2441              		.align	2
 2442              		.code	16
 2443              		.thumb_func
 2444              		.type	monitor_alt_modes, %function
 2445              	monitor_alt_modes:
 2446              	.LFB44:
 547:..\src\app\alt_mode/alt_modes_mngr.c ****     uint8_t          alt_mode_idx;
 2447              		.loc 1 547 0
 2448              		.cfi_startproc
 2449              		@ args = 0, pretend = 0, frame = 8
 2450              		@ frame_needed = 0, uses_anonymous_args = 0
 2451              	.LVL254:
 2452 0000 F0B5     		push	{r4, r5, r6, r7, lr}
 2453              		.cfi_def_cfa_offset 20
 2454              		.cfi_offset 4, -20
 2455              		.cfi_offset 5, -16
 2456              		.cfi_offset 6, -12
 2457              		.cfi_offset 7, -8
 2458              		.cfi_offset 14, -4
 2459 0002 85B0     		sub	sp, sp, #20
 2460              		.cfi_def_cfa_offset 40
 2461 0004 0600     		movs	r6, r0
 2462              	.LVL255:
 555:..\src\app\alt_mode/alt_modes_mngr.c ****     {
 2463              		.loc 1 555 0
 2464 0006 0025     		movs	r5, #0
 2465 0008 99E0     		b	.L164
ARM GAS  e:\temp\ccP12Hvn.s 			page 73


 2466              	.LVL256:
 2467              	.L176:
 558:..\src\app\alt_mode/alt_modes_mngr.c ****         {
 2468              		.loc 1 558 0
 2469 000a 7423     		movs	r3, #116
 2470 000c 7343     		muls	r3, r6
 2471 000e 534A     		ldr	r2, .L180
 2472 0010 D318     		adds	r3, r2, r3
 2473 0012 DF69     		ldr	r7, [r3, #28]
 2474 0014 0295     		str	r5, [sp, #8]
 2475 0016 3B00     		movs	r3, r7
 2476 0018 EB40     		lsrs	r3, r3, r5
 2477 001a DB07     		lsls	r3, r3, #31
 2478 001c 00D4     		bmi	.LCB2464
 2479 001e 8CE0     		b	.L165	@long jump
 2480              	.LCB2464:
 560:..\src\app\alt_mode/alt_modes_mngr.c ****             /* Get alt mode state */
 2481              		.loc 1 560 0
 2482 0020 2900     		movs	r1, r5
 2483 0022 3000     		movs	r0, r6
 2484 0024 FFF7FEFF 		bl	get_mode_info
 2485              	.LVL257:
 2486 0028 0400     		movs	r4, r0
 2487              	.LVL258:
 562:..\src\app\alt_mode/alt_modes_mngr.c ****             switch (alt_mode_state)
 2488              		.loc 1 562 0
 2489 002a 0378     		ldrb	r3, [r0]
 2490              	.LVL259:
 563:..\src\app\alt_mode/alt_modes_mngr.c ****             {
 2491              		.loc 1 563 0
 2492 002c 072B     		cmp	r3, #7
 2493 002e 00D9     		bls	.LCB2474
 2494 0030 83E0     		b	.L165	@long jump
 2495              	.LCB2474:
 2496 0032 9B00     		lsls	r3, r3, #2
 2497              	.LVL260:
 2498 0034 4A4A     		ldr	r2, .L180+4
 2499 0036 D358     		ldr	r3, [r2, r3]
 2500 0038 9F46     		mov	pc, r3
 2501              		.section	.rodata
 2502              		.align	2
 2503              	.L167:
 2504 0000 3A010000 		.word	.L165
 2505 0004 0A010000 		.word	.L166
 2506 0008 3A010000 		.word	.L165
 2507 000c 3A000000 		.word	.L168
 2508 0010 3A000000 		.word	.L168
 2509 0014 3A010000 		.word	.L165
 2510 0018 34010000 		.word	.L169
 2511 001c C2000000 		.word	.L170
 2512              		.section	.text.monitor_alt_modes
 2513              	.L168:
 570:..\src\app\alt_mode/alt_modes_mngr.c ****                 {
 2514              		.loc 1 570 0
 2515 003a 037A     		ldrb	r3, [r0, #8]
 2516 003c 1F22     		movs	r2, #31
 2517 003e 1340     		ands	r3, r2
ARM GAS  e:\temp\ccP12Hvn.s 			page 74


 2518 0040 042B     		cmp	r3, #4
 2519 0042 07D1     		bne	.L171
 572:..\src\app\alt_mode/alt_modes_mngr.c ****                     {
 2520              		.loc 1 572 0
 2521 0044 3000     		movs	r0, r6
 2522              	.LVL261:
 2523 0046 FFF7FEFF 		bl	app_get_status
 2524              	.LVL262:
 2525 004a 3B23     		movs	r3, #59
 2526 004c C35C     		ldrb	r3, [r0, r3]
 2527 004e 2B41     		asrs	r3, r3, r5
 2528 0050 DB07     		lsls	r3, r3, #31
 2529 0052 72D4     		bmi	.L165
 2530              	.L171:
 583:..\src\app\alt_mode/alt_modes_mngr.c ****                 {
 2531              		.loc 1 583 0
 2532 0054 A378     		ldrb	r3, [r4, #2]
 2533 0056 032B     		cmp	r3, #3
 2534 0058 04D0     		beq	.L177
 587:..\src\app\alt_mode/alt_modes_mngr.c ****                 {
 2535              		.loc 1 587 0
 2536 005a E378     		ldrb	r3, [r4, #3]
 2537 005c 032B     		cmp	r3, #3
 2538 005e 03D1     		bne	.L178
 589:..\src\app\alt_mode/alt_modes_mngr.c ****                 }
 2539              		.loc 1 589 0
 2540 0060 0227     		movs	r7, #2
 2541 0062 02E0     		b	.L172
 2542              	.L177:
 585:..\src\app\alt_mode/alt_modes_mngr.c ****                 }
 2543              		.loc 1 585 0
 2544 0064 0127     		movs	r7, #1
 2545 0066 00E0     		b	.L172
 2546              	.L178:
 593:..\src\app\alt_mode/alt_modes_mngr.c ****                 }
 2547              		.loc 1 593 0
 2548 0068 0027     		movs	r7, #0
 2549              	.L172:
 2550              	.LVL263:
 598:..\src\app\alt_mode/alt_modes_mngr.c ****                          (am_info_p->VDM_HDR.cmd == VDM_CMD_EXIT_MODE)) &&
 2551              		.loc 1 598 0
 2552 006a 237A     		ldrb	r3, [r4, #8]
 2553 006c 1F22     		movs	r2, #31
 2554 006e 1340     		ands	r3, r2
 2555 0070 043B     		subs	r3, r3, #4
 2556 0072 DBB2     		uxtb	r3, r3
 597:..\src\app\alt_mode/alt_modes_mngr.c ****                         ((am_info_p->VDM_HDR.cmd == VDM_CMD_ENTER_MODE) ||
 2557              		.loc 1 597 0
 2558 0074 012B     		cmp	r3, #1
 2559 0076 12D8     		bhi	.L173
 600:..\src\app\alt_mode/alt_modes_mngr.c ****                         ((alt_mode[port].am_active_modes & (~(1 << alt_mode_idx))) == false)
 2560              		.loc 1 600 0
 2561 0078 2323     		movs	r3, #35
 2562 007a E35C     		ldrb	r3, [r4, r3]
 599:..\src\app\alt_mode/alt_modes_mngr.c ****                         (am_info_p->set_mux_isolate != false)          &&
 2563              		.loc 1 599 0
 2564 007c 002B     		cmp	r3, #0
ARM GAS  e:\temp\ccP12Hvn.s 			page 75


 2565 007e 0ED0     		beq	.L173
 601:..\src\app\alt_mode/alt_modes_mngr.c ****                    )
 2566              		.loc 1 601 0
 2567 0080 7423     		movs	r3, #116
 2568 0082 039A     		ldr	r2, [sp, #12]
 2569 0084 5A43     		muls	r2, r3
 2570 0086 354B     		ldr	r3, .L180
 2571 0088 9B18     		adds	r3, r3, r2
 2572 008a DB69     		ldr	r3, [r3, #28]
 2573 008c 0122     		movs	r2, #1
 2574 008e AA40     		lsls	r2, r2, r5
 2575 0090 9343     		bics	r3, r2
 600:..\src\app\alt_mode/alt_modes_mngr.c ****                         ((alt_mode[port].am_active_modes & (~(1 << alt_mode_idx))) == false)
 2576              		.loc 1 600 0
 2577 0092 04D1     		bne	.L173
 604:..\src\app\alt_mode/alt_modes_mngr.c ****                 }
 2578              		.loc 1 604 0
 2579 0094 0022     		movs	r2, #0
 2580 0096 0021     		movs	r1, #0
 2581 0098 3000     		movs	r0, r6
 2582 009a FFF7FEFF 		bl	set_mux
 2583              	.LVL264:
 2584              	.L173:
 607:..\src\app\alt_mode/alt_modes_mngr.c ****                 {
 2585              		.loc 1 607 0
 2586 009e 2023     		movs	r3, #32
 2587 00a0 E35C     		ldrb	r3, [r4, r3]
 2588 00a2 002B     		cmp	r3, #0
 2589 00a4 04D1     		bne	.L174
 607:..\src\app\alt_mode/alt_modes_mngr.c ****                 {
 2590              		.loc 1 607 0 is_stmt 0 discriminator 1
 2591 00a6 237A     		ldrb	r3, [r4, #8]
 2592 00a8 1F22     		movs	r2, #31
 2593 00aa 1340     		ands	r3, r2
 2594 00ac 042B     		cmp	r3, #4
 2595 00ae 52D1     		bne	.L179
 2596              	.L174:
 610:..\src\app\alt_mode/alt_modes_mngr.c ****                     am_info_p->mode_state = ALT_MODE_STATE_WAIT_FOR_RESP;
 2597              		.loc 1 610 0 is_stmt 1
 2598 00b0 3A00     		movs	r2, r7
 2599 00b2 2100     		movs	r1, r4
 2600 00b4 3000     		movs	r0, r6
 2601 00b6 FFF7FEFF 		bl	move_to_vdm_info
 2602              	.LVL265:
 611:..\src\app\alt_mode/alt_modes_mngr.c ****                 }
 2603              		.loc 1 611 0
 2604 00ba 0423     		movs	r3, #4
 2605 00bc 2370     		strb	r3, [r4]
 614:..\src\app\alt_mode/alt_modes_mngr.c **** 
 2606              		.loc 1 614 0
 2607 00be 0620     		movs	r0, #6
 2608 00c0 4AE0     		b	.L175
 2609              	.LVL266:
 2610              	.L170:
 618:..\src\app\alt_mode/alt_modes_mngr.c ****                 {
 2611              		.loc 1 618 0
 2612 00c2 284B     		ldr	r3, .L180+8
ARM GAS  e:\temp\ccP12Hvn.s 			page 76


 2613 00c4 9B5D     		ldrb	r3, [r3, r6]
 2614 00c6 002B     		cmp	r3, #0
 2615 00c8 37D0     		beq	.L165
 621:..\src\app\alt_mode/alt_modes_mngr.c ****                     /* Set alt mode as disabled */
 2616              		.loc 1 621 0
 2617 00ca 0121     		movs	r1, #1
 2618 00cc 029B     		ldr	r3, [sp, #8]
 2619 00ce 9940     		lsls	r1, r1, r3
 2620 00d0 7422     		movs	r2, #116
 2621 00d2 7243     		muls	r2, r6
 2622 00d4 214B     		ldr	r3, .L180
 2623 00d6 9A18     		adds	r2, r3, r2
 2624 00d8 3B00     		movs	r3, r7
 2625 00da 8B43     		bics	r3, r1
 2626 00dc D361     		str	r3, [r2, #28]
 2627              	.LVL267:
 623:..\src\app\alt_mode/alt_modes_mngr.c ****                     /* Set flag as exited mode */
 2628              		.loc 1 623 0
 2629 00de 0023     		movs	r3, #0
 2630 00e0 0370     		strb	r3, [r0]
 625:..\src\app\alt_mode/alt_modes_mngr.c **** 
 2631              		.loc 1 625 0
 2632 00e2 9369     		ldr	r3, [r2, #24]
 2633 00e4 1943     		orrs	r1, r3
 2634 00e6 9161     		str	r1, [r2, #24]
 628:..\src\app\alt_mode/alt_modes_mngr.c ****                     {
 2635              		.loc 1 628 0
 2636 00e8 D369     		ldr	r3, [r2, #28]
 2637 00ea 002B     		cmp	r3, #0
 2638 00ec 25D1     		bne	.L165
 631:..\src\app\alt_mode/alt_modes_mngr.c ****                         /* Set MUX to SS config */
 2639              		.loc 1 631 0
 2640 00ee 3000     		movs	r0, r6
 2641              	.LVL268:
 2642 00f0 FFF7FEFF 		bl	app_get_status
 2643              	.LVL269:
 2644 00f4 0022     		movs	r2, #0
 2645 00f6 3D23     		movs	r3, #61
 2646 00f8 C254     		strb	r2, [r0, r3]
 633:..\src\app\alt_mode/alt_modes_mngr.c ****                         /* Get next alt mode if avaliable */
 2647              		.loc 1 633 0
 2648 00fa 0221     		movs	r1, #2
 2649 00fc 3000     		movs	r0, r6
 2650 00fe FFF7FEFF 		bl	set_mux
 2651              	.LVL270:
 635:..\src\app\alt_mode/alt_modes_mngr.c ****                     }
 2652              		.loc 1 635 0
 2653 0102 3000     		movs	r0, r6
 2654 0104 FFF7FEFF 		bl	get_next_alt_mode
 2655              	.LVL271:
 2656 0108 17E0     		b	.L165
 2657              	.LVL272:
 2658              	.L166:
 666:..\src\app\alt_mode/alt_modes_mngr.c ****                 {
 2659              		.loc 1 666 0
 2660 010a 2423     		movs	r3, #36
 2661 010c C35C     		ldrb	r3, [r0, r3]
ARM GAS  e:\temp\ccP12Hvn.s 			page 77


 2662 010e 002B     		cmp	r3, #0
 2663 0110 13D0     		beq	.L165
 670:..\src\app\alt_mode/alt_modes_mngr.c ****                                 am_info_p->VDM_HDR.svid,
 2664              		.loc 1 670 0
 2665 0112 C279     		ldrb	r2, [r0, #7]
 2666 0114 4189     		ldrh	r1, [r0, #10]
 2667 0116 836A     		ldr	r3, [r0, #40]
 2668 0118 0093     		str	r3, [sp]
 2669              	.LVL273:
 2670 011a 0C23     		movs	r3, #12
 2671 011c 3000     		movs	r0, r6
 2672              	.LVL274:
 2673 011e FFF7FEFF 		bl	form_alt_mode_event
 2674              	.LVL275:
 2675 0122 0200     		movs	r2, r0
 669:..\src\app\alt_mode/alt_modes_mngr.c ****                             form_alt_mode_event (port,
 2676              		.loc 1 669 0
 2677 0124 0621     		movs	r1, #6
 2678 0126 3000     		movs	r0, r6
 2679 0128 FFF7FEFF 		bl	sln_pd_event_handler
 2680              	.LVL276:
 675:..\src\app\alt_mode/alt_modes_mngr.c ****                 }
 2681              		.loc 1 675 0
 2682 012c 0022     		movs	r2, #0
 2683 012e 2423     		movs	r3, #36
 2684 0130 E254     		strb	r2, [r4, r3]
 2685 0132 02E0     		b	.L165
 2686              	.LVL277:
 2687              	.L169:
 681:..\src\app\alt_mode/alt_modes_mngr.c ****                 break;
 2688              		.loc 1 681 0
 2689 0134 C369     		ldr	r3, [r0, #28]
 2690 0136 3000     		movs	r0, r6
 2691              	.LVL278:
 2692 0138 9847     		blx	r3
 2693              	.LVL279:
 2694              	.L165:
 555:..\src\app\alt_mode/alt_modes_mngr.c ****     {
 2695              		.loc 1 555 0 discriminator 2
 2696 013a 0135     		adds	r5, r5, #1
 2697              	.LVL280:
 2698 013c EDB2     		uxtb	r5, r5
 2699              	.LVL281:
 2700              	.L164:
 555:..\src\app\alt_mode/alt_modes_mngr.c ****     {
 2701              		.loc 1 555 0 is_stmt 0 discriminator 1
 2702 013e 0396     		str	r6, [sp, #12]
 2703 0140 7423     		movs	r3, #116
 2704 0142 7343     		muls	r3, r6
 2705 0144 054A     		ldr	r2, .L180
 2706 0146 D318     		adds	r3, r2, r3
 2707 0148 3033     		adds	r3, r3, #48
 2708 014a 1B78     		ldrb	r3, [r3]
 2709 014c 9D42     		cmp	r5, r3
 2710 014e 00D2     		bcs	.LCB2684
 2711 0150 5BE7     		b	.L176	@long jump
 2712              	.LCB2684:
ARM GAS  e:\temp\ccP12Hvn.s 			page 78


 691:..\src\app\alt_mode/alt_modes_mngr.c **** }
 2713              		.loc 1 691 0 is_stmt 1
 2714 0152 0720     		movs	r0, #7
 2715 0154 00E0     		b	.L175
 2716              	.LVL282:
 2717              	.L179:
 614:..\src\app\alt_mode/alt_modes_mngr.c **** 
 2718              		.loc 1 614 0
 2719 0156 0620     		movs	r0, #6
 2720              	.LVL283:
 2721              	.L175:
 692:..\src\app\alt_mode/alt_modes_mngr.c **** 
 2722              		.loc 1 692 0
 2723 0158 05B0     		add	sp, sp, #20
 2724              		@ sp needed
 2725              	.LVL284:
 2726 015a F0BD     		pop	{r4, r5, r6, r7, pc}
 2727              	.L181:
 2728              		.align	2
 2729              	.L180:
 2730 015c 00000000 		.word	alt_mode
 2731 0160 00000000 		.word	.L167
 2732 0164 00000000 		.word	gl_dpm_port_type
 2733              		.cfi_endproc
 2734              	.LFE44:
 2735              		.size	monitor_alt_modes, .-monitor_alt_modes
 2736              		.section	.text.alt_mode_mngr_deinit,"ax",%progbits
 2737              		.align	2
 2738              		.code	16
 2739              		.thumb_func
 2740              		.type	alt_mode_mngr_deinit, %function
 2741              	alt_mode_mngr_deinit:
 2742              	.LFB51:
1007:..\src\app\alt_mode/alt_modes_mngr.c ****     uint8_t             alt_mode_idx;
 2743              		.loc 1 1007 0
 2744              		.cfi_startproc
 2745              		@ args = 0, pretend = 0, frame = 0
 2746              		@ frame_needed = 0, uses_anonymous_args = 0
 2747              	.LVL285:
 2748 0000 70B5     		push	{r4, r5, r6, lr}
 2749              		.cfi_def_cfa_offset 16
 2750              		.cfi_offset 4, -16
 2751              		.cfi_offset 5, -12
 2752              		.cfi_offset 6, -8
 2753              		.cfi_offset 14, -4
 2754 0002 0600     		movs	r6, r0
 2755              	.LVL286:
1012:..\src\app\alt_mode/alt_modes_mngr.c ****     {
 2756              		.loc 1 1012 0
 2757 0004 0025     		movs	r5, #0
 2758 0006 1CE0     		b	.L183
 2759              	.LVL287:
 2760              	.L187:
1014:..\src\app\alt_mode/alt_modes_mngr.c ****         if (am_info_p != NULL)
 2761              		.loc 1 1014 0
 2762 0008 2900     		movs	r1, r5
 2763 000a 3000     		movs	r0, r6
ARM GAS  e:\temp\ccP12Hvn.s 			page 79


 2764 000c FFF7FEFF 		bl	get_mode_info
 2765              	.LVL288:
 2766 0010 041E     		subs	r4, r0, #0
 2767              	.LVL289:
1015:..\src\app\alt_mode/alt_modes_mngr.c ****         {
 2768              		.loc 1 1015 0
 2769 0012 14D0     		beq	.L184
1018:..\src\app\alt_mode/alt_modes_mngr.c ****             {
 2770              		.loc 1 1018 0
 2771 0014 114B     		ldr	r3, .L188
 2772 0016 9B5D     		ldrb	r3, [r3, r6]
 2773 0018 002B     		cmp	r3, #0
 2774 001a 02D1     		bne	.L185
1021:..\src\app\alt_mode/alt_modes_mngr.c ****             }
 2775              		.loc 1 1021 0
 2776 001c 0133     		adds	r3, r3, #1
 2777 001e 0370     		strb	r3, [r0]
 2778 0020 01E0     		b	.L186
 2779              	.L185:
1026:..\src\app\alt_mode/alt_modes_mngr.c ****             }
 2780              		.loc 1 1026 0
 2781 0022 0423     		movs	r3, #4
 2782 0024 0370     		strb	r3, [r0]
 2783              	.L186:
1030:..\src\app\alt_mode/alt_modes_mngr.c ****             am_info_p->cbk(port);
 2784              		.loc 1 1030 0
 2785 0026 237A     		ldrb	r3, [r4, #8]
 2786 0028 1F22     		movs	r2, #31
 2787 002a 9343     		bics	r3, r2
 2788 002c 0522     		movs	r2, #5
 2789 002e 1343     		orrs	r3, r2
 2790 0030 2372     		strb	r3, [r4, #8]
1031:..\src\app\alt_mode/alt_modes_mngr.c **** 
 2791              		.loc 1 1031 0
 2792 0032 3000     		movs	r0, r6
 2793              	.LVL290:
 2794 0034 E369     		ldr	r3, [r4, #28]
 2795 0036 9847     		blx	r3
 2796              	.LVL291:
1034:..\src\app\alt_mode/alt_modes_mngr.c ****         }
 2797              		.loc 1 1034 0
 2798 0038 2000     		movs	r0, r4
 2799 003a FFF7FEFF 		bl	reset_alt_mode_info
 2800              	.LVL292:
 2801              	.L184:
1012:..\src\app\alt_mode/alt_modes_mngr.c ****     {
 2802              		.loc 1 1012 0 discriminator 2
 2803 003e 0135     		adds	r5, r5, #1
 2804              	.LVL293:
 2805 0040 EDB2     		uxtb	r5, r5
 2806              	.LVL294:
 2807              	.L183:
1012:..\src\app\alt_mode/alt_modes_mngr.c ****     {
 2808              		.loc 1 1012 0 is_stmt 0 discriminator 1
 2809 0042 7423     		movs	r3, #116
 2810 0044 7343     		muls	r3, r6
 2811 0046 064A     		ldr	r2, .L188+4
ARM GAS  e:\temp\ccP12Hvn.s 			page 80


 2812 0048 D318     		adds	r3, r2, r3
 2813 004a 3033     		adds	r3, r3, #48
 2814 004c 1B78     		ldrb	r3, [r3]
 2815 004e 9D42     		cmp	r5, r3
 2816 0050 DAD3     		bcc	.L187
1039:..\src\app\alt_mode/alt_modes_mngr.c **** 
 2817              		.loc 1 1039 0 is_stmt 1
 2818 0052 3000     		movs	r0, r6
 2819 0054 FFF7FEFF 		bl	reset_mngr_info
 2820              	.LVL295:
1047:..\src\app\alt_mode/alt_modes_mngr.c **** 
 2821              		.loc 1 1047 0
 2822 0058 0520     		movs	r0, #5
 2823              		@ sp needed
 2824              	.LVL296:
 2825 005a 70BD     		pop	{r4, r5, r6, pc}
 2826              	.L189:
 2827              		.align	2
 2828              	.L188:
 2829 005c 00000000 		.word	gl_dpm_port_type
 2830 0060 00000000 		.word	alt_mode
 2831              		.cfi_endproc
 2832              	.LFE51:
 2833              		.size	alt_mode_mngr_deinit, .-alt_mode_mngr_deinit
 2834              		.section	.text.alt_mode_mngr_exit_all,"ax",%progbits
 2835              		.align	2
 2836              		.global	alt_mode_mngr_exit_all
 2837              		.code	16
 2838              		.thumb_func
 2839              		.type	alt_mode_mngr_exit_all, %function
 2840              	alt_mode_mngr_exit_all:
 2841              	.LFB59:
1214:..\src\app\alt_mode/alt_modes_mngr.c **** #if DFP_ALT_MODE_SUPP
 2842              		.loc 1 1214 0
 2843              		.cfi_startproc
 2844              		@ args = 0, pretend = 0, frame = 0
 2845              		@ frame_needed = 0, uses_anonymous_args = 0
 2846              	.LVL297:
 2847 0000 70B5     		push	{r4, r5, r6, lr}
 2848              		.cfi_def_cfa_offset 16
 2849              		.cfi_offset 4, -16
 2850              		.cfi_offset 5, -12
 2851              		.cfi_offset 6, -8
 2852              		.cfi_offset 14, -4
 2853 0002 0400     		movs	r4, r0
 2854              	.LVL298:
1219:..\src\app\alt_mode/alt_modes_mngr.c ****     {
 2855              		.loc 1 1219 0
 2856 0004 0600     		movs	r6, r0
 2857 0006 134B     		ldr	r3, .L195
 2858 0008 1B5C     		ldrb	r3, [r3, r0]
 2859 000a 012B     		cmp	r3, #1
 2860 000c 20D1     		bne	.L190
 2861 000e 0025     		movs	r5, #0
 2862 0010 16E0     		b	.L192
 2863              	.LVL299:
 2864              	.L194:
ARM GAS  e:\temp\ccP12Hvn.s 			page 81


1228:..\src\app\alt_mode/alt_modes_mngr.c ****         {
 2865              		.loc 1 1228 0
 2866 0012 7423     		movs	r3, #116
 2867 0014 7343     		muls	r3, r6
 2868 0016 104A     		ldr	r2, .L195+4
 2869 0018 D318     		adds	r3, r2, r3
 2870 001a DB69     		ldr	r3, [r3, #28]
 2871 001c EB40     		lsrs	r3, r3, r5
 2872 001e DB07     		lsls	r3, r3, #31
 2873 0020 0CD5     		bpl	.L193
1230:..\src\app\alt_mode/alt_modes_mngr.c ****             if (am_info_p != NULL)
 2874              		.loc 1 1230 0
 2875 0022 2900     		movs	r1, r5
 2876 0024 2000     		movs	r0, r4
 2877 0026 FFF7FEFF 		bl	get_mode_info
 2878              	.LVL300:
1231:..\src\app\alt_mode/alt_modes_mngr.c ****             {
 2879              		.loc 1 1231 0
 2880 002a 0028     		cmp	r0, #0
 2881 002c 06D0     		beq	.L193
1233:..\src\app\alt_mode/alt_modes_mngr.c ****                 if (am_info_p->cbk != NULL)
 2882              		.loc 1 1233 0
 2883 002e 0723     		movs	r3, #7
 2884 0030 0370     		strb	r3, [r0]
1234:..\src\app\alt_mode/alt_modes_mngr.c ****                 {
 2885              		.loc 1 1234 0
 2886 0032 C369     		ldr	r3, [r0, #28]
 2887 0034 002B     		cmp	r3, #0
 2888 0036 01D0     		beq	.L193
1236:..\src\app\alt_mode/alt_modes_mngr.c ****                 }
 2889              		.loc 1 1236 0
 2890 0038 2000     		movs	r0, r4
 2891              	.LVL301:
 2892 003a 9847     		blx	r3
 2893              	.LVL302:
 2894              	.L193:
1226:..\src\app\alt_mode/alt_modes_mngr.c ****     {
 2895              		.loc 1 1226 0 discriminator 2
 2896 003c 0135     		adds	r5, r5, #1
 2897              	.LVL303:
 2898 003e EDB2     		uxtb	r5, r5
 2899              	.LVL304:
 2900              	.L192:
1226:..\src\app\alt_mode/alt_modes_mngr.c ****     {
 2901              		.loc 1 1226 0 is_stmt 0 discriminator 1
 2902 0040 7423     		movs	r3, #116
 2903 0042 7343     		muls	r3, r6
 2904 0044 044A     		ldr	r2, .L195+4
 2905 0046 D318     		adds	r3, r2, r3
 2906 0048 3033     		adds	r3, r3, #48
 2907 004a 1B78     		ldrb	r3, [r3]
 2908 004c 9D42     		cmp	r5, r3
 2909 004e E0D3     		bcc	.L194
 2910              	.LVL305:
 2911              	.L190:
1242:..\src\app\alt_mode/alt_modes_mngr.c **** 
 2912              		.loc 1 1242 0 is_stmt 1
ARM GAS  e:\temp\ccP12Hvn.s 			page 82


 2913              		@ sp needed
 2914 0050 70BD     		pop	{r4, r5, r6, pc}
 2915              	.L196:
 2916 0052 C046     		.align	2
 2917              	.L195:
 2918 0054 00000000 		.word	gl_dpm_port_type
 2919 0058 00000000 		.word	alt_mode
 2920              		.cfi_endproc
 2921              	.LFE59:
 2922              		.size	alt_mode_mngr_exit_all, .-alt_mode_mngr_exit_all
 2923              		.section	.text.eval_app_alt_mode_cmd,"ax",%progbits
 2924              		.align	2
 2925              		.global	eval_app_alt_mode_cmd
 2926              		.code	16
 2927              		.thumb_func
 2928              		.type	eval_app_alt_mode_cmd, %function
 2929              	eval_app_alt_mode_cmd:
 2930              	.LFB60:
1247:..\src\app\alt_mode/alt_modes_mngr.c ****     alt_mode_evt_t  cmd_info, cmd_data;
 2931              		.loc 1 1247 0
 2932              		.cfi_startproc
 2933              		@ args = 0, pretend = 0, frame = 0
 2934              		@ frame_needed = 0, uses_anonymous_args = 0
 2935              	.LVL306:
 2936 0000 F8B5     		push	{r3, r4, r5, r6, r7, lr}
 2937              		.cfi_def_cfa_offset 24
 2938              		.cfi_offset 3, -24
 2939              		.cfi_offset 4, -20
 2940              		.cfi_offset 5, -16
 2941              		.cfi_offset 6, -12
 2942              		.cfi_offset 7, -8
 2943              		.cfi_offset 14, -4
 2944 0002 4F46     		mov	r7, r9
 2945 0004 4646     		mov	r6, r8
 2946 0006 C0B4     		push	{r6, r7}
 2947              		.cfi_def_cfa_offset 32
 2948              		.cfi_offset 8, -32
 2949              		.cfi_offset 9, -28
 2950 0008 0600     		movs	r6, r0
 2951              	.LVL307:
1254:..\src\app\alt_mode/alt_modes_mngr.c ****     cmd_data = (alt_mode_evt_t)MAKE_DWORD(data[3], data[2], data[1], data[0]);
 2952              		.loc 1 1254 0
 2953 000a CF78     		ldrb	r7, [r1, #3]
 2954 000c 3F06     		lsls	r7, r7, #24
 2955 000e 8B78     		ldrb	r3, [r1, #2]
 2956 0010 1B04     		lsls	r3, r3, #16
 2957 0012 1F43     		orrs	r7, r3
 2958 0014 4B78     		ldrb	r3, [r1, #1]
 2959 0016 1B02     		lsls	r3, r3, #8
 2960 0018 1F43     		orrs	r7, r3
 2961 001a 0B78     		ldrb	r3, [r1]
 2962 001c 1F43     		orrs	r7, r3
 2963              	.LVL308:
1255:..\src\app\alt_mode/alt_modes_mngr.c **** 
 2964              		.loc 1 1255 0
 2965 001e D378     		ldrb	r3, [r2, #3]
 2966 0020 1906     		lsls	r1, r3, #24
ARM GAS  e:\temp\ccP12Hvn.s 			page 83


 2967              	.LVL309:
 2968 0022 9378     		ldrb	r3, [r2, #2]
 2969 0024 1B04     		lsls	r3, r3, #16
 2970 0026 0B43     		orrs	r3, r1
 2971 0028 5178     		ldrb	r1, [r2, #1]
 2972 002a 0902     		lsls	r1, r1, #8
 2973 002c 0B43     		orrs	r3, r1
 2974 002e 1278     		ldrb	r2, [r2]
 2975              	.LVL310:
 2976 0030 1343     		orrs	r3, r2
 2977 0032 9846     		mov	r8, r3
 2978              	.LVL311:
1271:..\src\app\alt_mode/alt_modes_mngr.c ****     {
 2979              		.loc 1 1271 0
 2980 0034 0025     		movs	r5, #0
1249:..\src\app\alt_mode/alt_modes_mngr.c ****     uint8_t         alt_mode_idx;
 2981              		.loc 1 1249 0
 2982 0036 0020     		movs	r0, #0
 2983              	.LVL312:
1271:..\src\app\alt_mode/alt_modes_mngr.c ****     {
 2984              		.loc 1 1271 0
 2985 0038 16E0     		b	.L198
 2986              	.LVL313:
 2987              	.L201:
1274:..\src\app\alt_mode/alt_modes_mngr.c ****         {
 2988              		.loc 1 1274 0
 2989 003a 7423     		movs	r3, #116
 2990 003c 7343     		muls	r3, r6
 2991 003e 4B4A     		ldr	r2, .L216
 2992 0040 D318     		adds	r3, r2, r3
 2993 0042 5B69     		ldr	r3, [r3, #20]
 2994 0044 EB40     		lsrs	r3, r3, r5
 2995 0046 DB07     		lsls	r3, r3, #31
 2996 0048 0CD5     		bpl	.L199
1276:..\src\app\alt_mode/alt_modes_mngr.c ****             if ((am_info_p->VDM_HDR.svid == cmd_info.alt_mode_event.svid) &&
 2997              		.loc 1 1276 0
 2998 004a 2900     		movs	r1, r5
 2999 004c 3000     		movs	r0, r6
 3000              	.LVL314:
 3001 004e FFF7FEFF 		bl	get_mode_info
 3002              	.LVL315:
1277:..\src\app\alt_mode/alt_modes_mngr.c ****                 (am_info_p->alt_mode_id  == cmd_info.alt_mode_event.alt_mode))
 3003              		.loc 1 1277 0
 3004 0052 4289     		ldrh	r2, [r0, #10]
 3005 0054 3B0C     		lsrs	r3, r7, #16
 3006 0056 9A42     		cmp	r2, r3
 3007 0058 04D1     		bne	.L199
1278:..\src\app\alt_mode/alt_modes_mngr.c ****             {
 3008              		.loc 1 1278 0 discriminator 1
 3009 005a C279     		ldrb	r2, [r0, #7]
 3010 005c 3B04     		lsls	r3, r7, #16
 3011 005e 1B0E     		lsrs	r3, r3, #24
1277:..\src\app\alt_mode/alt_modes_mngr.c ****                 (am_info_p->alt_mode_id  == cmd_info.alt_mode_event.alt_mode))
 3012              		.loc 1 1277 0 discriminator 1
 3013 0060 9A42     		cmp	r2, r3
 3014 0062 0DD0     		beq	.L206
 3015              	.L199:
ARM GAS  e:\temp\ccP12Hvn.s 			page 84


1271:..\src\app\alt_mode/alt_modes_mngr.c ****     {
 3016              		.loc 1 1271 0 discriminator 2
