ARM GAS  e:\temp\ccP12Hvn.s 			page 1


   1              		.syntax unified
   2              		.cpu cortex-m0
   3              		.fpu softvfp
   4              		.eabi_attribute 20, 1
   5              		.eabi_attribute 21, 1
   6              		.eabi_attribute 23, 3
   7              		.eabi_attribute 24, 1
   8              		.eabi_attribute 25, 1
   9              		.eabi_attribute 26, 1
  10              		.eabi_attribute 30, 1
  11              		.eabi_attribute 34, 0
  12              		.eabi_attribute 18, 4
  13              		.thumb
  14              		.syntax unified
  15              		.file	"alt_modes_mngr.c"
  16              		.text
  17              	.Ltext0:
  18              		.cfi_sections	.debug_frame
  19              		.section	.text.set_disc_mode_params,"ax",%progbits
  20              		.align	2
  21              		.code	16
  22              		.thumb_func
  23              		.type	set_disc_mode_params, %function
  24              	set_disc_mode_params:
  25              	.LFB37:
  26              		.file 1 "..\\src\\app\\alt_mode\\alt_modes_mngr.c"
   1:..\src\app\alt_mode/alt_modes_mngr.c **** /**
   2:..\src\app\alt_mode/alt_modes_mngr.c ****  * @file alt_modes_mngr.c
   3:..\src\app\alt_mode/alt_modes_mngr.c ****  *
   4:..\src\app\alt_mode/alt_modes_mngr.c ****  * @brief @{Alternate Mode Manager source file.@}
   5:..\src\app\alt_mode/alt_modes_mngr.c ****  *
   6:..\src\app\alt_mode/alt_modes_mngr.c ****  *******************************************************************************
   7:..\src\app\alt_mode/alt_modes_mngr.c ****  *
   8:..\src\app\alt_mode/alt_modes_mngr.c ****  * Copyright (2014-2018), Cypress Semiconductor Corporation or a subsidiary of
   9:..\src\app\alt_mode/alt_modes_mngr.c ****  * Cypress Semiconductor Corporation. All rights reserved.
  10:..\src\app\alt_mode/alt_modes_mngr.c ****  *
  11:..\src\app\alt_mode/alt_modes_mngr.c ****  * This software, including source code, documentation and related materials
  12:..\src\app\alt_mode/alt_modes_mngr.c ****  * (“Software”), is owned by Cypress Semiconductor Corporation or one of its
  13:..\src\app\alt_mode/alt_modes_mngr.c ****  * subsidiaries (“Cypress”) and is protected by and subject to worldwide patent
  14:..\src\app\alt_mode/alt_modes_mngr.c ****  * protection (United States and foreign), United States copyright laws and
  15:..\src\app\alt_mode/alt_modes_mngr.c ****  * international treaty provisions. Therefore, you may use this Software only
  16:..\src\app\alt_mode/alt_modes_mngr.c ****  * as provided in the license agreement accompanying the software package from
  17:..\src\app\alt_mode/alt_modes_mngr.c ****  * which you obtained this Software (“EULA”).
  18:..\src\app\alt_mode/alt_modes_mngr.c ****  *
  19:..\src\app\alt_mode/alt_modes_mngr.c ****  * If no EULA applies, Cypress hereby grants you a personal, nonexclusive,
  20:..\src\app\alt_mode/alt_modes_mngr.c ****  * non-transferable license to copy, modify, and compile the Software source
  21:..\src\app\alt_mode/alt_modes_mngr.c ****  * code solely for use in connection with Cypress’s integrated circuit
  22:..\src\app\alt_mode/alt_modes_mngr.c ****  * products. Any reproduction, modification, translation, compilation, or
  23:..\src\app\alt_mode/alt_modes_mngr.c ****  * representation of this Software except as specified above is prohibited
  24:..\src\app\alt_mode/alt_modes_mngr.c ****  * without the express written permission of Cypress. Disclaimer: THIS SOFTWARE
  25:..\src\app\alt_mode/alt_modes_mngr.c ****  * IS PROVIDED AS-IS, WITH NO WARRANTY OF ANY KIND, EXPRESS OR IMPLIED,
  26:..\src\app\alt_mode/alt_modes_mngr.c ****  * INCLUDING, BUT NOT LIMITED TO, NONINFRINGEMENT, IMPLIED WARRANTIES OF
  27:..\src\app\alt_mode/alt_modes_mngr.c ****  * MERCHANTABILITY AND FITNESS FOR A PARTICULAR PURPOSE. Cypress reserves the
  28:..\src\app\alt_mode/alt_modes_mngr.c ****  * right to make changes to the Software without notice. Cypress does not
  29:..\src\app\alt_mode/alt_modes_mngr.c ****  * assume any liability arising out of the application or use of the Software
  30:..\src\app\alt_mode/alt_modes_mngr.c ****  * or any product or circuit described in the Software. Cypress does not
  31:..\src\app\alt_mode/alt_modes_mngr.c ****  * authorize its products for use in any products where a malfunction or
ARM GAS  e:\temp\ccP12Hvn.s 			page 2


  32:..\src\app\alt_mode/alt_modes_mngr.c ****  * failure of the Cypress product may reasonably be expected to result in
  33:..\src\app\alt_mode/alt_modes_mngr.c ****  * significant property damage, injury or death (“High Risk Product”). By
  34:..\src\app\alt_mode/alt_modes_mngr.c ****  * including Cypress’s product in a High Risk Product, the manufacturer of such
  35:..\src\app\alt_mode/alt_modes_mngr.c ****  * system or application assumes all risk of such use and in doing so agrees to
  36:..\src\app\alt_mode/alt_modes_mngr.c ****  * indemnify Cypress against all liability.
  37:..\src\app\alt_mode/alt_modes_mngr.c ****  */
  38:..\src\app\alt_mode/alt_modes_mngr.c **** 
  39:..\src\app\alt_mode/alt_modes_mngr.c **** #include "config.h"
  40:..\src\app\alt_mode/alt_modes_mngr.c **** #include <alt_modes_mngr.h>
  41:..\src\app\alt_mode/alt_modes_mngr.c **** #include <alt_modes_config.h>
  42:..\src\app\alt_mode/alt_modes_mngr.c **** #include <pd.h>
  43:..\src\app\alt_mode/alt_modes_mngr.c **** #include <dpm.h>
  44:..\src\app\alt_mode/alt_modes_mngr.c **** #include <app.h>
  45:..\src\app\alt_mode/alt_modes_mngr.c **** #include <vdm.h>
  46:..\src\app\alt_mode/alt_modes_mngr.c **** #include <timer.h>
  47:..\src\app\alt_mode/alt_modes_mngr.c **** #include <vdm_task_mngr.h>
  48:..\src\app\alt_mode/alt_modes_mngr.c **** #include <vdm.h>
  49:..\src\app\alt_mode/alt_modes_mngr.c **** 
  50:..\src\app\alt_mode/alt_modes_mngr.c **** #if (CCG_BB_ENABLE != 0)
  51:..\src\app\alt_mode/alt_modes_mngr.c **** #include <billboard.h>
  52:..\src\app\alt_mode/alt_modes_mngr.c **** #endif /* (CCG_BB_ENABLE != 0) */
  53:..\src\app\alt_mode/alt_modes_mngr.c **** 
  54:..\src\app\alt_mode/alt_modes_mngr.c **** #if ((MAX_SUPP_ALT_MODES < MAX_SVID_SUPP) && ((DFP_ALT_MODE_SUPP) || (UFP_ALT_MODE_SUPP)))  
  55:..\src\app\alt_mode/alt_modes_mngr.c **** #error "The number of user alternate modes exceed maximum supported alt modes. \
  56:..\src\app\alt_mode/alt_modes_mngr.c **** 	    Please increase MAX_SUPP_ALT_MODES"
  57:..\src\app\alt_mode/alt_modes_mngr.c **** #endif
  58:..\src\app\alt_mode/alt_modes_mngr.c **** /**
  59:..\src\app\alt_mode/alt_modes_mngr.c ****  * @typedef alt_mode_status_t
  60:..\src\app\alt_mode/alt_modes_mngr.c ****  * @brief struct to hold alt modes manager status
  61:..\src\app\alt_mode/alt_modes_mngr.c ****  */
  62:..\src\app\alt_mode/alt_modes_mngr.c **** typedef struct
  63:..\src\app\alt_mode/alt_modes_mngr.c **** {
  64:..\src\app\alt_mode/alt_modes_mngr.c ****     /* Holds info when register alt mode */
  65:..\src\app\alt_mode/alt_modes_mngr.c ****     alt_mode_reg_info_t   reg_info;
  66:..\src\app\alt_mode/alt_modes_mngr.c ****     /* Supported alternate modes. */
  67:..\src\app\alt_mode/alt_modes_mngr.c ****     uint32_t              am_supported_modes;
  68:..\src\app\alt_mode/alt_modes_mngr.c ****     /* Exited alternate modes. */
  69:..\src\app\alt_mode/alt_modes_mngr.c ****     uint32_t              am_exited_modes;
  70:..\src\app\alt_mode/alt_modes_mngr.c ****     /* Active alternate modes. */
  71:..\src\app\alt_mode/alt_modes_mngr.c ****     uint32_t              am_active_modes;
  72:..\src\app\alt_mode/alt_modes_mngr.c ****     /* Pointers to each alt mode info structure */
  73:..\src\app\alt_mode/alt_modes_mngr.c ****     alt_mode_info_t*      alt_mode_info[MAX_SUPP_ALT_MODES];
  74:..\src\app\alt_mode/alt_modes_mngr.c ****     /* Number of existed alt modes */
  75:..\src\app\alt_mode/alt_modes_mngr.c ****     uint8_t               alt_modes_numb;
  76:..\src\app\alt_mode/alt_modes_mngr.c ****     /* Buffer to hold VDM */
  77:..\src\app\alt_mode/alt_modes_mngr.c ****     dpm_pd_cmd_buf_t      vdm_buf;
  78:..\src\app\alt_mode/alt_modes_mngr.c ****     /* Holds application event data */
  79:..\src\app\alt_mode/alt_modes_mngr.c ****     uint32_t              app_evt_data[ALT_MODE_EVT_SIZE];
  80:..\src\app\alt_mode/alt_modes_mngr.c ****     /* Current alt modes mngr status */
  81:..\src\app\alt_mode/alt_modes_mngr.c ****     alt_mode_mngr_state_t state;
  82:..\src\app\alt_mode/alt_modes_mngr.c ****     /* Pointer to vdm_msg_info_t struct in vdm task mngr */
  83:..\src\app\alt_mode/alt_modes_mngr.c ****     vdm_msg_info_t       *vdm_info;
  84:..\src\app\alt_mode/alt_modes_mngr.c ****     /* Hold current SVID index for discovery mode command */
  85:..\src\app\alt_mode/alt_modes_mngr.c ****     uint8_t               svid_idx;
  86:..\src\app\alt_mode/alt_modes_mngr.c ****     /* Check whether the device is a PD 3.0 supporting UFP. */
  87:..\src\app\alt_mode/alt_modes_mngr.c ****     uint8_t               pd3_ufp;
  88:..\src\app\alt_mode/alt_modes_mngr.c ****     
ARM GAS  e:\temp\ccP12Hvn.s 			page 3


  89:..\src\app\alt_mode/alt_modes_mngr.c **** }alt_mode_mngr_status_t;
  90:..\src\app\alt_mode/alt_modes_mngr.c **** 
  91:..\src\app\alt_mode/alt_modes_mngr.c **** /*Main structure to hold alt modes manager status */
  92:..\src\app\alt_mode/alt_modes_mngr.c **** alt_mode_mngr_status_t alt_mode[NO_OF_TYPEC_PORTS];
  93:..\src\app\alt_mode/alt_modes_mngr.c **** 
  94:..\src\app\alt_mode/alt_modes_mngr.c **** #if (!UCSI_ALT_MODE_ENABLED)
  95:..\src\app\alt_mode/alt_modes_mngr.c **** /* Composes alt mode info to vdm_msg_info_t struct before sending */
  96:..\src\app\alt_mode/alt_modes_mngr.c **** static uint8_t move_to_vdm_info(uint8_t port, alt_mode_info_t* alt_mode_vdm, sop_t sop_type);
  97:..\src\app\alt_mode/alt_modes_mngr.c **** /* Parces received VDM info and moves it to alt mode info struct */
  98:..\src\app\alt_mode/alt_modes_mngr.c **** static void get_vdm_info_vdo(uint8_t port, alt_mode_info_t* alt_mode_vdm, sop_t sop_type);
  99:..\src\app\alt_mode/alt_modes_mngr.c **** #endif /*UCSI_ALT_MODE_ENABLED*/    
 100:..\src\app\alt_mode/alt_modes_mngr.c **** 
 101:..\src\app\alt_mode/alt_modes_mngr.c **** #if DFP_ALT_MODE_SUPP
 102:..\src\app\alt_mode/alt_modes_mngr.c **** /* Find next avaliable alt mode for processing if previous exited */
 103:..\src\app\alt_mode/alt_modes_mngr.c **** static uint8_t get_next_alt_mode(uint8_t port);
 104:..\src\app\alt_mode/alt_modes_mngr.c **** #endif /* DFP_ALT_MODE_SUPP   */
 105:..\src\app\alt_mode/alt_modes_mngr.c **** 
 106:..\src\app\alt_mode/alt_modes_mngr.c **** #if UFP_ALT_MODE_SUPP
 107:..\src\app\alt_mode/alt_modes_mngr.c **** /* This function verifies possibility of entering of corresponding UFP alt mode */
 108:..\src\app\alt_mode/alt_modes_mngr.c **** static bool is_mode_activated(uint8_t port, const pd_packet_t *vdm);
 109:..\src\app\alt_mode/alt_modes_mngr.c **** /* UFP function for alt modes processing */
 110:..\src\app\alt_mode/alt_modes_mngr.c **** static bool ufp_reg_alt_mode(uint8_t port, const pd_packet_t *vdm);
 111:..\src\app\alt_mode/alt_modes_mngr.c **** #endif /* UFP_ALT_MODE_SUPP */
 112:..\src\app\alt_mode/alt_modes_mngr.c **** 
 113:..\src\app\alt_mode/alt_modes_mngr.c **** #if (!UCSI_ALT_MODE_ENABLED)
 114:..\src\app\alt_mode/alt_modes_mngr.c **** #if ((DFP_ALT_MODE_SUPP) || (UFP_ALT_MODE_SUPP))    
 115:..\src\app\alt_mode/alt_modes_mngr.c **** /* Returns alt mode index for given svid */
 116:..\src\app\alt_mode/alt_modes_mngr.c **** static uint8_t get_alt_mode_svid_idx(uint8_t port, uint16_t svid);
 117:..\src\app\alt_mode/alt_modes_mngr.c **** /* Returns alt mode index in compatibility table */
 118:..\src\app\alt_mode/alt_modes_mngr.c **** static uint8_t get_alt_mode_tbl_idx(uint8_t port, uint16_t svid, uint8_t id);
 119:..\src\app\alt_mode/alt_modes_mngr.c **** #endif /* (DFP_ALT_MODE_SUPP) || (UFP_ALT_MODE_SUPP) */    
 120:..\src\app\alt_mode/alt_modes_mngr.c **** 
 121:..\src\app\alt_mode/alt_modes_mngr.c **** /* Resets alt mode mngr info */
 122:..\src\app\alt_mode/alt_modes_mngr.c **** static void reset_mngr_info(uint8_t port);
 123:..\src\app\alt_mode/alt_modes_mngr.c **** 
 124:..\src\app\alt_mode/alt_modes_mngr.c **** /* Fast access functions */
 125:..\src\app\alt_mode/alt_modes_mngr.c **** alt_mode_info_t* get_mode_info(uint8_t port, uint8_t alt_mode_idx);
 126:..\src\app\alt_mode/alt_modes_mngr.c **** 
 127:..\src\app\alt_mode/alt_modes_mngr.c **** #endif /*UCSI_ALT_MODE_ENABLED*/ 
 128:..\src\app\alt_mode/alt_modes_mngr.c **** 
 129:..\src\app\alt_mode/alt_modes_mngr.c **** /* Alt modes mngr AMS Prototypes */
 130:..\src\app\alt_mode/alt_modes_mngr.c **** static vdm_task_t run_disc_mode(uint8_t port);
 131:..\src\app\alt_mode/alt_modes_mngr.c **** static vdm_task_t eval_disc_mode(uint8_t port);
 132:..\src\app\alt_mode/alt_modes_mngr.c **** static vdm_task_t disc_mode_fail(uint8_t port);
 133:..\src\app\alt_mode/alt_modes_mngr.c **** static vdm_task_t monitor_alt_modes(uint8_t port);
 134:..\src\app\alt_mode/alt_modes_mngr.c **** static vdm_task_t eval_alt_modes(uint8_t port);
 135:..\src\app\alt_mode/alt_modes_mngr.c **** static vdm_task_t fail_alt_modes(uint8_t port);
 136:..\src\app\alt_mode/alt_modes_mngr.c **** static vdm_task_t alt_mode_mngr_deinit(uint8_t port);
 137:..\src\app\alt_mode/alt_modes_mngr.c **** 
 138:..\src\app\alt_mode/alt_modes_mngr.c **** /*State Table*/
 139:..\src\app\alt_mode/alt_modes_mngr.c **** static vdm_task_t (*const alt_mode_ams_table [ALT_MODE_MNGR_STATE_PROCESS + 1]
 140:..\src\app\alt_mode/alt_modes_mngr.c ****         [VDM_EVT_EXIT + 1]) (uint8_t port) = {
 141:..\src\app\alt_mode/alt_modes_mngr.c ****     {
 142:..\src\app\alt_mode/alt_modes_mngr.c ****         /* Send next discovery svid */
 143:..\src\app\alt_mode/alt_modes_mngr.c ****         run_disc_mode,
 144:..\src\app\alt_mode/alt_modes_mngr.c ****         /* Evaluate disc svid response */
 145:..\src\app\alt_mode/alt_modes_mngr.c ****         eval_disc_mode,
ARM GAS  e:\temp\ccP12Hvn.s 			page 4


 146:..\src\app\alt_mode/alt_modes_mngr.c ****         /* Process failed disc svid response */
 147:..\src\app\alt_mode/alt_modes_mngr.c ****         disc_mode_fail,
 148:..\src\app\alt_mode/alt_modes_mngr.c ****         /* Exit from alt mode manager */
 149:..\src\app\alt_mode/alt_modes_mngr.c ****         alt_mode_mngr_deinit
 150:..\src\app\alt_mode/alt_modes_mngr.c ****     },
 151:..\src\app\alt_mode/alt_modes_mngr.c ****     {
 152:..\src\app\alt_mode/alt_modes_mngr.c ****         /* Monitor if any changes appears in modes  */
 153:..\src\app\alt_mode/alt_modes_mngr.c ****         monitor_alt_modes,
 154:..\src\app\alt_mode/alt_modes_mngr.c ****         /* Evaluate alt mode response */
 155:..\src\app\alt_mode/alt_modes_mngr.c ****         eval_alt_modes,
 156:..\src\app\alt_mode/alt_modes_mngr.c ****         /* Process failed alt modes response */
 157:..\src\app\alt_mode/alt_modes_mngr.c ****         fail_alt_modes,
 158:..\src\app\alt_mode/alt_modes_mngr.c ****         /* Exit from alt mode manager */
 159:..\src\app\alt_mode/alt_modes_mngr.c ****         alt_mode_mngr_deinit
 160:..\src\app\alt_mode/alt_modes_mngr.c ****     }
 161:..\src\app\alt_mode/alt_modes_mngr.c **** };
 162:..\src\app\alt_mode/alt_modes_mngr.c **** 
 163:..\src\app\alt_mode/alt_modes_mngr.c **** /************************* DFP Related Function definitions *******************/
 164:..\src\app\alt_mode/alt_modes_mngr.c **** 
 165:..\src\app\alt_mode/alt_modes_mngr.c **** vdm_task_t reg_alt_mode_mngr(uint8_t port, atch_tgt_info_t* atch_tgt_info, vdm_msg_info_t* vdm_msg_
 166:..\src\app\alt_mode/alt_modes_mngr.c **** {
 167:..\src\app\alt_mode/alt_modes_mngr.c **** #if ((CCG_PD_REV3_ENABLE) && (UFP_ALT_MODE_SUPP) && (UFP_MODE_DISC_ENABLE))
 168:..\src\app\alt_mode/alt_modes_mngr.c ****     bool pd3_live = (bool)(dpm_get_info(port)->spec_rev_sop_live >= PD_REV3);
 169:..\src\app\alt_mode/alt_modes_mngr.c **** #endif
 170:..\src\app\alt_mode/alt_modes_mngr.c **** 
 171:..\src\app\alt_mode/alt_modes_mngr.c ****     alt_mode[port].alt_modes_numb = get_alt_mode_numb(port);
 172:..\src\app\alt_mode/alt_modes_mngr.c ****     alt_mode[port].vdm_info       = vdm_msg_info;
 173:..\src\app\alt_mode/alt_modes_mngr.c **** 
 174:..\src\app\alt_mode/alt_modes_mngr.c ****     /* Check device role to start with. */
 175:..\src\app\alt_mode/alt_modes_mngr.c ****     if (gl_dpm_port_type[port] != PRT_TYPE_UFP)
 176:..\src\app\alt_mode/alt_modes_mngr.c ****     {
 177:..\src\app\alt_mode/alt_modes_mngr.c ****         if (atch_tgt_info->tgt_svid[0] == NO_DATA)
 178:..\src\app\alt_mode/alt_modes_mngr.c ****         {
 179:..\src\app\alt_mode/alt_modes_mngr.c ****             /* UFP does not support any of the SVIDs of interest. Exit VDM manager. */
 180:..\src\app\alt_mode/alt_modes_mngr.c ****             return VDM_TASK_EXIT;
 181:..\src\app\alt_mode/alt_modes_mngr.c ****         }
 182:..\src\app\alt_mode/alt_modes_mngr.c ****         else
 183:..\src\app\alt_mode/alt_modes_mngr.c ****         {
 184:..\src\app\alt_mode/alt_modes_mngr.c ****             if (get_alt_mode_numb(port) != false)
 185:..\src\app\alt_mode/alt_modes_mngr.c ****             {
 186:..\src\app\alt_mode/alt_modes_mngr.c ****                 /* Register pointers to VDM mngr info */
 187:..\src\app\alt_mode/alt_modes_mngr.c ****                 alt_mode[port].reg_info.atch_tgt_info  = atch_tgt_info;
 188:..\src\app\alt_mode/alt_modes_mngr.c ****                 /* Set alt modes mngr state to Discovery Mode process */
 189:..\src\app\alt_mode/alt_modes_mngr.c ****                 alt_mode[port].reg_info.data_role      = PRT_TYPE_DFP;
 190:..\src\app\alt_mode/alt_modes_mngr.c ****                 alt_mode[port].state                   = ALT_MODE_MNGR_STATE_DISC_MODE;
 191:..\src\app\alt_mode/alt_modes_mngr.c ****                 /* Set alt mode trigger based on config */
 192:..\src\app\alt_mode/alt_modes_mngr.c ****                 app_get_status(port)->alt_mode_trig_mask = get_pd_port_config(port)->dp_mode_trigge
 193:..\src\app\alt_mode/alt_modes_mngr.c ****                 return VDM_TASK_ALT_MODE;
 194:..\src\app\alt_mode/alt_modes_mngr.c ****             }
 195:..\src\app\alt_mode/alt_modes_mngr.c ****         }
 196:..\src\app\alt_mode/alt_modes_mngr.c ****     }
 197:..\src\app\alt_mode/alt_modes_mngr.c ****     else
 198:..\src\app\alt_mode/alt_modes_mngr.c ****     {
 199:..\src\app\alt_mode/alt_modes_mngr.c **** #if ((CCG_PD_REV3_ENABLE) && (UFP_ALT_MODE_SUPP) && (UFP_MODE_DISC_ENABLE))
 200:..\src\app\alt_mode/alt_modes_mngr.c ****         alt_mode[port].pd3_ufp = pd3_live;
 201:..\src\app\alt_mode/alt_modes_mngr.c **** #endif /* (CCG_PD_REV3_ENABLE) && (UFP_ALT_MODE_SUPP) && (UFP_MODE_DISC_ENABLE) */
 202:..\src\app\alt_mode/alt_modes_mngr.c **** 
ARM GAS  e:\temp\ccP12Hvn.s 			page 5


 203:..\src\app\alt_mode/alt_modes_mngr.c ****         if (atch_tgt_info->tgt_svid[0] == NO_DATA)
 204:..\src\app\alt_mode/alt_modes_mngr.c ****         {
 205:..\src\app\alt_mode/alt_modes_mngr.c ****             /* If we have no SVIDs to evaluate by UFP then go to regular monitoring */
 206:..\src\app\alt_mode/alt_modes_mngr.c ****             alt_mode[port].state    = ALT_MODE_MNGR_STATE_PROCESS;
 207:..\src\app\alt_mode/alt_modes_mngr.c ****             return VDM_TASK_ALT_MODE;
 208:..\src\app\alt_mode/alt_modes_mngr.c ****         }
 209:..\src\app\alt_mode/alt_modes_mngr.c **** #if ((CCG_PD_REV3_ENABLE) && (UFP_ALT_MODE_SUPP) && (UFP_MODE_DISC_ENABLE))
 210:..\src\app\alt_mode/alt_modes_mngr.c ****         else
 211:..\src\app\alt_mode/alt_modes_mngr.c ****         {
 212:..\src\app\alt_mode/alt_modes_mngr.c ****             if (pd3_live)
 213:..\src\app\alt_mode/alt_modes_mngr.c ****             {
 214:..\src\app\alt_mode/alt_modes_mngr.c ****                 /* If PD spec revision is 3.0, we can start with discover mode process. */
 215:..\src\app\alt_mode/alt_modes_mngr.c ****                 return VDM_TASK_ALT_MODE;
 216:..\src\app\alt_mode/alt_modes_mngr.c ****             }
 217:..\src\app\alt_mode/alt_modes_mngr.c ****         }
 218:..\src\app\alt_mode/alt_modes_mngr.c **** #endif /* (CCG_PD_REV3_ENABLE) && (UFP_ALT_MODE_SUPP) && (UFP_MODE_DISC_ENABLE) */
 219:..\src\app\alt_mode/alt_modes_mngr.c ****     }
 220:..\src\app\alt_mode/alt_modes_mngr.c **** 
 221:..\src\app\alt_mode/alt_modes_mngr.c ****     return VDM_TASK_EXIT;
 222:..\src\app\alt_mode/alt_modes_mngr.c **** }
 223:..\src\app\alt_mode/alt_modes_mngr.c **** 
 224:..\src\app\alt_mode/alt_modes_mngr.c **** bool is_alt_mode_mngr_idle(uint8_t port)
 225:..\src\app\alt_mode/alt_modes_mngr.c **** {
 226:..\src\app\alt_mode/alt_modes_mngr.c ****     bool    is_idle = true;
 227:..\src\app\alt_mode/alt_modes_mngr.c **** #if ((DFP_ALT_MODE_SUPP) || (UFP_ALT_MODE_SUPP))
 228:..\src\app\alt_mode/alt_modes_mngr.c ****     uint8_t           alt_mode_idx;
 229:..\src\app\alt_mode/alt_modes_mngr.c **** 
 230:..\src\app\alt_mode/alt_modes_mngr.c ****     if ((alt_mode[port].state == ALT_MODE_MNGR_STATE_DISC_MODE) ||
 231:..\src\app\alt_mode/alt_modes_mngr.c ****         (!alt_mode_hw_is_idle(port)))
 232:..\src\app\alt_mode/alt_modes_mngr.c ****         return false;
 233:..\src\app\alt_mode/alt_modes_mngr.c **** 
 234:..\src\app\alt_mode/alt_modes_mngr.c ****     for (alt_mode_idx = 0; alt_mode_idx < alt_mode[port].alt_modes_numb; alt_mode_idx++)
 235:..\src\app\alt_mode/alt_modes_mngr.c ****     {
 236:..\src\app\alt_mode/alt_modes_mngr.c ****         /* If mode is active */
 237:..\src\app\alt_mode/alt_modes_mngr.c ****         if (IS_FLAG_CHECKED(alt_mode[port].am_active_modes, alt_mode_idx))
 238:..\src\app\alt_mode/alt_modes_mngr.c ****         {
 239:..\src\app\alt_mode/alt_modes_mngr.c ****             /* If alt mode not Idle then return current alt mode state */
 240:..\src\app\alt_mode/alt_modes_mngr.c ****             if ((get_mode_info(port, alt_mode_idx)->mode_state != ALT_MODE_STATE_IDLE) ||
 241:..\src\app\alt_mode/alt_modes_mngr.c ****                 (get_mode_info(port, alt_mode_idx)->app_evt_needed != false))
 242:..\src\app\alt_mode/alt_modes_mngr.c ****             {
 243:..\src\app\alt_mode/alt_modes_mngr.c ****                 is_idle = false;
 244:..\src\app\alt_mode/alt_modes_mngr.c ****             }
 245:..\src\app\alt_mode/alt_modes_mngr.c ****         }
 246:..\src\app\alt_mode/alt_modes_mngr.c ****     }
 247:..\src\app\alt_mode/alt_modes_mngr.c **** #endif /* ((DFP_ALT_MODE_SUPP) || (UFP_ALT_MODE_SUPP)) */
 248:..\src\app\alt_mode/alt_modes_mngr.c **** 
 249:..\src\app\alt_mode/alt_modes_mngr.c ****     return (is_idle);
 250:..\src\app\alt_mode/alt_modes_mngr.c **** }
 251:..\src\app\alt_mode/alt_modes_mngr.c **** 
 252:..\src\app\alt_mode/alt_modes_mngr.c **** void alt_mode_mngr_sleep(uint8_t port)
 253:..\src\app\alt_mode/alt_modes_mngr.c **** {
 254:..\src\app\alt_mode/alt_modes_mngr.c ****     alt_mode_hw_sleep (port);
 255:..\src\app\alt_mode/alt_modes_mngr.c **** }
 256:..\src\app\alt_mode/alt_modes_mngr.c **** 
 257:..\src\app\alt_mode/alt_modes_mngr.c **** void alt_mode_mngr_wakeup(uint8_t port)
 258:..\src\app\alt_mode/alt_modes_mngr.c **** {
 259:..\src\app\alt_mode/alt_modes_mngr.c ****     alt_mode_hw_wakeup (port);
ARM GAS  e:\temp\ccP12Hvn.s 			page 6


 260:..\src\app\alt_mode/alt_modes_mngr.c **** }
 261:..\src\app\alt_mode/alt_modes_mngr.c **** 
 262:..\src\app\alt_mode/alt_modes_mngr.c **** vdm_task_t vdm_task_mngr_alt_mode_process(uint8_t port, vdm_evt_t vdm_evt)
 263:..\src\app\alt_mode/alt_modes_mngr.c **** {
 264:..\src\app\alt_mode/alt_modes_mngr.c ****     /* Run alt modes manager ams table */
 265:..\src\app\alt_mode/alt_modes_mngr.c ****     return alt_mode_ams_table[alt_mode[port].state][vdm_evt](port);
 266:..\src\app\alt_mode/alt_modes_mngr.c **** }
 267:..\src\app\alt_mode/alt_modes_mngr.c **** 
 268:..\src\app\alt_mode/alt_modes_mngr.c **** #if ((DFP_ALT_MODE_SUPP) || (UFP_MODE_DISC_ENABLE))
 269:..\src\app\alt_mode/alt_modes_mngr.c **** 
 270:..\src\app\alt_mode/alt_modes_mngr.c **** static void set_disc_mode_params(uint8_t port, sop_t sop)
 271:..\src\app\alt_mode/alt_modes_mngr.c **** {
  27              		.loc 1 271 0
  28              		.cfi_startproc
  29              		@ args = 0, pretend = 0, frame = 0
  30              		@ frame_needed = 0, uses_anonymous_args = 0
  31              	.LVL0:
  32 0000 30B5     		push	{r4, r5, lr}
  33              		.cfi_def_cfa_offset 12
  34              		.cfi_offset 4, -12
  35              		.cfi_offset 5, -8
  36              		.cfi_offset 14, -4
 272:..\src\app\alt_mode/alt_modes_mngr.c ****     vdm_msg_info_t *vdm_p = alt_mode[port].vdm_info;
  37              		.loc 1 272 0
  38 0002 7423     		movs	r3, #116
  39 0004 5843     		muls	r0, r3
  40              	.LVL1:
  41 0006 0E4B     		ldr	r3, .L2
  42 0008 1818     		adds	r0, r3, r0
  43 000a C36E     		ldr	r3, [r0, #108]
  44              	.LVL2:
 273:..\src\app\alt_mode/alt_modes_mngr.c **** 
 274:..\src\app\alt_mode/alt_modes_mngr.c ****     vdm_p->vdm_header.val   = NO_DATA;
  45              		.loc 1 274 0
  46 000c 0024     		movs	r4, #0
  47 000e 1C60     		str	r4, [r3]
 275:..\src\app\alt_mode/alt_modes_mngr.c ****     vdm_p->VDM_HDR.svid     = alt_mode[port].reg_info.atch_tgt_info->tgt_svid[alt_mode[port].svid_i
  48              		.loc 1 275 0
  49 0010 C568     		ldr	r5, [r0, #12]
  50 0012 7030     		adds	r0, r0, #112
  51 0014 0078     		ldrb	r0, [r0]
  52 0016 021D     		adds	r2, r0, #4
  53 0018 5200     		lsls	r2, r2, #1
  54 001a AA18     		adds	r2, r5, r2
  55 001c 9288     		ldrh	r2, [r2, #4]
  56 001e 5A80     		strh	r2, [r3, #2]
 276:..\src\app\alt_mode/alt_modes_mngr.c ****     vdm_p->VDM_HDR.cmd      = VDM_CMD_DSC_MODES;
  57              		.loc 1 276 0
  58 0020 1A78     		ldrb	r2, [r3]
  59 0022 1F20     		movs	r0, #31
  60 0024 8243     		bics	r2, r0
  61 0026 0320     		movs	r0, #3
  62 0028 0243     		orrs	r2, r0
  63 002a 1A70     		strb	r2, [r3]
 277:..\src\app\alt_mode/alt_modes_mngr.c ****     vdm_p->VDM_HDR.obj_pos  = NO_DATA;
  64              		.loc 1 277 0
  65 002c 5A78     		ldrb	r2, [r3, #1]
ARM GAS  e:\temp\ccP12Hvn.s 			page 7


 278:..\src\app\alt_mode/alt_modes_mngr.c ****     vdm_p->sop_type         = sop;
  66              		.loc 1 278 0
  67 002e 1971     		strb	r1, [r3, #4]
 279:..\src\app\alt_mode/alt_modes_mngr.c ****     vdm_p->vdo_numb         = NO_DATA;
  68              		.loc 1 279 0
  69 0030 5C71     		strb	r4, [r3, #5]
 280:..\src\app\alt_mode/alt_modes_mngr.c ****     vdm_p->VDM_HDR.vdm_type = VDM_TYPE_STRUCTURED;
  70              		.loc 1 280 0
  71 0032 0721     		movs	r1, #7
  72              	.LVL3:
  73 0034 8A43     		bics	r2, r1
  74 0036 8739     		subs	r1, r1, #135
  75 0038 0A43     		orrs	r2, r1
  76 003a 5A70     		strb	r2, [r3, #1]
 281:..\src\app\alt_mode/alt_modes_mngr.c **** }
  77              		.loc 1 281 0
  78              		@ sp needed
  79 003c 30BD     		pop	{r4, r5, pc}
  80              	.L3:
  81 003e C046     		.align	2
  82              	.L2:
  83 0040 00000000 		.word	alt_mode
  84              		.cfi_endproc
  85              	.LFE37:
  86              		.size	set_disc_mode_params, .-set_disc_mode_params
  87              		.section	.text.get_next_alt_mode,"ax",%progbits
  88              		.align	2
  89              		.code	16
  90              		.thumb_func
  91              		.type	get_next_alt_mode, %function
  92              	get_next_alt_mode:
  93              	.LFB48:
 282:..\src\app\alt_mode/alt_modes_mngr.c **** 
 283:..\src\app\alt_mode/alt_modes_mngr.c **** static void send_sln_event_nodata(uint8_t port, uint16_t svid, uint8_t am_id, alt_mode_app_evt_t ev
 284:..\src\app\alt_mode/alt_modes_mngr.c **** {
 285:..\src\app\alt_mode/alt_modes_mngr.c ****     sln_pd_event_handler (port, APP_EVT_ALT_MODE,
 286:..\src\app\alt_mode/alt_modes_mngr.c ****             form_alt_mode_event (port, svid, am_id, evtype, NO_DATA)
 287:..\src\app\alt_mode/alt_modes_mngr.c ****             );
 288:..\src\app\alt_mode/alt_modes_mngr.c **** }
 289:..\src\app\alt_mode/alt_modes_mngr.c **** 
 290:..\src\app\alt_mode/alt_modes_mngr.c **** static void send_sln_app_evt(uint8_t port, uint32_t data)
 291:..\src\app\alt_mode/alt_modes_mngr.c **** {
 292:..\src\app\alt_mode/alt_modes_mngr.c ****     sln_pd_event_handler (port, APP_EVT_ALT_MODE,
 293:..\src\app\alt_mode/alt_modes_mngr.c ****             form_alt_mode_event (port, alt_mode[port].vdm_info->VDM_HDR.svid,
 294:..\src\app\alt_mode/alt_modes_mngr.c ****                 alt_mode[port].reg_info.alt_mode_id,
 295:..\src\app\alt_mode/alt_modes_mngr.c ****                     (data == NO_DATA) ? alt_mode[port].reg_info.app_evt : AM_EVT_DATA_EVT,
 296:..\src\app\alt_mode/alt_modes_mngr.c ****                         data)
 297:..\src\app\alt_mode/alt_modes_mngr.c ****             );
 298:..\src\app\alt_mode/alt_modes_mngr.c **** }
 299:..\src\app\alt_mode/alt_modes_mngr.c **** 
 300:..\src\app\alt_mode/alt_modes_mngr.c **** #endif /* ((DFP_ALT_MODE_SUPP) || (UFP_MODE_DISC_ENABLE)) */
 301:..\src\app\alt_mode/alt_modes_mngr.c **** 
 302:..\src\app\alt_mode/alt_modes_mngr.c **** static vdm_task_t run_disc_mode(uint8_t port)
 303:..\src\app\alt_mode/alt_modes_mngr.c **** {
 304:..\src\app\alt_mode/alt_modes_mngr.c **** #if ((DFP_ALT_MODE_SUPP) || (UFP_MODE_DISC_ENABLE))
 305:..\src\app\alt_mode/alt_modes_mngr.c ****     uint16_t cur_svid;
 306:..\src\app\alt_mode/alt_modes_mngr.c **** 
ARM GAS  e:\temp\ccP12Hvn.s 			page 8


 307:..\src\app\alt_mode/alt_modes_mngr.c ****     /* Set cable sop flag not needed at start*/
 308:..\src\app\alt_mode/alt_modes_mngr.c ****     alt_mode[port].reg_info.cbl_sop_flag = SOP_INVALID;
 309:..\src\app\alt_mode/alt_modes_mngr.c **** 
 310:..\src\app\alt_mode/alt_modes_mngr.c ****     /* Search for next SVID until svid array is not empty */
 311:..\src\app\alt_mode/alt_modes_mngr.c ****     while ((cur_svid = alt_mode[port].reg_info.atch_tgt_info->tgt_svid[alt_mode[port].svid_idx]) !=
 312:..\src\app\alt_mode/alt_modes_mngr.c ****     {
 313:..\src\app\alt_mode/alt_modes_mngr.c **** #if ((CCG_PD_REV3_ENABLE) && (UFP_ALT_MODE_SUPP) && (UFP_MODE_DISC_ENABLE))
 314:..\src\app\alt_mode/alt_modes_mngr.c ****         /* Check is current port date role UFP */
 315:..\src\app\alt_mode/alt_modes_mngr.c ****         if (alt_mode[port].pd3_ufp)
 316:..\src\app\alt_mode/alt_modes_mngr.c ****         {
 317:..\src\app\alt_mode/alt_modes_mngr.c ****             /* Send Disc Mode cmd */
 318:..\src\app\alt_mode/alt_modes_mngr.c ****             set_disc_mode_params (port, SOP);
 319:..\src\app\alt_mode/alt_modes_mngr.c ****             return VDM_TASK_SEND_MSG;
 320:..\src\app\alt_mode/alt_modes_mngr.c ****         }
 321:..\src\app\alt_mode/alt_modes_mngr.c **** #endif /* (CCG_PD_REV3_ENABLE) && (UFP_ALT_MODE_SUPP) && (UFP_MODE_DISC_ENABLE) */
 322:..\src\app\alt_mode/alt_modes_mngr.c **** 
 323:..\src\app\alt_mode/alt_modes_mngr.c **** #if DFP_ALT_MODE_SUPP
 324:..\src\app\alt_mode/alt_modes_mngr.c ****         if (is_svid_supported(cur_svid, port) != false)
 325:..\src\app\alt_mode/alt_modes_mngr.c ****         {
 326:..\src\app\alt_mode/alt_modes_mngr.c ****             /* Send notifications to the solution. */
 327:..\src\app\alt_mode/alt_modes_mngr.c ****             send_sln_event_nodata (port, cur_svid, 0, AM_EVT_SVID_SUPP);
 328:..\src\app\alt_mode/alt_modes_mngr.c **** 
 329:..\src\app\alt_mode/alt_modes_mngr.c ****             /* If SVID is supported send Disc Mode cmd */
 330:..\src\app\alt_mode/alt_modes_mngr.c ****             set_disc_mode_params (port, SOP);
 331:..\src\app\alt_mode/alt_modes_mngr.c ****             return VDM_TASK_SEND_MSG;
 332:..\src\app\alt_mode/alt_modes_mngr.c ****         }
 333:..\src\app\alt_mode/alt_modes_mngr.c **** 
 334:..\src\app\alt_mode/alt_modes_mngr.c **** #if (SAVE_SUPP_SVID_ONLY == 0)
 335:..\src\app\alt_mode/alt_modes_mngr.c ****         /* Send notifications to the solution. */
 336:..\src\app\alt_mode/alt_modes_mngr.c ****         send_sln_event_nodata (port, cur_svid, 0, AM_EVT_SVID_NOT_SUPP);
 337:..\src\app\alt_mode/alt_modes_mngr.c **** #endif /* SAVE_SUPP_SVID_ONLY */
 338:..\src\app\alt_mode/alt_modes_mngr.c **** 
 339:..\src\app\alt_mode/alt_modes_mngr.c ****         /* If svid not supported */
 340:..\src\app\alt_mode/alt_modes_mngr.c ****         alt_mode[port].svid_idx++;
 341:..\src\app\alt_mode/alt_modes_mngr.c **** #endif /* DFP_ALT_MODE_SUPP */
 342:..\src\app\alt_mode/alt_modes_mngr.c ****     }
 343:..\src\app\alt_mode/alt_modes_mngr.c **** 
 344:..\src\app\alt_mode/alt_modes_mngr.c ****     if (alt_mode[port].am_supported_modes == NONE_MODE_MASK)
 345:..\src\app\alt_mode/alt_modes_mngr.c ****     {
 346:..\src\app\alt_mode/alt_modes_mngr.c ****         /* No supp modes */
 347:..\src\app\alt_mode/alt_modes_mngr.c ****         return VDM_TASK_EXIT;
 348:..\src\app\alt_mode/alt_modes_mngr.c ****     }
 349:..\src\app\alt_mode/alt_modes_mngr.c **** 
 350:..\src\app\alt_mode/alt_modes_mngr.c ****     /* Send SVID discovery finished notification to the solution. */
 351:..\src\app\alt_mode/alt_modes_mngr.c ****     send_sln_event_nodata (port, 0, 0, AM_EVT_DISC_FINISHED);
 352:..\src\app\alt_mode/alt_modes_mngr.c **** 
 353:..\src\app\alt_mode/alt_modes_mngr.c **** #if DFP_ALT_MODE_SUPP
 354:..\src\app\alt_mode/alt_modes_mngr.c ****     /* Goto alt mode process */
 355:..\src\app\alt_mode/alt_modes_mngr.c ****     get_next_alt_mode(port);
 356:..\src\app\alt_mode/alt_modes_mngr.c **** #endif /* DFP_ALT_MODE_SUPP */
 357:..\src\app\alt_mode/alt_modes_mngr.c ****     alt_mode[port].state = ALT_MODE_MNGR_STATE_PROCESS;
 358:..\src\app\alt_mode/alt_modes_mngr.c **** #endif /* ((DFP_ALT_MODE_SUPP) || (UFP_MODE_DISC_ENABLE)) */
 359:..\src\app\alt_mode/alt_modes_mngr.c **** 
 360:..\src\app\alt_mode/alt_modes_mngr.c ****     return VDM_TASK_ALT_MODE;
 361:..\src\app\alt_mode/alt_modes_mngr.c **** }
 362:..\src\app\alt_mode/alt_modes_mngr.c **** 
 363:..\src\app\alt_mode/alt_modes_mngr.c **** #if ((DFP_ALT_MODE_SUPP) || (UFP_MODE_DISC_ENABLE))
ARM GAS  e:\temp\ccP12Hvn.s 			page 9


 364:..\src\app\alt_mode/alt_modes_mngr.c **** static void handle_cbl_disc_mode(uint8_t port, bool failed)
 365:..\src\app\alt_mode/alt_modes_mngr.c **** {
 366:..\src\app\alt_mode/alt_modes_mngr.c ****     uint8_t               tbl_svid_idx, tbl_alt_mode_idx, vdo_idx;
 367:..\src\app\alt_mode/alt_modes_mngr.c ****     alt_mode_info_t      *am_info_p;
 368:..\src\app\alt_mode/alt_modes_mngr.c ****     vdm_msg_info_t       *vdm_p = alt_mode[port].vdm_info;
 369:..\src\app\alt_mode/alt_modes_mngr.c ****     alt_mode_reg_info_t  *reg   = &(alt_mode[port].reg_info);
 370:..\src\app\alt_mode/alt_modes_mngr.c ****     /*
 371:..\src\app\alt_mode/alt_modes_mngr.c ****        Get index of function in alt_mode_config related to receive SVID.
 372:..\src\app\alt_mode/alt_modes_mngr.c ****        This is expected to be valid as we would already have gone through
 373:..\src\app\alt_mode/alt_modes_mngr.c ****        Discover MODE for the UFP.
 374:..\src\app\alt_mode/alt_modes_mngr.c ****      */
 375:..\src\app\alt_mode/alt_modes_mngr.c ****     tbl_svid_idx = get_alt_mode_svid_idx(port, vdm_p->VDM_HDR.svid);
 376:..\src\app\alt_mode/alt_modes_mngr.c ****     reg->atch_type = CABLE;
 377:..\src\app\alt_mode/alt_modes_mngr.c **** 
 378:..\src\app\alt_mode/alt_modes_mngr.c ****     /* Analyse all received VDOs. */
 379:..\src\app\alt_mode/alt_modes_mngr.c ****     for (vdo_idx = 0; ((failed) || (vdo_idx < vdm_p->vdo_numb)); vdo_idx++)
 380:..\src\app\alt_mode/alt_modes_mngr.c ****     {
 381:..\src\app\alt_mode/alt_modes_mngr.c ****         if (failed)
 382:..\src\app\alt_mode/alt_modes_mngr.c ****         {
 383:..\src\app\alt_mode/alt_modes_mngr.c ****             reg->cbl_sop_flag = SOP_INVALID;
 384:..\src\app\alt_mode/alt_modes_mngr.c ****         }
 385:..\src\app\alt_mode/alt_modes_mngr.c ****         else
 386:..\src\app\alt_mode/alt_modes_mngr.c ****         {
 387:..\src\app\alt_mode/alt_modes_mngr.c ****             /* Save current VDO and its position in svid structure */
 388:..\src\app\alt_mode/alt_modes_mngr.c ****             reg->svid_emca_vdo = vdm_p->vdo[vdo_idx];
 389:..\src\app\alt_mode/alt_modes_mngr.c ****         }
 390:..\src\app\alt_mode/alt_modes_mngr.c **** 
 391:..\src\app\alt_mode/alt_modes_mngr.c ****         /* Check if DFP support attached target alt mode */
 392:..\src\app\alt_mode/alt_modes_mngr.c ****         am_info_p = is_alt_mode_allowed[tbl_svid_idx] (port, reg);
 393:..\src\app\alt_mode/alt_modes_mngr.c ****         if (am_info_p == NULL)
 394:..\src\app\alt_mode/alt_modes_mngr.c ****         {
 395:..\src\app\alt_mode/alt_modes_mngr.c ****             /* Get index of alt mode in the compatibility table */
 396:..\src\app\alt_mode/alt_modes_mngr.c ****             tbl_alt_mode_idx = get_alt_mode_tbl_idx(port, vdm_p->VDM_HDR.svid, reg->alt_mode_id);
 397:..\src\app\alt_mode/alt_modes_mngr.c ****             if (tbl_alt_mode_idx != MODE_NOT_SUPPORTED)
 398:..\src\app\alt_mode/alt_modes_mngr.c ****             {
 399:..\src\app\alt_mode/alt_modes_mngr.c ****                 /* Remove pointer to alt mode info struct */
 400:..\src\app\alt_mode/alt_modes_mngr.c ****                 alt_mode[port].alt_mode_info[tbl_alt_mode_idx] = NULL;
 401:..\src\app\alt_mode/alt_modes_mngr.c ****                 /* Remove flag that alt mode could be runned */
 402:..\src\app\alt_mode/alt_modes_mngr.c ****                 REMOVE_FLAG(alt_mode[port].am_supported_modes, tbl_alt_mode_idx);
 403:..\src\app\alt_mode/alt_modes_mngr.c ****                 reg->cbl_sop_flag = SOP_INVALID;
 404:..\src\app\alt_mode/alt_modes_mngr.c ****             }
 405:..\src\app\alt_mode/alt_modes_mngr.c ****         }
 406:..\src\app\alt_mode/alt_modes_mngr.c ****         else
 407:..\src\app\alt_mode/alt_modes_mngr.c ****         {
 408:..\src\app\alt_mode/alt_modes_mngr.c ****             if (!failed)
 409:..\src\app\alt_mode/alt_modes_mngr.c ****                 am_info_p->cbl_obj_pos = (vdo_idx + VDO_START_IDX);
 410:..\src\app\alt_mode/alt_modes_mngr.c ****         }
 411:..\src\app\alt_mode/alt_modes_mngr.c **** 
 412:..\src\app\alt_mode/alt_modes_mngr.c ****         if (reg->app_evt != AM_NO_EVT)
 413:..\src\app\alt_mode/alt_modes_mngr.c ****         {
 414:..\src\app\alt_mode/alt_modes_mngr.c ****             /* Send notifications to the solution. */
 415:..\src\app\alt_mode/alt_modes_mngr.c ****             send_sln_app_evt (port, NO_DATA);
 416:..\src\app\alt_mode/alt_modes_mngr.c ****             reg->app_evt = AM_NO_EVT;
 417:..\src\app\alt_mode/alt_modes_mngr.c ****         }
 418:..\src\app\alt_mode/alt_modes_mngr.c **** 
 419:..\src\app\alt_mode/alt_modes_mngr.c ****         if (failed)
 420:..\src\app\alt_mode/alt_modes_mngr.c ****             break;
ARM GAS  e:\temp\ccP12Hvn.s 			page 10


 421:..\src\app\alt_mode/alt_modes_mngr.c ****     }
 422:..\src\app\alt_mode/alt_modes_mngr.c **** }
 423:..\src\app\alt_mode/alt_modes_mngr.c **** #endif /* ((DFP_ALT_MODE_SUPP) || (UFP_MODE_DISC_ENABLE)) */
 424:..\src\app\alt_mode/alt_modes_mngr.c **** 
 425:..\src\app\alt_mode/alt_modes_mngr.c **** static vdm_task_t eval_disc_mode(uint8_t port)
 426:..\src\app\alt_mode/alt_modes_mngr.c **** {
 427:..\src\app\alt_mode/alt_modes_mngr.c **** #if ((DFP_ALT_MODE_SUPP) || (UFP_MODE_DISC_ENABLE))
 428:..\src\app\alt_mode/alt_modes_mngr.c ****     uint8_t               vdo_idx, tbl_svid_idx, tbl_alt_mode_idx;
 429:..\src\app\alt_mode/alt_modes_mngr.c ****     alt_mode_info_t      *am_info_p;
 430:..\src\app\alt_mode/alt_modes_mngr.c ****     vdm_msg_info_t       *vdm_p = alt_mode[port].vdm_info;
 431:..\src\app\alt_mode/alt_modes_mngr.c ****     alt_mode_reg_info_t  *reg   = &(alt_mode[port].reg_info);
 432:..\src\app\alt_mode/alt_modes_mngr.c ****     
 433:..\src\app\alt_mode/alt_modes_mngr.c **** #if ((CCG_PD_REV3_ENABLE) && (UFP_ALT_MODE_SUPP) && (UFP_MODE_DISC_ENABLE))
 434:..\src\app\alt_mode/alt_modes_mngr.c ****     /* Check is current port date role UFP */
 435:..\src\app\alt_mode/alt_modes_mngr.c ****     if (alt_mode[port].pd3_ufp)
 436:..\src\app\alt_mode/alt_modes_mngr.c ****     {
 437:..\src\app\alt_mode/alt_modes_mngr.c ****         /* Goto next SVID */
 438:..\src\app\alt_mode/alt_modes_mngr.c ****         alt_mode[port].svid_idx++;
 439:..\src\app\alt_mode/alt_modes_mngr.c ****         return VDM_TASK_ALT_MODE;
 440:..\src\app\alt_mode/alt_modes_mngr.c ****     }
 441:..\src\app\alt_mode/alt_modes_mngr.c **** #endif /* (CCG_PD_REV3_ENABLE) && (UFP_ALT_MODE_SUPP) && (UFP_MODE_DISC_ENABLE) */
 442:..\src\app\alt_mode/alt_modes_mngr.c **** 
 443:..\src\app\alt_mode/alt_modes_mngr.c ****     /* Evaluate SOP response */
 444:..\src\app\alt_mode/alt_modes_mngr.c ****     if (vdm_p->sop_type == (uint8_t)SOP)
 445:..\src\app\alt_mode/alt_modes_mngr.c ****     {
 446:..\src\app\alt_mode/alt_modes_mngr.c ****         /* Get index of function in alt_mode_config related to receive SVID */
 447:..\src\app\alt_mode/alt_modes_mngr.c ****         tbl_svid_idx = get_alt_mode_svid_idx(port, vdm_p->VDM_HDR.svid);
 448:..\src\app\alt_mode/alt_modes_mngr.c ****         /* Additional check if we support current SVID operations */
 449:..\src\app\alt_mode/alt_modes_mngr.c ****         if (tbl_svid_idx != MODE_NOT_SUPPORTED)
 450:..\src\app\alt_mode/alt_modes_mngr.c ****         {
 451:..\src\app\alt_mode/alt_modes_mngr.c ****             reg->atch_type = ATCH_TGT;
 452:..\src\app\alt_mode/alt_modes_mngr.c ****             /* Analyse all rec VDOs */
 453:..\src\app\alt_mode/alt_modes_mngr.c ****             for (vdo_idx = 0; vdo_idx < vdm_p->vdo_numb; vdo_idx++)
 454:..\src\app\alt_mode/alt_modes_mngr.c ****             {
 455:..\src\app\alt_mode/alt_modes_mngr.c ****                 /* Save current VDO and its position in svid structure */
 456:..\src\app\alt_mode/alt_modes_mngr.c ****                 reg->svid_vdo = vdm_p->vdo[vdo_idx];
 457:..\src\app\alt_mode/alt_modes_mngr.c ****                 /* Check if DFP support attached target alt mode */
 458:..\src\app\alt_mode/alt_modes_mngr.c ****                 am_info_p = is_alt_mode_allowed[tbl_svid_idx](port, reg);
 459:..\src\app\alt_mode/alt_modes_mngr.c ****                 /* If VDO relates to any of supported alt modes */
 460:..\src\app\alt_mode/alt_modes_mngr.c ****                 if (reg->alt_mode_id != MODE_NOT_SUPPORTED)
 461:..\src\app\alt_mode/alt_modes_mngr.c ****                 {
 462:..\src\app\alt_mode/alt_modes_mngr.c ****                     if (reg->app_evt != AM_NO_EVT)
 463:..\src\app\alt_mode/alt_modes_mngr.c ****                     {
 464:..\src\app\alt_mode/alt_modes_mngr.c ****                         /* Send notifications to the solution. */
 465:..\src\app\alt_mode/alt_modes_mngr.c ****                         send_sln_app_evt(port, NO_DATA);
 466:..\src\app\alt_mode/alt_modes_mngr.c ****                         reg->app_evt = AM_NO_EVT;
 467:..\src\app\alt_mode/alt_modes_mngr.c ****                     }
 468:..\src\app\alt_mode/alt_modes_mngr.c ****                     /* If alternate modes discovered and could be runned */
 469:..\src\app\alt_mode/alt_modes_mngr.c ****                     if (am_info_p != NULL)
 470:..\src\app\alt_mode/alt_modes_mngr.c ****                     {
 471:..\src\app\alt_mode/alt_modes_mngr.c ****                         /* Save alt mode ID and object position */
 472:..\src\app\alt_mode/alt_modes_mngr.c ****                         am_info_p->alt_mode_id = reg->alt_mode_id;
 473:..\src\app\alt_mode/alt_modes_mngr.c ****                         am_info_p->obj_pos     = (vdo_idx + VDO_START_IDX);
 474:..\src\app\alt_mode/alt_modes_mngr.c ****                         if (am_info_p->app_evt_needed != false)
 475:..\src\app\alt_mode/alt_modes_mngr.c ****                         {
 476:..\src\app\alt_mode/alt_modes_mngr.c ****                             /* Send notifications to the solution. */
 477:..\src\app\alt_mode/alt_modes_mngr.c ****                             send_sln_app_evt (port, am_info_p->app_evt_data.val);
ARM GAS  e:\temp\ccP12Hvn.s 			page 11


 478:..\src\app\alt_mode/alt_modes_mngr.c ****                             am_info_p->app_evt_needed = false;
 479:..\src\app\alt_mode/alt_modes_mngr.c ****                         }
 480:..\src\app\alt_mode/alt_modes_mngr.c ****                         /* Get index of alt mode in the compatibility table */
 481:..\src\app\alt_mode/alt_modes_mngr.c ****                         tbl_alt_mode_idx = get_alt_mode_tbl_idx(port, vdm_p->VDM_HDR.svid,
 482:..\src\app\alt_mode/alt_modes_mngr.c ****                                 reg->alt_mode_id);
 483:..\src\app\alt_mode/alt_modes_mngr.c ****                         if (tbl_alt_mode_idx != MODE_NOT_SUPPORTED)
 484:..\src\app\alt_mode/alt_modes_mngr.c ****                         {
 485:..\src\app\alt_mode/alt_modes_mngr.c ****                             /* Save pointer to alt mode info struct */
 486:..\src\app\alt_mode/alt_modes_mngr.c ****                             alt_mode[port].alt_mode_info[tbl_alt_mode_idx] = am_info_p;
 487:..\src\app\alt_mode/alt_modes_mngr.c ****                             /* Set flag that alt mode could be runned */
 488:..\src\app\alt_mode/alt_modes_mngr.c ****                             SET_FLAG(alt_mode[port].am_supported_modes, tbl_alt_mode_idx);
 489:..\src\app\alt_mode/alt_modes_mngr.c ****                         }
 490:..\src\app\alt_mode/alt_modes_mngr.c ****                     }
 491:..\src\app\alt_mode/alt_modes_mngr.c ****                 }
 492:..\src\app\alt_mode/alt_modes_mngr.c ****             }
 493:..\src\app\alt_mode/alt_modes_mngr.c **** 
 494:..\src\app\alt_mode/alt_modes_mngr.c ****             /* If cable DISC Mode is needed - send VDM */
 495:..\src\app\alt_mode/alt_modes_mngr.c ****             if (reg->cbl_sop_flag != SOP_INVALID)
 496:..\src\app\alt_mode/alt_modes_mngr.c ****             {
 497:..\src\app\alt_mode/alt_modes_mngr.c ****                 set_disc_mode_params (port, SOP_PRIME);
 498:..\src\app\alt_mode/alt_modes_mngr.c ****                 return VDM_TASK_SEND_MSG;
 499:..\src\app\alt_mode/alt_modes_mngr.c ****             }
 500:..\src\app\alt_mode/alt_modes_mngr.c ****         }
 501:..\src\app\alt_mode/alt_modes_mngr.c ****     }
 502:..\src\app\alt_mode/alt_modes_mngr.c ****     /* Evaluate cable response: Packet type will be SOP' or SOP'' here. */
 503:..\src\app\alt_mode/alt_modes_mngr.c ****     else
 504:..\src\app\alt_mode/alt_modes_mngr.c ****     {
 505:..\src\app\alt_mode/alt_modes_mngr.c ****         handle_cbl_disc_mode(port, false);
 506:..\src\app\alt_mode/alt_modes_mngr.c **** 
 507:..\src\app\alt_mode/alt_modes_mngr.c ****         /* If cable DISC Mode is needed - send VDM */
 508:..\src\app\alt_mode/alt_modes_mngr.c ****         if (reg->cbl_sop_flag != SOP_INVALID)
 509:..\src\app\alt_mode/alt_modes_mngr.c ****         {
 510:..\src\app\alt_mode/alt_modes_mngr.c ****             set_disc_mode_params (port, SOP_DPRIME);
 511:..\src\app\alt_mode/alt_modes_mngr.c ****             return VDM_TASK_SEND_MSG;
 512:..\src\app\alt_mode/alt_modes_mngr.c ****         }
 513:..\src\app\alt_mode/alt_modes_mngr.c ****     }
 514:..\src\app\alt_mode/alt_modes_mngr.c **** 
 515:..\src\app\alt_mode/alt_modes_mngr.c ****     /* If no any result goto next SVID */
 516:..\src\app\alt_mode/alt_modes_mngr.c ****     alt_mode[port].svid_idx++;
 517:..\src\app\alt_mode/alt_modes_mngr.c **** 
 518:..\src\app\alt_mode/alt_modes_mngr.c **** #endif /* ((DFP_ALT_MODE_SUPP) || (UFP_MODE_DISC_ENABLE)) */
 519:..\src\app\alt_mode/alt_modes_mngr.c ****     return VDM_TASK_ALT_MODE;
 520:..\src\app\alt_mode/alt_modes_mngr.c **** }
 521:..\src\app\alt_mode/alt_modes_mngr.c **** 
 522:..\src\app\alt_mode/alt_modes_mngr.c **** static vdm_task_t disc_mode_fail(uint8_t port)
 523:..\src\app\alt_mode/alt_modes_mngr.c **** {
 524:..\src\app\alt_mode/alt_modes_mngr.c **** #if ((DFP_ALT_MODE_SUPP) || (UFP_MODE_DISC_ENABLE))
 525:..\src\app\alt_mode/alt_modes_mngr.c **** #if ((CCG_PD_REV3_ENABLE) && (UFP_ALT_MODE_SUPP) && (UFP_MODE_DISC_ENABLE))
 526:..\src\app\alt_mode/alt_modes_mngr.c ****     /* Check is current port date role UFP */
 527:..\src\app\alt_mode/alt_modes_mngr.c ****     if (alt_mode[port].pd3_ufp)
 528:..\src\app\alt_mode/alt_modes_mngr.c ****     {
 529:..\src\app\alt_mode/alt_modes_mngr.c ****         /* Goto next SVID */
 530:..\src\app\alt_mode/alt_modes_mngr.c ****         alt_mode[port].svid_idx++;
 531:..\src\app\alt_mode/alt_modes_mngr.c ****         return VDM_TASK_ALT_MODE;
 532:..\src\app\alt_mode/alt_modes_mngr.c ****     }
 533:..\src\app\alt_mode/alt_modes_mngr.c **** #endif /* (CCG_PD_REV3_ENABLE) && (UFP_ALT_MODE_SUPP) && (UFP_MODE_DISC_ENABLE) */
 534:..\src\app\alt_mode/alt_modes_mngr.c **** 
ARM GAS  e:\temp\ccP12Hvn.s 			page 12


 535:..\src\app\alt_mode/alt_modes_mngr.c ****     if (alt_mode[port].vdm_info->sop_type == (uint8_t)SOP_PRIME)
 536:..\src\app\alt_mode/alt_modes_mngr.c ****     {
 537:..\src\app\alt_mode/alt_modes_mngr.c ****         handle_cbl_disc_mode(port, true);
 538:..\src\app\alt_mode/alt_modes_mngr.c ****     }
 539:..\src\app\alt_mode/alt_modes_mngr.c ****     /* If Disc Mode cmd fails goto next SVID */
 540:..\src\app\alt_mode/alt_modes_mngr.c ****     alt_mode[port].svid_idx++;
 541:..\src\app\alt_mode/alt_modes_mngr.c **** #endif /* ((DFP_ALT_MODE_SUPP) || (UFP_MODE_DISC_ENABLE)) */
 542:..\src\app\alt_mode/alt_modes_mngr.c **** 
 543:..\src\app\alt_mode/alt_modes_mngr.c ****     return VDM_TASK_ALT_MODE;
 544:..\src\app\alt_mode/alt_modes_mngr.c **** }
 545:..\src\app\alt_mode/alt_modes_mngr.c **** 
 546:..\src\app\alt_mode/alt_modes_mngr.c **** static vdm_task_t monitor_alt_modes(uint8_t port)
 547:..\src\app\alt_mode/alt_modes_mngr.c **** {
 548:..\src\app\alt_mode/alt_modes_mngr.c ****     uint8_t          alt_mode_idx;
 549:..\src\app\alt_mode/alt_modes_mngr.c ****     alt_mode_state_t alt_mode_state;
 550:..\src\app\alt_mode/alt_modes_mngr.c ****     vdm_task_t       stat = VDM_TASK_ALT_MODE;
 551:..\src\app\alt_mode/alt_modes_mngr.c ****     sop_t            sop_state;
 552:..\src\app\alt_mode/alt_modes_mngr.c ****     alt_mode_info_t  *am_info_p  = NULL;
 553:..\src\app\alt_mode/alt_modes_mngr.c **** 
 554:..\src\app\alt_mode/alt_modes_mngr.c ****     /* Look through all alt modes  */
 555:..\src\app\alt_mode/alt_modes_mngr.c ****     for (alt_mode_idx = 0; alt_mode_idx < alt_mode[port].alt_modes_numb; alt_mode_idx++)
 556:..\src\app\alt_mode/alt_modes_mngr.c ****     {
 557:..\src\app\alt_mode/alt_modes_mngr.c ****         /* If mode is active */
 558:..\src\app\alt_mode/alt_modes_mngr.c ****         if (IS_FLAG_CHECKED(alt_mode[port].am_active_modes, alt_mode_idx))
 559:..\src\app\alt_mode/alt_modes_mngr.c ****         {
 560:..\src\app\alt_mode/alt_modes_mngr.c ****             am_info_p = get_mode_info(port, alt_mode_idx);
 561:..\src\app\alt_mode/alt_modes_mngr.c ****             /* Get alt mode state */
 562:..\src\app\alt_mode/alt_modes_mngr.c ****             alt_mode_state = am_info_p->mode_state;
 563:..\src\app\alt_mode/alt_modes_mngr.c ****             switch (alt_mode_state)
 564:..\src\app\alt_mode/alt_modes_mngr.c ****             {
 565:..\src\app\alt_mode/alt_modes_mngr.c ****             case ALT_MODE_STATE_SEND:
 566:..\src\app\alt_mode/alt_modes_mngr.c ****                 /* This case activates when VDM sequence for given alt mode */
 567:..\src\app\alt_mode/alt_modes_mngr.c ****                 /* was interrupted by alt mode with higher priority */
 568:..\src\app\alt_mode/alt_modes_mngr.c ****             case ALT_MODE_STATE_WAIT_FOR_RESP:
 569:..\src\app\alt_mode/alt_modes_mngr.c ****                 /* Check if Trigger mask is set */
 570:..\src\app\alt_mode/alt_modes_mngr.c ****                 if (am_info_p->VDM_HDR.cmd == VDM_CMD_ENTER_MODE)
 571:..\src\app\alt_mode/alt_modes_mngr.c ****                 {
 572:..\src\app\alt_mode/alt_modes_mngr.c ****                     if (app_get_status(port)->alt_mode_trig_mask & (1 << alt_mode_idx))
 573:..\src\app\alt_mode/alt_modes_mngr.c ****                     {
 574:..\src\app\alt_mode/alt_modes_mngr.c ****                         /* 
 575:..\src\app\alt_mode/alt_modes_mngr.c ****                          * If enter EC trigger for alt mode is set then wait 
 576:..\src\app\alt_mode/alt_modes_mngr.c ****                          * for the EC alt mode Enter command 
 577:..\src\app\alt_mode/alt_modes_mngr.c ****                          */
 578:..\src\app\alt_mode/alt_modes_mngr.c ****                         continue;
 579:..\src\app\alt_mode/alt_modes_mngr.c ****                     }
 580:..\src\app\alt_mode/alt_modes_mngr.c ****                 }
 581:..\src\app\alt_mode/alt_modes_mngr.c **** 
 582:..\src\app\alt_mode/alt_modes_mngr.c ****                 /* Check if SOP' is needed */
 583:..\src\app\alt_mode/alt_modes_mngr.c ****                 if (am_info_p->sop_state[SOP_PRIME] == ALT_MODE_STATE_SEND)
 584:..\src\app\alt_mode/alt_modes_mngr.c ****                 {
 585:..\src\app\alt_mode/alt_modes_mngr.c ****                     sop_state = SOP_PRIME;
 586:..\src\app\alt_mode/alt_modes_mngr.c ****                 }
 587:..\src\app\alt_mode/alt_modes_mngr.c ****                 else if (am_info_p->sop_state[SOP_DPRIME] == ALT_MODE_STATE_SEND)
 588:..\src\app\alt_mode/alt_modes_mngr.c ****                 {
 589:..\src\app\alt_mode/alt_modes_mngr.c ****                     sop_state = SOP_DPRIME;
 590:..\src\app\alt_mode/alt_modes_mngr.c ****                 }
 591:..\src\app\alt_mode/alt_modes_mngr.c ****                 else
ARM GAS  e:\temp\ccP12Hvn.s 			page 13


 592:..\src\app\alt_mode/alt_modes_mngr.c ****                 {
 593:..\src\app\alt_mode/alt_modes_mngr.c ****                     sop_state = SOP;
 594:..\src\app\alt_mode/alt_modes_mngr.c ****                 }
 595:..\src\app\alt_mode/alt_modes_mngr.c **** 
 596:..\src\app\alt_mode/alt_modes_mngr.c ****                 /* Check if MUX should and could be set*/
 597:..\src\app\alt_mode/alt_modes_mngr.c ****                 if (
 598:..\src\app\alt_mode/alt_modes_mngr.c ****                         ((am_info_p->VDM_HDR.cmd == VDM_CMD_ENTER_MODE) ||
 599:..\src\app\alt_mode/alt_modes_mngr.c ****                          (am_info_p->VDM_HDR.cmd == VDM_CMD_EXIT_MODE)) &&
 600:..\src\app\alt_mode/alt_modes_mngr.c ****                         (am_info_p->set_mux_isolate != false)          &&
 601:..\src\app\alt_mode/alt_modes_mngr.c ****                         ((alt_mode[port].am_active_modes & (~(1 << alt_mode_idx))) == false)
 602:..\src\app\alt_mode/alt_modes_mngr.c ****                    )
 603:..\src\app\alt_mode/alt_modes_mngr.c ****                 {
 604:..\src\app\alt_mode/alt_modes_mngr.c ****                     set_mux(port, MUX_CONFIG_ISOLATE, NO_DATA);
 605:..\src\app\alt_mode/alt_modes_mngr.c ****                 }
 606:..\src\app\alt_mode/alt_modes_mngr.c **** 
 607:..\src\app\alt_mode/alt_modes_mngr.c ****                 if ((am_info_p->is_active) || (am_info_p->VDM_HDR.cmd == VDM_CMD_ENTER_MODE))
 608:..\src\app\alt_mode/alt_modes_mngr.c ****                 {
 609:..\src\app\alt_mode/alt_modes_mngr.c ****                     /* Copy to vdm info and send vdm */
 610:..\src\app\alt_mode/alt_modes_mngr.c ****                     move_to_vdm_info(port, am_info_p, sop_state);
 611:..\src\app\alt_mode/alt_modes_mngr.c ****                     am_info_p->mode_state = ALT_MODE_STATE_WAIT_FOR_RESP;
 612:..\src\app\alt_mode/alt_modes_mngr.c ****                 }
 613:..\src\app\alt_mode/alt_modes_mngr.c **** 
 614:..\src\app\alt_mode/alt_modes_mngr.c ****                 return VDM_TASK_SEND_MSG;
 615:..\src\app\alt_mode/alt_modes_mngr.c **** 
 616:..\src\app\alt_mode/alt_modes_mngr.c ****             case ALT_MODE_STATE_EXIT:
 617:..\src\app\alt_mode/alt_modes_mngr.c **** #if DFP_ALT_MODE_SUPP
 618:..\src\app\alt_mode/alt_modes_mngr.c ****                 if (gl_dpm_port_type[port] != PRT_TYPE_UFP)
 619:..\src\app\alt_mode/alt_modes_mngr.c ****                 {
 620:..\src\app\alt_mode/alt_modes_mngr.c ****                     /* Remove flag from active mode */
 621:..\src\app\alt_mode/alt_modes_mngr.c ****                     REMOVE_FLAG(alt_mode[port].am_active_modes, alt_mode_idx);
 622:..\src\app\alt_mode/alt_modes_mngr.c ****                     /* Set alt mode as disabled */
 623:..\src\app\alt_mode/alt_modes_mngr.c ****                     am_info_p->mode_state = ALT_MODE_STATE_DISABLE;
 624:..\src\app\alt_mode/alt_modes_mngr.c ****                     /* Set flag as exited mode */
 625:..\src\app\alt_mode/alt_modes_mngr.c ****                     SET_FLAG(alt_mode[port].am_exited_modes, alt_mode_idx);
 626:..\src\app\alt_mode/alt_modes_mngr.c **** 
 627:..\src\app\alt_mode/alt_modes_mngr.c ****                     /* If any active modes are present */
 628:..\src\app\alt_mode/alt_modes_mngr.c ****                     if (alt_mode[port].am_active_modes == NONE_MODE_MASK)
 629:..\src\app\alt_mode/alt_modes_mngr.c ****                     {
 630:..\src\app\alt_mode/alt_modes_mngr.c ****                         /* Notify APP layer that ALT mode has been exited. */
 631:..\src\app\alt_mode/alt_modes_mngr.c ****                         app_get_status(port)->alt_mode_entered = false;
 632:..\src\app\alt_mode/alt_modes_mngr.c ****                         /* Set MUX to SS config */
 633:..\src\app\alt_mode/alt_modes_mngr.c ****                         set_mux(port, MUX_CONFIG_SS_ONLY, NO_DATA);
 634:..\src\app\alt_mode/alt_modes_mngr.c ****                         /* Get next alt mode if avaliable */
 635:..\src\app\alt_mode/alt_modes_mngr.c ****                         get_next_alt_mode(port);
 636:..\src\app\alt_mode/alt_modes_mngr.c ****                     }
 637:..\src\app\alt_mode/alt_modes_mngr.c ****                 }
 638:..\src\app\alt_mode/alt_modes_mngr.c **** #endif /* DFP_ALT_MODE_SUPP */
 639:..\src\app\alt_mode/alt_modes_mngr.c **** 
 640:..\src\app\alt_mode/alt_modes_mngr.c **** #if UFP_ALT_MODE_SUPP
 641:..\src\app\alt_mode/alt_modes_mngr.c ****                 if (gl_dpm_port_type[port] == PRT_TYPE_UFP)
 642:..\src\app\alt_mode/alt_modes_mngr.c ****                 {
 643:..\src\app\alt_mode/alt_modes_mngr.c ****                     if (alt_mode[port].am_active_modes != NONE_MODE_MASK)
 644:..\src\app\alt_mode/alt_modes_mngr.c ****                     {
 645:..\src\app\alt_mode/alt_modes_mngr.c ****                         /* Notify APP layer that ALT mode has been exited. */
 646:..\src\app\alt_mode/alt_modes_mngr.c ****                         app_get_status(port)->alt_mode_entered = false;
 647:..\src\app\alt_mode/alt_modes_mngr.c ****                     }
 648:..\src\app\alt_mode/alt_modes_mngr.c **** 
ARM GAS  e:\temp\ccP12Hvn.s 			page 14


 649:..\src\app\alt_mode/alt_modes_mngr.c ****                     /* Send notifications to the solution if alt mode was entered. */
 650:..\src\app\alt_mode/alt_modes_mngr.c ****                     sln_pd_event_handler (port, APP_EVT_ALT_MODE,
 651:..\src\app\alt_mode/alt_modes_mngr.c ****                             form_alt_mode_event (port,
 652:..\src\app\alt_mode/alt_modes_mngr.c ****                                 am_info_p->VDM_HDR.svid,
 653:..\src\app\alt_mode/alt_modes_mngr.c ****                                 am_info_p->alt_mode_id,
 654:..\src\app\alt_mode/alt_modes_mngr.c ****                                 AM_EVT_ALT_MODE_EXITED, NO_DATA));
 655:..\src\app\alt_mode/alt_modes_mngr.c **** 
 656:..\src\app\alt_mode/alt_modes_mngr.c ****                     /* Set alt mode not active */
 657:..\src\app\alt_mode/alt_modes_mngr.c ****                     am_info_p->is_active = false;
 658:..\src\app\alt_mode/alt_modes_mngr.c ****                     /* Remove flag that alt mode could be processed */
 659:..\src\app\alt_mode/alt_modes_mngr.c ****                     REMOVE_FLAG(alt_mode[port].am_active_modes, alt_mode_idx);
 660:..\src\app\alt_mode/alt_modes_mngr.c ****                 }
 661:..\src\app\alt_mode/alt_modes_mngr.c **** #endif /* UFP_ALT_MODE_SUPP   */
 662:..\src\app\alt_mode/alt_modes_mngr.c ****                 break;
 663:..\src\app\alt_mode/alt_modes_mngr.c **** 
 664:..\src\app\alt_mode/alt_modes_mngr.c ****             case ALT_MODE_STATE_IDLE:
 665:..\src\app\alt_mode/alt_modes_mngr.c ****                 /* If alt modes need to send app event data */
 666:..\src\app\alt_mode/alt_modes_mngr.c ****                 if (am_info_p->app_evt_needed != false)
 667:..\src\app\alt_mode/alt_modes_mngr.c ****                 {
 668:..\src\app\alt_mode/alt_modes_mngr.c ****                     /* Send notifications to the solution. */
 669:..\src\app\alt_mode/alt_modes_mngr.c ****                     sln_pd_event_handler (port, APP_EVT_ALT_MODE,
 670:..\src\app\alt_mode/alt_modes_mngr.c ****                             form_alt_mode_event (port,
 671:..\src\app\alt_mode/alt_modes_mngr.c ****                                 am_info_p->VDM_HDR.svid,
 672:..\src\app\alt_mode/alt_modes_mngr.c ****                                 am_info_p->alt_mode_id,
 673:..\src\app\alt_mode/alt_modes_mngr.c ****                                 AM_EVT_DATA_EVT, 
 674:..\src\app\alt_mode/alt_modes_mngr.c ****                                 am_info_p->app_evt_data.val));
 675:..\src\app\alt_mode/alt_modes_mngr.c ****                     am_info_p->app_evt_needed = false;
 676:..\src\app\alt_mode/alt_modes_mngr.c ****                 }
 677:..\src\app\alt_mode/alt_modes_mngr.c ****                 break;
 678:..\src\app\alt_mode/alt_modes_mngr.c **** 
 679:..\src\app\alt_mode/alt_modes_mngr.c ****             case ALT_MODE_STATE_RUN:
 680:..\src\app\alt_mode/alt_modes_mngr.c ****                 /* Run ufp evaluation function */
 681:..\src\app\alt_mode/alt_modes_mngr.c ****                 am_info_p->cbk(port);
 682:..\src\app\alt_mode/alt_modes_mngr.c ****                 break;
 683:..\src\app\alt_mode/alt_modes_mngr.c **** 
 684:..\src\app\alt_mode/alt_modes_mngr.c ****             default:
 685:..\src\app\alt_mode/alt_modes_mngr.c ****                 break;
 686:..\src\app\alt_mode/alt_modes_mngr.c **** 
 687:..\src\app\alt_mode/alt_modes_mngr.c ****             }    
 688:..\src\app\alt_mode/alt_modes_mngr.c ****         }
 689:..\src\app\alt_mode/alt_modes_mngr.c ****     }
 690:..\src\app\alt_mode/alt_modes_mngr.c **** 
 691:..\src\app\alt_mode/alt_modes_mngr.c ****     return stat;
 692:..\src\app\alt_mode/alt_modes_mngr.c **** }
 693:..\src\app\alt_mode/alt_modes_mngr.c **** 
 694:..\src\app\alt_mode/alt_modes_mngr.c **** static vdm_task_t eval_alt_modes(uint8_t port)
 695:..\src\app\alt_mode/alt_modes_mngr.c **** {
 696:..\src\app\alt_mode/alt_modes_mngr.c ****     uint8_t            alt_mode_idx;
 697:..\src\app\alt_mode/alt_modes_mngr.c ****     alt_mode_state_t   alt_mode_state;
 698:..\src\app\alt_mode/alt_modes_mngr.c ****     vdm_task_t         stat = VDM_TASK_ALT_MODE;
 699:..\src\app\alt_mode/alt_modes_mngr.c ****     alt_mode_app_evt_t appevt_type = AM_NO_EVT;
 700:..\src\app\alt_mode/alt_modes_mngr.c ****     alt_mode_info_t    *am_info_p  = NULL;
 701:..\src\app\alt_mode/alt_modes_mngr.c ****     uint32_t           appevt_data = NO_DATA;
 702:..\src\app\alt_mode/alt_modes_mngr.c ****     vdm_msg_info_t     *vdm_p = alt_mode[port].vdm_info;
 703:..\src\app\alt_mode/alt_modes_mngr.c ****     
 704:..\src\app\alt_mode/alt_modes_mngr.c ****     /* Look through all alt modes  */
 705:..\src\app\alt_mode/alt_modes_mngr.c ****     for (alt_mode_idx = 0; alt_mode_idx < alt_mode[port].alt_modes_numb; alt_mode_idx++)
ARM GAS  e:\temp\ccP12Hvn.s 			page 15


 706:..\src\app\alt_mode/alt_modes_mngr.c ****     {
 707:..\src\app\alt_mode/alt_modes_mngr.c ****         /* If mode is active */
 708:..\src\app\alt_mode/alt_modes_mngr.c ****         if (IS_FLAG_CHECKED(alt_mode[port].am_active_modes, alt_mode_idx))
 709:..\src\app\alt_mode/alt_modes_mngr.c ****         {
 710:..\src\app\alt_mode/alt_modes_mngr.c ****             am_info_p = get_mode_info(port, alt_mode_idx);
 711:..\src\app\alt_mode/alt_modes_mngr.c **** 
 712:..\src\app\alt_mode/alt_modes_mngr.c ****             /* If pointer to cbk is NULL then return */
 713:..\src\app\alt_mode/alt_modes_mngr.c ****             if (am_info_p->cbk == NULL) 
 714:..\src\app\alt_mode/alt_modes_mngr.c ****                 break;
 715:..\src\app\alt_mode/alt_modes_mngr.c **** 
 716:..\src\app\alt_mode/alt_modes_mngr.c ****             /* Get alt mode state */
 717:..\src\app\alt_mode/alt_modes_mngr.c ****             alt_mode_state = am_info_p->mode_state;
 718:..\src\app\alt_mode/alt_modes_mngr.c ****             switch (alt_mode_state)
 719:..\src\app\alt_mode/alt_modes_mngr.c ****             {
 720:..\src\app\alt_mode/alt_modes_mngr.c ****                 case ALT_MODE_STATE_WAIT_FOR_RESP:
 721:..\src\app\alt_mode/alt_modes_mngr.c ****                     /* Set flag that send transaction passed successful */
 722:..\src\app\alt_mode/alt_modes_mngr.c ****                     am_info_p->sop_state[vdm_p->sop_type] = ALT_MODE_STATE_IDLE;
 723:..\src\app\alt_mode/alt_modes_mngr.c ****                     /* Copy received resp to alt mode info struct */
 724:..\src\app\alt_mode/alt_modes_mngr.c ****                     get_vdm_info_vdo(port, am_info_p, vdm_p->sop_type);
 725:..\src\app\alt_mode/alt_modes_mngr.c ****                     /* If received VDM is SOP */
 726:..\src\app\alt_mode/alt_modes_mngr.c ****                     if (vdm_p->sop_type == SOP)
 727:..\src\app\alt_mode/alt_modes_mngr.c ****                     {
 728:..\src\app\alt_mode/alt_modes_mngr.c ****                         /* Run alt mode analisys function */
 729:..\src\app\alt_mode/alt_modes_mngr.c ****                         am_info_p->cbk(port);
 730:..\src\app\alt_mode/alt_modes_mngr.c ****                         /* If UVDM command then break */
 731:..\src\app\alt_mode/alt_modes_mngr.c ****                         if (vdm_p->VDM_HDR.vdm_type != VDM_TYPE_STRUCTURED)
 732:..\src\app\alt_mode/alt_modes_mngr.c ****                         {
 733:..\src\app\alt_mode/alt_modes_mngr.c ****                             break;
 734:..\src\app\alt_mode/alt_modes_mngr.c ****                         }
 735:..\src\app\alt_mode/alt_modes_mngr.c ****                         /* If alt mode entered */
 736:..\src\app\alt_mode/alt_modes_mngr.c ****                         if (vdm_p->VDM_HDR.cmd == VDM_CMD_ENTER_MODE)
 737:..\src\app\alt_mode/alt_modes_mngr.c ****                         {
 738:..\src\app\alt_mode/alt_modes_mngr.c ****                             /* Notify APP layer that ALT mode has been entered. */
 739:..\src\app\alt_mode/alt_modes_mngr.c ****                             app_get_status(port)->alt_mode_entered = true;
 740:..\src\app\alt_mode/alt_modes_mngr.c ****                             /* Set mode as active */
 741:..\src\app\alt_mode/alt_modes_mngr.c ****                             am_info_p->is_active = true;
 742:..\src\app\alt_mode/alt_modes_mngr.c ****                             /* Queue notifications to the solution. */
 743:..\src\app\alt_mode/alt_modes_mngr.c ****                             appevt_type = AM_EVT_ALT_MODE_ENTERED;
 744:..\src\app\alt_mode/alt_modes_mngr.c ****                         }
 745:..\src\app\alt_mode/alt_modes_mngr.c **** 
 746:..\src\app\alt_mode/alt_modes_mngr.c ****                         if (vdm_p->VDM_HDR.cmd == VDM_CMD_EXIT_MODE)
 747:..\src\app\alt_mode/alt_modes_mngr.c ****                         {
 748:..\src\app\alt_mode/alt_modes_mngr.c ****                             /* Set mode as not active */
 749:..\src\app\alt_mode/alt_modes_mngr.c ****                             am_info_p->is_active = false;
 750:..\src\app\alt_mode/alt_modes_mngr.c ****                             /* Queue notifications to the solution. */
 751:..\src\app\alt_mode/alt_modes_mngr.c ****                             appevt_type = AM_EVT_ALT_MODE_EXITED;
 752:..\src\app\alt_mode/alt_modes_mngr.c ****                         }
 753:..\src\app\alt_mode/alt_modes_mngr.c **** 
 754:..\src\app\alt_mode/alt_modes_mngr.c ****                         /* If alt modes need to send app event data */
 755:..\src\app\alt_mode/alt_modes_mngr.c ****                         if (am_info_p->app_evt_needed != false)
 756:..\src\app\alt_mode/alt_modes_mngr.c ****                         {
 757:..\src\app\alt_mode/alt_modes_mngr.c ****                             /* Queue notifications to the solution. */
 758:..\src\app\alt_mode/alt_modes_mngr.c ****                             appevt_type = AM_EVT_DATA_EVT;
 759:..\src\app\alt_mode/alt_modes_mngr.c ****                             appevt_data = am_info_p->app_evt_data.val;
 760:..\src\app\alt_mode/alt_modes_mngr.c ****                             am_info_p->app_evt_needed = false;
 761:..\src\app\alt_mode/alt_modes_mngr.c ****                         }
 762:..\src\app\alt_mode/alt_modes_mngr.c **** 
ARM GAS  e:\temp\ccP12Hvn.s 			page 16


 763:..\src\app\alt_mode/alt_modes_mngr.c ****                         /* Send event to solution space, if required. */
 764:..\src\app\alt_mode/alt_modes_mngr.c ****                         if (appevt_type != AM_NO_EVT)
 765:..\src\app\alt_mode/alt_modes_mngr.c ****                         {
 766:..\src\app\alt_mode/alt_modes_mngr.c ****                             sln_pd_event_handler (port, APP_EVT_ALT_MODE,
 767:..\src\app\alt_mode/alt_modes_mngr.c ****                                     form_alt_mode_event (port,
 768:..\src\app\alt_mode/alt_modes_mngr.c ****                                         am_info_p->VDM_HDR.svid,
 769:..\src\app\alt_mode/alt_modes_mngr.c ****                                             am_info_p->alt_mode_id,
 770:..\src\app\alt_mode/alt_modes_mngr.c ****                                                 appevt_type, appevt_data));
 771:..\src\app\alt_mode/alt_modes_mngr.c ****                         }
 772:..\src\app\alt_mode/alt_modes_mngr.c ****                     }
 773:..\src\app\alt_mode/alt_modes_mngr.c ****                     else
 774:..\src\app\alt_mode/alt_modes_mngr.c ****                     {
 775:..\src\app\alt_mode/alt_modes_mngr.c ****                         /* If received VDM is SOP' type, check if SOP'' is needed.
 776:..\src\app\alt_mode/alt_modes_mngr.c ****                            If received VDM is SOP'', the check on SOP_DPRIME will fail trivially. *
 777:..\src\app\alt_mode/alt_modes_mngr.c ****                         if (am_info_p->sop_state[SOP_DPRIME] == ALT_MODE_STATE_SEND)
 778:..\src\app\alt_mode/alt_modes_mngr.c ****                         {
 779:..\src\app\alt_mode/alt_modes_mngr.c ****                             /* If needed send SOP'' VDM */
 780:..\src\app\alt_mode/alt_modes_mngr.c ****                             move_to_vdm_info(port,am_info_p, SOP_DPRIME);
 781:..\src\app\alt_mode/alt_modes_mngr.c ****                             stat = VDM_TASK_SEND_MSG;
 782:..\src\app\alt_mode/alt_modes_mngr.c ****                         }
 783:..\src\app\alt_mode/alt_modes_mngr.c ****                         else if (am_info_p->sop_state[SOP] == ALT_MODE_STATE_SEND)
 784:..\src\app\alt_mode/alt_modes_mngr.c ****                         {
 785:..\src\app\alt_mode/alt_modes_mngr.c ****                             /* If SOP'' not needed - send SOP VDM */
 786:..\src\app\alt_mode/alt_modes_mngr.c ****                             move_to_vdm_info(port,am_info_p, SOP);
 787:..\src\app\alt_mode/alt_modes_mngr.c ****                             stat = VDM_TASK_SEND_MSG;
 788:..\src\app\alt_mode/alt_modes_mngr.c ****                         }
 789:..\src\app\alt_mode/alt_modes_mngr.c ****                         else
 790:..\src\app\alt_mode/alt_modes_mngr.c ****                         {
 791:..\src\app\alt_mode/alt_modes_mngr.c ****                             am_info_p->cbk(port);
 792:..\src\app\alt_mode/alt_modes_mngr.c ****                         }
 793:..\src\app\alt_mode/alt_modes_mngr.c ****                     }
 794:..\src\app\alt_mode/alt_modes_mngr.c ****                     break;
 795:..\src\app\alt_mode/alt_modes_mngr.c **** 
 796:..\src\app\alt_mode/alt_modes_mngr.c ****                 default:
 797:..\src\app\alt_mode/alt_modes_mngr.c ****                     break;
 798:..\src\app\alt_mode/alt_modes_mngr.c ****             }
 799:..\src\app\alt_mode/alt_modes_mngr.c ****         }
 800:..\src\app\alt_mode/alt_modes_mngr.c ****     }
 801:..\src\app\alt_mode/alt_modes_mngr.c **** 
 802:..\src\app\alt_mode/alt_modes_mngr.c ****     return stat;
 803:..\src\app\alt_mode/alt_modes_mngr.c **** }
 804:..\src\app\alt_mode/alt_modes_mngr.c **** 
 805:..\src\app\alt_mode/alt_modes_mngr.c **** static vdm_task_t fail_alt_modes(uint8_t port)
 806:..\src\app\alt_mode/alt_modes_mngr.c **** {
 807:..\src\app\alt_mode/alt_modes_mngr.c ****     uint8_t             alt_mode_idx;
 808:..\src\app\alt_mode/alt_modes_mngr.c ****     alt_mode_state_t    alt_mode_state;
 809:..\src\app\alt_mode/alt_modes_mngr.c ****     alt_mode_app_evt_t  appevt_type = AM_EVT_CBL_RESP_FAILED;
 810:..\src\app\alt_mode/alt_modes_mngr.c ****     alt_mode_info_t     *am_info_p = NULL;
 811:..\src\app\alt_mode/alt_modes_mngr.c ****     vdm_msg_info_t      *vdm_p = alt_mode[port].vdm_info;
 812:..\src\app\alt_mode/alt_modes_mngr.c ****     
 813:..\src\app\alt_mode/alt_modes_mngr.c ****     /* Look through all alt modes */
 814:..\src\app\alt_mode/alt_modes_mngr.c ****     for (alt_mode_idx = 0; alt_mode_idx < alt_mode[port].alt_modes_numb; alt_mode_idx++)
 815:..\src\app\alt_mode/alt_modes_mngr.c ****     {
 816:..\src\app\alt_mode/alt_modes_mngr.c ****         /* If mode is active */
 817:..\src\app\alt_mode/alt_modes_mngr.c ****         if (IS_FLAG_CHECKED(alt_mode[port].am_active_modes, alt_mode_idx))
 818:..\src\app\alt_mode/alt_modes_mngr.c ****         {
 819:..\src\app\alt_mode/alt_modes_mngr.c ****             am_info_p = get_mode_info(port, alt_mode_idx);
ARM GAS  e:\temp\ccP12Hvn.s 			page 17


 820:..\src\app\alt_mode/alt_modes_mngr.c ****             /* Get alt mode state */
 821:..\src\app\alt_mode/alt_modes_mngr.c ****             alt_mode_state = am_info_p->mode_state;
 822:..\src\app\alt_mode/alt_modes_mngr.c ****             /* If mode waits for response */
 823:..\src\app\alt_mode/alt_modes_mngr.c ****             if (alt_mode_state == ALT_MODE_STATE_WAIT_FOR_RESP)
 824:..\src\app\alt_mode/alt_modes_mngr.c ****             {
 825:..\src\app\alt_mode/alt_modes_mngr.c ****                 /* Change status to fail */
 826:..\src\app\alt_mode/alt_modes_mngr.c ****                 am_info_p->sop_state[vdm_p->sop_type] = ALT_MODE_STATE_FAIL;
 827:..\src\app\alt_mode/alt_modes_mngr.c ****                 /* Set Failure code at the object pos field */
 828:..\src\app\alt_mode/alt_modes_mngr.c ****                 am_info_p->VDM_HDR.obj_pos = vdm_p->VDM_HDR.obj_pos;
 829:..\src\app\alt_mode/alt_modes_mngr.c **** 
 830:..\src\app\alt_mode/alt_modes_mngr.c ****                 if (vdm_p->sop_type == SOP)
 831:..\src\app\alt_mode/alt_modes_mngr.c ****                 {
 832:..\src\app\alt_mode/alt_modes_mngr.c ****                     appevt_type = AM_EVT_SOP_RESP_FAILED;
 833:..\src\app\alt_mode/alt_modes_mngr.c ****                 }
 834:..\src\app\alt_mode/alt_modes_mngr.c **** 
 835:..\src\app\alt_mode/alt_modes_mngr.c ****                 /* Send notifications to the solution. */
 836:..\src\app\alt_mode/alt_modes_mngr.c ****                 sln_pd_event_handler (port, APP_EVT_ALT_MODE,
 837:..\src\app\alt_mode/alt_modes_mngr.c ****                         form_alt_mode_event (port,
 838:..\src\app\alt_mode/alt_modes_mngr.c ****                             am_info_p->VDM_HDR.svid,
 839:..\src\app\alt_mode/alt_modes_mngr.c ****                                 am_info_p->alt_mode_id, appevt_type, NO_DATA));
 840:..\src\app\alt_mode/alt_modes_mngr.c **** 
 841:..\src\app\alt_mode/alt_modes_mngr.c ****                 /* Run alt mode analisys function */
 842:..\src\app\alt_mode/alt_modes_mngr.c ****                 am_info_p->mode_state = ALT_MODE_STATE_FAIL;
 843:..\src\app\alt_mode/alt_modes_mngr.c ****                 if (am_info_p->cbk != NULL)
 844:..\src\app\alt_mode/alt_modes_mngr.c ****                 {
 845:..\src\app\alt_mode/alt_modes_mngr.c ****                     am_info_p->cbk(port);
 846:..\src\app\alt_mode/alt_modes_mngr.c ****                 }
 847:..\src\app\alt_mode/alt_modes_mngr.c ****             }
 848:..\src\app\alt_mode/alt_modes_mngr.c ****         }
 849:..\src\app\alt_mode/alt_modes_mngr.c ****     }
 850:..\src\app\alt_mode/alt_modes_mngr.c **** 
 851:..\src\app\alt_mode/alt_modes_mngr.c ****     return VDM_TASK_ALT_MODE;
 852:..\src\app\alt_mode/alt_modes_mngr.c **** }
 853:..\src\app\alt_mode/alt_modes_mngr.c **** 
 854:..\src\app\alt_mode/alt_modes_mngr.c **** #if DFP_ALT_MODE_SUPP
 855:..\src\app\alt_mode/alt_modes_mngr.c **** uint8_t is_svid_supported(uint16_t svid, uint8_t port)
 856:..\src\app\alt_mode/alt_modes_mngr.c **** {
 857:..\src\app\alt_mode/alt_modes_mngr.c ****     uint8_t idx, am_numb;
 858:..\src\app\alt_mode/alt_modes_mngr.c ****     const comp_tbl_t* tbl_addr = NULL;
 859:..\src\app\alt_mode/alt_modes_mngr.c ****     
 860:..\src\app\alt_mode/alt_modes_mngr.c ****     am_numb = get_alt_mode_numb(port);
 861:..\src\app\alt_mode/alt_modes_mngr.c **** 
 862:..\src\app\alt_mode/alt_modes_mngr.c ****     /* Look through all alt modes */
 863:..\src\app\alt_mode/alt_modes_mngr.c ****     for (idx = 0; idx < am_numb; idx++)
 864:..\src\app\alt_mode/alt_modes_mngr.c ****     {
 865:..\src\app\alt_mode/alt_modes_mngr.c **** #if ALT_MODE_DIFF_CONFIG        
 866:..\src\app\alt_mode/alt_modes_mngr.c ****         if (port == TYPEC_PORT_0_IDX)
 867:..\src\app\alt_mode/alt_modes_mngr.c **** #endif /* ALT_MODE_DIFF_CONFIG */            
 868:..\src\app\alt_mode/alt_modes_mngr.c ****         {
 869:..\src\app\alt_mode/alt_modes_mngr.c ****             tbl_addr = &dfp_compatibility_mode_table[idx][idx];
 870:..\src\app\alt_mode/alt_modes_mngr.c ****         }
 871:..\src\app\alt_mode/alt_modes_mngr.c **** #if ALT_MODE_DIFF_CONFIG
 872:..\src\app\alt_mode/alt_modes_mngr.c ****         else
 873:..\src\app\alt_mode/alt_modes_mngr.c ****         {
 874:..\src\app\alt_mode/alt_modes_mngr.c ****             tbl_addr = &dfp_compatibility_mode_table_p1[idx][idx];
 875:..\src\app\alt_mode/alt_modes_mngr.c ****         }
 876:..\src\app\alt_mode/alt_modes_mngr.c **** #endif /* ALT_MODE_DIFF_CONFIG */    
ARM GAS  e:\temp\ccP12Hvn.s 			page 18


 877:..\src\app\alt_mode/alt_modes_mngr.c ****         /* if alt mode with given index is supported by CCG */
 878:..\src\app\alt_mode/alt_modes_mngr.c ****         if (tbl_addr->svid == svid)
 879:..\src\app\alt_mode/alt_modes_mngr.c ****         {
 880:..\src\app\alt_mode/alt_modes_mngr.c ****             return true;
 881:..\src\app\alt_mode/alt_modes_mngr.c ****         }
 882:..\src\app\alt_mode/alt_modes_mngr.c ****     }
 883:..\src\app\alt_mode/alt_modes_mngr.c **** 
 884:..\src\app\alt_mode/alt_modes_mngr.c ****     return false;
 885:..\src\app\alt_mode/alt_modes_mngr.c **** }
 886:..\src\app\alt_mode/alt_modes_mngr.c **** 
 887:..\src\app\alt_mode/alt_modes_mngr.c **** static uint8_t get_next_alt_mode(uint8_t port)
 888:..\src\app\alt_mode/alt_modes_mngr.c **** {
  94              		.loc 1 888 0
  95              		.cfi_startproc
  96              		@ args = 0, pretend = 0, frame = 0
  97              		@ frame_needed = 0, uses_anonymous_args = 0
  98              	.LVL4:
  99 0000 70B5     		push	{r4, r5, r6, lr}
 100              		.cfi_def_cfa_offset 16
 101              		.cfi_offset 4, -16
 102              		.cfi_offset 5, -12
 103              		.cfi_offset 6, -8
 104              		.cfi_offset 14, -4
 889:..\src\app\alt_mode/alt_modes_mngr.c ****     uint32_t idx1, idx2;
 890:..\src\app\alt_mode/alt_modes_mngr.c ****     uint32_t am_numb    = alt_mode[port].alt_modes_numb;
 105              		.loc 1 890 0
 106 0002 7423     		movs	r3, #116
 107 0004 4343     		muls	r3, r0
 108 0006 164A     		ldr	r2, .L14
 109 0008 D318     		adds	r3, r2, r3
 110 000a 1A00     		movs	r2, r3
 111 000c 3032     		adds	r2, r2, #48
 112 000e 1478     		ldrb	r4, [r2]
 113              	.LVL5:
 891:..\src\app\alt_mode/alt_modes_mngr.c ****     uint32_t aval_modes = (alt_mode[port].am_supported_modes) & (~alt_mode[port].am_exited_modes);
 114              		.loc 1 891 0
 115 0010 5969     		ldr	r1, [r3, #20]
 116 0012 9A69     		ldr	r2, [r3, #24]
 117 0014 9143     		bics	r1, r2
 118              	.LVL6:
 892:..\src\app\alt_mode/alt_modes_mngr.c ****     const comp_tbl_t* tbl_addr = NULL;
 893:..\src\app\alt_mode/alt_modes_mngr.c ****     
 894:..\src\app\alt_mode/alt_modes_mngr.c ****     /* Set active modes bit map to zero */
 895:..\src\app\alt_mode/alt_modes_mngr.c ****     alt_mode[port].am_active_modes = NONE_MODE_MASK;
 119              		.loc 1 895 0
 120 0016 0022     		movs	r2, #0
 121 0018 DA61     		str	r2, [r3, #28]
 122              	.LVL7:
 896:..\src\app\alt_mode/alt_modes_mngr.c ****     /* Start looking for next supported alt modes */
 897:..\src\app\alt_mode/alt_modes_mngr.c ****     for (idx1 = 0; idx1 < am_numb; idx1++)
 123              		.loc 1 897 0
 124 001a 0023     		movs	r3, #0
 125 001c 1BE0     		b	.L5
 126              	.LVL8:
 127              	.L11:
 898:..\src\app\alt_mode/alt_modes_mngr.c ****     {
 899:..\src\app\alt_mode/alt_modes_mngr.c ****         /* If mode supported by CCG and not processed yet */
ARM GAS  e:\temp\ccP12Hvn.s 			page 19


 900:..\src\app\alt_mode/alt_modes_mngr.c ****         if (IS_FLAG_CHECKED((aval_modes), idx1))
 128              		.loc 1 900 0
 129 001e 0A00     		movs	r2, r1
 130 0020 DA40     		lsrs	r2, r2, r3
 131 0022 D207     		lsls	r2, r2, #31
 132 0024 16D5     		bpl	.L13
 133 0026 10E0     		b	.L12
 134              	.LVL9:
 135              	.L9:
 901:..\src\app\alt_mode/alt_modes_mngr.c ****         {
 902:..\src\app\alt_mode/alt_modes_mngr.c ****             /* Look for the alt modes which could be runned */
 903:..\src\app\alt_mode/alt_modes_mngr.c ****             for (idx2 = 0; idx2 < am_numb; idx2++)
 904:..\src\app\alt_mode/alt_modes_mngr.c ****             {
 905:..\src\app\alt_mode/alt_modes_mngr.c **** #if ALT_MODE_DIFF_CONFIG        
 906:..\src\app\alt_mode/alt_modes_mngr.c ****                 if (port == TYPEC_PORT_0_IDX)
 907:..\src\app\alt_mode/alt_modes_mngr.c **** #endif /* ALT_MODE_DIFF_CONFIG */    
 908:..\src\app\alt_mode/alt_modes_mngr.c ****                 {
 909:..\src\app\alt_mode/alt_modes_mngr.c ****                     tbl_addr = &dfp_compatibility_mode_table[idx1][idx2];
 910:..\src\app\alt_mode/alt_modes_mngr.c ****                 }
 911:..\src\app\alt_mode/alt_modes_mngr.c **** #if ALT_MODE_DIFF_CONFIG
 912:..\src\app\alt_mode/alt_modes_mngr.c ****                 else
 913:..\src\app\alt_mode/alt_modes_mngr.c ****                 {
 914:..\src\app\alt_mode/alt_modes_mngr.c ****                     tbl_addr = &dfp_compatibility_mode_table_p1[idx1][idx2];
 915:..\src\app\alt_mode/alt_modes_mngr.c ****                 }
 916:..\src\app\alt_mode/alt_modes_mngr.c **** #endif /* ALT_MODE_DIFF_CONFIG */    
 917:..\src\app\alt_mode/alt_modes_mngr.c ****                 /* Check if this entry has a valid SVID. */
 918:..\src\app\alt_mode/alt_modes_mngr.c ****                 if (tbl_addr->svid != NO_DATA)
 136              		.loc 1 918 0
 137 0028 9918     		adds	r1, r3, r2
 138 002a 8900     		lsls	r1, r1, #2
 139 002c 0D4D     		ldr	r5, .L14+4
 140 002e 495B     		ldrh	r1, [r1, r5]
 141 0030 0029     		cmp	r1, #0
 142 0032 08D0     		beq	.L8
 919:..\src\app\alt_mode/alt_modes_mngr.c ****                 {
 920:..\src\app\alt_mode/alt_modes_mngr.c ****                     SET_FLAG(alt_mode[port].am_active_modes, idx2);
 143              		.loc 1 920 0
 144 0034 0125     		movs	r5, #1
 145 0036 9540     		lsls	r5, r5, r2
 146 0038 7421     		movs	r1, #116
 147              	.LVL10:
 148 003a 4143     		muls	r1, r0
 149              	.LVL11:
 150 003c 084E     		ldr	r6, .L14
 151              	.LVL12:
 152 003e 7118     		adds	r1, r6, r1
 153 0040 CE69     		ldr	r6, [r1, #28]
 154              	.LVL13:
 155 0042 3543     		orrs	r5, r6
 156 0044 CD61     		str	r5, [r1, #28]
 157              	.L8:
 903:..\src\app\alt_mode/alt_modes_mngr.c ****             {
 158              		.loc 1 903 0 discriminator 2
 159 0046 0132     		adds	r2, r2, #1
 160              	.LVL14:
 161 0048 00E0     		b	.L6
 162              	.LVL15:
ARM GAS  e:\temp\ccP12Hvn.s 			page 20


 163              	.L12:
 164 004a 0022     		movs	r2, #0
 165              	.LVL16:
 166              	.L6:
 903:..\src\app\alt_mode/alt_modes_mngr.c ****             {
 167              		.loc 1 903 0 is_stmt 0 discriminator 1
 168 004c A242     		cmp	r2, r4
 169 004e EBD3     		bcc	.L9
 921:..\src\app\alt_mode/alt_modes_mngr.c ****                 }
 922:..\src\app\alt_mode/alt_modes_mngr.c ****             }
 923:..\src\app\alt_mode/alt_modes_mngr.c **** 
 924:..\src\app\alt_mode/alt_modes_mngr.c ****             return true;
 170              		.loc 1 924 0 is_stmt 1
 171 0050 0120     		movs	r0, #1
 172              	.LVL17:
 173 0052 03E0     		b	.L10
 174              	.LVL18:
 175              	.L13:
 897:..\src\app\alt_mode/alt_modes_mngr.c ****     {
 176              		.loc 1 897 0 discriminator 2
 177 0054 0133     		adds	r3, r3, #1
 178              	.LVL19:
 179              	.L5:
 897:..\src\app\alt_mode/alt_modes_mngr.c ****     {
 180              		.loc 1 897 0 is_stmt 0 discriminator 1
 181 0056 A342     		cmp	r3, r4
 182 0058 E1D3     		bcc	.L11
 925:..\src\app\alt_mode/alt_modes_mngr.c ****         }
 926:..\src\app\alt_mode/alt_modes_mngr.c ****     }
 927:..\src\app\alt_mode/alt_modes_mngr.c **** 
 928:..\src\app\alt_mode/alt_modes_mngr.c ****     return false;
 183              		.loc 1 928 0 is_stmt 1
 184 005a 0020     		movs	r0, #0
 185              	.LVL20:
 186              	.L10:
 929:..\src\app\alt_mode/alt_modes_mngr.c **** }
 187              		.loc 1 929 0
 188              		@ sp needed
 189              	.LVL21:
 190 005c 70BD     		pop	{r4, r5, r6, pc}
 191              	.L15:
 192 005e C046     		.align	2
 193              	.L14:
 194 0060 00000000 		.word	alt_mode
 195 0064 20000000 		.word	.LANCHOR0
 196              		.cfi_endproc
 197              	.LFE48:
 198              		.size	get_next_alt_mode, .-get_next_alt_mode
 199              		.section	.text.get_alt_mode_tbl_idx,"ax",%progbits
 200              		.align	2
 201              		.code	16
 202              		.thumb_func
 203              		.type	get_alt_mode_tbl_idx, %function
 204              	get_alt_mode_tbl_idx:
 205              	.LFB54:
 930:..\src\app\alt_mode/alt_modes_mngr.c **** 
 931:..\src\app\alt_mode/alt_modes_mngr.c **** #endif /* DFP_ALT_MODE_SUPP   */
ARM GAS  e:\temp\ccP12Hvn.s 			page 21


 932:..\src\app\alt_mode/alt_modes_mngr.c **** 
 933:..\src\app\alt_mode/alt_modes_mngr.c **** #if (!UCSI_ALT_MODE_ENABLED)
 934:..\src\app\alt_mode/alt_modes_mngr.c **** static uint8_t move_to_vdm_info(uint8_t port, alt_mode_info_t *info, sop_t sop_type)
 935:..\src\app\alt_mode/alt_modes_mngr.c **** #else
 936:..\src\app\alt_mode/alt_modes_mngr.c **** uint8_t move_to_vdm_info(uint8_t port, alt_mode_info_t *info, sop_t sop_type)
 937:..\src\app\alt_mode/alt_modes_mngr.c **** #endif /*UCSI_ALT_MODE_ENABLED*/
 938:..\src\app\alt_mode/alt_modes_mngr.c **** {
 939:..\src\app\alt_mode/alt_modes_mngr.c ****     vdm_msg_info_t *vdm_p = alt_mode[port].vdm_info;
 940:..\src\app\alt_mode/alt_modes_mngr.c ****     
 941:..\src\app\alt_mode/alt_modes_mngr.c ****     vdm_p->sop_type   = sop_type;
 942:..\src\app\alt_mode/alt_modes_mngr.c ****     vdm_p->vdo_numb   = NO_DATA;
 943:..\src\app\alt_mode/alt_modes_mngr.c ****     vdm_p->vdm_header = info->vdm_header;    
 944:..\src\app\alt_mode/alt_modes_mngr.c ****     if ((info->vdo[sop_type] != NULL) && (info->vdo_numb[sop_type] != NO_DATA))
 945:..\src\app\alt_mode/alt_modes_mngr.c ****     {
 946:..\src\app\alt_mode/alt_modes_mngr.c ****         vdm_p->vdo_numb = info->vdo_numb[sop_type];
 947:..\src\app\alt_mode/alt_modes_mngr.c ****         /* Save received VDO */
 948:..\src\app\alt_mode/alt_modes_mngr.c ****         memcpy(vdm_p->vdo, info->vdo[sop_type],(info->vdo_numb[sop_type]) << 2);
 949:..\src\app\alt_mode/alt_modes_mngr.c ****     }
 950:..\src\app\alt_mode/alt_modes_mngr.c ****     if (
 951:..\src\app\alt_mode/alt_modes_mngr.c ****             (info->uvdm_supp == false) 
 952:..\src\app\alt_mode/alt_modes_mngr.c ****     
 953:..\src\app\alt_mode/alt_modes_mngr.c ****     /* If SVDM */
 954:..\src\app\alt_mode/alt_modes_mngr.c **** #if UVDM_SUPP        
 955:..\src\app\alt_mode/alt_modes_mngr.c ****         ||  ((info->VDM_HDR.vdm_type == VDM_TYPE_STRUCTURED) 
 956:..\src\app\alt_mode/alt_modes_mngr.c ****         &&   (info->uvdm_supp))
 957:..\src\app\alt_mode/alt_modes_mngr.c **** #endif /* UVDM_SUPP */        
 958:..\src\app\alt_mode/alt_modes_mngr.c ****         )
 959:..\src\app\alt_mode/alt_modes_mngr.c ****     {
 960:..\src\app\alt_mode/alt_modes_mngr.c ****         vdm_p->VDM_HDR.vdm_type = VDM_TYPE_STRUCTURED;
 961:..\src\app\alt_mode/alt_modes_mngr.c ****         vdm_p->VDM_HDR.obj_pos = info->obj_pos;
 962:..\src\app\alt_mode/alt_modes_mngr.c ****         /* Set object position if custom Attention should be send */
 963:..\src\app\alt_mode/alt_modes_mngr.c ****         if ((info->VDM_HDR.cmd == VDM_CMD_ATTENTION) && (info->custom_att_obj_pos))
 964:..\src\app\alt_mode/alt_modes_mngr.c ****         {
 965:..\src\app\alt_mode/alt_modes_mngr.c ****             vdm_p->VDM_HDR.obj_pos = info->VDM_HDR.obj_pos;
 966:..\src\app\alt_mode/alt_modes_mngr.c ****         }
 967:..\src\app\alt_mode/alt_modes_mngr.c ****         if (sop_type != SOP)
 968:..\src\app\alt_mode/alt_modes_mngr.c ****         {
 969:..\src\app\alt_mode/alt_modes_mngr.c ****             vdm_p->VDM_HDR.obj_pos  = info->cbl_obj_pos;
 970:..\src\app\alt_mode/alt_modes_mngr.c ****         }
 971:..\src\app\alt_mode/alt_modes_mngr.c ****     }
 972:..\src\app\alt_mode/alt_modes_mngr.c ****     
 973:..\src\app\alt_mode/alt_modes_mngr.c ****     return true;
 974:..\src\app\alt_mode/alt_modes_mngr.c **** }
 975:..\src\app\alt_mode/alt_modes_mngr.c **** 
 976:..\src\app\alt_mode/alt_modes_mngr.c **** #if (!UCSI_ALT_MODE_ENABLED)
 977:..\src\app\alt_mode/alt_modes_mngr.c **** static void get_vdm_info_vdo(uint8_t port, alt_mode_info_t* info, sop_t sop_type)
 978:..\src\app\alt_mode/alt_modes_mngr.c **** #else
 979:..\src\app\alt_mode/alt_modes_mngr.c **** void get_vdm_info_vdo(uint8_t port, alt_mode_info_t* info, sop_t sop_type)
 980:..\src\app\alt_mode/alt_modes_mngr.c **** #endif/*UCSI_ALT_MODE_ENABLED*/
 981:..\src\app\alt_mode/alt_modes_mngr.c **** {
 982:..\src\app\alt_mode/alt_modes_mngr.c ****     vdm_msg_info_t *vdm_p = alt_mode[port].vdm_info;
 983:..\src\app\alt_mode/alt_modes_mngr.c ****     uint8_t         vdo_numb;
 984:..\src\app\alt_mode/alt_modes_mngr.c **** 
 985:..\src\app\alt_mode/alt_modes_mngr.c **** #if UVDM_SUPP        
 986:..\src\app\alt_mode/alt_modes_mngr.c ****     if (info->VDM_HDR.vdm_type == VDM_TYPE_STRUCTURED)
 987:..\src\app\alt_mode/alt_modes_mngr.c **** #endif /* UVDM_SUPP */        
 988:..\src\app\alt_mode/alt_modes_mngr.c ****     {
ARM GAS  e:\temp\ccP12Hvn.s 			page 22


 989:..\src\app\alt_mode/alt_modes_mngr.c ****         /* Copy object position to the VDM Header */
 990:..\src\app\alt_mode/alt_modes_mngr.c ****         info->VDM_HDR.obj_pos = vdm_p->VDM_HDR.obj_pos;
 991:..\src\app\alt_mode/alt_modes_mngr.c ****     }
 992:..\src\app\alt_mode/alt_modes_mngr.c ****     vdo_numb = vdm_p->vdo_numb;
 993:..\src\app\alt_mode/alt_modes_mngr.c ****     /* Copy received VDO to alt mode info */
 994:..\src\app\alt_mode/alt_modes_mngr.c ****     if ((vdo_numb != 0) && (info->vdo[sop_type] != NULL))
 995:..\src\app\alt_mode/alt_modes_mngr.c ****     {
 996:..\src\app\alt_mode/alt_modes_mngr.c ****         info->vdo_numb[sop_type] = vdm_p->vdo_numb;
 997:..\src\app\alt_mode/alt_modes_mngr.c ****         /* Save Rec VDO */
 998:..\src\app\alt_mode/alt_modes_mngr.c ****         if (vdm_p->vdo_numb <= info->vdo_max_numb)
 999:..\src\app\alt_mode/alt_modes_mngr.c ****         {
1000:..\src\app\alt_mode/alt_modes_mngr.c ****             /* Save received VDO */
1001:..\src\app\alt_mode/alt_modes_mngr.c ****             memcpy(info->vdo[sop_type], vdm_p->vdo,(vdm_p->vdo_numb) << 2);
1002:..\src\app\alt_mode/alt_modes_mngr.c ****         }
1003:..\src\app\alt_mode/alt_modes_mngr.c ****     }
1004:..\src\app\alt_mode/alt_modes_mngr.c **** }
1005:..\src\app\alt_mode/alt_modes_mngr.c **** 
1006:..\src\app\alt_mode/alt_modes_mngr.c **** static vdm_task_t alt_mode_mngr_deinit(uint8_t port)
1007:..\src\app\alt_mode/alt_modes_mngr.c **** {
1008:..\src\app\alt_mode/alt_modes_mngr.c ****     uint8_t             alt_mode_idx;
1009:..\src\app\alt_mode/alt_modes_mngr.c ****     alt_mode_info_t     *am_info_p = NULL;
1010:..\src\app\alt_mode/alt_modes_mngr.c **** 
1011:..\src\app\alt_mode/alt_modes_mngr.c ****     /* Find and reset alt modes info structures */
1012:..\src\app\alt_mode/alt_modes_mngr.c ****     for (alt_mode_idx = 0; alt_mode_idx < alt_mode[port].alt_modes_numb; alt_mode_idx++)
1013:..\src\app\alt_mode/alt_modes_mngr.c ****     {
1014:..\src\app\alt_mode/alt_modes_mngr.c ****         am_info_p = get_mode_info(port, alt_mode_idx);
1015:..\src\app\alt_mode/alt_modes_mngr.c ****         if (am_info_p != NULL)
1016:..\src\app\alt_mode/alt_modes_mngr.c ****         {
1017:..\src\app\alt_mode/alt_modes_mngr.c ****             /* If current data role is UFP - set mode to idle */
1018:..\src\app\alt_mode/alt_modes_mngr.c ****             if (gl_dpm_port_type[port] == PRT_TYPE_UFP)
1019:..\src\app\alt_mode/alt_modes_mngr.c ****             {
1020:..\src\app\alt_mode/alt_modes_mngr.c ****                 /* CDT 232310 fix */
1021:..\src\app\alt_mode/alt_modes_mngr.c ****                 am_info_p->mode_state = ALT_MODE_STATE_IDLE;
1022:..\src\app\alt_mode/alt_modes_mngr.c ****             }
1023:..\src\app\alt_mode/alt_modes_mngr.c ****             else
1024:..\src\app\alt_mode/alt_modes_mngr.c ****             {
1025:..\src\app\alt_mode/alt_modes_mngr.c ****                 /* If DFP - wait for response */
1026:..\src\app\alt_mode/alt_modes_mngr.c ****                 am_info_p->mode_state = ALT_MODE_STATE_WAIT_FOR_RESP;
1027:..\src\app\alt_mode/alt_modes_mngr.c ****             }
1028:..\src\app\alt_mode/alt_modes_mngr.c **** 
1029:..\src\app\alt_mode/alt_modes_mngr.c ****             /* Exit from alt mode */
1030:..\src\app\alt_mode/alt_modes_mngr.c ****             am_info_p->VDM_HDR.cmd = VDM_CMD_EXIT_MODE;
1031:..\src\app\alt_mode/alt_modes_mngr.c ****             am_info_p->cbk(port);
1032:..\src\app\alt_mode/alt_modes_mngr.c **** 
1033:..\src\app\alt_mode/alt_modes_mngr.c ****             /* Reset alt mode info */
1034:..\src\app\alt_mode/alt_modes_mngr.c ****             reset_alt_mode_info(am_info_p);
1035:..\src\app\alt_mode/alt_modes_mngr.c ****         }
1036:..\src\app\alt_mode/alt_modes_mngr.c ****     }
1037:..\src\app\alt_mode/alt_modes_mngr.c **** 
1038:..\src\app\alt_mode/alt_modes_mngr.c ****     /* Reset alt mode mngr info */
1039:..\src\app\alt_mode/alt_modes_mngr.c ****     reset_mngr_info(port);
1040:..\src\app\alt_mode/alt_modes_mngr.c **** 
1041:..\src\app\alt_mode/alt_modes_mngr.c **** #if (CCG_BB_ENABLE != 0)
1042:..\src\app\alt_mode/alt_modes_mngr.c ****     bb_disable(port, true);
1043:..\src\app\alt_mode/alt_modes_mngr.c ****     bb_update_all_status(port, BB_ALT_MODE_STATUS_INIT_VAL);
1044:..\src\app\alt_mode/alt_modes_mngr.c **** #endif /* (CCG_BB_ENABLE != 0) */
1045:..\src\app\alt_mode/alt_modes_mngr.c **** 
ARM GAS  e:\temp\ccP12Hvn.s 			page 23


1046:..\src\app\alt_mode/alt_modes_mngr.c ****     return VDM_TASK_EXIT;
1047:..\src\app\alt_mode/alt_modes_mngr.c **** }
1048:..\src\app\alt_mode/alt_modes_mngr.c **** 
1049:..\src\app\alt_mode/alt_modes_mngr.c **** 
1050:..\src\app\alt_mode/alt_modes_mngr.c **** /******************** Common ALT Mode DFP and UFP functions *******************/
1051:..\src\app\alt_mode/alt_modes_mngr.c **** 
1052:..\src\app\alt_mode/alt_modes_mngr.c **** uint8_t get_alt_mode_numb(uint8_t port)
1053:..\src\app\alt_mode/alt_modes_mngr.c **** {
1054:..\src\app\alt_mode/alt_modes_mngr.c ****     uint8_t am_numb = NO_DATA;    
1055:..\src\app\alt_mode/alt_modes_mngr.c **** 
1056:..\src\app\alt_mode/alt_modes_mngr.c **** #if DFP_ALT_MODE_SUPP
1057:..\src\app\alt_mode/alt_modes_mngr.c ****     if (gl_dpm_port_type[port] != PRT_TYPE_UFP)
1058:..\src\app\alt_mode/alt_modes_mngr.c ****     {
1059:..\src\app\alt_mode/alt_modes_mngr.c ****         am_numb = DFP_MAX_SVID_SUPP;
1060:..\src\app\alt_mode/alt_modes_mngr.c **** #if ALT_MODE_DIFF_CONFIG
1061:..\src\app\alt_mode/alt_modes_mngr.c ****         if (port == TYPEC_PORT_1_IDX) 
1062:..\src\app\alt_mode/alt_modes_mngr.c ****         {
1063:..\src\app\alt_mode/alt_modes_mngr.c ****             am_numb = DFP_MAX_SVID_SUPP_P1;
1064:..\src\app\alt_mode/alt_modes_mngr.c ****         }
1065:..\src\app\alt_mode/alt_modes_mngr.c **** #endif /* ALT_MODE_DIFF_CONFIG */    
1066:..\src\app\alt_mode/alt_modes_mngr.c ****     }
1067:..\src\app\alt_mode/alt_modes_mngr.c **** #endif /* DFP_ALT_MODE_SUPP */
1068:..\src\app\alt_mode/alt_modes_mngr.c **** 
1069:..\src\app\alt_mode/alt_modes_mngr.c **** #if UFP_ALT_MODE_SUPP
1070:..\src\app\alt_mode/alt_modes_mngr.c ****     if (gl_dpm_port_type[port] == PRT_TYPE_UFP)
1071:..\src\app\alt_mode/alt_modes_mngr.c ****     {
1072:..\src\app\alt_mode/alt_modes_mngr.c ****         am_numb = UFP_MAX_SVID_SUPP;
1073:..\src\app\alt_mode/alt_modes_mngr.c **** #if ALT_MODE_DIFF_CONFIG
1074:..\src\app\alt_mode/alt_modes_mngr.c ****         if (port == TYPEC_PORT_1_IDX)
1075:..\src\app\alt_mode/alt_modes_mngr.c ****         {
1076:..\src\app\alt_mode/alt_modes_mngr.c ****             am_numb = UFP_MAX_SVID_SUPP_P1;
1077:..\src\app\alt_mode/alt_modes_mngr.c ****         }
1078:..\src\app\alt_mode/alt_modes_mngr.c **** #endif /* ALT_MODE_DIFF_CONFIG */    
1079:..\src\app\alt_mode/alt_modes_mngr.c ****     }
1080:..\src\app\alt_mode/alt_modes_mngr.c **** #endif /* UFP_ALT_MODE_SUPP */
1081:..\src\app\alt_mode/alt_modes_mngr.c **** 
1082:..\src\app\alt_mode/alt_modes_mngr.c ****     return am_numb;
1083:..\src\app\alt_mode/alt_modes_mngr.c **** }
1084:..\src\app\alt_mode/alt_modes_mngr.c **** 
1085:..\src\app\alt_mode/alt_modes_mngr.c **** uint8_t is_alt_modes_available(uint8_t port)
1086:..\src\app\alt_mode/alt_modes_mngr.c **** {
1087:..\src\app\alt_mode/alt_modes_mngr.c ****     uint8_t stat = false;
1088:..\src\app\alt_mode/alt_modes_mngr.c **** 
1089:..\src\app\alt_mode/alt_modes_mngr.c **** #if ((DFP_ALT_MODE_SUPP) || (UFP_ALT_MODE_SUPP))    
1090:..\src\app\alt_mode/alt_modes_mngr.c ****     uint8_t idx;
1091:..\src\app\alt_mode/alt_modes_mngr.c ****     const comp_tbl_t* tbl_addr = NULL;
1092:..\src\app\alt_mode/alt_modes_mngr.c ****     port_type_t port_type      = gl_dpm_port_type[port];
1093:..\src\app\alt_mode/alt_modes_mngr.c **** 
1094:..\src\app\alt_mode/alt_modes_mngr.c ****     for (idx = 0; idx < alt_mode[port].alt_modes_numb; idx++)
1095:..\src\app\alt_mode/alt_modes_mngr.c ****     {
1096:..\src\app\alt_mode/alt_modes_mngr.c **** #if DFP_ALT_MODE_SUPP
1097:..\src\app\alt_mode/alt_modes_mngr.c ****         if (port_type != PRT_TYPE_UFP)
1098:..\src\app\alt_mode/alt_modes_mngr.c ****         {
1099:..\src\app\alt_mode/alt_modes_mngr.c ****             tbl_addr = &dfp_compatibility_mode_table[idx][idx];
1100:..\src\app\alt_mode/alt_modes_mngr.c ****         }
1101:..\src\app\alt_mode/alt_modes_mngr.c **** #endif
1102:..\src\app\alt_mode/alt_modes_mngr.c **** 
ARM GAS  e:\temp\ccP12Hvn.s 			page 24


1103:..\src\app\alt_mode/alt_modes_mngr.c **** #if UFP_ALT_MODE_SUPP
1104:..\src\app\alt_mode/alt_modes_mngr.c ****         if (port_type == PRT_TYPE_UFP)
1105:..\src\app\alt_mode/alt_modes_mngr.c ****         {
1106:..\src\app\alt_mode/alt_modes_mngr.c ****             tbl_addr = &ufp_compatibility_mode_table[idx][idx];
1107:..\src\app\alt_mode/alt_modes_mngr.c ****         }
1108:..\src\app\alt_mode/alt_modes_mngr.c **** #endif
1109:..\src\app\alt_mode/alt_modes_mngr.c **** 
1110:..\src\app\alt_mode/alt_modes_mngr.c ****         /* if any alt mode is avaliable */
1111:..\src\app\alt_mode/alt_modes_mngr.c ****         if ((tbl_addr != NULL) && (tbl_addr->svid != NO_DATA))
1112:..\src\app\alt_mode/alt_modes_mngr.c ****         {
1113:..\src\app\alt_mode/alt_modes_mngr.c ****             if (port_type == PRT_TYPE_UFP)
1114:..\src\app\alt_mode/alt_modes_mngr.c ****             {
1115:..\src\app\alt_mode/alt_modes_mngr.c ****                 /* Set svid idx to zero to start Disc Mode process */
1116:..\src\app\alt_mode/alt_modes_mngr.c ****                 alt_mode[port].svid_idx = 0;
1117:..\src\app\alt_mode/alt_modes_mngr.c ****             }
1118:..\src\app\alt_mode/alt_modes_mngr.c ****             stat = true;
1119:..\src\app\alt_mode/alt_modes_mngr.c ****             break;
1120:..\src\app\alt_mode/alt_modes_mngr.c ****         }
1121:..\src\app\alt_mode/alt_modes_mngr.c ****     }
1122:..\src\app\alt_mode/alt_modes_mngr.c **** #endif /* (DFP_ALT_MODE_SUPP) || (UFP_ALT_MODE_SUPP) */    
1123:..\src\app\alt_mode/alt_modes_mngr.c **** 
1124:..\src\app\alt_mode/alt_modes_mngr.c ****     return stat;
1125:..\src\app\alt_mode/alt_modes_mngr.c **** }
1126:..\src\app\alt_mode/alt_modes_mngr.c **** 
1127:..\src\app\alt_mode/alt_modes_mngr.c **** #if ((DFP_ALT_MODE_SUPP) || (UFP_ALT_MODE_SUPP))
1128:..\src\app\alt_mode/alt_modes_mngr.c **** #if (!UCSI_ALT_MODE_ENABLED)
1129:..\src\app\alt_mode/alt_modes_mngr.c **** static uint8_t get_alt_mode_tbl_idx(uint8_t port, uint16_t svid, uint8_t id)
1130:..\src\app\alt_mode/alt_modes_mngr.c **** #else
1131:..\src\app\alt_mode/alt_modes_mngr.c **** uint8_t get_alt_mode_tbl_idx(uint8_t port, uint16_t svid, uint8_t id)
1132:..\src\app\alt_mode/alt_modes_mngr.c **** #endif /*UCSI_ALT_MODE_ENABLED*/
1133:..\src\app\alt_mode/alt_modes_mngr.c **** {
 206              		.loc 1 1133 0
 207              		.cfi_startproc
 208              		@ args = 0, pretend = 0, frame = 0
 209              		@ frame_needed = 0, uses_anonymous_args = 0
 210              	.LVL22:
 211 0000 70B5     		push	{r4, r5, r6, lr}
 212              		.cfi_def_cfa_offset 16
 213              		.cfi_offset 4, -16
 214              		.cfi_offset 5, -12
 215              		.cfi_offset 6, -8
 216              		.cfi_offset 14, -4
 217 0002 0600     		movs	r6, r0
 218              	.LVL23:
1134:..\src\app\alt_mode/alt_modes_mngr.c ****     uint8_t idx;   
1135:..\src\app\alt_mode/alt_modes_mngr.c ****     const comp_tbl_t* tbl_addr = NULL;
 219              		.loc 1 1135 0
 220 0004 0025     		movs	r5, #0
1136:..\src\app\alt_mode/alt_modes_mngr.c **** 
1137:..\src\app\alt_mode/alt_modes_mngr.c ****     for (idx = 0; idx < alt_mode[port].alt_modes_numb; idx++)
 221              		.loc 1 1137 0
 222 0006 0024     		movs	r4, #0
 223 0008 10E0     		b	.L17
 224              	.LVL24:
 225              	.L21:
1138:..\src\app\alt_mode/alt_modes_mngr.c ****     {
1139:..\src\app\alt_mode/alt_modes_mngr.c **** #if DFP_ALT_MODE_SUPP
ARM GAS  e:\temp\ccP12Hvn.s 			page 25


1140:..\src\app\alt_mode/alt_modes_mngr.c ****         if (gl_dpm_port_type[port] != PRT_TYPE_UFP)
 226              		.loc 1 1140 0
 227 000a 0E4B     		ldr	r3, .L23
 228 000c 9B5D     		ldrb	r3, [r3, r6]
 229 000e 002B     		cmp	r3, #0
 230 0010 02D0     		beq	.L18
1141:..\src\app\alt_mode/alt_modes_mngr.c ****         {
1142:..\src\app\alt_mode/alt_modes_mngr.c ****             tbl_addr = &dfp_compatibility_mode_table[idx][idx];
 231              		.loc 1 1142 0
 232 0012 E300     		lsls	r3, r4, #3
 233 0014 0C4D     		ldr	r5, .L23+4
 234              	.LVL25:
 235 0016 ED18     		adds	r5, r5, r3
 236              	.LVL26:
 237              	.L18:
1143:..\src\app\alt_mode/alt_modes_mngr.c **** #if ALT_MODE_DIFF_CONFIG        
1144:..\src\app\alt_mode/alt_modes_mngr.c ****             if (port == TYPEC_PORT_1_IDX) 
1145:..\src\app\alt_mode/alt_modes_mngr.c ****             {
1146:..\src\app\alt_mode/alt_modes_mngr.c ****                 tbl_addr = &dfp_compatibility_mode_table_p1[idx][idx];;
1147:..\src\app\alt_mode/alt_modes_mngr.c ****             }
1148:..\src\app\alt_mode/alt_modes_mngr.c **** #endif /* ALT_MODE_DIFF_CONFIG */                
1149:..\src\app\alt_mode/alt_modes_mngr.c ****         }
1150:..\src\app\alt_mode/alt_modes_mngr.c **** #endif
1151:..\src\app\alt_mode/alt_modes_mngr.c **** #if UFP_ALT_MODE_SUPP
1152:..\src\app\alt_mode/alt_modes_mngr.c ****         if (gl_dpm_port_type[port] == PRT_TYPE_UFP)
1153:..\src\app\alt_mode/alt_modes_mngr.c ****         {
1154:..\src\app\alt_mode/alt_modes_mngr.c ****             tbl_addr = &ufp_compatibility_mode_table[idx][idx];
1155:..\src\app\alt_mode/alt_modes_mngr.c **** #if ALT_MODE_DIFF_CONFIG        
1156:..\src\app\alt_mode/alt_modes_mngr.c ****             if (port == TYPEC_PORT_1_IDX) 
1157:..\src\app\alt_mode/alt_modes_mngr.c ****             {
1158:..\src\app\alt_mode/alt_modes_mngr.c ****                 tbl_addr = &ufp_compatibility_mode_table_p1[idx][idx];;
1159:..\src\app\alt_mode/alt_modes_mngr.c ****             }
1160:..\src\app\alt_mode/alt_modes_mngr.c **** #endif /* ALT_MODE_DIFF_CONFIG */    
1161:..\src\app\alt_mode/alt_modes_mngr.c ****         }
1162:..\src\app\alt_mode/alt_modes_mngr.c **** #endif
1163:..\src\app\alt_mode/alt_modes_mngr.c ****         /* if any alt mode is avaliable */
1164:..\src\app\alt_mode/alt_modes_mngr.c ****         if ((tbl_addr != NULL) && (tbl_addr->svid == svid) && (tbl_addr->alt_mode_id == id))
 238              		.loc 1 1164 0
 239 0018 002D     		cmp	r5, #0
 240 001a 05D0     		beq	.L19
 241              		.loc 1 1164 0 is_stmt 0 discriminator 1
 242 001c 2B88     		ldrh	r3, [r5]
 243 001e 8B42     		cmp	r3, r1
 244 0020 02D1     		bne	.L19
 245              		.loc 1 1164 0 discriminator 2
 246 0022 AB78     		ldrb	r3, [r5, #2]
 247 0024 9342     		cmp	r3, r2
 248 0026 0BD0     		beq	.L22
 249              	.L19:
1137:..\src\app\alt_mode/alt_modes_mngr.c ****     {
 250              		.loc 1 1137 0 is_stmt 1 discriminator 2
 251 0028 0134     		adds	r4, r4, #1
 252              	.LVL27:
 253 002a E4B2     		uxtb	r4, r4
 254              	.LVL28:
 255              	.L17:
1137:..\src\app\alt_mode/alt_modes_mngr.c ****     {
ARM GAS  e:\temp\ccP12Hvn.s 			page 26


 256              		.loc 1 1137 0 is_stmt 0 discriminator 1
 257 002c 7423     		movs	r3, #116
 258 002e 7343     		muls	r3, r6
 259 0030 0648     		ldr	r0, .L23+8
 260 0032 C318     		adds	r3, r0, r3
 261 0034 3033     		adds	r3, r3, #48
 262 0036 1B78     		ldrb	r3, [r3]
 263 0038 9C42     		cmp	r4, r3
 264 003a E6D3     		bcc	.L21
1165:..\src\app\alt_mode/alt_modes_mngr.c ****         {
1166:..\src\app\alt_mode/alt_modes_mngr.c ****             return idx;
1167:..\src\app\alt_mode/alt_modes_mngr.c ****         }
1168:..\src\app\alt_mode/alt_modes_mngr.c ****     }
1169:..\src\app\alt_mode/alt_modes_mngr.c **** 
1170:..\src\app\alt_mode/alt_modes_mngr.c ****     return MODE_NOT_SUPPORTED;
 265              		.loc 1 1170 0 is_stmt 1
 266 003c FF20     		movs	r0, #255
 267 003e 00E0     		b	.L20
 268              	.L22:
1166:..\src\app\alt_mode/alt_modes_mngr.c ****         }
 269              		.loc 1 1166 0
 270 0040 2000     		movs	r0, r4
 271              	.L20:
1171:..\src\app\alt_mode/alt_modes_mngr.c **** }
 272              		.loc 1 1171 0
 273              		@ sp needed
 274              	.LVL29:
 275              	.LVL30:
 276 0042 70BD     		pop	{r4, r5, r6, pc}
 277              	.L24:
 278              		.align	2
 279              	.L23:
 280 0044 00000000 		.word	gl_dpm_port_type
 281 0048 20000000 		.word	.LANCHOR0
 282 004c 00000000 		.word	alt_mode
 283              		.cfi_endproc
 284              	.LFE54:
 285              		.size	get_alt_mode_tbl_idx, .-get_alt_mode_tbl_idx
 286              		.section	.text.get_alt_mode_svid_idx,"ax",%progbits
 287              		.align	2
 288              		.code	16
 289              		.thumb_func
 290              		.type	get_alt_mode_svid_idx, %function
 291              	get_alt_mode_svid_idx:
 292              	.LFB55:
1172:..\src\app\alt_mode/alt_modes_mngr.c **** 
1173:..\src\app\alt_mode/alt_modes_mngr.c **** #if (!UCSI_ALT_MODE_ENABLED)
1174:..\src\app\alt_mode/alt_modes_mngr.c **** static uint8_t get_alt_mode_svid_idx(uint8_t port, uint16_t svid)
1175:..\src\app\alt_mode/alt_modes_mngr.c **** #else 
1176:..\src\app\alt_mode/alt_modes_mngr.c **** uint8_t get_alt_mode_svid_idx(uint8_t port, uint16_t svid)
1177:..\src\app\alt_mode/alt_modes_mngr.c **** #endif /*UCSI_ALT_MODE_ENABLED*/
1178:..\src\app\alt_mode/alt_modes_mngr.c **** {
 293              		.loc 1 1178 0
 294              		.cfi_startproc
 295              		@ args = 0, pretend = 0, frame = 0
 296              		@ frame_needed = 0, uses_anonymous_args = 0
 297              	.LVL31:
ARM GAS  e:\temp\ccP12Hvn.s 			page 27


 298 0000 10B5     		push	{r4, lr}
 299              		.cfi_def_cfa_offset 8
 300              		.cfi_offset 4, -8
 301              		.cfi_offset 14, -4
 302              	.LVL32:
1179:..\src\app\alt_mode/alt_modes_mngr.c ****     uint8_t idx;
1180:..\src\app\alt_mode/alt_modes_mngr.c **** 
1181:..\src\app\alt_mode/alt_modes_mngr.c ****     /* Look through all alt modes */
1182:..\src\app\alt_mode/alt_modes_mngr.c ****     for (idx = 0; idx < alt_mode[port].alt_modes_numb; idx++)
 303              		.loc 1 1182 0
 304 0002 0022     		movs	r2, #0
 305 0004 04E0     		b	.L26
 306              	.LVL33:
 307              	.L28:
1183:..\src\app\alt_mode/alt_modes_mngr.c ****     {
1184:..\src\app\alt_mode/alt_modes_mngr.c ****         /* if alt mode with given index is supported by CCG */
1185:..\src\app\alt_mode/alt_modes_mngr.c ****         if (supp_svid_tbl[idx] == svid)
 308              		.loc 1 1185 0
 309 0006 084B     		ldr	r3, .L30
 310 0008 9942     		cmp	r1, r3
 311 000a 0BD0     		beq	.L29
1182:..\src\app\alt_mode/alt_modes_mngr.c ****     {
 312              		.loc 1 1182 0 discriminator 2
 313 000c 0132     		adds	r2, r2, #1
 314              	.LVL34:
 315 000e D2B2     		uxtb	r2, r2
 316              	.LVL35:
 317              	.L26:
1182:..\src\app\alt_mode/alt_modes_mngr.c ****     {
 318              		.loc 1 1182 0 is_stmt 0 discriminator 1
 319 0010 7423     		movs	r3, #116
 320 0012 4343     		muls	r3, r0
 321 0014 054C     		ldr	r4, .L30+4
 322 0016 E318     		adds	r3, r4, r3
 323 0018 3033     		adds	r3, r3, #48
 324 001a 1B78     		ldrb	r3, [r3]
 325 001c 9A42     		cmp	r2, r3
 326 001e F2D3     		bcc	.L28
1186:..\src\app\alt_mode/alt_modes_mngr.c ****         {
1187:..\src\app\alt_mode/alt_modes_mngr.c ****             return idx;
1188:..\src\app\alt_mode/alt_modes_mngr.c ****         }
1189:..\src\app\alt_mode/alt_modes_mngr.c ****     }
1190:..\src\app\alt_mode/alt_modes_mngr.c ****     
1191:..\src\app\alt_mode/alt_modes_mngr.c ****     return MODE_NOT_SUPPORTED;
 327              		.loc 1 1191 0 is_stmt 1
 328 0020 FF20     		movs	r0, #255
 329              	.LVL36:
 330 0022 00E0     		b	.L27
 331              	.LVL37:
 332              	.L29:
1187:..\src\app\alt_mode/alt_modes_mngr.c ****         }
 333              		.loc 1 1187 0
 334 0024 1000     		movs	r0, r2
 335              	.LVL38:
 336              	.L27:
1192:..\src\app\alt_mode/alt_modes_mngr.c **** }
 337              		.loc 1 1192 0
ARM GAS  e:\temp\ccP12Hvn.s 			page 28


 338              		@ sp needed
 339 0026 10BD     		pop	{r4, pc}
 340              	.L31:
 341              		.align	2
 342              	.L30:
 343 0028 01FF0000 		.word	65281
 344 002c 00000000 		.word	alt_mode
 345              		.cfi_endproc
 346              	.LFE55:
 347              		.size	get_alt_mode_svid_idx, .-get_alt_mode_svid_idx
 348              		.section	.text.get_vdm_info_vdo,"ax",%progbits
 349              		.align	2
 350              		.code	16
 351              		.thumb_func
 352              		.type	get_vdm_info_vdo, %function
 353              	get_vdm_info_vdo:
 354              	.LFB50:
 981:..\src\app\alt_mode/alt_modes_mngr.c ****     vdm_msg_info_t *vdm_p = alt_mode[port].vdm_info;
 355              		.loc 1 981 0
 356              		.cfi_startproc
 357              		@ args = 0, pretend = 0, frame = 0
 358              		@ frame_needed = 0, uses_anonymous_args = 0
 359              	.LVL39:
 360 0000 70B5     		push	{r4, r5, r6, lr}
 361              		.cfi_def_cfa_offset 16
 362              		.cfi_offset 4, -16
 363              		.cfi_offset 5, -12
 364              		.cfi_offset 6, -8
 365              		.cfi_offset 14, -4
 982:..\src\app\alt_mode/alt_modes_mngr.c ****     uint8_t         vdo_numb;
 366              		.loc 1 982 0
 367 0002 7423     		movs	r3, #116
 368 0004 5843     		muls	r0, r3
 369              	.LVL40:
 370 0006 124B     		ldr	r3, .L34
 371 0008 1818     		adds	r0, r3, r0
 372 000a C46E     		ldr	r4, [r0, #108]
 373              	.LVL41:
 990:..\src\app\alt_mode/alt_modes_mngr.c ****     }
 374              		.loc 1 990 0
 375 000c 6378     		ldrb	r3, [r4, #1]
 376 000e 5B07     		lsls	r3, r3, #29
 377 0010 580F     		lsrs	r0, r3, #29
 378 0012 4B7A     		ldrb	r3, [r1, #9]
 379 0014 0725     		movs	r5, #7
 380 0016 AB43     		bics	r3, r5
 381 0018 0343     		orrs	r3, r0
 382 001a 4B72     		strb	r3, [r1, #9]
 992:..\src\app\alt_mode/alt_modes_mngr.c ****     /* Copy received VDO to alt mode info */
 383              		.loc 1 992 0
 384 001c 6079     		ldrb	r0, [r4, #5]
 385              	.LVL42:
 994:..\src\app\alt_mode/alt_modes_mngr.c ****     {
 386              		.loc 1 994 0
 387 001e 0028     		cmp	r0, #0
 388 0020 14D0     		beq	.L32
 994:..\src\app\alt_mode/alt_modes_mngr.c ****     {
ARM GAS  e:\temp\ccP12Hvn.s 			page 29


 389              		.loc 1 994 0 is_stmt 0 discriminator 1
 390 0022 931C     		adds	r3, r2, #2
 391 0024 9B00     		lsls	r3, r3, #2
 392 0026 CB18     		adds	r3, r1, r3
 393 0028 5B68     		ldr	r3, [r3, #4]
 394 002a 002B     		cmp	r3, #0
 395 002c 0ED0     		beq	.L32
 996:..\src\app\alt_mode/alt_modes_mngr.c ****         /* Save Rec VDO */
 396              		.loc 1 996 0 is_stmt 1
 397 002e 8B18     		adds	r3, r1, r2
 398 0030 1876     		strb	r0, [r3, #24]
 998:..\src\app\alt_mode/alt_modes_mngr.c ****         {
 399              		.loc 1 998 0
 400 0032 6379     		ldrb	r3, [r4, #5]
 401 0034 0879     		ldrb	r0, [r1, #4]
 402              	.LVL43:
 403 0036 8342     		cmp	r3, r0
 404 0038 08D8     		bhi	.L32
1001:..\src\app\alt_mode/alt_modes_mngr.c ****         }
 405              		.loc 1 1001 0
 406 003a 0232     		adds	r2, r2, #2
 407              	.LVL44:
 408 003c 9200     		lsls	r2, r2, #2
 409              	.LVL45:
 410 003e 8918     		adds	r1, r1, r2
 411              	.LVL46:
 412 0040 4868     		ldr	r0, [r1, #4]
 413 0042 2100     		movs	r1, r4
 414 0044 0831     		adds	r1, r1, #8
 415 0046 9A00     		lsls	r2, r3, #2
 416 0048 FFF7FEFF 		bl	memcpy
 417              	.LVL47:
 418              	.L32:
1004:..\src\app\alt_mode/alt_modes_mngr.c **** 
 419              		.loc 1 1004 0
 420              		@ sp needed
 421              	.LVL48:
 422 004c 70BD     		pop	{r4, r5, r6, pc}
 423              	.L35:
 424 004e C046     		.align	2
 425              	.L34:
 426 0050 00000000 		.word	alt_mode
 427              		.cfi_endproc
 428              	.LFE50:
 429              		.size	get_vdm_info_vdo, .-get_vdm_info_vdo
 430              		.section	.text.move_to_vdm_info,"ax",%progbits
 431              		.align	2
 432              		.code	16
 433              		.thumb_func
 434              		.type	move_to_vdm_info, %function
 435              	move_to_vdm_info:
 436              	.LFB49:
 938:..\src\app\alt_mode/alt_modes_mngr.c ****     vdm_msg_info_t *vdm_p = alt_mode[port].vdm_info;
 437              		.loc 1 938 0
 438              		.cfi_startproc
 439              		@ args = 0, pretend = 0, frame = 0
 440              		@ frame_needed = 0, uses_anonymous_args = 0
ARM GAS  e:\temp\ccP12Hvn.s 			page 30


 441              	.LVL49:
 442 0000 70B5     		push	{r4, r5, r6, lr}
 443              		.cfi_def_cfa_offset 16
 444              		.cfi_offset 4, -16
 445              		.cfi_offset 5, -12
 446              		.cfi_offset 6, -8
 447              		.cfi_offset 14, -4
 448 0002 0D00     		movs	r5, r1
 449 0004 1600     		movs	r6, r2
 939:..\src\app\alt_mode/alt_modes_mngr.c ****     
 450              		.loc 1 939 0
 451 0006 7423     		movs	r3, #116
 452 0008 5843     		muls	r0, r3
 453              	.LVL50:
 454 000a 254B     		ldr	r3, .L40
 455 000c 1818     		adds	r0, r3, r0
 456 000e C46E     		ldr	r4, [r0, #108]
 457              	.LVL51:
 941:..\src\app\alt_mode/alt_modes_mngr.c ****     vdm_p->vdo_numb   = NO_DATA;
 458              		.loc 1 941 0
 459 0010 2271     		strb	r2, [r4, #4]
 942:..\src\app\alt_mode/alt_modes_mngr.c ****     vdm_p->vdm_header = info->vdm_header;    
 460              		.loc 1 942 0
 461 0012 0023     		movs	r3, #0
 462 0014 6371     		strb	r3, [r4, #5]
 943:..\src\app\alt_mode/alt_modes_mngr.c ****     if ((info->vdo[sop_type] != NULL) && (info->vdo_numb[sop_type] != NO_DATA))
 463              		.loc 1 943 0
 464 0016 8B68     		ldr	r3, [r1, #8]
 465 0018 2360     		str	r3, [r4]
 944:..\src\app\alt_mode/alt_modes_mngr.c ****     {
 466              		.loc 1 944 0
 467 001a 931C     		adds	r3, r2, #2
 468 001c 9B00     		lsls	r3, r3, #2
 469 001e CB18     		adds	r3, r1, r3
 470 0020 5B68     		ldr	r3, [r3, #4]
 471 0022 002B     		cmp	r3, #0
 472 0024 0FD0     		beq	.L37
 944:..\src\app\alt_mode/alt_modes_mngr.c ****     {
 473              		.loc 1 944 0 is_stmt 0 discriminator 1
 474 0026 8B18     		adds	r3, r1, r2
 475 0028 1B7E     		ldrb	r3, [r3, #24]
 476 002a 002B     		cmp	r3, #0
 477 002c 0BD0     		beq	.L37
 946:..\src\app\alt_mode/alt_modes_mngr.c ****         /* Save received VDO */
 478              		.loc 1 946 0 is_stmt 1
 479 002e 6371     		strb	r3, [r4, #5]
 948:..\src\app\alt_mode/alt_modes_mngr.c ****     }
 480              		.loc 1 948 0
 481 0030 2000     		movs	r0, r4
 482 0032 0830     		adds	r0, r0, #8
 483 0034 931C     		adds	r3, r2, #2
 484 0036 9B00     		lsls	r3, r3, #2
 485 0038 CB18     		adds	r3, r1, r3
 486 003a 5968     		ldr	r1, [r3, #4]
 487              	.LVL52:
 488 003c AB18     		adds	r3, r5, r2
 489 003e 1A7E     		ldrb	r2, [r3, #24]
ARM GAS  e:\temp\ccP12Hvn.s 			page 31


 490              	.LVL53:
 491 0040 9200     		lsls	r2, r2, #2
 492 0042 FFF7FEFF 		bl	memcpy
 493              	.LVL54:
 494              	.L37:
 951:..\src\app\alt_mode/alt_modes_mngr.c ****     
 495              		.loc 1 951 0
 496 0046 2223     		movs	r3, #34
 497 0048 EB5C     		ldrb	r3, [r5, r3]
 950:..\src\app\alt_mode/alt_modes_mngr.c ****             (info->uvdm_supp == false) 
 498              		.loc 1 950 0
 499 004a 002B     		cmp	r3, #0
 500 004c 26D1     		bne	.L38
 960:..\src\app\alt_mode/alt_modes_mngr.c ****         vdm_p->VDM_HDR.obj_pos = info->obj_pos;
 501              		.loc 1 960 0
 502 004e 6378     		ldrb	r3, [r4, #1]
 503 0050 8022     		movs	r2, #128
 504 0052 5242     		rsbs	r2, r2, #0
 505 0054 1343     		orrs	r3, r2
 506 0056 6370     		strb	r3, [r4, #1]
 961:..\src\app\alt_mode/alt_modes_mngr.c ****         /* Set object position if custom Attention should be send */
 507              		.loc 1 961 0
 508 0058 6B79     		ldrb	r3, [r5, #5]
 509 005a 8732     		adds	r2, r2, #135
 510 005c 1A40     		ands	r2, r3
 511 005e 6378     		ldrb	r3, [r4, #1]
 512 0060 0721     		movs	r1, #7
 513 0062 8B43     		bics	r3, r1
 514 0064 1343     		orrs	r3, r2
 515 0066 6370     		strb	r3, [r4, #1]
 963:..\src\app\alt_mode/alt_modes_mngr.c ****         {
 516              		.loc 1 963 0
 517 0068 2B7A     		ldrb	r3, [r5, #8]
 518 006a 1F22     		movs	r2, #31
 519 006c 1340     		ands	r3, r2
 520 006e 062B     		cmp	r3, #6
 521 0070 0AD1     		bne	.L39
 963:..\src\app\alt_mode/alt_modes_mngr.c ****         {
 522              		.loc 1 963 0 is_stmt 0 discriminator 1
 523 0072 1B33     		adds	r3, r3, #27
 524 0074 EB5C     		ldrb	r3, [r5, r3]
 525 0076 002B     		cmp	r3, #0
 526 0078 06D0     		beq	.L39
 965:..\src\app\alt_mode/alt_modes_mngr.c ****         }
 527              		.loc 1 965 0 is_stmt 1
 528 007a 6B7A     		ldrb	r3, [r5, #9]
 529 007c 5B07     		lsls	r3, r3, #29
 530 007e 5A0F     		lsrs	r2, r3, #29
 531 0080 6378     		ldrb	r3, [r4, #1]
 532 0082 8B43     		bics	r3, r1
 533 0084 1343     		orrs	r3, r2
 534 0086 6370     		strb	r3, [r4, #1]
 535              	.L39:
 967:..\src\app\alt_mode/alt_modes_mngr.c ****         {
 536              		.loc 1 967 0
 537 0088 002E     		cmp	r6, #0
 538 008a 07D0     		beq	.L38
ARM GAS  e:\temp\ccP12Hvn.s 			page 32


 969:..\src\app\alt_mode/alt_modes_mngr.c ****         }
 539              		.loc 1 969 0
 540 008c AB79     		ldrb	r3, [r5, #6]
 541 008e 0722     		movs	r2, #7
 542 0090 1A40     		ands	r2, r3
 543 0092 6378     		ldrb	r3, [r4, #1]
 544 0094 0721     		movs	r1, #7
 545 0096 8B43     		bics	r3, r1
 546 0098 1343     		orrs	r3, r2
 547 009a 6370     		strb	r3, [r4, #1]
 548              	.L38:
 974:..\src\app\alt_mode/alt_modes_mngr.c **** 
 549              		.loc 1 974 0
 550 009c 0120     		movs	r0, #1
 551              		@ sp needed
 552              	.LVL55:
 553              	.LVL56:
 554 009e 70BD     		pop	{r4, r5, r6, pc}
 555              	.L41:
 556              		.align	2
 557              	.L40:
 558 00a0 00000000 		.word	alt_mode
 559              		.cfi_endproc
 560              	.LFE49:
 561              		.size	move_to_vdm_info, .-move_to_vdm_info
 562              		.section	.text.reset_mngr_info,"ax",%progbits
 563              		.align	2
 564              		.code	16
 565              		.thumb_func
 566              		.type	reset_mngr_info, %function
 567              	reset_mngr_info:
 568              	.LFB57:
1193:..\src\app\alt_mode/alt_modes_mngr.c **** #endif /* (DFP_ALT_MODE_SUPP) || (UFP_ALT_MODE_SUPP) */
1194:..\src\app\alt_mode/alt_modes_mngr.c **** 
1195:..\src\app\alt_mode/alt_modes_mngr.c **** void reset_alt_mode_info(alt_mode_info_t *info)
1196:..\src\app\alt_mode/alt_modes_mngr.c **** {
1197:..\src\app\alt_mode/alt_modes_mngr.c ****     memset(info, 0, sizeof(*info));
1198:..\src\app\alt_mode/alt_modes_mngr.c **** }
1199:..\src\app\alt_mode/alt_modes_mngr.c **** 
1200:..\src\app\alt_mode/alt_modes_mngr.c **** void reset_mngr_info(uint8_t port)
1201:..\src\app\alt_mode/alt_modes_mngr.c **** {
 569              		.loc 1 1201 0
 570              		.cfi_startproc
 571              		@ args = 0, pretend = 0, frame = 0
 572              		@ frame_needed = 0, uses_anonymous_args = 0
 573              	.LVL57:
 574 0000 10B5     		push	{r4, lr}
 575              		.cfi_def_cfa_offset 8
 576              		.cfi_offset 4, -8
 577              		.cfi_offset 14, -4
1202:..\src\app\alt_mode/alt_modes_mngr.c ****     memset(&alt_mode[port], 0, sizeof(alt_mode[port]));
 578              		.loc 1 1202 0
 579 0002 7423     		movs	r3, #116
 580 0004 5843     		muls	r0, r3
 581              	.LVL58:
 582 0006 034B     		ldr	r3, .L43
 583 0008 C018     		adds	r0, r0, r3
ARM GAS  e:\temp\ccP12Hvn.s 			page 33


 584 000a 7422     		movs	r2, #116
 585 000c 0021     		movs	r1, #0
 586 000e FFF7FEFF 		bl	memset
 587              	.LVL59:
1203:..\src\app\alt_mode/alt_modes_mngr.c **** }
 588              		.loc 1 1203 0
 589              		@ sp needed
 590 0012 10BD     		pop	{r4, pc}
 591              	.L44:
 592              		.align	2
 593              	.L43:
 594 0014 00000000 		.word	alt_mode
 595              		.cfi_endproc
 596              	.LFE57:
 597              		.size	reset_mngr_info, .-reset_mngr_info
 598              		.section	.text.alt_mode_mngr_sleep,"ax",%progbits
 599              		.align	2
 600              		.global	alt_mode_mngr_sleep
 601              		.code	16
 602              		.thumb_func
 603              		.type	alt_mode_mngr_sleep, %function
 604              	alt_mode_mngr_sleep:
 605              	.LFB34:
 253:..\src\app\alt_mode/alt_modes_mngr.c ****     alt_mode_hw_sleep (port);
 606              		.loc 1 253 0
 607              		.cfi_startproc
 608              		@ args = 0, pretend = 0, frame = 0
 609              		@ frame_needed = 0, uses_anonymous_args = 0
 610              	.LVL60:
 611 0000 10B5     		push	{r4, lr}
 612              		.cfi_def_cfa_offset 8
 613              		.cfi_offset 4, -8
 614              		.cfi_offset 14, -4
 254:..\src\app\alt_mode/alt_modes_mngr.c **** }
 615              		.loc 1 254 0
 616 0002 FFF7FEFF 		bl	alt_mode_hw_sleep
 617              	.LVL61:
 255:..\src\app\alt_mode/alt_modes_mngr.c **** 
 618              		.loc 1 255 0
 619              		@ sp needed
 620 0006 10BD     		pop	{r4, pc}
 621              		.cfi_endproc
 622              	.LFE34:
 623              		.size	alt_mode_mngr_sleep, .-alt_mode_mngr_sleep
 624              		.section	.text.alt_mode_mngr_wakeup,"ax",%progbits
 625              		.align	2
 626              		.global	alt_mode_mngr_wakeup
 627              		.code	16
 628              		.thumb_func
 629              		.type	alt_mode_mngr_wakeup, %function
 630              	alt_mode_mngr_wakeup:
 631              	.LFB35:
 258:..\src\app\alt_mode/alt_modes_mngr.c ****     alt_mode_hw_wakeup (port);
 632              		.loc 1 258 0
 633              		.cfi_startproc
 634              		@ args = 0, pretend = 0, frame = 0
 635              		@ frame_needed = 0, uses_anonymous_args = 0
ARM GAS  e:\temp\ccP12Hvn.s 			page 34


 636              	.LVL62:
 637 0000 10B5     		push	{r4, lr}
 638              		.cfi_def_cfa_offset 8
 639              		.cfi_offset 4, -8
 640              		.cfi_offset 14, -4
 259:..\src\app\alt_mode/alt_modes_mngr.c **** }
 641              		.loc 1 259 0
 642 0002 FFF7FEFF 		bl	alt_mode_hw_wakeup
 643              	.LVL63:
 260:..\src\app\alt_mode/alt_modes_mngr.c **** 
 644              		.loc 1 260 0
 645              		@ sp needed
 646 0006 10BD     		pop	{r4, pc}
 647              		.cfi_endproc
 648              	.LFE35:
 649              		.size	alt_mode_mngr_wakeup, .-alt_mode_mngr_wakeup
 650              		.section	.text.vdm_task_mngr_alt_mode_process,"ax",%progbits
 651              		.align	2
 652              		.global	vdm_task_mngr_alt_mode_process
 653              		.code	16
 654              		.thumb_func
 655              		.type	vdm_task_mngr_alt_mode_process, %function
 656              	vdm_task_mngr_alt_mode_process:
 657              	.LFB36:
 263:..\src\app\alt_mode/alt_modes_mngr.c ****     /* Run alt modes manager ams table */
 658              		.loc 1 263 0
 659              		.cfi_startproc
 660              		@ args = 0, pretend = 0, frame = 0
 661              		@ frame_needed = 0, uses_anonymous_args = 0
 662              	.LVL64:
 663 0000 10B5     		push	{r4, lr}
 664              		.cfi_def_cfa_offset 8
 665              		.cfi_offset 4, -8
 666              		.cfi_offset 14, -4
 265:..\src\app\alt_mode/alt_modes_mngr.c **** }
 667              		.loc 1 265 0
 668 0002 7423     		movs	r3, #116
 669 0004 4343     		muls	r3, r0
 670 0006 064A     		ldr	r2, .L48
 671 0008 D318     		adds	r3, r2, r3
 672 000a 6833     		adds	r3, r3, #104
 673 000c 1B78     		ldrb	r3, [r3]
 674 000e 9B00     		lsls	r3, r3, #2
 675 0010 5918     		adds	r1, r3, r1
 676              	.LVL65:
 677 0012 8900     		lsls	r1, r1, #2
 678 0014 034B     		ldr	r3, .L48+4
 679 0016 5918     		adds	r1, r3, r1
 680 0018 4B68     		ldr	r3, [r1, #4]
 681 001a 9847     		blx	r3
 682              	.LVL66:
 266:..\src\app\alt_mode/alt_modes_mngr.c **** 
 683              		.loc 1 266 0
 684              		@ sp needed
 685 001c 10BD     		pop	{r4, pc}
 686              	.L49:
 687 001e C046     		.align	2
ARM GAS  e:\temp\ccP12Hvn.s 			page 35


 688              	.L48:
 689 0020 00000000 		.word	alt_mode
 690 0024 20000000 		.word	.LANCHOR0
 691              		.cfi_endproc
 692              	.LFE36:
 693              		.size	vdm_task_mngr_alt_mode_process, .-vdm_task_mngr_alt_mode_process
 694              		.section	.text.get_alt_mode_numb,"ax",%progbits
 695              		.align	2
 696              		.global	get_alt_mode_numb
 697              		.code	16
 698              		.thumb_func
 699              		.type	get_alt_mode_numb, %function
 700              	get_alt_mode_numb:
 701              	.LFB52:
1053:..\src\app\alt_mode/alt_modes_mngr.c ****     uint8_t am_numb = NO_DATA;    
 702              		.loc 1 1053 0
 703              		.cfi_startproc
 704              		@ args = 0, pretend = 0, frame = 0
 705              		@ frame_needed = 0, uses_anonymous_args = 0
 706              		@ link register save eliminated.
 707              	.LVL67:
1057:..\src\app\alt_mode/alt_modes_mngr.c ****     {
 708              		.loc 1 1057 0
 709 0000 034B     		ldr	r3, .L53
 710 0002 1B5C     		ldrb	r3, [r3, r0]
 711 0004 002B     		cmp	r3, #0
 712 0006 01D1     		bne	.L52
1054:..\src\app\alt_mode/alt_modes_mngr.c **** 
 713              		.loc 1 1054 0
 714 0008 0020     		movs	r0, #0
 715              	.LVL68:
 716 000a 00E0     		b	.L51
 717              	.LVL69:
 718              	.L52:
1059:..\src\app\alt_mode/alt_modes_mngr.c **** #if ALT_MODE_DIFF_CONFIG
 719              		.loc 1 1059 0
 720 000c 0120     		movs	r0, #1
 721              	.LVL70:
 722              	.L51:
1083:..\src\app\alt_mode/alt_modes_mngr.c **** 
 723              		.loc 1 1083 0
 724              		@ sp needed
 725 000e 7047     		bx	lr
 726              	.L54:
 727              		.align	2
 728              	.L53:
 729 0010 00000000 		.word	gl_dpm_port_type
 730              		.cfi_endproc
 731              	.LFE52:
 732              		.size	get_alt_mode_numb, .-get_alt_mode_numb
 733              		.section	.text.reg_alt_mode_mngr,"ax",%progbits
 734              		.align	2
 735              		.global	reg_alt_mode_mngr
 736              		.code	16
 737              		.thumb_func
 738              		.type	reg_alt_mode_mngr, %function
 739              	reg_alt_mode_mngr:
ARM GAS  e:\temp\ccP12Hvn.s 			page 36


 740              	.LFB32:
 166:..\src\app\alt_mode/alt_modes_mngr.c **** #if ((CCG_PD_REV3_ENABLE) && (UFP_ALT_MODE_SUPP) && (UFP_MODE_DISC_ENABLE))
 741              		.loc 1 166 0
 742              		.cfi_startproc
 743              		@ args = 0, pretend = 0, frame = 0
 744              		@ frame_needed = 0, uses_anonymous_args = 0
 745              	.LVL71:
 746 0000 70B5     		push	{r4, r5, r6, lr}
 747              		.cfi_def_cfa_offset 16
 748              		.cfi_offset 4, -16
 749              		.cfi_offset 5, -12
 750              		.cfi_offset 6, -8
 751              		.cfi_offset 14, -4
 752 0002 0400     		movs	r4, r0
 753 0004 0D00     		movs	r5, r1
 754 0006 1600     		movs	r6, r2
 171:..\src\app\alt_mode/alt_modes_mngr.c ****     alt_mode[port].vdm_info       = vdm_msg_info;
 755              		.loc 1 171 0
 756 0008 FFF7FEFF 		bl	get_alt_mode_numb
 757              	.LVL72:
 758 000c 7423     		movs	r3, #116
 759 000e 6343     		muls	r3, r4
 760 0010 1D4A     		ldr	r2, .L61
 761 0012 D318     		adds	r3, r2, r3
 762 0014 1A00     		movs	r2, r3
 763 0016 3032     		adds	r2, r2, #48
 764 0018 1070     		strb	r0, [r2]
 172:..\src\app\alt_mode/alt_modes_mngr.c **** 
 765              		.loc 1 172 0
 766 001a DE66     		str	r6, [r3, #108]
 175:..\src\app\alt_mode/alt_modes_mngr.c ****     {
 767              		.loc 1 175 0
 768 001c 1B4B     		ldr	r3, .L61+4
 769 001e 1B5D     		ldrb	r3, [r3, r4]
 770 0020 002B     		cmp	r3, #0
 771 0022 1ED0     		beq	.L56
 177:..\src\app\alt_mode/alt_modes_mngr.c ****         {
 772              		.loc 1 177 0
 773 0024 AB89     		ldrh	r3, [r5, #12]
 774 0026 002B     		cmp	r3, #0
 775 0028 27D0     		beq	.L58
 184:..\src\app\alt_mode/alt_modes_mngr.c ****             {
 776              		.loc 1 184 0
 777 002a 2000     		movs	r0, r4
 778 002c FFF7FEFF 		bl	get_alt_mode_numb
 779              	.LVL73:
 780 0030 0028     		cmp	r0, #0
 781 0032 24D0     		beq	.L59
 187:..\src\app\alt_mode/alt_modes_mngr.c ****                 /* Set alt modes mngr state to Discovery Mode process */
 782              		.loc 1 187 0
 783 0034 7423     		movs	r3, #116
 784 0036 6343     		muls	r3, r4
 785 0038 134A     		ldr	r2, .L61
 786 003a D318     		adds	r3, r2, r3
 787 003c DD60     		str	r5, [r3, #12]
 189:..\src\app\alt_mode/alt_modes_mngr.c ****                 alt_mode[port].state                   = ALT_MODE_MNGR_STATE_DISC_MODE;
 788              		.loc 1 189 0
ARM GAS  e:\temp\ccP12Hvn.s 			page 37


 789 003e 0122     		movs	r2, #1
 790 0040 5A70     		strb	r2, [r3, #1]
 190:..\src\app\alt_mode/alt_modes_mngr.c ****                 /* Set alt mode trigger based on config */
 791              		.loc 1 190 0
 792 0042 6833     		adds	r3, r3, #104
 793 0044 0022     		movs	r2, #0
 794 0046 1A70     		strb	r2, [r3]
 192:..\src\app\alt_mode/alt_modes_mngr.c ****                 return VDM_TASK_ALT_MODE;
 795              		.loc 1 192 0
 796 0048 2000     		movs	r0, r4
 797 004a FFF7FEFF 		bl	app_get_status
 798              	.LVL74:
 799 004e 0500     		movs	r5, r0
 800              	.LVL75:
 801 0050 2000     		movs	r0, r4
 802 0052 FFF7FEFF 		bl	get_pd_port_config
 803              	.LVL76:
 804 0056 A223     		movs	r3, #162
 805 0058 C25C     		ldrb	r2, [r0, r3]
 806 005a 673B     		subs	r3, r3, #103
 807 005c EA54     		strb	r2, [r5, r3]
 193:..\src\app\alt_mode/alt_modes_mngr.c ****             }
 808              		.loc 1 193 0
 809 005e 0720     		movs	r0, #7
 810 0060 10E0     		b	.L57
 811              	.LVL77:
 812              	.L56:
 203:..\src\app\alt_mode/alt_modes_mngr.c ****         {
 813              		.loc 1 203 0
 814 0062 AB89     		ldrh	r3, [r5, #12]
 815 0064 002B     		cmp	r3, #0
 816 0066 0CD1     		bne	.L60
 206:..\src\app\alt_mode/alt_modes_mngr.c ****             return VDM_TASK_ALT_MODE;
 817              		.loc 1 206 0
 818 0068 7433     		adds	r3, r3, #116
 819 006a 5C43     		muls	r4, r3
 820 006c 064B     		ldr	r3, .L61
 821 006e 1C19     		adds	r4, r3, r4
 822 0070 6834     		adds	r4, r4, #104
 823 0072 0123     		movs	r3, #1
 824 0074 2370     		strb	r3, [r4]
 207:..\src\app\alt_mode/alt_modes_mngr.c ****         }
 825              		.loc 1 207 0
 826 0076 0720     		movs	r0, #7
 827 0078 04E0     		b	.L57
 828              	.L58:
 180:..\src\app\alt_mode/alt_modes_mngr.c ****         }
 829              		.loc 1 180 0
 830 007a 0520     		movs	r0, #5
 831 007c 02E0     		b	.L57
 832              	.L59:
 221:..\src\app\alt_mode/alt_modes_mngr.c **** }
 833              		.loc 1 221 0
 834 007e 0520     		movs	r0, #5
 835 0080 00E0     		b	.L57
 836              	.L60:
 837 0082 0520     		movs	r0, #5
ARM GAS  e:\temp\ccP12Hvn.s 			page 38


 838              	.LVL78:
 839              	.L57:
 222:..\src\app\alt_mode/alt_modes_mngr.c **** 
 840              		.loc 1 222 0
 841              		@ sp needed
 842              	.LVL79:
 843 0084 70BD     		pop	{r4, r5, r6, pc}
 844              	.L62:
 845 0086 C046     		.align	2
 846              	.L61:
 847 0088 00000000 		.word	alt_mode
 848 008c 00000000 		.word	gl_dpm_port_type
 849              		.cfi_endproc
 850              	.LFE32:
 851              		.size	reg_alt_mode_mngr, .-reg_alt_mode_mngr
 852              		.section	.text.is_svid_supported,"ax",%progbits
 853              		.align	2
 854              		.global	is_svid_supported
 855              		.code	16
 856              		.thumb_func
 857              		.type	is_svid_supported, %function
 858              	is_svid_supported:
 859              	.LFB47:
 856:..\src\app\alt_mode/alt_modes_mngr.c ****     uint8_t idx, am_numb;
 860              		.loc 1 856 0
 861              		.cfi_startproc
 862              		@ args = 0, pretend = 0, frame = 0
 863              		@ frame_needed = 0, uses_anonymous_args = 0
 864              	.LVL80:
 865 0000 10B5     		push	{r4, lr}
 866              		.cfi_def_cfa_offset 8
 867              		.cfi_offset 4, -8
 868              		.cfi_offset 14, -4
 869 0002 0400     		movs	r4, r0
 870              	.LVL81:
 860:..\src\app\alt_mode/alt_modes_mngr.c **** 
 871              		.loc 1 860 0
 872 0004 0800     		movs	r0, r1
 873              	.LVL82:
 874 0006 FFF7FEFF 		bl	get_alt_mode_numb
 875              	.LVL83:
 863:..\src\app\alt_mode/alt_modes_mngr.c ****     {
 876              		.loc 1 863 0
 877 000a 0023     		movs	r3, #0
 878 000c 06E0     		b	.L64
 879              	.LVL84:
 880              	.L66:
 878:..\src\app\alt_mode/alt_modes_mngr.c ****         {
 881              		.loc 1 878 0
 882 000e DA00     		lsls	r2, r3, #3
 883 0010 0549     		ldr	r1, .L68
 884 0012 525A     		ldrh	r2, [r2, r1]
 885 0014 A242     		cmp	r2, r4
 886 0016 05D0     		beq	.L67
 863:..\src\app\alt_mode/alt_modes_mngr.c ****     {
 887              		.loc 1 863 0 discriminator 2
 888 0018 0133     		adds	r3, r3, #1
ARM GAS  e:\temp\ccP12Hvn.s 			page 39


 889              	.LVL85:
 890 001a DBB2     		uxtb	r3, r3
 891              	.LVL86:
 892              	.L64:
 863:..\src\app\alt_mode/alt_modes_mngr.c ****     {
 893              		.loc 1 863 0 is_stmt 0 discriminator 1
 894 001c 8342     		cmp	r3, r0
 895 001e F6D3     		bcc	.L66
 884:..\src\app\alt_mode/alt_modes_mngr.c **** }
 896              		.loc 1 884 0 is_stmt 1
 897 0020 0020     		movs	r0, #0
 898              	.LVL87:
 899 0022 00E0     		b	.L65
 900              	.LVL88:
 901              	.L67:
 880:..\src\app\alt_mode/alt_modes_mngr.c ****         }
 902              		.loc 1 880 0
 903 0024 0120     		movs	r0, #1
 904              	.LVL89:
 905              	.L65:
 885:..\src\app\alt_mode/alt_modes_mngr.c **** 
 906              		.loc 1 885 0
 907              		@ sp needed
 908 0026 10BD     		pop	{r4, pc}
 909              	.L69:
 910              		.align	2
 911              	.L68:
 912 0028 20000000 		.word	.LANCHOR0
 913              		.cfi_endproc
 914              	.LFE47:
 915              		.size	is_svid_supported, .-is_svid_supported
 916              		.section	.text.is_alt_modes_available,"ax",%progbits
 917              		.align	2
 918              		.global	is_alt_modes_available
 919              		.code	16
 920              		.thumb_func
 921              		.type	is_alt_modes_available, %function
 922              	is_alt_modes_available:
 923              	.LFB53:
1086:..\src\app\alt_mode/alt_modes_mngr.c ****     uint8_t stat = false;
 924              		.loc 1 1086 0
 925              		.cfi_startproc
 926              		@ args = 0, pretend = 0, frame = 0
 927              		@ frame_needed = 0, uses_anonymous_args = 0
 928              	.LVL90:
 929 0000 30B5     		push	{r4, r5, lr}
 930              		.cfi_def_cfa_offset 12
 931              		.cfi_offset 4, -12
 932              		.cfi_offset 5, -8
 933              		.cfi_offset 14, -4
 934              	.LVL91:
1092:..\src\app\alt_mode/alt_modes_mngr.c **** 
 935              		.loc 1 1092 0
 936 0002 144B     		ldr	r3, .L77
 937 0004 1D5C     		ldrb	r5, [r3, r0]
 938              	.LVL92:
1091:..\src\app\alt_mode/alt_modes_mngr.c ****     port_type_t port_type      = gl_dpm_port_type[port];
ARM GAS  e:\temp\ccP12Hvn.s 			page 40


 939              		.loc 1 1091 0
 940 0006 0021     		movs	r1, #0
1094:..\src\app\alt_mode/alt_modes_mngr.c ****     {
 941              		.loc 1 1094 0
 942 0008 0022     		movs	r2, #0
 943 000a 17E0     		b	.L71
 944              	.LVL93:
 945              	.L75:
1097:..\src\app\alt_mode/alt_modes_mngr.c ****         {
 946              		.loc 1 1097 0
 947 000c 002D     		cmp	r5, #0
 948 000e 02D0     		beq	.L72
1099:..\src\app\alt_mode/alt_modes_mngr.c ****         }
 949              		.loc 1 1099 0
 950 0010 D300     		lsls	r3, r2, #3
 951 0012 1149     		ldr	r1, .L77+4
 952              	.LVL94:
 953 0014 C918     		adds	r1, r1, r3
 954              	.LVL95:
 955              	.L72:
1111:..\src\app\alt_mode/alt_modes_mngr.c ****         {
 956              		.loc 1 1111 0
 957 0016 0029     		cmp	r1, #0
 958 0018 0ED0     		beq	.L73
1111:..\src\app\alt_mode/alt_modes_mngr.c ****         {
 959              		.loc 1 1111 0 is_stmt 0 discriminator 1
 960 001a 0B88     		ldrh	r3, [r1]
 961 001c 002B     		cmp	r3, #0
 962 001e 0BD0     		beq	.L73
1113:..\src\app\alt_mode/alt_modes_mngr.c ****             {
 963              		.loc 1 1113 0 is_stmt 1
 964 0020 002D     		cmp	r5, #0
 965 0022 15D1     		bne	.L76
1116:..\src\app\alt_mode/alt_modes_mngr.c ****             }
 966              		.loc 1 1116 0
 967 0024 7423     		movs	r3, #116
 968 0026 5843     		muls	r0, r3
 969              	.LVL96:
 970 0028 0C4B     		ldr	r3, .L77+8
 971 002a 1818     		adds	r0, r3, r0
 972 002c 0300     		movs	r3, r0
 973 002e 7033     		adds	r3, r3, #112
 974 0030 0022     		movs	r2, #0
 975              	.LVL97:
 976 0032 1A70     		strb	r2, [r3]
1118:..\src\app\alt_mode/alt_modes_mngr.c ****             break;
 977              		.loc 1 1118 0
 978 0034 0120     		movs	r0, #1
 979 0036 0CE0     		b	.L74
 980              	.LVL98:
 981              	.L73:
1094:..\src\app\alt_mode/alt_modes_mngr.c ****     {
 982              		.loc 1 1094 0 discriminator 2
 983 0038 0132     		adds	r2, r2, #1
 984              	.LVL99:
 985 003a D2B2     		uxtb	r2, r2
 986              	.LVL100:
ARM GAS  e:\temp\ccP12Hvn.s 			page 41


 987              	.L71:
1094:..\src\app\alt_mode/alt_modes_mngr.c ****     {
 988              		.loc 1 1094 0 is_stmt 0 discriminator 1
 989 003c 7423     		movs	r3, #116
 990 003e 4343     		muls	r3, r0
 991 0040 064C     		ldr	r4, .L77+8
 992 0042 E318     		adds	r3, r4, r3
 993 0044 3033     		adds	r3, r3, #48
 994 0046 1B78     		ldrb	r3, [r3]
 995 0048 9A42     		cmp	r2, r3
 996 004a DFD3     		bcc	.L75
1087:..\src\app\alt_mode/alt_modes_mngr.c **** 
 997              		.loc 1 1087 0 is_stmt 1
 998 004c 0020     		movs	r0, #0
 999              	.LVL101:
 1000 004e 00E0     		b	.L74
 1001              	.LVL102:
 1002              	.L76:
1118:..\src\app\alt_mode/alt_modes_mngr.c ****             break;
 1003              		.loc 1 1118 0
 1004 0050 0120     		movs	r0, #1
 1005              	.LVL103:
 1006              	.L74:
1125:..\src\app\alt_mode/alt_modes_mngr.c **** 
 1007              		.loc 1 1125 0
 1008              		@ sp needed
 1009              	.LVL104:
 1010 0052 30BD     		pop	{r4, r5, pc}
 1011              	.L78:
 1012              		.align	2
 1013              	.L77:
 1014 0054 00000000 		.word	gl_dpm_port_type
 1015 0058 20000000 		.word	.LANCHOR0
 1016 005c 00000000 		.word	alt_mode
 1017              		.cfi_endproc
 1018              	.LFE53:
 1019              		.size	is_alt_modes_available, .-is_alt_modes_available
 1020              		.section	.text.reset_alt_mode_info,"ax",%progbits
 1021              		.align	2
 1022              		.global	reset_alt_mode_info
 1023              		.code	16
 1024              		.thumb_func
 1025              		.type	reset_alt_mode_info, %function
 1026              	reset_alt_mode_info:
 1027              	.LFB56:
1196:..\src\app\alt_mode/alt_modes_mngr.c ****     memset(info, 0, sizeof(*info));
 1028              		.loc 1 1196 0
 1029              		.cfi_startproc
 1030              		@ args = 0, pretend = 0, frame = 0
 1031              		@ frame_needed = 0, uses_anonymous_args = 0
 1032              	.LVL105:
 1033 0000 10B5     		push	{r4, lr}
 1034              		.cfi_def_cfa_offset 8
 1035              		.cfi_offset 4, -8
 1036              		.cfi_offset 14, -4
1197:..\src\app\alt_mode/alt_modes_mngr.c **** }
 1037              		.loc 1 1197 0
ARM GAS  e:\temp\ccP12Hvn.s 			page 42


 1038 0002 3022     		movs	r2, #48
 1039 0004 0021     		movs	r1, #0
 1040 0006 FFF7FEFF 		bl	memset
 1041              	.LVL106:
1198:..\src\app\alt_mode/alt_modes_mngr.c **** 
 1042              		.loc 1 1198 0
 1043              		@ sp needed
 1044 000a 10BD     		pop	{r4, pc}
 1045              		.cfi_endproc
 1046              	.LFE56:
 1047              		.size	reset_alt_mode_info, .-reset_alt_mode_info
 1048              		.section	.text.get_vdm_buff,"ax",%progbits
 1049              		.align	2
 1050              		.global	get_vdm_buff
 1051              		.code	16
 1052              		.thumb_func
 1053              		.type	get_vdm_buff, %function
 1054              	get_vdm_buff:
 1055              	.LFB58:
1204:..\src\app\alt_mode/alt_modes_mngr.c **** 
1205:..\src\app\alt_mode/alt_modes_mngr.c **** dpm_pd_cmd_buf_t* get_vdm_buff(uint8_t port)
1206:..\src\app\alt_mode/alt_modes_mngr.c **** {
 1056              		.loc 1 1206 0
 1057              		.cfi_startproc
 1058              		@ args = 0, pretend = 0, frame = 0
 1059              		@ frame_needed = 0, uses_anonymous_args = 0
 1060              		@ link register save eliminated.
 1061              	.LVL107:
1207:..\src\app\alt_mode/alt_modes_mngr.c ****     return &(alt_mode[port].vdm_buf);
 1062              		.loc 1 1207 0
 1063 0000 7423     		movs	r3, #116
 1064 0002 5843     		muls	r0, r3
 1065              	.LVL108:
 1066 0004 3030     		adds	r0, r0, #48
 1067 0006 024B     		ldr	r3, .L81
 1068 0008 C018     		adds	r0, r0, r3
 1069 000a 0430     		adds	r0, r0, #4
1208:..\src\app\alt_mode/alt_modes_mngr.c **** }
 1070              		.loc 1 1208 0
 1071              		@ sp needed
 1072 000c 7047     		bx	lr
 1073              	.L82:
 1074 000e C046     		.align	2
 1075              	.L81:
 1076 0010 00000000 		.word	alt_mode
 1077              		.cfi_endproc
 1078              	.LFE58:
 1079              		.size	get_vdm_buff, .-get_vdm_buff
 1080              		.section	.text.form_alt_mode_event,"ax",%progbits
 1081              		.align	2
 1082              		.global	form_alt_mode_event
 1083              		.code	16
 1084              		.thumb_func
 1085              		.type	form_alt_mode_event, %function
 1086              	form_alt_mode_event:
 1087              	.LFB61:
1209:..\src\app\alt_mode/alt_modes_mngr.c **** 
ARM GAS  e:\temp\ccP12Hvn.s 			page 43


1210:..\src\app\alt_mode/alt_modes_mngr.c **** /******************* ALT MODE Solution Related Functions ****************************/
1211:..\src\app\alt_mode/alt_modes_mngr.c **** 
1212:..\src\app\alt_mode/alt_modes_mngr.c **** /* Function to exit all active alternate modes. */
1213:..\src\app\alt_mode/alt_modes_mngr.c **** void alt_mode_mngr_exit_all(uint8_t port)
1214:..\src\app\alt_mode/alt_modes_mngr.c **** {
1215:..\src\app\alt_mode/alt_modes_mngr.c **** #if DFP_ALT_MODE_SUPP
1216:..\src\app\alt_mode/alt_modes_mngr.c ****     uint8_t             alt_mode_idx;
1217:..\src\app\alt_mode/alt_modes_mngr.c ****     alt_mode_info_t     *am_info_p = NULL;
1218:..\src\app\alt_mode/alt_modes_mngr.c **** 
1219:..\src\app\alt_mode/alt_modes_mngr.c ****     if (gl_dpm_port_type[port] != PRT_TYPE_DFP)
1220:..\src\app\alt_mode/alt_modes_mngr.c ****     {
1221:..\src\app\alt_mode/alt_modes_mngr.c ****         /* Nothing to do if the port is not DFP. */
1222:..\src\app\alt_mode/alt_modes_mngr.c ****         return;
1223:..\src\app\alt_mode/alt_modes_mngr.c ****     }
1224:..\src\app\alt_mode/alt_modes_mngr.c **** 
1225:..\src\app\alt_mode/alt_modes_mngr.c ****     /* For each alternate mode, initiate mode exit. */
1226:..\src\app\alt_mode/alt_modes_mngr.c ****     for (alt_mode_idx = 0; alt_mode_idx < alt_mode[port].alt_modes_numb; alt_mode_idx++)
1227:..\src\app\alt_mode/alt_modes_mngr.c ****     {
1228:..\src\app\alt_mode/alt_modes_mngr.c ****         if (IS_FLAG_CHECKED(alt_mode[port].am_active_modes, alt_mode_idx))
1229:..\src\app\alt_mode/alt_modes_mngr.c ****         {
1230:..\src\app\alt_mode/alt_modes_mngr.c ****             am_info_p = get_mode_info (port, alt_mode_idx);
1231:..\src\app\alt_mode/alt_modes_mngr.c ****             if (am_info_p != NULL)
1232:..\src\app\alt_mode/alt_modes_mngr.c ****             {
1233:..\src\app\alt_mode/alt_modes_mngr.c ****                 am_info_p->mode_state = ALT_MODE_STATE_EXIT;
1234:..\src\app\alt_mode/alt_modes_mngr.c ****                 if (am_info_p->cbk != NULL)
1235:..\src\app\alt_mode/alt_modes_mngr.c ****                 {
1236:..\src\app\alt_mode/alt_modes_mngr.c ****                     am_info_p->cbk (port);
1237:..\src\app\alt_mode/alt_modes_mngr.c ****                 }
1238:..\src\app\alt_mode/alt_modes_mngr.c ****             }
1239:..\src\app\alt_mode/alt_modes_mngr.c ****         }
1240:..\src\app\alt_mode/alt_modes_mngr.c ****     }
1241:..\src\app\alt_mode/alt_modes_mngr.c **** #endif /* DFP_ALT_MODE_SUPP */
1242:..\src\app\alt_mode/alt_modes_mngr.c **** }
1243:..\src\app\alt_mode/alt_modes_mngr.c **** 
1244:..\src\app\alt_mode/alt_modes_mngr.c **** #if ((CCG_HPI_ENABLE) || (APP_ALTMODE_CMD_ENABLE))
1245:..\src\app\alt_mode/alt_modes_mngr.c **** 
1246:..\src\app\alt_mode/alt_modes_mngr.c **** bool eval_app_alt_mode_cmd(uint8_t port, uint8_t *cmd, uint8_t *data)
1247:..\src\app\alt_mode/alt_modes_mngr.c **** {
1248:..\src\app\alt_mode/alt_modes_mngr.c ****     alt_mode_evt_t  cmd_info, cmd_data;
1249:..\src\app\alt_mode/alt_modes_mngr.c ****     alt_mode_info_t *am_info_p = NULL;
1250:..\src\app\alt_mode/alt_modes_mngr.c ****     uint8_t         alt_mode_idx;
1251:..\src\app\alt_mode/alt_modes_mngr.c ****     bool            found = false;
1252:..\src\app\alt_mode/alt_modes_mngr.c **** 
1253:..\src\app\alt_mode/alt_modes_mngr.c ****     /* Convert received cmd bytes as info and data */
1254:..\src\app\alt_mode/alt_modes_mngr.c ****     cmd_info = (alt_mode_evt_t)MAKE_DWORD(cmd[3], cmd[2], cmd[1], cmd[0]);
1255:..\src\app\alt_mode/alt_modes_mngr.c ****     cmd_data = (alt_mode_evt_t)MAKE_DWORD(data[3], data[2], data[1], data[0]);
1256:..\src\app\alt_mode/alt_modes_mngr.c **** 
1257:..\src\app\alt_mode/alt_modes_mngr.c **** #if ((CCG_PD_REV3_ENABLE) && (UFP_ALT_MODE_SUPP) && (UFP_MODE_DISC_ENABLE))
1258:..\src\app\alt_mode/alt_modes_mngr.c ****     /* Check if received app command is start discover process for UFP when PD 3.0 supported */
1259:..\src\app\alt_mode/alt_modes_mngr.c ****     if (
1260:..\src\app\alt_mode/alt_modes_mngr.c ****             (alt_mode[port].pd3_ufp) &&
1261:..\src\app\alt_mode/alt_modes_mngr.c ****             (cmd_info.alt_mode_event.data_role == PRT_TYPE_UFP) &&
1262:..\src\app\alt_mode/alt_modes_mngr.c ****             (cmd_info.alt_mode_event.alt_mode_evt == AM_CMD_RUN_UFP_DISC)
1263:..\src\app\alt_mode/alt_modes_mngr.c ****        )
1264:..\src\app\alt_mode/alt_modes_mngr.c ****     {
1265:..\src\app\alt_mode/alt_modes_mngr.c ****         /* Try to start Discovery process if VDM manager is not busy  */
1266:..\src\app\alt_mode/alt_modes_mngr.c ****         return is_ufp_disc_started(port);
ARM GAS  e:\temp\ccP12Hvn.s 			page 44


1267:..\src\app\alt_mode/alt_modes_mngr.c ****     }
1268:..\src\app\alt_mode/alt_modes_mngr.c **** #endif /* (CCG_PD_REV3_ENABLE) && (UFP_ALT_MODE_SUPP) && (UFP_MODE_DISC_ENABLE)) */
1269:..\src\app\alt_mode/alt_modes_mngr.c **** 
1270:..\src\app\alt_mode/alt_modes_mngr.c ****     /* Look for the alternate mode entry which matches the SVID and alt mode id. */
1271:..\src\app\alt_mode/alt_modes_mngr.c ****     for (alt_mode_idx = 0; alt_mode_idx < alt_mode[port].alt_modes_numb; alt_mode_idx++)
1272:..\src\app\alt_mode/alt_modes_mngr.c ****     {
1273:..\src\app\alt_mode/alt_modes_mngr.c ****         /* If mode is supported. */
1274:..\src\app\alt_mode/alt_modes_mngr.c ****         if (IS_FLAG_CHECKED(alt_mode[port].am_supported_modes, alt_mode_idx))
1275:..\src\app\alt_mode/alt_modes_mngr.c ****         {
1276:..\src\app\alt_mode/alt_modes_mngr.c ****             am_info_p = get_mode_info (port, alt_mode_idx);
1277:..\src\app\alt_mode/alt_modes_mngr.c ****             if ((am_info_p->VDM_HDR.svid == cmd_info.alt_mode_event.svid) &&
1278:..\src\app\alt_mode/alt_modes_mngr.c ****                 (am_info_p->alt_mode_id  == cmd_info.alt_mode_event.alt_mode))
1279:..\src\app\alt_mode/alt_modes_mngr.c ****             {
1280:..\src\app\alt_mode/alt_modes_mngr.c ****                 found = true;
1281:..\src\app\alt_mode/alt_modes_mngr.c ****                 break;
1282:..\src\app\alt_mode/alt_modes_mngr.c ****             }
1283:..\src\app\alt_mode/alt_modes_mngr.c ****         }
1284:..\src\app\alt_mode/alt_modes_mngr.c ****     }
1285:..\src\app\alt_mode/alt_modes_mngr.c **** 
1286:..\src\app\alt_mode/alt_modes_mngr.c **** #if DFP_ALT_MODE_SUPP
1287:..\src\app\alt_mode/alt_modes_mngr.c ****     if ((gl_dpm_port_type[port] != PRT_TYPE_UFP) && (cmd_info.alt_mode_event.data_role != PRT_TYPE_
1288:..\src\app\alt_mode/alt_modes_mngr.c ****     {
1289:..\src\app\alt_mode/alt_modes_mngr.c **** 		if (cmd_info.alt_mode_event.alt_mode_evt == AM_SET_TRIGGER_MASK)
1290:..\src\app\alt_mode/alt_modes_mngr.c ****         {
1291:..\src\app\alt_mode/alt_modes_mngr.c **** 			app_get_status(port)->alt_mode_trig_mask = (uint8_t)cmd_data.alt_mode_event_data.evt_data;
1292:..\src\app\alt_mode/alt_modes_mngr.c ****             return true;
1293:..\src\app\alt_mode/alt_modes_mngr.c ****         }
1294:..\src\app\alt_mode/alt_modes_mngr.c ****         /* Check if Enter command and trigger is set */
1295:..\src\app\alt_mode/alt_modes_mngr.c ****         if (cmd_info.alt_mode_event.alt_mode_evt == AM_CMD_ENTER)
1296:..\src\app\alt_mode/alt_modes_mngr.c ****         {
1297:..\src\app\alt_mode/alt_modes_mngr.c ****             /* If we found an alternate mode entry for this {SVID, ID} pair. */
1298:..\src\app\alt_mode/alt_modes_mngr.c ****             if (found)
1299:..\src\app\alt_mode/alt_modes_mngr.c ****             {
1300:..\src\app\alt_mode/alt_modes_mngr.c ****                 if ((am_info_p->cbk != NULL) && (am_info_p->is_active == false))
1301:..\src\app\alt_mode/alt_modes_mngr.c ****                 {
1302:..\src\app\alt_mode/alt_modes_mngr.c ****                     /* Set flag as active mode */
1303:..\src\app\alt_mode/alt_modes_mngr.c ****                     SET_FLAG(alt_mode[port].am_active_modes, alt_mode_idx);
1304:..\src\app\alt_mode/alt_modes_mngr.c ****                     REMOVE_FLAG(alt_mode[port].am_exited_modes, alt_mode_idx);
1305:..\src\app\alt_mode/alt_modes_mngr.c **** 
1306:..\src\app\alt_mode/alt_modes_mngr.c ****                     /* Inits alt mode */
1307:..\src\app\alt_mode/alt_modes_mngr.c ****                     am_info_p->mode_state = ALT_MODE_STATE_INIT;
1308:..\src\app\alt_mode/alt_modes_mngr.c ****                     am_info_p->cbk(port);
1309:..\src\app\alt_mode/alt_modes_mngr.c **** 
1310:..\src\app\alt_mode/alt_modes_mngr.c ****                     /* Goto alt mode processing */
1311:..\src\app\alt_mode/alt_modes_mngr.c ****                     alt_mode[port].state = ALT_MODE_MNGR_STATE_PROCESS;
1312:..\src\app\alt_mode/alt_modes_mngr.c ****                     return true;
1313:..\src\app\alt_mode/alt_modes_mngr.c ****                 }
1314:..\src\app\alt_mode/alt_modes_mngr.c ****             }
1315:..\src\app\alt_mode/alt_modes_mngr.c ****             return false;
1316:..\src\app\alt_mode/alt_modes_mngr.c ****         }
1317:..\src\app\alt_mode/alt_modes_mngr.c ****     }
1318:..\src\app\alt_mode/alt_modes_mngr.c **** #endif /* DFP_ALT_MODE_SUPP */
1319:..\src\app\alt_mode/alt_modes_mngr.c **** 
1320:..\src\app\alt_mode/alt_modes_mngr.c ****     if ((found) && (am_info_p->is_active == true) && (am_info_p->mode_state == ALT_MODE_STATE_IDLE)
1321:..\src\app\alt_mode/alt_modes_mngr.c ****          (cmd_info.alt_mode_event.data_role == gl_dpm_port_type[port]))
1322:..\src\app\alt_mode/alt_modes_mngr.c ****     {
1323:..\src\app\alt_mode/alt_modes_mngr.c ****         /* If received cmd is specific alt mode command */
ARM GAS  e:\temp\ccP12Hvn.s 			page 45


1324:..\src\app\alt_mode/alt_modes_mngr.c ****         if (cmd_info.alt_mode_event.alt_mode_evt == AM_CMD_SPEC)
1325:..\src\app\alt_mode/alt_modes_mngr.c ****         {
1326:..\src\app\alt_mode/alt_modes_mngr.c ****             return (am_info_p->eval_app_cmd(port, cmd_data));
1327:..\src\app\alt_mode/alt_modes_mngr.c ****         }
1328:..\src\app\alt_mode/alt_modes_mngr.c **** #if DFP_ALT_MODE_SUPP
1329:..\src\app\alt_mode/alt_modes_mngr.c ****         else if (cmd_info.alt_mode_event.alt_mode_evt == AM_CMD_EXIT)
1330:..\src\app\alt_mode/alt_modes_mngr.c ****         {
1331:..\src\app\alt_mode/alt_modes_mngr.c ****             if (gl_dpm_port_type[port] != PRT_TYPE_UFP)
1332:..\src\app\alt_mode/alt_modes_mngr.c ****             {
1333:..\src\app\alt_mode/alt_modes_mngr.c ****                 am_info_p->mode_state = ALT_MODE_STATE_EXIT;
1334:..\src\app\alt_mode/alt_modes_mngr.c ****                 if (am_info_p->cbk != NULL)
1335:..\src\app\alt_mode/alt_modes_mngr.c ****                 {
1336:..\src\app\alt_mode/alt_modes_mngr.c ****                     am_info_p->cbk(port);
1337:..\src\app\alt_mode/alt_modes_mngr.c ****                     return true;
1338:..\src\app\alt_mode/alt_modes_mngr.c ****                 }
1339:..\src\app\alt_mode/alt_modes_mngr.c ****             }
1340:..\src\app\alt_mode/alt_modes_mngr.c ****         }
1341:..\src\app\alt_mode/alt_modes_mngr.c **** #endif /* DFP_ALT_MODE_SUPP */
1342:..\src\app\alt_mode/alt_modes_mngr.c ****     }
1343:..\src\app\alt_mode/alt_modes_mngr.c **** 
1344:..\src\app\alt_mode/alt_modes_mngr.c ****     return false;
1345:..\src\app\alt_mode/alt_modes_mngr.c **** }
1346:..\src\app\alt_mode/alt_modes_mngr.c **** 
1347:..\src\app\alt_mode/alt_modes_mngr.c **** #endif /* ((CCG_HPI_ENABLE) || (APP_ALTMODE_CMD_ENABLE)) */
1348:..\src\app\alt_mode/alt_modes_mngr.c **** 
1349:..\src\app\alt_mode/alt_modes_mngr.c **** const uint32_t* form_alt_mode_event(uint8_t port, uint16_t svid, uint8_t am_idx, alt_mode_app_evt_t
1350:..\src\app\alt_mode/alt_modes_mngr.c **** {
 1088              		.loc 1 1350 0
 1089              		.cfi_startproc
 1090              		@ args = 4, pretend = 0, frame = 0
 1091              		@ frame_needed = 0, uses_anonymous_args = 0
 1092              	.LVL109:
 1093 0000 10B5     		push	{r4, lr}
 1094              		.cfi_def_cfa_offset 8
 1095              		.cfi_offset 4, -8
 1096              		.cfi_offset 14, -4
1351:..\src\app\alt_mode/alt_modes_mngr.c ****     alt_mode_evt_t temp;
1352:..\src\app\alt_mode/alt_modes_mngr.c **** 
1353:..\src\app\alt_mode/alt_modes_mngr.c ****     temp.alt_mode_event.svid                           = (uint32_t)svid;
1354:..\src\app\alt_mode/alt_modes_mngr.c ****     temp.alt_mode_event.alt_mode                       = (uint32_t)am_idx;
 1097              		.loc 1 1354 0
 1098 0002 1202     		lsls	r2, r2, #8
 1099              	.LVL110:
 1100 0004 0904     		lsls	r1, r1, #16
 1101              	.LVL111:
1355:..\src\app\alt_mode/alt_modes_mngr.c ****     temp.alt_mode_event.alt_mode_evt                   = (uint32_t)evt;
 1102              		.loc 1 1355 0
 1103 0006 7F24     		movs	r4, #127
 1104 0008 2340     		ands	r3, r4
 1105              	.LVL112:
 1106 000a 5C00     		lsls	r4, r3, #1
 1107 000c 0B00     		movs	r3, r1
 1108 000e 1343     		orrs	r3, r2
 1109 0010 2343     		orrs	r3, r4
 1110              	.LVL113:
1356:..\src\app\alt_mode/alt_modes_mngr.c ****     temp.alt_mode_event.data_role                      = (uint32_t)gl_dpm_port_type[port];
 1111              		.loc 1 1356 0
ARM GAS  e:\temp\ccP12Hvn.s 			page 46


 1112 0012 0D4A     		ldr	r2, .L85
 1113 0014 125C     		ldrb	r2, [r2, r0]
 1114 0016 0121     		movs	r1, #1
 1115 0018 0A40     		ands	r2, r1
 1116              	.LVL114:
 1117 001a 1343     		orrs	r3, r2
 1118              	.LVL115:
1357:..\src\app\alt_mode/alt_modes_mngr.c ****     alt_mode[port].app_evt_data[ALT_MODE_EVT_IDX]      = temp.val;
 1119              		.loc 1 1357 0
 1120 001c 7422     		movs	r2, #116
 1121 001e 4243     		muls	r2, r0
 1122 0020 0A49     		ldr	r1, .L85+4
 1123 0022 8A18     		adds	r2, r1, r2
 1124              	.LVL116:
 1125 0024 1366     		str	r3, [r2, #96]
1358:..\src\app\alt_mode/alt_modes_mngr.c ****     alt_mode[port].app_evt_data[ALT_MODE_EVT_DATA_IDX] = NO_DATA;
 1126              		.loc 1 1358 0
 1127 0026 0023     		movs	r3, #0
 1128              	.LVL117:
 1129 0028 5366     		str	r3, [r2, #100]
1359:..\src\app\alt_mode/alt_modes_mngr.c **** 
1360:..\src\app\alt_mode/alt_modes_mngr.c ****     if (data != NO_DATA)
 1130              		.loc 1 1360 0
 1131 002a 029B     		ldr	r3, [sp, #8]
 1132 002c 002B     		cmp	r3, #0
 1133 002e 04D0     		beq	.L84
1361:..\src\app\alt_mode/alt_modes_mngr.c ****     {
1362:..\src\app\alt_mode/alt_modes_mngr.c ****         alt_mode[port].app_evt_data[ALT_MODE_EVT_DATA_IDX] = data;
 1134              		.loc 1 1362 0
 1135 0030 7423     		movs	r3, #116
 1136 0032 4343     		muls	r3, r0
 1137 0034 CB18     		adds	r3, r1, r3
 1138 0036 029A     		ldr	r2, [sp, #8]
 1139 0038 5A66     		str	r2, [r3, #100]
 1140              	.L84:
1363:..\src\app\alt_mode/alt_modes_mngr.c ****     }
1364:..\src\app\alt_mode/alt_modes_mngr.c **** 
1365:..\src\app\alt_mode/alt_modes_mngr.c ****     return alt_mode[port].app_evt_data;
 1141              		.loc 1 1365 0
 1142 003a 7423     		movs	r3, #116
 1143 003c 5843     		muls	r0, r3
 1144              	.LVL118:
 1145 003e 6030     		adds	r0, r0, #96
 1146 0040 024B     		ldr	r3, .L85+4
 1147 0042 C018     		adds	r0, r0, r3
1366:..\src\app\alt_mode/alt_modes_mngr.c **** }
 1148              		.loc 1 1366 0
 1149              		@ sp needed
 1150 0044 10BD     		pop	{r4, pc}
 1151              	.L86:
 1152 0046 C046     		.align	2
 1153              	.L85:
 1154 0048 00000000 		.word	gl_dpm_port_type
 1155 004c 00000000 		.word	alt_mode
 1156              		.cfi_endproc
 1157              	.LFE61:
 1158              		.size	form_alt_mode_event, .-form_alt_mode_event
ARM GAS  e:\temp\ccP12Hvn.s 			page 47


 1159              		.section	.text.send_sln_app_evt,"ax",%progbits
 1160              		.align	2
 1161              		.code	16
 1162              		.thumb_func
 1163              		.type	send_sln_app_evt, %function
 1164              	send_sln_app_evt:
 1165              	.LFB39:
 291:..\src\app\alt_mode/alt_modes_mngr.c ****     sln_pd_event_handler (port, APP_EVT_ALT_MODE,
 1166              		.loc 1 291 0
 1167              		.cfi_startproc
 1168              		@ args = 0, pretend = 0, frame = 0
 1169              		@ frame_needed = 0, uses_anonymous_args = 0
 1170              	.LVL119:
 1171 0000 30B5     		push	{r4, r5, lr}
 1172              		.cfi_def_cfa_offset 12
 1173              		.cfi_offset 4, -12
 1174              		.cfi_offset 5, -8
 1175              		.cfi_offset 14, -4
 1176 0002 83B0     		sub	sp, sp, #12
 1177              		.cfi_def_cfa_offset 24
 1178 0004 0400     		movs	r4, r0
 293:..\src\app\alt_mode/alt_modes_mngr.c ****                 alt_mode[port].reg_info.alt_mode_id,
 1179              		.loc 1 293 0
 1180 0006 7423     		movs	r3, #116
 1181 0008 4343     		muls	r3, r0
 1182 000a 0D4A     		ldr	r2, .L90
 1183 000c D318     		adds	r3, r2, r3
 1184 000e DA6E     		ldr	r2, [r3, #108]
 1185 0010 5088     		ldrh	r0, [r2, #2]
 1186              	.LVL120:
 1187 0012 9A78     		ldrb	r2, [r3, #2]
 1188 0014 0029     		cmp	r1, #0
 1189 0016 05D1     		bne	.L89
 293:..\src\app\alt_mode/alt_modes_mngr.c ****                 alt_mode[port].reg_info.alt_mode_id,
 1190              		.loc 1 293 0 is_stmt 0 discriminator 1
 1191 0018 7423     		movs	r3, #116
 1192 001a 6343     		muls	r3, r4
 1193 001c 084D     		ldr	r5, .L90
 1194 001e EB18     		adds	r3, r5, r3
 1195 0020 1B7C     		ldrb	r3, [r3, #16]
 1196 0022 00E0     		b	.L88
 1197              	.L89:
 293:..\src\app\alt_mode/alt_modes_mngr.c ****                 alt_mode[port].reg_info.alt_mode_id,
 1198              		.loc 1 293 0
 1199 0024 0C23     		movs	r3, #12
 1200              	.L88:
 293:..\src\app\alt_mode/alt_modes_mngr.c ****                 alt_mode[port].reg_info.alt_mode_id,
 1201              		.loc 1 293 0 discriminator 4
 1202 0026 0091     		str	r1, [sp]
 1203 0028 0100     		movs	r1, r0
 1204              	.LVL121:
 1205 002a 2000     		movs	r0, r4
 1206 002c FFF7FEFF 		bl	form_alt_mode_event
 1207              	.LVL122:
 1208 0030 0200     		movs	r2, r0
 292:..\src\app\alt_mode/alt_modes_mngr.c ****             form_alt_mode_event (port, alt_mode[port].vdm_info->VDM_HDR.svid,
 1209              		.loc 1 292 0 is_stmt 1 discriminator 4
ARM GAS  e:\temp\ccP12Hvn.s 			page 48


 1210 0032 0621     		movs	r1, #6
 1211 0034 2000     		movs	r0, r4
 1212 0036 FFF7FEFF 		bl	sln_pd_event_handler
 1213              	.LVL123:
 298:..\src\app\alt_mode/alt_modes_mngr.c **** 
 1214              		.loc 1 298 0 discriminator 4
 1215 003a 03B0     		add	sp, sp, #12
 1216              		@ sp needed
 1217 003c 30BD     		pop	{r4, r5, pc}
 1218              	.L91:
 1219 003e C046     		.align	2
 1220              	.L90:
 1221 0040 00000000 		.word	alt_mode
 1222              		.cfi_endproc
 1223              	.LFE39:
 1224              		.size	send_sln_app_evt, .-send_sln_app_evt
 1225              		.section	.text.handle_cbl_disc_mode,"ax",%progbits
 1226              		.align	2
 1227              		.code	16
 1228              		.thumb_func
 1229              		.type	handle_cbl_disc_mode, %function
 1230              	handle_cbl_disc_mode:
 1231              	.LFB41:
 365:..\src\app\alt_mode/alt_modes_mngr.c ****     uint8_t               tbl_svid_idx, tbl_alt_mode_idx, vdo_idx;
 1232              		.loc 1 365 0
 1233              		.cfi_startproc
 1234              		@ args = 0, pretend = 0, frame = 8
 1235              		@ frame_needed = 0, uses_anonymous_args = 0
 1236              	.LVL124:
 1237 0000 F0B5     		push	{r4, r5, r6, r7, lr}
 1238              		.cfi_def_cfa_offset 20
 1239              		.cfi_offset 4, -20
 1240              		.cfi_offset 5, -16
 1241              		.cfi_offset 6, -12
 1242              		.cfi_offset 7, -8
 1243              		.cfi_offset 14, -4
 1244 0002 5746     		mov	r7, r10
 1245 0004 80B4     		push	{r7}
 1246              		.cfi_def_cfa_offset 24
 1247              		.cfi_offset 10, -24
 1248 0006 82B0     		sub	sp, sp, #8
 1249              		.cfi_def_cfa_offset 32
 1250 0008 0090     		str	r0, [sp]
 1251 000a 0F00     		movs	r7, r1
 368:..\src\app\alt_mode/alt_modes_mngr.c ****     alt_mode_reg_info_t  *reg   = &(alt_mode[port].reg_info);
 1252              		.loc 1 368 0
 1253 000c 0500     		movs	r5, r0
 1254 000e 344B     		ldr	r3, .L101
 1255 0010 9A46     		mov	r10, r3
 1256 0012 7426     		movs	r6, #116
 1257 0014 4643     		muls	r6, r0
 1258 0016 5346     		mov	r3, r10
 1259 0018 9B19     		adds	r3, r3, r6
 1260 001a DC6E     		ldr	r4, [r3, #108]
 1261              	.LVL125:
 369:..\src\app\alt_mode/alt_modes_mngr.c ****     /*
 1262              		.loc 1 369 0
ARM GAS  e:\temp\ccP12Hvn.s 			page 49


 1263 001c 0193     		str	r3, [sp, #4]
 1264              	.LVL126:
 375:..\src\app\alt_mode/alt_modes_mngr.c ****     reg->atch_type = CABLE;
 1265              		.loc 1 375 0
 1266 001e 6188     		ldrh	r1, [r4, #2]
 1267              	.LVL127:
 1268 0020 FFF7FEFF 		bl	get_alt_mode_svid_idx
 1269              	.LVL128:
 376:..\src\app\alt_mode/alt_modes_mngr.c **** 
 1270              		.loc 1 376 0
 1271 0024 0223     		movs	r3, #2
 1272 0026 5246     		mov	r2, r10
 1273 0028 B354     		strb	r3, [r6, r2]
 1274              	.LVL129:
 379:..\src\app\alt_mode/alt_modes_mngr.c ****     {
 1275              		.loc 1 379 0
 1276 002a 0026     		movs	r6, #0
 1277 002c 4FE0     		b	.L93
 1278              	.LVL130:
 1279              	.L100:
 381:..\src\app\alt_mode/alt_modes_mngr.c ****         {
 1280              		.loc 1 381 0
 1281 002e 002F     		cmp	r7, #0
 1282 0030 06D0     		beq	.L94
 383:..\src\app\alt_mode/alt_modes_mngr.c ****         }
 1283              		.loc 1 383 0
 1284 0032 7423     		movs	r3, #116
 1285 0034 6B43     		muls	r3, r5
 1286 0036 2A4A     		ldr	r2, .L101
 1287 0038 D318     		adds	r3, r2, r3
 1288 003a 0722     		movs	r2, #7
 1289 003c DA70     		strb	r2, [r3, #3]
 1290 003e 07E0     		b	.L95
 1291              	.L94:
 388:..\src\app\alt_mode/alt_modes_mngr.c ****         }
 1292              		.loc 1 388 0
 1293 0040 7423     		movs	r3, #116
 1294 0042 6B43     		muls	r3, r5
 1295 0044 264A     		ldr	r2, .L101
 1296 0046 D318     		adds	r3, r2, r3
 1297 0048 B21C     		adds	r2, r6, #2
 1298 004a 9200     		lsls	r2, r2, #2
 1299 004c 1259     		ldr	r2, [r2, r4]
 1300 004e 5A60     		str	r2, [r3, #4]
 1301              	.L95:
 392:..\src\app\alt_mode/alt_modes_mngr.c ****         if (am_info_p == NULL)
 1302              		.loc 1 392 0
 1303 0050 0199     		ldr	r1, [sp, #4]
 1304 0052 0098     		ldr	r0, [sp]
 1305 0054 FFF7FEFF 		bl	reg_dp_modes
 1306              	.LVL131:
 393:..\src\app\alt_mode/alt_modes_mngr.c ****         {
 1307              		.loc 1 393 0
 1308 0058 0028     		cmp	r0, #0
 1309 005a 1FD1     		bne	.L96
 396:..\src\app\alt_mode/alt_modes_mngr.c ****             if (tbl_alt_mode_idx != MODE_NOT_SUPPORTED)
 1310              		.loc 1 396 0
ARM GAS  e:\temp\ccP12Hvn.s 			page 50


 1311 005c 6188     		ldrh	r1, [r4, #2]
 1312 005e 7423     		movs	r3, #116
 1313 0060 6B43     		muls	r3, r5
 1314 0062 1F4A     		ldr	r2, .L101
 1315 0064 D318     		adds	r3, r2, r3
 1316 0066 9A78     		ldrb	r2, [r3, #2]
 1317 0068 0098     		ldr	r0, [sp]
 1318              	.LVL132:
 1319 006a FFF7FEFF 		bl	get_alt_mode_tbl_idx
 1320              	.LVL133:
 397:..\src\app\alt_mode/alt_modes_mngr.c ****             {
 1321              		.loc 1 397 0
 1322 006e FF28     		cmp	r0, #255
 1323 0070 18D0     		beq	.L97
 400:..\src\app\alt_mode/alt_modes_mngr.c ****                 /* Remove flag that alt mode could be runned */
 1324              		.loc 1 400 0
 1325 0072 1B4A     		ldr	r2, .L101
 1326 0074 EB00     		lsls	r3, r5, #3
 1327 0076 5B1B     		subs	r3, r3, r5
 1328 0078 9B00     		lsls	r3, r3, #2
 1329 007a 5B19     		adds	r3, r3, r5
 1330 007c 1B18     		adds	r3, r3, r0
 1331 007e 0833     		adds	r3, r3, #8
 1332 0080 9B00     		lsls	r3, r3, #2
 1333 0082 0021     		movs	r1, #0
 1334 0084 9950     		str	r1, [r3, r2]
 402:..\src\app\alt_mode/alt_modes_mngr.c ****                 reg->cbl_sop_flag = SOP_INVALID;
 1335              		.loc 1 402 0
 1336 0086 0131     		adds	r1, r1, #1
 1337 0088 8140     		lsls	r1, r1, r0
 1338 008a 7423     		movs	r3, #116
 1339 008c 6B43     		muls	r3, r5
 1340 008e D218     		adds	r2, r2, r3
 1341 0090 5369     		ldr	r3, [r2, #20]
 1342 0092 8B43     		bics	r3, r1
 1343 0094 5361     		str	r3, [r2, #20]
 403:..\src\app\alt_mode/alt_modes_mngr.c ****             }
 1344              		.loc 1 403 0
 1345 0096 0723     		movs	r3, #7
 1346 0098 D370     		strb	r3, [r2, #3]
 1347 009a 03E0     		b	.L97
 1348              	.LVL134:
 1349              	.L96:
 408:..\src\app\alt_mode/alt_modes_mngr.c ****                 am_info_p->cbl_obj_pos = (vdo_idx + VDO_START_IDX);
 1350              		.loc 1 408 0
 1351 009c 002F     		cmp	r7, #0
 1352 009e 01D1     		bne	.L97
 409:..\src\app\alt_mode/alt_modes_mngr.c ****         }
 1353              		.loc 1 409 0
 1354 00a0 731C     		adds	r3, r6, #1
 1355 00a2 8371     		strb	r3, [r0, #6]
 1356              	.LVL135:
 1357              	.L97:
 412:..\src\app\alt_mode/alt_modes_mngr.c ****         {
 1358              		.loc 1 412 0
 1359 00a4 7423     		movs	r3, #116
 1360 00a6 6B43     		muls	r3, r5
ARM GAS  e:\temp\ccP12Hvn.s 			page 51


 1361 00a8 0D4A     		ldr	r2, .L101
 1362 00aa D318     		adds	r3, r2, r3
 1363 00ac 1B7C     		ldrb	r3, [r3, #16]
 1364 00ae 002B     		cmp	r3, #0
 1365 00b0 09D0     		beq	.L98
 415:..\src\app\alt_mode/alt_modes_mngr.c ****             reg->app_evt = AM_NO_EVT;
 1366              		.loc 1 415 0
 1367 00b2 0021     		movs	r1, #0
 1368 00b4 0098     		ldr	r0, [sp]
 1369 00b6 FFF7FEFF 		bl	send_sln_app_evt
 1370              	.LVL136:
 416:..\src\app\alt_mode/alt_modes_mngr.c ****         }
 1371              		.loc 1 416 0
 1372 00ba 7423     		movs	r3, #116
 1373 00bc 6B43     		muls	r3, r5
 1374 00be 084A     		ldr	r2, .L101
 1375 00c0 D318     		adds	r3, r2, r3
 1376 00c2 0022     		movs	r2, #0
 1377 00c4 1A74     		strb	r2, [r3, #16]
 1378              	.L98:
 419:..\src\app\alt_mode/alt_modes_mngr.c ****             break;
 1379              		.loc 1 419 0
 1380 00c6 002F     		cmp	r7, #0
 1381 00c8 06D1     		bne	.L92
 379:..\src\app\alt_mode/alt_modes_mngr.c ****     {
 1382              		.loc 1 379 0 discriminator 2
 1383 00ca 0136     		adds	r6, r6, #1
 1384              	.LVL137:
 1385 00cc F6B2     		uxtb	r6, r6
 1386              	.LVL138:
 1387              	.L93:
 379:..\src\app\alt_mode/alt_modes_mngr.c ****     {
 1388              		.loc 1 379 0 is_stmt 0 discriminator 1
 1389 00ce 002F     		cmp	r7, #0
 1390 00d0 ADD1     		bne	.L100
 379:..\src\app\alt_mode/alt_modes_mngr.c ****     {
 1391              		.loc 1 379 0 discriminator 3
 1392 00d2 6379     		ldrb	r3, [r4, #5]
 1393 00d4 9E42     		cmp	r6, r3
 1394 00d6 AAD3     		bcc	.L100
 1395              	.L92:
 422:..\src\app\alt_mode/alt_modes_mngr.c **** #endif /* ((DFP_ALT_MODE_SUPP) || (UFP_MODE_DISC_ENABLE)) */
 1396              		.loc 1 422 0 is_stmt 1
 1397 00d8 02B0     		add	sp, sp, #8
 1398              		@ sp needed
 1399              	.LVL139:
 1400              	.LVL140:
 1401 00da 04BC     		pop	{r2}
 1402 00dc 9246     		mov	r10, r2
 1403 00de F0BD     		pop	{r4, r5, r6, r7, pc}
 1404              	.L102:
 1405              		.align	2
 1406              	.L101:
 1407 00e0 00000000 		.word	alt_mode
 1408              		.cfi_endproc
 1409              	.LFE41:
 1410              		.size	handle_cbl_disc_mode, .-handle_cbl_disc_mode
ARM GAS  e:\temp\ccP12Hvn.s 			page 52


 1411              		.section	.text.disc_mode_fail,"ax",%progbits
 1412              		.align	2
 1413              		.code	16
 1414              		.thumb_func
 1415              		.type	disc_mode_fail, %function
 1416              	disc_mode_fail:
 1417              	.LFB43:
 523:..\src\app\alt_mode/alt_modes_mngr.c **** #if ((DFP_ALT_MODE_SUPP) || (UFP_MODE_DISC_ENABLE))
 1418              		.loc 1 523 0
 1419              		.cfi_startproc
 1420              		@ args = 0, pretend = 0, frame = 0
 1421              		@ frame_needed = 0, uses_anonymous_args = 0
 1422              	.LVL141:
 1423 0000 10B5     		push	{r4, lr}
 1424              		.cfi_def_cfa_offset 8
 1425              		.cfi_offset 4, -8
 1426              		.cfi_offset 14, -4
 1427 0002 0400     		movs	r4, r0
 535:..\src\app\alt_mode/alt_modes_mngr.c ****     {
 1428              		.loc 1 535 0
 1429 0004 7423     		movs	r3, #116
 1430 0006 4343     		muls	r3, r0
 1431 0008 094A     		ldr	r2, .L105
 1432 000a D318     		adds	r3, r2, r3
 1433 000c DB6E     		ldr	r3, [r3, #108]
 1434 000e 1B79     		ldrb	r3, [r3, #4]
 1435 0010 012B     		cmp	r3, #1
 1436 0012 02D1     		bne	.L104
 537:..\src\app\alt_mode/alt_modes_mngr.c ****     }
 1437              		.loc 1 537 0
 1438 0014 0121     		movs	r1, #1
 1439 0016 FFF7FEFF 		bl	handle_cbl_disc_mode
 1440              	.LVL142:
 1441              	.L104:
 540:..\src\app\alt_mode/alt_modes_mngr.c **** #endif /* ((DFP_ALT_MODE_SUPP) || (UFP_MODE_DISC_ENABLE)) */
 1442              		.loc 1 540 0
 1443 001a 7420     		movs	r0, #116
 1444 001c 6043     		muls	r0, r4
 1445 001e 044B     		ldr	r3, .L105
 1446 0020 1818     		adds	r0, r3, r0
 1447 0022 7030     		adds	r0, r0, #112
 1448 0024 0378     		ldrb	r3, [r0]
 1449 0026 0133     		adds	r3, r3, #1
 1450 0028 0370     		strb	r3, [r0]
 544:..\src\app\alt_mode/alt_modes_mngr.c **** 
 1451              		.loc 1 544 0
 1452 002a 0720     		movs	r0, #7
 1453              		@ sp needed
 1454 002c 10BD     		pop	{r4, pc}
 1455              	.L106:
 1456 002e C046     		.align	2
 1457              	.L105:
 1458 0030 00000000 		.word	alt_mode
 1459              		.cfi_endproc
 1460              	.LFE43:
 1461              		.size	disc_mode_fail, .-disc_mode_fail
 1462              		.section	.text.eval_disc_mode,"ax",%progbits
ARM GAS  e:\temp\ccP12Hvn.s 			page 53


 1463              		.align	2
 1464              		.code	16
 1465              		.thumb_func
 1466              		.type	eval_disc_mode, %function
 1467              	eval_disc_mode:
 1468              	.LFB42:
 426:..\src\app\alt_mode/alt_modes_mngr.c **** #if ((DFP_ALT_MODE_SUPP) || (UFP_MODE_DISC_ENABLE))
 1469              		.loc 1 426 0
 1470              		.cfi_startproc
 1471              		@ args = 0, pretend = 0, frame = 8
 1472              		@ frame_needed = 0, uses_anonymous_args = 0
 1473              	.LVL143:
 1474 0000 F0B5     		push	{r4, r5, r6, r7, lr}
 1475              		.cfi_def_cfa_offset 20
 1476              		.cfi_offset 4, -20
 1477              		.cfi_offset 5, -16
 1478              		.cfi_offset 6, -12
 1479              		.cfi_offset 7, -8
 1480              		.cfi_offset 14, -4
 1481 0002 4F46     		mov	r7, r9
 1482 0004 80B4     		push	{r7}
 1483              		.cfi_def_cfa_offset 24
 1484              		.cfi_offset 9, -24
 1485 0006 82B0     		sub	sp, sp, #8
 1486              		.cfi_def_cfa_offset 32
 1487 0008 0400     		movs	r4, r0
 1488 000a 0090     		str	r0, [sp]
 430:..\src\app\alt_mode/alt_modes_mngr.c ****     alt_mode_reg_info_t  *reg   = &(alt_mode[port].reg_info);
 1489              		.loc 1 430 0
 1490 000c 0600     		movs	r6, r0
 1491 000e 7427     		movs	r7, #116
 1492 0010 4743     		muls	r7, r0
 1493 0012 4E4B     		ldr	r3, .L116
 1494 0014 DB19     		adds	r3, r3, r7
 1495 0016 DF6E     		ldr	r7, [r3, #108]
 1496              	.LVL144:
 431:..\src\app\alt_mode/alt_modes_mngr.c ****     
 1497              		.loc 1 431 0
 1498 0018 0193     		str	r3, [sp, #4]
 1499              	.LVL145:
 444:..\src\app\alt_mode/alt_modes_mngr.c ****     {
 1500              		.loc 1 444 0
 1501 001a 3B79     		ldrb	r3, [r7, #4]
 1502              	.LVL146:
 1503 001c 002B     		cmp	r3, #0
 1504 001e 75D1     		bne	.L108
 447:..\src\app\alt_mode/alt_modes_mngr.c ****         /* Additional check if we support current SVID operations */
 1505              		.loc 1 447 0
 1506 0020 7988     		ldrh	r1, [r7, #2]
 1507 0022 FFF7FEFF 		bl	get_alt_mode_svid_idx
 1508              	.LVL147:
 449:..\src\app\alt_mode/alt_modes_mngr.c ****         {
 1509              		.loc 1 449 0
 1510 0026 FF28     		cmp	r0, #255
 1511 0028 00D1     		bne	.LCB1469
 1512 002a 81E0     		b	.L109	@long jump
 1513              	.LCB1469:
ARM GAS  e:\temp\ccP12Hvn.s 			page 54


 451:..\src\app\alt_mode/alt_modes_mngr.c ****             /* Analyse all rec VDOs */
 1514              		.loc 1 451 0
 1515 002c 7423     		movs	r3, #116
 1516 002e 6343     		muls	r3, r4
 1517 0030 0121     		movs	r1, #1
 1518 0032 464A     		ldr	r2, .L116
 1519 0034 9954     		strb	r1, [r3, r2]
 1520              	.LVL148:
 453:..\src\app\alt_mode/alt_modes_mngr.c ****             {
 1521              		.loc 1 453 0
 1522 0036 0025     		movs	r5, #0
 1523 0038 58E0     		b	.L110
 1524              	.LVL149:
 1525              	.L114:
 456:..\src\app\alt_mode/alt_modes_mngr.c ****                 /* Check if DFP support attached target alt mode */
 1526              		.loc 1 456 0
 1527 003a 7424     		movs	r4, #116
 1528 003c 7443     		muls	r4, r6
 1529 003e 434B     		ldr	r3, .L116
 1530 0040 1C19     		adds	r4, r3, r4
 1531 0042 AB1C     		adds	r3, r5, #2
 1532 0044 9B00     		lsls	r3, r3, #2
 1533 0046 DB59     		ldr	r3, [r3, r7]
 1534 0048 A360     		str	r3, [r4, #8]
 458:..\src\app\alt_mode/alt_modes_mngr.c ****                 /* If VDO relates to any of supported alt modes */
 1535              		.loc 1 458 0
 1536 004a 0199     		ldr	r1, [sp, #4]
 1537 004c 0098     		ldr	r0, [sp]
 1538 004e FFF7FEFF 		bl	reg_dp_modes
 1539              	.LVL150:
 1540 0052 8146     		mov	r9, r0
 1541              	.LVL151:
 460:..\src\app\alt_mode/alt_modes_mngr.c ****                 {
 1542              		.loc 1 460 0
 1543 0054 A378     		ldrb	r3, [r4, #2]
 1544 0056 FF2B     		cmp	r3, #255
 1545 0058 46D0     		beq	.L111
 462:..\src\app\alt_mode/alt_modes_mngr.c ****                     {
 1546              		.loc 1 462 0
 1547 005a 7423     		movs	r3, #116
 1548 005c 7343     		muls	r3, r6
 1549 005e 3B4A     		ldr	r2, .L116
 1550 0060 D318     		adds	r3, r2, r3
 1551 0062 1B7C     		ldrb	r3, [r3, #16]
 1552 0064 002B     		cmp	r3, #0
 1553 0066 09D0     		beq	.L112
 465:..\src\app\alt_mode/alt_modes_mngr.c ****                         reg->app_evt = AM_NO_EVT;
 1554              		.loc 1 465 0
 1555 0068 0021     		movs	r1, #0
 1556 006a 0098     		ldr	r0, [sp]
 1557              	.LVL152:
 1558 006c FFF7FEFF 		bl	send_sln_app_evt
 1559              	.LVL153:
 466:..\src\app\alt_mode/alt_modes_mngr.c ****                     }
 1560              		.loc 1 466 0
 1561 0070 7423     		movs	r3, #116
 1562 0072 7343     		muls	r3, r6
ARM GAS  e:\temp\ccP12Hvn.s 			page 55


 1563 0074 354A     		ldr	r2, .L116
 1564 0076 D318     		adds	r3, r2, r3
 1565 0078 0022     		movs	r2, #0
 1566 007a 1A74     		strb	r2, [r3, #16]
 1567              	.L112:
 469:..\src\app\alt_mode/alt_modes_mngr.c ****                     {
 1568              		.loc 1 469 0
 1569 007c 4B46     		mov	r3, r9
 1570 007e 002B     		cmp	r3, #0
 1571 0080 32D0     		beq	.L111
 1572              	.LVL154:
 472:..\src\app\alt_mode/alt_modes_mngr.c ****                         am_info_p->obj_pos     = (vdo_idx + VDO_START_IDX);
 1573              		.loc 1 472 0
 1574 0082 7423     		movs	r3, #116
 1575              	.LVL155:
 1576 0084 7343     		muls	r3, r6
 1577 0086 314A     		ldr	r2, .L116
 1578 0088 D318     		adds	r3, r2, r3
 1579 008a 9B78     		ldrb	r3, [r3, #2]
 1580 008c 4A46     		mov	r2, r9
 1581 008e D371     		strb	r3, [r2, #7]
 473:..\src\app\alt_mode/alt_modes_mngr.c ****                         if (am_info_p->app_evt_needed != false)
 1582              		.loc 1 473 0
 1583 0090 6B1C     		adds	r3, r5, #1
 1584 0092 5371     		strb	r3, [r2, #5]
 474:..\src\app\alt_mode/alt_modes_mngr.c ****                         {
 1585              		.loc 1 474 0
 1586 0094 2423     		movs	r3, #36
 1587 0096 D35C     		ldrb	r3, [r2, r3]
 1588 0098 002B     		cmp	r3, #0
 1589 009a 07D0     		beq	.L113
 1590              	.LVL156:
 477:..\src\app\alt_mode/alt_modes_mngr.c ****                             am_info_p->app_evt_needed = false;
 1591              		.loc 1 477 0
 1592 009c 916A     		ldr	r1, [r2, #40]
 1593 009e 0098     		ldr	r0, [sp]
 1594 00a0 FFF7FEFF 		bl	send_sln_app_evt
 1595              	.LVL157:
 478:..\src\app\alt_mode/alt_modes_mngr.c ****                         }
 1596              		.loc 1 478 0
 1597 00a4 0022     		movs	r2, #0
 1598 00a6 2423     		movs	r3, #36
 1599 00a8 4946     		mov	r1, r9
 1600 00aa CA54     		strb	r2, [r1, r3]
 1601              	.L113:
 481:..\src\app\alt_mode/alt_modes_mngr.c ****                                 reg->alt_mode_id);
 1602              		.loc 1 481 0
 1603 00ac 7988     		ldrh	r1, [r7, #2]
 1604 00ae 7423     		movs	r3, #116
 1605 00b0 7343     		muls	r3, r6
 1606 00b2 264A     		ldr	r2, .L116
 1607 00b4 D318     		adds	r3, r2, r3
 1608 00b6 9A78     		ldrb	r2, [r3, #2]
 1609 00b8 0098     		ldr	r0, [sp]
 1610 00ba FFF7FEFF 		bl	get_alt_mode_tbl_idx
 1611              	.LVL158:
 483:..\src\app\alt_mode/alt_modes_mngr.c ****                         {
ARM GAS  e:\temp\ccP12Hvn.s 			page 56


 1612              		.loc 1 483 0
 1613 00be FF28     		cmp	r0, #255
 1614 00c0 12D0     		beq	.L111
 486:..\src\app\alt_mode/alt_modes_mngr.c ****                             /* Set flag that alt mode could be runned */
 1615              		.loc 1 486 0
 1616 00c2 224A     		ldr	r2, .L116
 1617 00c4 F300     		lsls	r3, r6, #3
 1618 00c6 9B1B     		subs	r3, r3, r6
 1619 00c8 9B00     		lsls	r3, r3, #2
 1620 00ca 9B19     		adds	r3, r3, r6
 1621 00cc 1B18     		adds	r3, r3, r0
 1622 00ce 0833     		adds	r3, r3, #8
 1623 00d0 9B00     		lsls	r3, r3, #2
 1624 00d2 4946     		mov	r1, r9
 1625 00d4 9950     		str	r1, [r3, r2]
 488:..\src\app\alt_mode/alt_modes_mngr.c ****                         }
 1626              		.loc 1 488 0
 1627 00d6 0123     		movs	r3, #1
 1628 00d8 8340     		lsls	r3, r3, r0
 1629 00da 1900     		movs	r1, r3
 1630 00dc 7423     		movs	r3, #116
 1631 00de 7343     		muls	r3, r6
 1632 00e0 D218     		adds	r2, r2, r3
 1633 00e2 5369     		ldr	r3, [r2, #20]
 1634 00e4 0B43     		orrs	r3, r1
 1635 00e6 5361     		str	r3, [r2, #20]
 1636              	.LVL159:
 1637              	.L111:
 453:..\src\app\alt_mode/alt_modes_mngr.c ****             {
 1638              		.loc 1 453 0 discriminator 2
 1639 00e8 0135     		adds	r5, r5, #1
 1640              	.LVL160:
 1641 00ea EDB2     		uxtb	r5, r5
 1642              	.LVL161:
 1643              	.L110:
 453:..\src\app\alt_mode/alt_modes_mngr.c ****             {
 1644              		.loc 1 453 0 is_stmt 0 discriminator 1
 1645 00ec 7B79     		ldrb	r3, [r7, #5]
 1646 00ee 9D42     		cmp	r5, r3
 1647 00f0 A3D3     		bcc	.L114
 495:..\src\app\alt_mode/alt_modes_mngr.c ****             {
 1648              		.loc 1 495 0 is_stmt 1
 1649 00f2 7423     		movs	r3, #116
 1650 00f4 0098     		ldr	r0, [sp]
 1651 00f6 4343     		muls	r3, r0
 1652 00f8 144A     		ldr	r2, .L116
 1653 00fa D318     		adds	r3, r2, r3
 1654 00fc DB78     		ldrb	r3, [r3, #3]
 1655 00fe 072B     		cmp	r3, #7
 1656 0100 16D0     		beq	.L109
 497:..\src\app\alt_mode/alt_modes_mngr.c ****                 return VDM_TASK_SEND_MSG;
 1657              		.loc 1 497 0
 1658 0102 0121     		movs	r1, #1
 1659 0104 FFF7FEFF 		bl	set_disc_mode_params
 1660              	.LVL162:
 498:..\src\app\alt_mode/alt_modes_mngr.c ****             }
 1661              		.loc 1 498 0
ARM GAS  e:\temp\ccP12Hvn.s 			page 57


 1662 0108 0620     		movs	r0, #6
 1663 010a 1BE0     		b	.L115
 1664              	.LVL163:
 1665              	.L108:
 505:..\src\app\alt_mode/alt_modes_mngr.c **** 
 1666              		.loc 1 505 0
 1667 010c 0021     		movs	r1, #0
 1668 010e 009C     		ldr	r4, [sp]
 1669 0110 2000     		movs	r0, r4
 1670              	.LVL164:
 1671 0112 FFF7FEFF 		bl	handle_cbl_disc_mode
 1672              	.LVL165:
 508:..\src\app\alt_mode/alt_modes_mngr.c ****         {
 1673              		.loc 1 508 0
 1674 0116 7423     		movs	r3, #116
 1675 0118 6343     		muls	r3, r4
 1676 011a 0C4A     		ldr	r2, .L116
 1677 011c D318     		adds	r3, r2, r3
 1678 011e DB78     		ldrb	r3, [r3, #3]
 1679 0120 072B     		cmp	r3, #7
 1680 0122 05D0     		beq	.L109
 510:..\src\app\alt_mode/alt_modes_mngr.c ****             return VDM_TASK_SEND_MSG;
 1681              		.loc 1 510 0
 1682 0124 0221     		movs	r1, #2
 1683 0126 2000     		movs	r0, r4
 1684 0128 FFF7FEFF 		bl	set_disc_mode_params
 1685              	.LVL166:
 511:..\src\app\alt_mode/alt_modes_mngr.c ****         }
 1686              		.loc 1 511 0
 1687 012c 0620     		movs	r0, #6
 1688 012e 09E0     		b	.L115
 1689              	.L109:
 516:..\src\app\alt_mode/alt_modes_mngr.c **** 
 1690              		.loc 1 516 0
 1691 0130 7423     		movs	r3, #116
 1692 0132 009E     		ldr	r6, [sp]
 1693 0134 5E43     		muls	r6, r3
 1694 0136 054B     		ldr	r3, .L116
 1695 0138 9E19     		adds	r6, r3, r6
 1696 013a 7036     		adds	r6, r6, #112
 1697 013c 3378     		ldrb	r3, [r6]
 1698 013e 0133     		adds	r3, r3, #1
 1699 0140 3370     		strb	r3, [r6]
 519:..\src\app\alt_mode/alt_modes_mngr.c **** }
 1700              		.loc 1 519 0
 1701 0142 0720     		movs	r0, #7
 1702              	.L115:
 520:..\src\app\alt_mode/alt_modes_mngr.c **** 
 1703              		.loc 1 520 0
 1704 0144 02B0     		add	sp, sp, #8
 1705              		@ sp needed
 1706              	.LVL167:
 1707 0146 04BC     		pop	{r2}
 1708 0148 9146     		mov	r9, r2
 1709 014a F0BD     		pop	{r4, r5, r6, r7, pc}
 1710              	.L117:
 1711              		.align	2
ARM GAS  e:\temp\ccP12Hvn.s 			page 58


 1712              	.L116:
 1713 014c 00000000 		.word	alt_mode
 1714              		.cfi_endproc
 1715              	.LFE42:
 1716              		.size	eval_disc_mode, .-eval_disc_mode
 1717              		.section	.text.send_sln_event_nodata,"ax",%progbits
 1718              		.align	2
 1719              		.code	16
 1720              		.thumb_func
 1721              		.type	send_sln_event_nodata, %function
 1722              	send_sln_event_nodata:
 1723              	.LFB38:
 284:..\src\app\alt_mode/alt_modes_mngr.c ****     sln_pd_event_handler (port, APP_EVT_ALT_MODE,
 1724              		.loc 1 284 0
 1725              		.cfi_startproc
 1726              		@ args = 0, pretend = 0, frame = 0
 1727              		@ frame_needed = 0, uses_anonymous_args = 0
 1728              	.LVL168:
 1729 0000 10B5     		push	{r4, lr}
 1730              		.cfi_def_cfa_offset 8
 1731              		.cfi_offset 4, -8
 1732              		.cfi_offset 14, -4
 1733 0002 82B0     		sub	sp, sp, #8
 1734              		.cfi_def_cfa_offset 16
 1735 0004 0400     		movs	r4, r0
 286:..\src\app\alt_mode/alt_modes_mngr.c ****             );
 1736              		.loc 1 286 0
 1737 0006 0020     		movs	r0, #0
 1738              	.LVL169:
 1739 0008 0090     		str	r0, [sp]
 1740 000a 2000     		movs	r0, r4
 1741 000c FFF7FEFF 		bl	form_alt_mode_event
 1742              	.LVL170:
 1743 0010 0200     		movs	r2, r0
 285:..\src\app\alt_mode/alt_modes_mngr.c ****             form_alt_mode_event (port, svid, am_id, evtype, NO_DATA)
 1744              		.loc 1 285 0
 1745 0012 0621     		movs	r1, #6
 1746 0014 2000     		movs	r0, r4
 1747 0016 FFF7FEFF 		bl	sln_pd_event_handler
 1748              	.LVL171:
 288:..\src\app\alt_mode/alt_modes_mngr.c **** 
 1749              		.loc 1 288 0
 1750 001a 02B0     		add	sp, sp, #8
 1751              		@ sp needed
 1752 001c 10BD     		pop	{r4, pc}
 1753              		.cfi_endproc
 1754              	.LFE38:
 1755              		.size	send_sln_event_nodata, .-send_sln_event_nodata
 1756 001e C046     		.section	.text.run_disc_mode,"ax",%progbits
 1757              		.align	2
 1758              		.code	16
 1759              		.thumb_func
 1760              		.type	run_disc_mode, %function
 1761              	run_disc_mode:
 1762              	.LFB40:
 303:..\src\app\alt_mode/alt_modes_mngr.c **** #if ((DFP_ALT_MODE_SUPP) || (UFP_MODE_DISC_ENABLE))
 1763              		.loc 1 303 0
ARM GAS  e:\temp\ccP12Hvn.s 			page 59


 1764              		.cfi_startproc
 1765              		@ args = 0, pretend = 0, frame = 0
 1766              		@ frame_needed = 0, uses_anonymous_args = 0
 1767              	.LVL172:
 1768 0000 F8B5     		push	{r3, r4, r5, r6, r7, lr}
 1769              		.cfi_def_cfa_offset 24
 1770              		.cfi_offset 3, -24
 1771              		.cfi_offset 4, -20
 1772              		.cfi_offset 5, -16
 1773              		.cfi_offset 6, -12
 1774              		.cfi_offset 7, -8
 1775              		.cfi_offset 14, -4
 1776 0002 0400     		movs	r4, r0
 308:..\src\app\alt_mode/alt_modes_mngr.c **** 
 1777              		.loc 1 308 0
 1778 0004 0500     		movs	r5, r0
 1779 0006 7423     		movs	r3, #116
 1780 0008 4343     		muls	r3, r0
 1781 000a 234A     		ldr	r2, .L125
 1782 000c D318     		adds	r3, r2, r3
 1783 000e 0722     		movs	r2, #7
 1784 0010 DA70     		strb	r2, [r3, #3]
 311:..\src\app\alt_mode/alt_modes_mngr.c ****     {
 1785              		.loc 1 311 0
 1786 0012 18E0     		b	.L120
 1787              	.LVL173:
 1788              	.L123:
 324:..\src\app\alt_mode/alt_modes_mngr.c ****         {
 1789              		.loc 1 324 0
 1790 0014 2100     		movs	r1, r4
 1791 0016 3800     		movs	r0, r7
 1792 0018 FFF7FEFF 		bl	is_svid_supported
 1793              	.LVL174:
 1794 001c 0028     		cmp	r0, #0
 1795 001e 0BD0     		beq	.L121
 327:..\src\app\alt_mode/alt_modes_mngr.c **** 
 1796              		.loc 1 327 0
 1797 0020 0623     		movs	r3, #6
 1798 0022 0022     		movs	r2, #0
 1799 0024 3900     		movs	r1, r7
 1800 0026 2000     		movs	r0, r4
 1801 0028 FFF7FEFF 		bl	send_sln_event_nodata
 1802              	.LVL175:
 330:..\src\app\alt_mode/alt_modes_mngr.c ****             return VDM_TASK_SEND_MSG;
 1803              		.loc 1 330 0
 1804 002c 0021     		movs	r1, #0
 1805 002e 2000     		movs	r0, r4
 1806 0030 FFF7FEFF 		bl	set_disc_mode_params
 1807              	.LVL176:
 331:..\src\app\alt_mode/alt_modes_mngr.c ****         }
 1808              		.loc 1 331 0
 1809 0034 0620     		movs	r0, #6
 1810 0036 2EE0     		b	.L122
 1811              	.L121:
 340:..\src\app\alt_mode/alt_modes_mngr.c **** #endif /* DFP_ALT_MODE_SUPP */
 1812              		.loc 1 340 0
 1813 0038 7423     		movs	r3, #116
ARM GAS  e:\temp\ccP12Hvn.s 			page 60


 1814 003a 6B43     		muls	r3, r5
 1815 003c 164A     		ldr	r2, .L125
 1816 003e D318     		adds	r3, r2, r3
 1817 0040 7033     		adds	r3, r3, #112
 1818 0042 0136     		adds	r6, r6, #1
 1819 0044 1E70     		strb	r6, [r3]
 1820              	.LVL177:
 1821              	.L120:
 311:..\src\app\alt_mode/alt_modes_mngr.c ****     {
 1822              		.loc 1 311 0
 1823 0046 7423     		movs	r3, #116
 1824 0048 6B43     		muls	r3, r5
 1825 004a 134A     		ldr	r2, .L125
 1826 004c D318     		adds	r3, r2, r3
 1827 004e DA68     		ldr	r2, [r3, #12]
 1828 0050 7033     		adds	r3, r3, #112
 1829 0052 1E78     		ldrb	r6, [r3]
 1830 0054 331D     		adds	r3, r6, #4
 1831 0056 5B00     		lsls	r3, r3, #1
 1832 0058 D318     		adds	r3, r2, r3
 1833 005a 9F88     		ldrh	r7, [r3, #4]
 1834              	.LVL178:
 1835 005c 002F     		cmp	r7, #0
 1836 005e D9D1     		bne	.L123
 344:..\src\app\alt_mode/alt_modes_mngr.c ****     {
 1837              		.loc 1 344 0
 1838 0060 7423     		movs	r3, #116
 1839 0062 6343     		muls	r3, r4
 1840 0064 0C4A     		ldr	r2, .L125
 1841 0066 D318     		adds	r3, r2, r3
 1842 0068 5B69     		ldr	r3, [r3, #20]
 1843 006a 002B     		cmp	r3, #0
 1844 006c 12D0     		beq	.L124
 351:..\src\app\alt_mode/alt_modes_mngr.c **** 
 1845              		.loc 1 351 0
 1846 006e 0423     		movs	r3, #4
 1847 0070 0022     		movs	r2, #0
 1848 0072 0021     		movs	r1, #0
 1849 0074 2000     		movs	r0, r4
 1850 0076 FFF7FEFF 		bl	send_sln_event_nodata
 1851              	.LVL179:
 355:..\src\app\alt_mode/alt_modes_mngr.c **** #endif /* DFP_ALT_MODE_SUPP */
 1852              		.loc 1 355 0
 1853 007a 2000     		movs	r0, r4
 1854 007c FFF7FEFF 		bl	get_next_alt_mode
 1855              	.LVL180:
 357:..\src\app\alt_mode/alt_modes_mngr.c **** #endif /* ((DFP_ALT_MODE_SUPP) || (UFP_MODE_DISC_ENABLE)) */
 1856              		.loc 1 357 0
 1857 0080 7423     		movs	r3, #116
 1858 0082 5C43     		muls	r4, r3
 1859 0084 044B     		ldr	r3, .L125
 1860 0086 1C19     		adds	r4, r3, r4
 1861 0088 2300     		movs	r3, r4
 1862 008a 6833     		adds	r3, r3, #104
 1863 008c 0122     		movs	r2, #1
 1864 008e 1A70     		strb	r2, [r3]
 360:..\src\app\alt_mode/alt_modes_mngr.c **** }
ARM GAS  e:\temp\ccP12Hvn.s 			page 61


 1865              		.loc 1 360 0
 1866 0090 0720     		movs	r0, #7
 1867 0092 00E0     		b	.L122
 1868              	.L124:
 347:..\src\app\alt_mode/alt_modes_mngr.c ****     }
 1869              		.loc 1 347 0
 1870 0094 0520     		movs	r0, #5
 1871              	.L122:
 361:..\src\app\alt_mode/alt_modes_mngr.c **** 
 1872              		.loc 1 361 0
 1873              		@ sp needed
 1874              	.LVL181:
 1875 0096 F8BD     		pop	{r3, r4, r5, r6, r7, pc}
 1876              	.L126:
 1877              		.align	2
 1878              	.L125:
 1879 0098 00000000 		.word	alt_mode
 1880              		.cfi_endproc
 1881              	.LFE40:
 1882              		.size	run_disc_mode, .-run_disc_mode
 1883              		.section	.text.get_mode_info,"ax",%progbits
 1884              		.align	2
 1885              		.global	get_mode_info
 1886              		.code	16
 1887              		.thumb_func
 1888              		.type	get_mode_info, %function
 1889              	get_mode_info:
 1890              	.LFB62:
1367:..\src\app\alt_mode/alt_modes_mngr.c **** 
1368:..\src\app\alt_mode/alt_modes_mngr.c **** alt_mode_info_t* get_mode_info(uint8_t port, uint8_t alt_mode_idx)
1369:..\src\app\alt_mode/alt_modes_mngr.c **** {
 1891              		.loc 1 1369 0
 1892              		.cfi_startproc
 1893              		@ args = 0, pretend = 0, frame = 0
 1894              		@ frame_needed = 0, uses_anonymous_args = 0
 1895              		@ link register save eliminated.
 1896              	.LVL182:
1370:..\src\app\alt_mode/alt_modes_mngr.c ****     return alt_mode[port].alt_mode_info[alt_mode_idx];
 1897              		.loc 1 1370 0
 1898 0000 C300     		lsls	r3, r0, #3
 1899 0002 1B1A     		subs	r3, r3, r0
 1900 0004 9B00     		lsls	r3, r3, #2
 1901 0006 1818     		adds	r0, r3, r0
 1902              	.LVL183:
 1903 0008 4118     		adds	r1, r0, r1
 1904              	.LVL184:
 1905 000a 0831     		adds	r1, r1, #8
 1906 000c 8900     		lsls	r1, r1, #2
 1907 000e 014B     		ldr	r3, .L128
 1908 0010 C858     		ldr	r0, [r1, r3]
1371:..\src\app\alt_mode/alt_modes_mngr.c **** }
 1909              		.loc 1 1371 0
 1910              		@ sp needed
 1911 0012 7047     		bx	lr
 1912              	.L129:
 1913              		.align	2
 1914              	.L128:
ARM GAS  e:\temp\ccP12Hvn.s 			page 62


 1915 0014 00000000 		.word	alt_mode
 1916              		.cfi_endproc
 1917              	.LFE62:
 1918              		.size	get_mode_info, .-get_mode_info
 1919              		.section	.text.is_alt_mode_mngr_idle,"ax",%progbits
 1920              		.align	2
 1921              		.global	is_alt_mode_mngr_idle
 1922              		.code	16
 1923              		.thumb_func
 1924              		.type	is_alt_mode_mngr_idle, %function
 1925              	is_alt_mode_mngr_idle:
 1926              	.LFB33:
 225:..\src\app\alt_mode/alt_modes_mngr.c ****     bool    is_idle = true;
 1927              		.loc 1 225 0
 1928              		.cfi_startproc
 1929              		@ args = 0, pretend = 0, frame = 0
 1930              		@ frame_needed = 0, uses_anonymous_args = 0
 1931              	.LVL185:
 1932 0000 F8B5     		push	{r3, r4, r5, r6, r7, lr}
 1933              		.cfi_def_cfa_offset 24
 1934              		.cfi_offset 3, -24
 1935              		.cfi_offset 4, -20
 1936              		.cfi_offset 5, -16
 1937              		.cfi_offset 6, -12
 1938              		.cfi_offset 7, -8
 1939              		.cfi_offset 14, -4
 1940 0002 0400     		movs	r4, r0
 1941              	.LVL186:
 230:..\src\app\alt_mode/alt_modes_mngr.c ****         (!alt_mode_hw_is_idle(port)))
 1942              		.loc 1 230 0
 1943 0004 0600     		movs	r6, r0
 1944 0006 7423     		movs	r3, #116
 1945 0008 4343     		muls	r3, r0
 1946 000a 194A     		ldr	r2, .L139
 1947 000c D318     		adds	r3, r2, r3
 1948 000e 6833     		adds	r3, r3, #104
 1949 0010 1B78     		ldrb	r3, [r3]
 1950 0012 002B     		cmp	r3, #0
 1951 0014 2AD0     		beq	.L135
 231:..\src\app\alt_mode/alt_modes_mngr.c ****         return false;
 1952              		.loc 1 231 0 discriminator 1
 1953 0016 FFF7FEFF 		bl	alt_mode_hw_is_idle
 1954              	.LVL187:
 230:..\src\app\alt_mode/alt_modes_mngr.c ****         (!alt_mode_hw_is_idle(port)))
 1955              		.loc 1 230 0 discriminator 1
 1956 001a 0028     		cmp	r0, #0
 1957 001c 1AD1     		bne	.L136
 1958 001e 26E0     		b	.L131
 1959              	.LVL188:
 1960              	.L134:
 237:..\src\app\alt_mode/alt_modes_mngr.c ****         {
 1961              		.loc 1 237 0
 1962 0020 7423     		movs	r3, #116
 1963 0022 7343     		muls	r3, r6
 1964 0024 124A     		ldr	r2, .L139
 1965 0026 D318     		adds	r3, r2, r3
 1966 0028 DB69     		ldr	r3, [r3, #28]
ARM GAS  e:\temp\ccP12Hvn.s 			page 63


 1967 002a EB40     		lsrs	r3, r3, r5
 1968 002c DB07     		lsls	r3, r3, #31
 1969 002e 0ED5     		bpl	.L133
 240:..\src\app\alt_mode/alt_modes_mngr.c ****                 (get_mode_info(port, alt_mode_idx)->app_evt_needed != false))
 1970              		.loc 1 240 0
 1971 0030 2900     		movs	r1, r5
 1972 0032 2000     		movs	r0, r4
 1973 0034 FFF7FEFF 		bl	get_mode_info
 1974              	.LVL189:
 1975 0038 0378     		ldrb	r3, [r0]
 1976 003a 012B     		cmp	r3, #1
 1977 003c 04D1     		bne	.L137
 241:..\src\app\alt_mode/alt_modes_mngr.c ****             {
 1978              		.loc 1 241 0 discriminator 1
 1979 003e 2333     		adds	r3, r3, #35
 1980 0040 C35C     		ldrb	r3, [r0, r3]
 240:..\src\app\alt_mode/alt_modes_mngr.c ****                 (get_mode_info(port, alt_mode_idx)->app_evt_needed != false))
 1981              		.loc 1 240 0 discriminator 1
 1982 0042 002B     		cmp	r3, #0
 1983 0044 02D1     		bne	.L138
 1984 0046 02E0     		b	.L133
 1985              	.L137:
 243:..\src\app\alt_mode/alt_modes_mngr.c ****             }
 1986              		.loc 1 243 0
 1987 0048 0027     		movs	r7, #0
 1988              	.LVL190:
 1989 004a 00E0     		b	.L133
 1990              	.LVL191:
 1991              	.L138:
 1992 004c 0027     		movs	r7, #0
 1993              	.LVL192:
 1994              	.L133:
 234:..\src\app\alt_mode/alt_modes_mngr.c ****     {
 1995              		.loc 1 234 0 discriminator 2
 1996 004e 0135     		adds	r5, r5, #1
 1997              	.LVL193:
 1998 0050 EDB2     		uxtb	r5, r5
 1999              	.LVL194:
 2000 0052 01E0     		b	.L132
 2001              	.LVL195:
 2002              	.L136:
 2003 0054 0025     		movs	r5, #0
 2004 0056 0127     		movs	r7, #1
 2005              	.LVL196:
 2006              	.L132:
 234:..\src\app\alt_mode/alt_modes_mngr.c ****     {
 2007              		.loc 1 234 0 is_stmt 0 discriminator 1
 2008 0058 7423     		movs	r3, #116
 2009 005a 7343     		muls	r3, r6
 2010 005c 044A     		ldr	r2, .L139
 2011 005e D318     		adds	r3, r2, r3
 2012 0060 3033     		adds	r3, r3, #48
 2013 0062 1B78     		ldrb	r3, [r3]
 2014 0064 9D42     		cmp	r5, r3
 2015 0066 DBD3     		bcc	.L134
 249:..\src\app\alt_mode/alt_modes_mngr.c **** }
 2016              		.loc 1 249 0 is_stmt 1
ARM GAS  e:\temp\ccP12Hvn.s 			page 64


 2017 0068 3800     		movs	r0, r7
 2018 006a 00E0     		b	.L131
 2019              	.LVL197:
 2020              	.L135:
 232:..\src\app\alt_mode/alt_modes_mngr.c **** 
 2021              		.loc 1 232 0
 2022 006c 0020     		movs	r0, #0
 2023              	.LVL198:
 2024              	.L131:
 250:..\src\app\alt_mode/alt_modes_mngr.c **** 
 2025              		.loc 1 250 0
 2026              		@ sp needed
 2027 006e F8BD     		pop	{r3, r4, r5, r6, r7, pc}
 2028              	.L140:
 2029              		.align	2
 2030              	.L139:
 2031 0070 00000000 		.word	alt_mode
 2032              		.cfi_endproc
 2033              	.LFE33:
 2034              		.size	is_alt_mode_mngr_idle, .-is_alt_mode_mngr_idle
 2035              		.section	.text.fail_alt_modes,"ax",%progbits
 2036              		.align	2
 2037              		.code	16
 2038              		.thumb_func
 2039              		.type	fail_alt_modes, %function
 2040              	fail_alt_modes:
 2041              	.LFB46:
 806:..\src\app\alt_mode/alt_modes_mngr.c ****     uint8_t             alt_mode_idx;
 2042              		.loc 1 806 0
 2043              		.cfi_startproc
 2044              		@ args = 0, pretend = 0, frame = 8
 2045              		@ frame_needed = 0, uses_anonymous_args = 0
 2046              	.LVL199:
 2047 0000 F0B5     		push	{r4, r5, r6, r7, lr}
 2048              		.cfi_def_cfa_offset 20
 2049              		.cfi_offset 4, -20
 2050              		.cfi_offset 5, -16
 2051              		.cfi_offset 6, -12
 2052              		.cfi_offset 7, -8
 2053              		.cfi_offset 14, -4
 2054 0002 85B0     		sub	sp, sp, #20
 2055              		.cfi_def_cfa_offset 40
 2056 0004 0290     		str	r0, [sp, #8]
 2057              	.LVL200:
 811:..\src\app\alt_mode/alt_modes_mngr.c ****     
 2058              		.loc 1 811 0
 2059 0006 0700     		movs	r7, r0
 2060 0008 7423     		movs	r3, #116
 2061 000a 4343     		muls	r3, r0
 2062 000c 244A     		ldr	r2, .L147
 2063 000e D318     		adds	r3, r2, r3
 2064 0010 DD6E     		ldr	r5, [r3, #108]
 2065              	.LVL201:
 809:..\src\app\alt_mode/alt_modes_mngr.c ****     alt_mode_info_t     *am_info_p = NULL;
 2066              		.loc 1 809 0
 2067 0012 0923     		movs	r3, #9
 2068 0014 0393     		str	r3, [sp, #12]
ARM GAS  e:\temp\ccP12Hvn.s 			page 65


 814:..\src\app\alt_mode/alt_modes_mngr.c ****     {
 2069              		.loc 1 814 0
 2070 0016 0026     		movs	r6, #0
 2071 0018 36E0     		b	.L142
 2072              	.LVL202:
 2073              	.L145:
 817:..\src\app\alt_mode/alt_modes_mngr.c ****         {
 2074              		.loc 1 817 0
 2075 001a 7423     		movs	r3, #116
 2076 001c 7B43     		muls	r3, r7
 2077 001e 204A     		ldr	r2, .L147
 2078 0020 D318     		adds	r3, r2, r3
 2079 0022 DB69     		ldr	r3, [r3, #28]
 2080 0024 F340     		lsrs	r3, r3, r6
 2081 0026 DB07     		lsls	r3, r3, #31
 2082 0028 2CD5     		bpl	.L143
 819:..\src\app\alt_mode/alt_modes_mngr.c ****             /* Get alt mode state */
 2083              		.loc 1 819 0
 2084 002a 3100     		movs	r1, r6
 2085 002c 0298     		ldr	r0, [sp, #8]
 2086 002e FFF7FEFF 		bl	get_mode_info
 2087              	.LVL203:
 2088 0032 0400     		movs	r4, r0
 2089              	.LVL204:
 821:..\src\app\alt_mode/alt_modes_mngr.c ****             /* If mode waits for response */
 2090              		.loc 1 821 0
 2091 0034 0378     		ldrb	r3, [r0]
 2092              	.LVL205:
 823:..\src\app\alt_mode/alt_modes_mngr.c ****             {
 2093              		.loc 1 823 0
 2094 0036 042B     		cmp	r3, #4
 2095 0038 24D1     		bne	.L143
 826:..\src\app\alt_mode/alt_modes_mngr.c ****                 /* Set Failure code at the object pos field */
 2096              		.loc 1 826 0
 2097 003a 2B79     		ldrb	r3, [r5, #4]
 2098              	.LVL206:
 2099 003c C318     		adds	r3, r0, r3
 2100 003e 0522     		movs	r2, #5
 2101 0040 5A70     		strb	r2, [r3, #1]
 2102              	.LVL207:
 828:..\src\app\alt_mode/alt_modes_mngr.c **** 
 2103              		.loc 1 828 0
 2104 0042 6B78     		ldrb	r3, [r5, #1]
 2105 0044 5B07     		lsls	r3, r3, #29
 2106 0046 5A0F     		lsrs	r2, r3, #29
 2107 0048 437A     		ldrb	r3, [r0, #9]
 2108 004a 0721     		movs	r1, #7
 2109 004c 8B43     		bics	r3, r1
 2110 004e 1343     		orrs	r3, r2
 2111 0050 4372     		strb	r3, [r0, #9]
 2112              	.LVL208:
 830:..\src\app\alt_mode/alt_modes_mngr.c ****                 {
 2113              		.loc 1 830 0
 2114 0052 2B79     		ldrb	r3, [r5, #4]
 2115 0054 002B     		cmp	r3, #0
 2116 0056 01D1     		bne	.L144
 832:..\src\app\alt_mode/alt_modes_mngr.c ****                 }
ARM GAS  e:\temp\ccP12Hvn.s 			page 66


 2117              		.loc 1 832 0
 2118 0058 0833     		adds	r3, r3, #8
 2119 005a 0393     		str	r3, [sp, #12]
 2120              	.L144:
 2121              	.LVL209:
 837:..\src\app\alt_mode/alt_modes_mngr.c ****                             am_info_p->VDM_HDR.svid,
 2122              		.loc 1 837 0
 2123 005c E279     		ldrb	r2, [r4, #7]
 2124 005e 6189     		ldrh	r1, [r4, #10]
 2125 0060 0023     		movs	r3, #0
 2126 0062 0093     		str	r3, [sp]
 2127 0064 039B     		ldr	r3, [sp, #12]
 2128 0066 0298     		ldr	r0, [sp, #8]
 2129              	.LVL210:
 2130 0068 FFF7FEFF 		bl	form_alt_mode_event
 2131              	.LVL211:
 2132 006c 0200     		movs	r2, r0
 836:..\src\app\alt_mode/alt_modes_mngr.c ****                         form_alt_mode_event (port,
 2133              		.loc 1 836 0
 2134 006e 0621     		movs	r1, #6
 2135 0070 0298     		ldr	r0, [sp, #8]
 2136 0072 FFF7FEFF 		bl	sln_pd_event_handler
 2137              	.LVL212:
 842:..\src\app\alt_mode/alt_modes_mngr.c ****                 if (am_info_p->cbk != NULL)
 2138              		.loc 1 842 0
 2139 0076 0523     		movs	r3, #5
 2140 0078 2370     		strb	r3, [r4]
 843:..\src\app\alt_mode/alt_modes_mngr.c ****                 {
 2141              		.loc 1 843 0
 2142 007a E369     		ldr	r3, [r4, #28]
 2143 007c 002B     		cmp	r3, #0
 2144 007e 01D0     		beq	.L143
 845:..\src\app\alt_mode/alt_modes_mngr.c ****                 }
 2145              		.loc 1 845 0
 2146 0080 0298     		ldr	r0, [sp, #8]
 2147 0082 9847     		blx	r3
 2148              	.LVL213:
 2149              	.L143:
 814:..\src\app\alt_mode/alt_modes_mngr.c ****     {
 2150              		.loc 1 814 0 discriminator 2
 2151 0084 0136     		adds	r6, r6, #1
 2152              	.LVL214:
 2153 0086 F6B2     		uxtb	r6, r6
 2154              	.LVL215:
 2155              	.L142:
 814:..\src\app\alt_mode/alt_modes_mngr.c ****     {
 2156              		.loc 1 814 0 is_stmt 0 discriminator 1
 2157 0088 7423     		movs	r3, #116
 2158 008a 7B43     		muls	r3, r7
 2159 008c 044A     		ldr	r2, .L147
 2160 008e D318     		adds	r3, r2, r3
 2161 0090 3033     		adds	r3, r3, #48
 2162 0092 1B78     		ldrb	r3, [r3]
 2163 0094 9E42     		cmp	r6, r3
 2164 0096 C0D3     		bcc	.L145
 852:..\src\app\alt_mode/alt_modes_mngr.c **** 
 2165              		.loc 1 852 0 is_stmt 1
ARM GAS  e:\temp\ccP12Hvn.s 			page 67


 2166 0098 0720     		movs	r0, #7
 2167 009a 05B0     		add	sp, sp, #20
 2168              		@ sp needed
 2169              	.LVL216:
 2170              	.LVL217:
 2171 009c F0BD     		pop	{r4, r5, r6, r7, pc}
 2172              	.L148:
 2173 009e C046     		.align	2
 2174              	.L147:
 2175 00a0 00000000 		.word	alt_mode
 2176              		.cfi_endproc
 2177              	.LFE46:
 2178              		.size	fail_alt_modes, .-fail_alt_modes
 2179              		.section	.text.eval_alt_modes,"ax",%progbits
 2180              		.align	2
 2181              		.code	16
 2182              		.thumb_func
 2183              		.type	eval_alt_modes, %function
 2184              	eval_alt_modes:
 2185              	.LFB45:
 695:..\src\app\alt_mode/alt_modes_mngr.c ****     uint8_t            alt_mode_idx;
 2186              		.loc 1 695 0
 2187              		.cfi_startproc
 2188              		@ args = 0, pretend = 0, frame = 8
 2189              		@ frame_needed = 0, uses_anonymous_args = 0
 2190              	.LVL218:
 2191 0000 F0B5     		push	{r4, r5, r6, r7, lr}
 2192              		.cfi_def_cfa_offset 20
 2193              		.cfi_offset 4, -20
 2194              		.cfi_offset 5, -16
 2195              		.cfi_offset 6, -12
 2196              		.cfi_offset 7, -8
 2197              		.cfi_offset 14, -4
 2198 0002 5746     		mov	r7, r10
 2199 0004 4E46     		mov	r6, r9
 2200 0006 C0B4     		push	{r6, r7}
 2201              		.cfi_def_cfa_offset 28
 2202              		.cfi_offset 9, -28
 2203              		.cfi_offset 10, -24
 2204 0008 85B0     		sub	sp, sp, #20
 2205              		.cfi_def_cfa_offset 48
 2206 000a 0290     		str	r0, [sp, #8]
 2207              	.LVL219:
 702:..\src\app\alt_mode/alt_modes_mngr.c ****     
 2208              		.loc 1 702 0
 2209 000c 0700     		movs	r7, r0
 2210 000e 7423     		movs	r3, #116
 2211 0010 4343     		muls	r3, r0
 2212 0012 484A     		ldr	r2, .L161
 2213 0014 D318     		adds	r3, r2, r3
 2214 0016 DE6E     		ldr	r6, [r3, #108]
 2215              	.LVL220:
 701:..\src\app\alt_mode/alt_modes_mngr.c ****     vdm_msg_info_t     *vdm_p = alt_mode[port].vdm_info;
 2216              		.loc 1 701 0
 2217 0018 0023     		movs	r3, #0
 2218 001a 9A46     		mov	r10, r3
 699:..\src\app\alt_mode/alt_modes_mngr.c ****     alt_mode_info_t    *am_info_p  = NULL;
ARM GAS  e:\temp\ccP12Hvn.s 			page 68


 2219              		.loc 1 699 0
 2220 001c 9946     		mov	r9, r3
 698:..\src\app\alt_mode/alt_modes_mngr.c ****     alt_mode_app_evt_t appevt_type = AM_NO_EVT;
 2221              		.loc 1 698 0
 2222 001e 0733     		adds	r3, r3, #7
 2223 0020 0393     		str	r3, [sp, #12]
 705:..\src\app\alt_mode/alt_modes_mngr.c ****     {
 2224              		.loc 1 705 0
 2225 0022 0024     		movs	r4, #0
 2226 0024 76E0     		b	.L150
 2227              	.LVL221:
 2228              	.L160:
 708:..\src\app\alt_mode/alt_modes_mngr.c ****         {
 2229              		.loc 1 708 0
 2230 0026 7423     		movs	r3, #116
 2231 0028 7B43     		muls	r3, r7
 2232 002a 424A     		ldr	r2, .L161
 2233 002c D318     		adds	r3, r2, r3
 2234 002e DB69     		ldr	r3, [r3, #28]
 2235 0030 E340     		lsrs	r3, r3, r4
 2236 0032 DB07     		lsls	r3, r3, #31
 2237 0034 6CD5     		bpl	.L151
 710:..\src\app\alt_mode/alt_modes_mngr.c **** 
 2238              		.loc 1 710 0
 2239 0036 2100     		movs	r1, r4
 2240 0038 0298     		ldr	r0, [sp, #8]
 2241 003a FFF7FEFF 		bl	get_mode_info
 2242              	.LVL222:
 2243 003e 0500     		movs	r5, r0
 2244              	.LVL223:
 713:..\src\app\alt_mode/alt_modes_mngr.c ****                 break;
 2245              		.loc 1 713 0
 2246 0040 C369     		ldr	r3, [r0, #28]
 2247 0042 002B     		cmp	r3, #0
 2248 0044 6FD0     		beq	.L152
 717:..\src\app\alt_mode/alt_modes_mngr.c ****             switch (alt_mode_state)
 2249              		.loc 1 717 0
 2250 0046 0378     		ldrb	r3, [r0]
 2251              	.LVL224:
 718:..\src\app\alt_mode/alt_modes_mngr.c ****             {
 2252              		.loc 1 718 0
 2253 0048 042B     		cmp	r3, #4
 2254 004a 61D1     		bne	.L151
 722:..\src\app\alt_mode/alt_modes_mngr.c ****                     /* Copy received resp to alt mode info struct */
 2255              		.loc 1 722 0
 2256 004c 3379     		ldrb	r3, [r6, #4]
 2257              	.LVL225:
 2258 004e C318     		adds	r3, r0, r3
 2259 0050 0122     		movs	r2, #1
 2260 0052 5A70     		strb	r2, [r3, #1]
 2261              	.LVL226:
 724:..\src\app\alt_mode/alt_modes_mngr.c ****                     /* If received VDM is SOP */
 2262              		.loc 1 724 0
 2263 0054 3279     		ldrb	r2, [r6, #4]
 2264 0056 0100     		movs	r1, r0
 2265 0058 0298     		ldr	r0, [sp, #8]
 2266              	.LVL227:
ARM GAS  e:\temp\ccP12Hvn.s 			page 69


 2267 005a FFF7FEFF 		bl	get_vdm_info_vdo
 2268              	.LVL228:
 726:..\src\app\alt_mode/alt_modes_mngr.c ****                     {
 2269              		.loc 1 726 0
 2270 005e 3379     		ldrb	r3, [r6, #4]
 2271 0060 002B     		cmp	r3, #0
 2272 0062 3CD1     		bne	.L154
 729:..\src\app\alt_mode/alt_modes_mngr.c ****                         /* If UVDM command then break */
 2273              		.loc 1 729 0
 2274 0064 0298     		ldr	r0, [sp, #8]
 2275 0066 EB69     		ldr	r3, [r5, #28]
 2276 0068 9847     		blx	r3
 2277              	.LVL229:
 731:..\src\app\alt_mode/alt_modes_mngr.c ****                         {
 2278              		.loc 1 731 0
 2279 006a 7378     		ldrb	r3, [r6, #1]
 2280 006c 7F22     		movs	r2, #127
 2281 006e 9343     		bics	r3, r2
 2282 0070 4ED0     		beq	.L151
 736:..\src\app\alt_mode/alt_modes_mngr.c ****                         {
 2283              		.loc 1 736 0
 2284 0072 3378     		ldrb	r3, [r6]
 2285 0074 603A     		subs	r2, r2, #96
 2286 0076 1340     		ands	r3, r2
 2287 0078 042B     		cmp	r3, #4
 2288 007a 09D1     		bne	.L155
 739:..\src\app\alt_mode/alt_modes_mngr.c ****                             /* Set mode as active */
 2289              		.loc 1 739 0
 2290 007c 0298     		ldr	r0, [sp, #8]
 2291 007e FFF7FEFF 		bl	app_get_status
 2292              	.LVL230:
 2293 0082 0123     		movs	r3, #1
 2294 0084 3D22     		movs	r2, #61
 2295 0086 8354     		strb	r3, [r0, r2]
 741:..\src\app\alt_mode/alt_modes_mngr.c ****                             /* Queue notifications to the solution. */
 2296              		.loc 1 741 0
 2297 0088 1D3A     		subs	r2, r2, #29
 2298 008a AB54     		strb	r3, [r5, r2]
 2299              	.LVL231:
 743:..\src\app\alt_mode/alt_modes_mngr.c ****                         }
 2300              		.loc 1 743 0
 2301 008c 0133     		adds	r3, r3, #1
 2302 008e 9946     		mov	r9, r3
 2303              	.LVL232:
 2304              	.L155:
 746:..\src\app\alt_mode/alt_modes_mngr.c ****                         {
 2305              		.loc 1 746 0
 2306 0090 3378     		ldrb	r3, [r6]
 2307 0092 1F22     		movs	r2, #31
 2308 0094 1340     		ands	r3, r2
 2309 0096 052B     		cmp	r3, #5
 2310 0098 04D1     		bne	.L156
 749:..\src\app\alt_mode/alt_modes_mngr.c ****                             /* Queue notifications to the solution. */
 2311              		.loc 1 749 0
 2312 009a 0022     		movs	r2, #0
 2313 009c 1B33     		adds	r3, r3, #27
 2314 009e EA54     		strb	r2, [r5, r3]
ARM GAS  e:\temp\ccP12Hvn.s 			page 70


 2315              	.LVL233:
 751:..\src\app\alt_mode/alt_modes_mngr.c ****                         }
 2316              		.loc 1 751 0
 2317 00a0 1D3B     		subs	r3, r3, #29
 2318 00a2 9946     		mov	r9, r3
 2319              	.LVL234:
 2320              	.L156:
 755:..\src\app\alt_mode/alt_modes_mngr.c ****                         {
 2321              		.loc 1 755 0
 2322 00a4 2423     		movs	r3, #36
 2323 00a6 EB5C     		ldrb	r3, [r5, r3]
 2324 00a8 002B     		cmp	r3, #0
 2325 00aa 06D0     		beq	.L157
 2326              	.LVL235:
 759:..\src\app\alt_mode/alt_modes_mngr.c ****                             am_info_p->app_evt_needed = false;
 2327              		.loc 1 759 0
 2328 00ac AB6A     		ldr	r3, [r5, #40]
 2329 00ae 9A46     		mov	r10, r3
 2330              	.LVL236:
 760:..\src\app\alt_mode/alt_modes_mngr.c ****                         }
 2331              		.loc 1 760 0
 2332 00b0 0022     		movs	r2, #0
 2333 00b2 2423     		movs	r3, #36
 2334              	.LVL237:
 2335 00b4 EA54     		strb	r2, [r5, r3]
 758:..\src\app\alt_mode/alt_modes_mngr.c ****                             appevt_data = am_info_p->app_evt_data.val;
 2336              		.loc 1 758 0
 2337 00b6 183B     		subs	r3, r3, #24
 2338 00b8 9946     		mov	r9, r3
 2339              	.LVL238:
 2340              	.L157:
 764:..\src\app\alt_mode/alt_modes_mngr.c ****                         {
 2341              		.loc 1 764 0
 2342 00ba 4B46     		mov	r3, r9
 2343 00bc 002B     		cmp	r3, #0
 2344 00be 27D0     		beq	.L151
 767:..\src\app\alt_mode/alt_modes_mngr.c ****                                         am_info_p->VDM_HDR.svid,
 2345              		.loc 1 767 0
 2346 00c0 EA79     		ldrb	r2, [r5, #7]
 2347 00c2 6989     		ldrh	r1, [r5, #10]
 2348 00c4 5346     		mov	r3, r10
 2349 00c6 0093     		str	r3, [sp]
 2350 00c8 4B46     		mov	r3, r9
 2351 00ca 029D     		ldr	r5, [sp, #8]
 2352              	.LVL239:
 2353 00cc 2800     		movs	r0, r5
 2354 00ce FFF7FEFF 		bl	form_alt_mode_event
 2355              	.LVL240:
 2356 00d2 0200     		movs	r2, r0
 766:..\src\app\alt_mode/alt_modes_mngr.c ****                                     form_alt_mode_event (port,
 2357              		.loc 1 766 0
 2358 00d4 0621     		movs	r1, #6
 2359 00d6 2800     		movs	r0, r5
 2360 00d8 FFF7FEFF 		bl	sln_pd_event_handler
 2361              	.LVL241:
 2362 00dc 18E0     		b	.L151
 2363              	.LVL242:
ARM GAS  e:\temp\ccP12Hvn.s 			page 71


 2364              	.L154:
 777:..\src\app\alt_mode/alt_modes_mngr.c ****                         {
 2365              		.loc 1 777 0
 2366 00de EB78     		ldrb	r3, [r5, #3]
 2367 00e0 032B     		cmp	r3, #3
 2368 00e2 07D1     		bne	.L158
 780:..\src\app\alt_mode/alt_modes_mngr.c ****                             stat = VDM_TASK_SEND_MSG;
 2369              		.loc 1 780 0
 2370 00e4 0222     		movs	r2, #2
 2371 00e6 2900     		movs	r1, r5
 2372 00e8 0298     		ldr	r0, [sp, #8]
 2373 00ea FFF7FEFF 		bl	move_to_vdm_info
 2374              	.LVL243:
 781:..\src\app\alt_mode/alt_modes_mngr.c ****                         }
 2375              		.loc 1 781 0
 2376 00ee 0623     		movs	r3, #6
 2377 00f0 0393     		str	r3, [sp, #12]
 2378 00f2 0DE0     		b	.L151
 2379              	.LVL244:
 2380              	.L158:
 783:..\src\app\alt_mode/alt_modes_mngr.c ****                         {
 2381              		.loc 1 783 0
 2382 00f4 6B78     		ldrb	r3, [r5, #1]
 2383 00f6 032B     		cmp	r3, #3
 2384 00f8 07D1     		bne	.L159
 786:..\src\app\alt_mode/alt_modes_mngr.c ****                             stat = VDM_TASK_SEND_MSG;
 2385              		.loc 1 786 0
 2386 00fa 0022     		movs	r2, #0
 2387 00fc 2900     		movs	r1, r5
 2388 00fe 0298     		ldr	r0, [sp, #8]
 2389 0100 FFF7FEFF 		bl	move_to_vdm_info
 2390              	.LVL245:
 787:..\src\app\alt_mode/alt_modes_mngr.c ****                         }
 2391              		.loc 1 787 0
 2392 0104 0623     		movs	r3, #6
 2393 0106 0393     		str	r3, [sp, #12]
 2394 0108 02E0     		b	.L151
 2395              	.LVL246:
 2396              	.L159:
 791:..\src\app\alt_mode/alt_modes_mngr.c ****                         }
 2397              		.loc 1 791 0
 2398 010a EB69     		ldr	r3, [r5, #28]
 2399 010c 0298     		ldr	r0, [sp, #8]
 2400 010e 9847     		blx	r3
 2401              	.LVL247:
 2402              	.L151:
 705:..\src\app\alt_mode/alt_modes_mngr.c ****     {
 2403              		.loc 1 705 0 discriminator 2
 2404 0110 0134     		adds	r4, r4, #1
 2405              	.LVL248:
 2406 0112 E4B2     		uxtb	r4, r4
 2407              	.LVL249:
 2408              	.L150:
 705:..\src\app\alt_mode/alt_modes_mngr.c ****     {
 2409              		.loc 1 705 0 is_stmt 0 discriminator 1
 2410 0114 7423     		movs	r3, #116
 2411 0116 7B43     		muls	r3, r7
ARM GAS  e:\temp\ccP12Hvn.s 			page 72


 2412 0118 064A     		ldr	r2, .L161
 2413 011a D318     		adds	r3, r2, r3
 2414 011c 3033     		adds	r3, r3, #48
 2415 011e 1B78     		ldrb	r3, [r3]
 2416 0120 9C42     		cmp	r4, r3
 2417 0122 00D2     		bcs	.LCB2400
 2418 0124 7FE7     		b	.L160	@long jump
 2419              	.LCB2400:
 2420              	.L152:
 803:..\src\app\alt_mode/alt_modes_mngr.c **** 
 2421              		.loc 1 803 0 is_stmt 1
 2422 0126 0398     		ldr	r0, [sp, #12]
 2423 0128 05B0     		add	sp, sp, #20
 2424              		@ sp needed
 2425              	.LVL250:
 2426              	.LVL251:
 2427              	.LVL252:
 2428              	.LVL253:
 2429 012a 0CBC     		pop	{r2, r3}
 2430 012c 9146     		mov	r9, r2
 2431 012e 9A46     		mov	r10, r3
 2432 0130 F0BD     		pop	{r4, r5, r6, r7, pc}
 2433              	.L162:
 2434 0132 C046     		.align	2
 2435              	.L161:
 2436 0134 00000000 		.word	alt_mode
 2437              		.cfi_endproc
 2438              	.LFE45:
 2439              		.size	eval_alt_modes, .-eval_alt_modes
 2440              		.section	.text.monitor_alt_modes,"ax",%progbits
 2441              		.align	2
 2442              		.code	16
 2443              		.thumb_func
 2444              		.type	monitor_alt_modes, %function
 2445              	monitor_alt_modes:
 2446              	.LFB44:
 547:..\src\app\alt_mode/alt_modes_mngr.c ****     uint8_t          alt_mode_idx;
 2447              		.loc 1 547 0
 2448              		.cfi_startproc
 2449              		@ args = 0, pretend = 0, frame = 8
 2450              		@ frame_needed = 0, uses_anonymous_args = 0
 2451              	.LVL254:
 2452 0000 F0B5     		push	{r4, r5, r6, r7, lr}
 2453              		.cfi_def_cfa_offset 20
 2454              		.cfi_offset 4, -20
 2455              		.cfi_offset 5, -16
 2456              		.cfi_offset 6, -12
 2457              		.cfi_offset 7, -8
 2458              		.cfi_offset 14, -4
 2459 0002 85B0     		sub	sp, sp, #20
 2460              		.cfi_def_cfa_offset 40
 2461 0004 0600     		movs	r6, r0
 2462              	.LVL255:
 555:..\src\app\alt_mode/alt_modes_mngr.c ****     {
 2463              		.loc 1 555 0
 2464 0006 0025     		movs	r5, #0
 2465 0008 99E0     		b	.L164
ARM GAS  e:\temp\ccP12Hvn.s 			page 73


 2466              	.LVL256:
 2467              	.L176:
 558:..\src\app\alt_mode/alt_modes_mngr.c ****         {
 2468              		.loc 1 558 0
 2469 000a 7423     		movs	r3, #116
 2470 000c 7343     		muls	r3, r6
 2471 000e 534A     		ldr	r2, .L180
 2472 0010 D318     		adds	r3, r2, r3
 2473 0012 DF69     		ldr	r7, [r3, #28]
 2474 0014 0295     		str	r5, [sp, #8]
 2475 0016 3B00     		movs	r3, r7
 2476 0018 EB40     		lsrs	r3, r3, r5
 2477 001a DB07     		lsls	r3, r3, #31
 2478 001c 00D4     		bmi	.LCB2464
 2479 001e 8CE0     		b	.L165	@long jump
 2480              	.LCB2464:
 560:..\src\app\alt_mode/alt_modes_mngr.c ****             /* Get alt mode state */
 2481              		.loc 1 560 0
 2482 0020 2900     		movs	r1, r5
 2483 0022 3000     		movs	r0, r6
 2484 0024 FFF7FEFF 		bl	get_mode_info
 2485              	.LVL257:
 2486 0028 0400     		movs	r4, r0
 2487              	.LVL258:
 562:..\src\app\alt_mode/alt_modes_mngr.c ****             switch (alt_mode_state)
 2488              		.loc 1 562 0
 2489 002a 0378     		ldrb	r3, [r0]
 2490              	.LVL259:
 563:..\src\app\alt_mode/alt_modes_mngr.c ****             {
 2491              		.loc 1 563 0
 2492 002c 072B     		cmp	r3, #7
 2493 002e 00D9     		bls	.LCB2474
 2494 0030 83E0     		b	.L165	@long jump
 2495              	.LCB2474:
 2496 0032 9B00     		lsls	r3, r3, #2
 2497              	.LVL260:
 2498 0034 4A4A     		ldr	r2, .L180+4
 2499 0036 D358     		ldr	r3, [r2, r3]
 2500 0038 9F46     		mov	pc, r3
 2501              		.section	.rodata
 2502              		.align	2
 2503              	.L167:
 2504 0000 3A010000 		.word	.L165
 2505 0004 0A010000 		.word	.L166
 2506 0008 3A010000 		.word	.L165
 2507 000c 3A000000 		.word	.L168
 2508 0010 3A000000 		.word	.L168
 2509 0014 3A010000 		.word	.L165
 2510 0018 34010000 		.word	.L169
 2511 001c C2000000 		.word	.L170
 2512              		.section	.text.monitor_alt_modes
 2513              	.L168:
 570:..\src\app\alt_mode/alt_modes_mngr.c ****                 {
 2514              		.loc 1 570 0
 2515 003a 037A     		ldrb	r3, [r0, #8]
 2516 003c 1F22     		movs	r2, #31
 2517 003e 1340     		ands	r3, r2
ARM GAS  e:\temp\ccP12Hvn.s 			page 74


 2518 0040 042B     		cmp	r3, #4
 2519 0042 07D1     		bne	.L171
 572:..\src\app\alt_mode/alt_modes_mngr.c ****                     {
 2520              		.loc 1 572 0
 2521 0044 3000     		movs	r0, r6
 2522              	.LVL261:
 2523 0046 FFF7FEFF 		bl	app_get_status
 2524              	.LVL262:
 2525 004a 3B23     		movs	r3, #59
 2526 004c C35C     		ldrb	r3, [r0, r3]
 2527 004e 2B41     		asrs	r3, r3, r5
 2528 0050 DB07     		lsls	r3, r3, #31
 2529 0052 72D4     		bmi	.L165
 2530              	.L171:
 583:..\src\app\alt_mode/alt_modes_mngr.c ****                 {
 2531              		.loc 1 583 0
 2532 0054 A378     		ldrb	r3, [r4, #2]
 2533 0056 032B     		cmp	r3, #3
 2534 0058 04D0     		beq	.L177
 587:..\src\app\alt_mode/alt_modes_mngr.c ****                 {
 2535              		.loc 1 587 0
 2536 005a E378     		ldrb	r3, [r4, #3]
 2537 005c 032B     		cmp	r3, #3
 2538 005e 03D1     		bne	.L178
 589:..\src\app\alt_mode/alt_modes_mngr.c ****                 }
 2539              		.loc 1 589 0
 2540 0060 0227     		movs	r7, #2
 2541 0062 02E0     		b	.L172
 2542              	.L177:
 585:..\src\app\alt_mode/alt_modes_mngr.c ****                 }
 2543              		.loc 1 585 0
 2544 0064 0127     		movs	r7, #1
 2545 0066 00E0     		b	.L172
 2546              	.L178:
 593:..\src\app\alt_mode/alt_modes_mngr.c ****                 }
 2547              		.loc 1 593 0
 2548 0068 0027     		movs	r7, #0
 2549              	.L172:
 2550              	.LVL263:
 598:..\src\app\alt_mode/alt_modes_mngr.c ****                          (am_info_p->VDM_HDR.cmd == VDM_CMD_EXIT_MODE)) &&
 2551              		.loc 1 598 0
 2552 006a 237A     		ldrb	r3, [r4, #8]
 2553 006c 1F22     		movs	r2, #31
 2554 006e 1340     		ands	r3, r2
 2555 0070 043B     		subs	r3, r3, #4
 2556 0072 DBB2     		uxtb	r3, r3
 597:..\src\app\alt_mode/alt_modes_mngr.c ****                         ((am_info_p->VDM_HDR.cmd == VDM_CMD_ENTER_MODE) ||
 2557              		.loc 1 597 0
 2558 0074 012B     		cmp	r3, #1
 2559 0076 12D8     		bhi	.L173
 600:..\src\app\alt_mode/alt_modes_mngr.c ****                         ((alt_mode[port].am_active_modes & (~(1 << alt_mode_idx))) == false)
 2560              		.loc 1 600 0
 2561 0078 2323     		movs	r3, #35
 2562 007a E35C     		ldrb	r3, [r4, r3]
 599:..\src\app\alt_mode/alt_modes_mngr.c ****                         (am_info_p->set_mux_isolate != false)          &&
 2563              		.loc 1 599 0
 2564 007c 002B     		cmp	r3, #0
ARM GAS  e:\temp\ccP12Hvn.s 			page 75


 2565 007e 0ED0     		beq	.L173
 601:..\src\app\alt_mode/alt_modes_mngr.c ****                    )
 2566              		.loc 1 601 0
 2567 0080 7423     		movs	r3, #116
 2568 0082 039A     		ldr	r2, [sp, #12]
 2569 0084 5A43     		muls	r2, r3
 2570 0086 354B     		ldr	r3, .L180
 2571 0088 9B18     		adds	r3, r3, r2
 2572 008a DB69     		ldr	r3, [r3, #28]
 2573 008c 0122     		movs	r2, #1
 2574 008e AA40     		lsls	r2, r2, r5
 2575 0090 9343     		bics	r3, r2
 600:..\src\app\alt_mode/alt_modes_mngr.c ****                         ((alt_mode[port].am_active_modes & (~(1 << alt_mode_idx))) == false)
 2576              		.loc 1 600 0
 2577 0092 04D1     		bne	.L173
 604:..\src\app\alt_mode/alt_modes_mngr.c ****                 }
 2578              		.loc 1 604 0
 2579 0094 0022     		movs	r2, #0
 2580 0096 0021     		movs	r1, #0
 2581 0098 3000     		movs	r0, r6
 2582 009a FFF7FEFF 		bl	set_mux
 2583              	.LVL264:
 2584              	.L173:
 607:..\src\app\alt_mode/alt_modes_mngr.c ****                 {
 2585              		.loc 1 607 0
 2586 009e 2023     		movs	r3, #32
 2587 00a0 E35C     		ldrb	r3, [r4, r3]
 2588 00a2 002B     		cmp	r3, #0
 2589 00a4 04D1     		bne	.L174
 607:..\src\app\alt_mode/alt_modes_mngr.c ****                 {
 2590              		.loc 1 607 0 is_stmt 0 discriminator 1
 2591 00a6 237A     		ldrb	r3, [r4, #8]
 2592 00a8 1F22     		movs	r2, #31
 2593 00aa 1340     		ands	r3, r2
 2594 00ac 042B     		cmp	r3, #4
 2595 00ae 52D1     		bne	.L179
 2596              	.L174:
 610:..\src\app\alt_mode/alt_modes_mngr.c ****                     am_info_p->mode_state = ALT_MODE_STATE_WAIT_FOR_RESP;
 2597              		.loc 1 610 0 is_stmt 1
 2598 00b0 3A00     		movs	r2, r7
 2599 00b2 2100     		movs	r1, r4
 2600 00b4 3000     		movs	r0, r6
 2601 00b6 FFF7FEFF 		bl	move_to_vdm_info
 2602              	.LVL265:
 611:..\src\app\alt_mode/alt_modes_mngr.c ****                 }
 2603              		.loc 1 611 0
 2604 00ba 0423     		movs	r3, #4
 2605 00bc 2370     		strb	r3, [r4]
 614:..\src\app\alt_mode/alt_modes_mngr.c **** 
 2606              		.loc 1 614 0
 2607 00be 0620     		movs	r0, #6
 2608 00c0 4AE0     		b	.L175
 2609              	.LVL266:
 2610              	.L170:
 618:..\src\app\alt_mode/alt_modes_mngr.c ****                 {
 2611              		.loc 1 618 0
 2612 00c2 284B     		ldr	r3, .L180+8
ARM GAS  e:\temp\ccP12Hvn.s 			page 76


 2613 00c4 9B5D     		ldrb	r3, [r3, r6]
 2614 00c6 002B     		cmp	r3, #0
 2615 00c8 37D0     		beq	.L165
 621:..\src\app\alt_mode/alt_modes_mngr.c ****                     /* Set alt mode as disabled */
 2616              		.loc 1 621 0
 2617 00ca 0121     		movs	r1, #1
 2618 00cc 029B     		ldr	r3, [sp, #8]
 2619 00ce 9940     		lsls	r1, r1, r3
 2620 00d0 7422     		movs	r2, #116
 2621 00d2 7243     		muls	r2, r6
 2622 00d4 214B     		ldr	r3, .L180
 2623 00d6 9A18     		adds	r2, r3, r2
 2624 00d8 3B00     		movs	r3, r7
 2625 00da 8B43     		bics	r3, r1
 2626 00dc D361     		str	r3, [r2, #28]
 2627              	.LVL267:
 623:..\src\app\alt_mode/alt_modes_mngr.c ****                     /* Set flag as exited mode */
 2628              		.loc 1 623 0
 2629 00de 0023     		movs	r3, #0
 2630 00e0 0370     		strb	r3, [r0]
 625:..\src\app\alt_mode/alt_modes_mngr.c **** 
 2631              		.loc 1 625 0
 2632 00e2 9369     		ldr	r3, [r2, #24]
 2633 00e4 1943     		orrs	r1, r3
 2634 00e6 9161     		str	r1, [r2, #24]
 628:..\src\app\alt_mode/alt_modes_mngr.c ****                     {
 2635              		.loc 1 628 0
 2636 00e8 D369     		ldr	r3, [r2, #28]
 2637 00ea 002B     		cmp	r3, #0
 2638 00ec 25D1     		bne	.L165
 631:..\src\app\alt_mode/alt_modes_mngr.c ****                         /* Set MUX to SS config */
 2639              		.loc 1 631 0
 2640 00ee 3000     		movs	r0, r6
 2641              	.LVL268:
 2642 00f0 FFF7FEFF 		bl	app_get_status
 2643              	.LVL269:
 2644 00f4 0022     		movs	r2, #0
 2645 00f6 3D23     		movs	r3, #61
 2646 00f8 C254     		strb	r2, [r0, r3]
 633:..\src\app\alt_mode/alt_modes_mngr.c ****                         /* Get next alt mode if avaliable */
 2647              		.loc 1 633 0
 2648 00fa 0221     		movs	r1, #2
 2649 00fc 3000     		movs	r0, r6
 2650 00fe FFF7FEFF 		bl	set_mux
 2651              	.LVL270:
 635:..\src\app\alt_mode/alt_modes_mngr.c ****                     }
 2652              		.loc 1 635 0
 2653 0102 3000     		movs	r0, r6
 2654 0104 FFF7FEFF 		bl	get_next_alt_mode
 2655              	.LVL271:
 2656 0108 17E0     		b	.L165
 2657              	.LVL272:
 2658              	.L166:
 666:..\src\app\alt_mode/alt_modes_mngr.c ****                 {
 2659              		.loc 1 666 0
 2660 010a 2423     		movs	r3, #36
 2661 010c C35C     		ldrb	r3, [r0, r3]
ARM GAS  e:\temp\ccP12Hvn.s 			page 77


 2662 010e 002B     		cmp	r3, #0
 2663 0110 13D0     		beq	.L165
 670:..\src\app\alt_mode/alt_modes_mngr.c ****                                 am_info_p->VDM_HDR.svid,
 2664              		.loc 1 670 0
 2665 0112 C279     		ldrb	r2, [r0, #7]
 2666 0114 4189     		ldrh	r1, [r0, #10]
 2667 0116 836A     		ldr	r3, [r0, #40]
 2668 0118 0093     		str	r3, [sp]
 2669              	.LVL273:
 2670 011a 0C23     		movs	r3, #12
 2671 011c 3000     		movs	r0, r6
 2672              	.LVL274:
 2673 011e FFF7FEFF 		bl	form_alt_mode_event
 2674              	.LVL275:
 2675 0122 0200     		movs	r2, r0
 669:..\src\app\alt_mode/alt_modes_mngr.c ****                             form_alt_mode_event (port,
 2676              		.loc 1 669 0
 2677 0124 0621     		movs	r1, #6
 2678 0126 3000     		movs	r0, r6
 2679 0128 FFF7FEFF 		bl	sln_pd_event_handler
 2680              	.LVL276:
 675:..\src\app\alt_mode/alt_modes_mngr.c ****                 }
 2681              		.loc 1 675 0
 2682 012c 0022     		movs	r2, #0
 2683 012e 2423     		movs	r3, #36
 2684 0130 E254     		strb	r2, [r4, r3]
 2685 0132 02E0     		b	.L165
 2686              	.LVL277:
 2687              	.L169:
 681:..\src\app\alt_mode/alt_modes_mngr.c ****                 break;
 2688              		.loc 1 681 0
 2689 0134 C369     		ldr	r3, [r0, #28]
 2690 0136 3000     		movs	r0, r6
 2691              	.LVL278:
 2692 0138 9847     		blx	r3
 2693              	.LVL279:
 2694              	.L165:
 555:..\src\app\alt_mode/alt_modes_mngr.c ****     {
 2695              		.loc 1 555 0 discriminator 2
 2696 013a 0135     		adds	r5, r5, #1
 2697              	.LVL280:
 2698 013c EDB2     		uxtb	r5, r5
 2699              	.LVL281:
 2700              	.L164:
 555:..\src\app\alt_mode/alt_modes_mngr.c ****     {
 2701              		.loc 1 555 0 is_stmt 0 discriminator 1
 2702 013e 0396     		str	r6, [sp, #12]
 2703 0140 7423     		movs	r3, #116
 2704 0142 7343     		muls	r3, r6
 2705 0144 054A     		ldr	r2, .L180
 2706 0146 D318     		adds	r3, r2, r3
 2707 0148 3033     		adds	r3, r3, #48
 2708 014a 1B78     		ldrb	r3, [r3]
 2709 014c 9D42     		cmp	r5, r3
 2710 014e 00D2     		bcs	.LCB2684
 2711 0150 5BE7     		b	.L176	@long jump
 2712              	.LCB2684:
ARM GAS  e:\temp\ccP12Hvn.s 			page 78


 691:..\src\app\alt_mode/alt_modes_mngr.c **** }
 2713              		.loc 1 691 0 is_stmt 1
 2714 0152 0720     		movs	r0, #7
 2715 0154 00E0     		b	.L175
 2716              	.LVL282:
 2717              	.L179:
 614:..\src\app\alt_mode/alt_modes_mngr.c **** 
 2718              		.loc 1 614 0
 2719 0156 0620     		movs	r0, #6
 2720              	.LVL283:
 2721              	.L175:
 692:..\src\app\alt_mode/alt_modes_mngr.c **** 
 2722              		.loc 1 692 0
 2723 0158 05B0     		add	sp, sp, #20
 2724              		@ sp needed
 2725              	.LVL284:
 2726 015a F0BD     		pop	{r4, r5, r6, r7, pc}
 2727              	.L181:
 2728              		.align	2
 2729              	.L180:
 2730 015c 00000000 		.word	alt_mode
 2731 0160 00000000 		.word	.L167
 2732 0164 00000000 		.word	gl_dpm_port_type
 2733              		.cfi_endproc
 2734              	.LFE44:
 2735              		.size	monitor_alt_modes, .-monitor_alt_modes
 2736              		.section	.text.alt_mode_mngr_deinit,"ax",%progbits
 2737              		.align	2
 2738              		.code	16
 2739              		.thumb_func
 2740              		.type	alt_mode_mngr_deinit, %function
 2741              	alt_mode_mngr_deinit:
 2742              	.LFB51:
1007:..\src\app\alt_mode/alt_modes_mngr.c ****     uint8_t             alt_mode_idx;
 2743              		.loc 1 1007 0
 2744              		.cfi_startproc
 2745              		@ args = 0, pretend = 0, frame = 0
 2746              		@ frame_needed = 0, uses_anonymous_args = 0
 2747              	.LVL285:
 2748 0000 70B5     		push	{r4, r5, r6, lr}
 2749              		.cfi_def_cfa_offset 16
 2750              		.cfi_offset 4, -16
 2751              		.cfi_offset 5, -12
 2752              		.cfi_offset 6, -8
 2753              		.cfi_offset 14, -4
 2754 0002 0600     		movs	r6, r0
 2755              	.LVL286:
1012:..\src\app\alt_mode/alt_modes_mngr.c ****     {
 2756              		.loc 1 1012 0
 2757 0004 0025     		movs	r5, #0
 2758 0006 1CE0     		b	.L183
 2759              	.LVL287:
 2760              	.L187:
1014:..\src\app\alt_mode/alt_modes_mngr.c ****         if (am_info_p != NULL)
 2761              		.loc 1 1014 0
 2762 0008 2900     		movs	r1, r5
 2763 000a 3000     		movs	r0, r6
ARM GAS  e:\temp\ccP12Hvn.s 			page 79


 2764 000c FFF7FEFF 		bl	get_mode_info
 2765              	.LVL288:
 2766 0010 041E     		subs	r4, r0, #0
 2767              	.LVL289:
1015:..\src\app\alt_mode/alt_modes_mngr.c ****         {
 2768              		.loc 1 1015 0
 2769 0012 14D0     		beq	.L184
1018:..\src\app\alt_mode/alt_modes_mngr.c ****             {
 2770              		.loc 1 1018 0
 2771 0014 114B     		ldr	r3, .L188
 2772 0016 9B5D     		ldrb	r3, [r3, r6]
 2773 0018 002B     		cmp	r3, #0
 2774 001a 02D1     		bne	.L185
1021:..\src\app\alt_mode/alt_modes_mngr.c ****             }
 2775              		.loc 1 1021 0
 2776 001c 0133     		adds	r3, r3, #1
 2777 001e 0370     		strb	r3, [r0]
 2778 0020 01E0     		b	.L186
 2779              	.L185:
1026:..\src\app\alt_mode/alt_modes_mngr.c ****             }
 2780              		.loc 1 1026 0
 2781 0022 0423     		movs	r3, #4
 2782 0024 0370     		strb	r3, [r0]
 2783              	.L186:
1030:..\src\app\alt_mode/alt_modes_mngr.c ****             am_info_p->cbk(port);
 2784              		.loc 1 1030 0
 2785 0026 237A     		ldrb	r3, [r4, #8]
 2786 0028 1F22     		movs	r2, #31
 2787 002a 9343     		bics	r3, r2
 2788 002c 0522     		movs	r2, #5
 2789 002e 1343     		orrs	r3, r2
 2790 0030 2372     		strb	r3, [r4, #8]
1031:..\src\app\alt_mode/alt_modes_mngr.c **** 
 2791              		.loc 1 1031 0
 2792 0032 3000     		movs	r0, r6
 2793              	.LVL290:
 2794 0034 E369     		ldr	r3, [r4, #28]
 2795 0036 9847     		blx	r3
 2796              	.LVL291:
1034:..\src\app\alt_mode/alt_modes_mngr.c ****         }
 2797              		.loc 1 1034 0
 2798 0038 2000     		movs	r0, r4
 2799 003a FFF7FEFF 		bl	reset_alt_mode_info
 2800              	.LVL292:
 2801              	.L184:
1012:..\src\app\alt_mode/alt_modes_mngr.c ****     {
 2802              		.loc 1 1012 0 discriminator 2
 2803 003e 0135     		adds	r5, r5, #1
 2804              	.LVL293:
 2805 0040 EDB2     		uxtb	r5, r5
 2806              	.LVL294:
 2807              	.L183:
1012:..\src\app\alt_mode/alt_modes_mngr.c ****     {
 2808              		.loc 1 1012 0 is_stmt 0 discriminator 1
 2809 0042 7423     		movs	r3, #116
 2810 0044 7343     		muls	r3, r6
 2811 0046 064A     		ldr	r2, .L188+4
ARM GAS  e:\temp\ccP12Hvn.s 			page 80


 2812 0048 D318     		adds	r3, r2, r3
 2813 004a 3033     		adds	r3, r3, #48
 2814 004c 1B78     		ldrb	r3, [r3]
 2815 004e 9D42     		cmp	r5, r3
 2816 0050 DAD3     		bcc	.L187
1039:..\src\app\alt_mode/alt_modes_mngr.c **** 
 2817              		.loc 1 1039 0 is_stmt 1
 2818 0052 3000     		movs	r0, r6
 2819 0054 FFF7FEFF 		bl	reset_mngr_info
 2820              	.LVL295:
1047:..\src\app\alt_mode/alt_modes_mngr.c **** 
 2821              		.loc 1 1047 0
 2822 0058 0520     		movs	r0, #5
 2823              		@ sp needed
 2824              	.LVL296:
 2825 005a 70BD     		pop	{r4, r5, r6, pc}
 2826              	.L189:
 2827              		.align	2
 2828              	.L188:
 2829 005c 00000000 		.word	gl_dpm_port_type
 2830 0060 00000000 		.word	alt_mode
 2831              		.cfi_endproc
 2832              	.LFE51:
 2833              		.size	alt_mode_mngr_deinit, .-alt_mode_mngr_deinit
 2834              		.section	.text.alt_mode_mngr_exit_all,"ax",%progbits
 2835              		.align	2
 2836              		.global	alt_mode_mngr_exit_all
 2837              		.code	16
 2838              		.thumb_func
 2839              		.type	alt_mode_mngr_exit_all, %function
 2840              	alt_mode_mngr_exit_all:
 2841              	.LFB59:
1214:..\src\app\alt_mode/alt_modes_mngr.c **** #if DFP_ALT_MODE_SUPP
 2842              		.loc 1 1214 0
 2843              		.cfi_startproc
 2844              		@ args = 0, pretend = 0, frame = 0
 2845              		@ frame_needed = 0, uses_anonymous_args = 0
 2846              	.LVL297:
 2847 0000 70B5     		push	{r4, r5, r6, lr}
 2848              		.cfi_def_cfa_offset 16
 2849              		.cfi_offset 4, -16
 2850              		.cfi_offset 5, -12
 2851              		.cfi_offset 6, -8
 2852              		.cfi_offset 14, -4
 2853 0002 0400     		movs	r4, r0
 2854              	.LVL298:
1219:..\src\app\alt_mode/alt_modes_mngr.c ****     {
 2855              		.loc 1 1219 0
 2856 0004 0600     		movs	r6, r0
 2857 0006 134B     		ldr	r3, .L195
 2858 0008 1B5C     		ldrb	r3, [r3, r0]
 2859 000a 012B     		cmp	r3, #1
 2860 000c 20D1     		bne	.L190
 2861 000e 0025     		movs	r5, #0
 2862 0010 16E0     		b	.L192
 2863              	.LVL299:
 2864              	.L194:
ARM GAS  e:\temp\ccP12Hvn.s 			page 81


1228:..\src\app\alt_mode/alt_modes_mngr.c ****         {
 2865              		.loc 1 1228 0
 2866 0012 7423     		movs	r3, #116
 2867 0014 7343     		muls	r3, r6
 2868 0016 104A     		ldr	r2, .L195+4
 2869 0018 D318     		adds	r3, r2, r3
 2870 001a DB69     		ldr	r3, [r3, #28]
 2871 001c EB40     		lsrs	r3, r3, r5
 2872 001e DB07     		lsls	r3, r3, #31
 2873 0020 0CD5     		bpl	.L193
1230:..\src\app\alt_mode/alt_modes_mngr.c ****             if (am_info_p != NULL)
 2874              		.loc 1 1230 0
 2875 0022 2900     		movs	r1, r5
 2876 0024 2000     		movs	r0, r4
 2877 0026 FFF7FEFF 		bl	get_mode_info
 2878              	.LVL300:
1231:..\src\app\alt_mode/alt_modes_mngr.c ****             {
 2879              		.loc 1 1231 0
 2880 002a 0028     		cmp	r0, #0
 2881 002c 06D0     		beq	.L193
1233:..\src\app\alt_mode/alt_modes_mngr.c ****                 if (am_info_p->cbk != NULL)
 2882              		.loc 1 1233 0
 2883 002e 0723     		movs	r3, #7
 2884 0030 0370     		strb	r3, [r0]
1234:..\src\app\alt_mode/alt_modes_mngr.c ****                 {
 2885              		.loc 1 1234 0
 2886 0032 C369     		ldr	r3, [r0, #28]
 2887 0034 002B     		cmp	r3, #0
 2888 0036 01D0     		beq	.L193
1236:..\src\app\alt_mode/alt_modes_mngr.c ****                 }
 2889              		.loc 1 1236 0
 2890 0038 2000     		movs	r0, r4
 2891              	.LVL301:
 2892 003a 9847     		blx	r3
 2893              	.LVL302:
 2894              	.L193:
1226:..\src\app\alt_mode/alt_modes_mngr.c ****     {
 2895              		.loc 1 1226 0 discriminator 2
 2896 003c 0135     		adds	r5, r5, #1
 2897              	.LVL303:
 2898 003e EDB2     		uxtb	r5, r5
 2899              	.LVL304:
 2900              	.L192:
1226:..\src\app\alt_mode/alt_modes_mngr.c ****     {
 2901              		.loc 1 1226 0 is_stmt 0 discriminator 1
 2902 0040 7423     		movs	r3, #116
 2903 0042 7343     		muls	r3, r6
 2904 0044 044A     		ldr	r2, .L195+4
 2905 0046 D318     		adds	r3, r2, r3
 2906 0048 3033     		adds	r3, r3, #48
 2907 004a 1B78     		ldrb	r3, [r3]
 2908 004c 9D42     		cmp	r5, r3
 2909 004e E0D3     		bcc	.L194
 2910              	.LVL305:
 2911              	.L190:
1242:..\src\app\alt_mode/alt_modes_mngr.c **** 
 2912              		.loc 1 1242 0 is_stmt 1
ARM GAS  e:\temp\ccP12Hvn.s 			page 82


 2913              		@ sp needed
 2914 0050 70BD     		pop	{r4, r5, r6, pc}
 2915              	.L196:
 2916 0052 C046     		.align	2
 2917              	.L195:
 2918 0054 00000000 		.word	gl_dpm_port_type
 2919 0058 00000000 		.word	alt_mode
 2920              		.cfi_endproc
 2921              	.LFE59:
 2922              		.size	alt_mode_mngr_exit_all, .-alt_mode_mngr_exit_all
 2923              		.section	.text.eval_app_alt_mode_cmd,"ax",%progbits
 2924              		.align	2
 2925              		.global	eval_app_alt_mode_cmd
 2926              		.code	16
 2927              		.thumb_func
 2928              		.type	eval_app_alt_mode_cmd, %function
 2929              	eval_app_alt_mode_cmd:
 2930              	.LFB60:
1247:..\src\app\alt_mode/alt_modes_mngr.c ****     alt_mode_evt_t  cmd_info, cmd_data;
 2931              		.loc 1 1247 0
 2932              		.cfi_startproc
 2933              		@ args = 0, pretend = 0, frame = 0
 2934              		@ frame_needed = 0, uses_anonymous_args = 0
 2935              	.LVL306:
 2936 0000 F8B5     		push	{r3, r4, r5, r6, r7, lr}
 2937              		.cfi_def_cfa_offset 24
 2938              		.cfi_offset 3, -24
 2939              		.cfi_offset 4, -20
 2940              		.cfi_offset 5, -16
 2941              		.cfi_offset 6, -12
 2942              		.cfi_offset 7, -8
 2943              		.cfi_offset 14, -4
 2944 0002 4F46     		mov	r7, r9
 2945 0004 4646     		mov	r6, r8
 2946 0006 C0B4     		push	{r6, r7}
 2947              		.cfi_def_cfa_offset 32
 2948              		.cfi_offset 8, -32
 2949              		.cfi_offset 9, -28
 2950 0008 0600     		movs	r6, r0
 2951              	.LVL307:
1254:..\src\app\alt_mode/alt_modes_mngr.c ****     cmd_data = (alt_mode_evt_t)MAKE_DWORD(data[3], data[2], data[1], data[0]);
 2952              		.loc 1 1254 0
 2953 000a CF78     		ldrb	r7, [r1, #3]
 2954 000c 3F06     		lsls	r7, r7, #24
 2955 000e 8B78     		ldrb	r3, [r1, #2]
 2956 0010 1B04     		lsls	r3, r3, #16
 2957 0012 1F43     		orrs	r7, r3
 2958 0014 4B78     		ldrb	r3, [r1, #1]
 2959 0016 1B02     		lsls	r3, r3, #8
 2960 0018 1F43     		orrs	r7, r3
 2961 001a 0B78     		ldrb	r3, [r1]
 2962 001c 1F43     		orrs	r7, r3
 2963              	.LVL308:
1255:..\src\app\alt_mode/alt_modes_mngr.c **** 
 2964              		.loc 1 1255 0
 2965 001e D378     		ldrb	r3, [r2, #3]
 2966 0020 1906     		lsls	r1, r3, #24
ARM GAS  e:\temp\ccP12Hvn.s 			page 83


 2967              	.LVL309:
 2968 0022 9378     		ldrb	r3, [r2, #2]
 2969 0024 1B04     		lsls	r3, r3, #16
 2970 0026 0B43     		orrs	r3, r1
 2971 0028 5178     		ldrb	r1, [r2, #1]
 2972 002a 0902     		lsls	r1, r1, #8
 2973 002c 0B43     		orrs	r3, r1
 2974 002e 1278     		ldrb	r2, [r2]
 2975              	.LVL310:
 2976 0030 1343     		orrs	r3, r2
 2977 0032 9846     		mov	r8, r3
 2978              	.LVL311:
1271:..\src\app\alt_mode/alt_modes_mngr.c ****     {
 2979              		.loc 1 1271 0
 2980 0034 0025     		movs	r5, #0
1249:..\src\app\alt_mode/alt_modes_mngr.c ****     uint8_t         alt_mode_idx;
 2981              		.loc 1 1249 0
 2982 0036 0020     		movs	r0, #0
 2983              	.LVL312:
1271:..\src\app\alt_mode/alt_modes_mngr.c ****     {
 2984              		.loc 1 1271 0
 2985 0038 16E0     		b	.L198
 2986              	.LVL313:
 2987              	.L201:
1274:..\src\app\alt_mode/alt_modes_mngr.c ****         {
 2988              		.loc 1 1274 0
 2989 003a 7423     		movs	r3, #116
 2990 003c 7343     		muls	r3, r6
 2991 003e 4B4A     		ldr	r2, .L216
 2992 0040 D318     		adds	r3, r2, r3
 2993 0042 5B69     		ldr	r3, [r3, #20]
 2994 0044 EB40     		lsrs	r3, r3, r5
 2995 0046 DB07     		lsls	r3, r3, #31
 2996 0048 0CD5     		bpl	.L199
1276:..\src\app\alt_mode/alt_modes_mngr.c ****             if ((am_info_p->VDM_HDR.svid == cmd_info.alt_mode_event.svid) &&
 2997              		.loc 1 1276 0
 2998 004a 2900     		movs	r1, r5
 2999 004c 3000     		movs	r0, r6
 3000              	.LVL314:
 3001 004e FFF7FEFF 		bl	get_mode_info
 3002              	.LVL315:
1277:..\src\app\alt_mode/alt_modes_mngr.c ****                 (am_info_p->alt_mode_id  == cmd_info.alt_mode_event.alt_mode))
 3003              		.loc 1 1277 0
 3004 0052 4289     		ldrh	r2, [r0, #10]
 3005 0054 3B0C     		lsrs	r3, r7, #16
 3006 0056 9A42     		cmp	r2, r3
 3007 0058 04D1     		bne	.L199
1278:..\src\app\alt_mode/alt_modes_mngr.c ****             {
 3008              		.loc 1 1278 0 discriminator 1
 3009 005a C279     		ldrb	r2, [r0, #7]
 3010 005c 3B04     		lsls	r3, r7, #16
 3011 005e 1B0E     		lsrs	r3, r3, #24
1277:..\src\app\alt_mode/alt_modes_mngr.c ****                 (am_info_p->alt_mode_id  == cmd_info.alt_mode_event.alt_mode))
 3012              		.loc 1 1277 0 discriminator 1
 3013 0060 9A42     		cmp	r2, r3
 3014 0062 0DD0     		beq	.L206
 3015              	.L199:
ARM GAS  e:\temp\ccP12Hvn.s 			page 84


1271:..\src\app\alt_mode/alt_modes_mngr.c ****     {
 3016              		.loc 1 1271 0 discriminator 2
 3017 0064 0135     		adds	r5, r5, #1
 3018              	.LVL316:
 3019 0066 EDB2     		uxtb	r5, r5
 3020              	.LVL317:
 3021              	.L198:
1271:..\src\app\alt_mode/alt_modes_mngr.c ****     {
 3022              		.loc 1 1271 0 is_stmt 0 discriminator 1
 3023 0068 3400     		movs	r4, r6
 3024 006a 7423     		movs	r3, #116
 3025 006c 7343     		muls	r3, r6
 3026 006e 3F4A     		ldr	r2, .L216
 3027 0070 D318     		adds	r3, r2, r3
 3028 0072 3033     		adds	r3, r3, #48
 3029 0074 1B78     		ldrb	r3, [r3]
 3030 0076 9D42     		cmp	r5, r3
 3031 0078 DFD3     		bcc	.L201
1251:..\src\app\alt_mode/alt_modes_mngr.c **** 
 3032              		.loc 1 1251 0 is_stmt 1
 3033 007a 0023     		movs	r3, #0
 3034 007c 9946     		mov	r9, r3
 3035 007e 01E0     		b	.L200
 3036              	.L206:
1280:..\src\app\alt_mode/alt_modes_mngr.c ****                 break;
 3037              		.loc 1 1280 0
 3038 0080 0123     		movs	r3, #1
 3039 0082 9946     		mov	r9, r3
 3040              	.L200:
 3041              	.LVL318:
1287:..\src\app\alt_mode/alt_modes_mngr.c ****     {
 3042              		.loc 1 1287 0
 3043 0084 3A4B     		ldr	r3, .L216+4
 3044 0086 1B5D     		ldrb	r3, [r3, r4]
 3045 0088 002B     		cmp	r3, #0
 3046 008a 32D0     		beq	.L202
1287:..\src\app\alt_mode/alt_modes_mngr.c ****     {
 3047              		.loc 1 1287 0 is_stmt 0 discriminator 1
 3048 008c F9B2     		uxtb	r1, r7
 3049 008e CA07     		lsls	r2, r1, #31
 3050 0090 2FD5     		bpl	.L202
1289:..\src\app\alt_mode/alt_modes_mngr.c ****         {
 3051              		.loc 1 1289 0 is_stmt 1
 3052 0092 0122     		movs	r2, #1
 3053 0094 9143     		bics	r1, r2
 3054 0096 0229     		cmp	r1, #2
 3055 0098 09D1     		bne	.L203
1291:..\src\app\alt_mode/alt_modes_mngr.c ****             return true;
 3056              		.loc 1 1291 0
 3057 009a 3000     		movs	r0, r6
 3058              	.LVL319:
 3059 009c FFF7FEFF 		bl	app_get_status
 3060              	.LVL320:
 3061 00a0 4346     		mov	r3, r8
 3062 00a2 1B02     		lsls	r3, r3, #8
 3063 00a4 1B0A     		lsrs	r3, r3, #8
 3064 00a6 3B22     		movs	r2, #59
ARM GAS  e:\temp\ccP12Hvn.s 			page 85


 3065 00a8 8354     		strb	r3, [r0, r2]
1292:..\src\app\alt_mode/alt_modes_mngr.c ****         }
 3066              		.loc 1 1292 0
 3067 00aa 0124     		movs	r4, #1
 3068 00ac 58E0     		b	.L204
 3069              	.LVL321:
 3070              	.L203:
1295:..\src\app\alt_mode/alt_modes_mngr.c ****         {
 3071              		.loc 1 1295 0
 3072 00ae 0629     		cmp	r1, #6
 3073 00b0 1FD1     		bne	.L202
1298:..\src\app\alt_mode/alt_modes_mngr.c ****             {
 3074              		.loc 1 1298 0
 3075 00b2 4B46     		mov	r3, r9
 3076 00b4 002B     		cmp	r3, #0
 3077 00b6 42D0     		beq	.L207
1300:..\src\app\alt_mode/alt_modes_mngr.c ****                 {
 3078              		.loc 1 1300 0
 3079 00b8 C369     		ldr	r3, [r0, #28]
 3080 00ba 002B     		cmp	r3, #0
 3081 00bc 41D0     		beq	.L208
1300:..\src\app\alt_mode/alt_modes_mngr.c ****                 {
 3082              		.loc 1 1300 0 is_stmt 0 discriminator 1
 3083 00be 2023     		movs	r3, #32
 3084 00c0 C35C     		ldrb	r3, [r0, r3]
 3085 00c2 002B     		cmp	r3, #0
 3086 00c4 3FD1     		bne	.L209
1303:..\src\app\alt_mode/alt_modes_mngr.c ****                     REMOVE_FLAG(alt_mode[port].am_exited_modes, alt_mode_idx);
 3087              		.loc 1 1303 0 is_stmt 1
 3088 00c6 0127     		movs	r7, #1
 3089              	.LVL322:
 3090 00c8 3A00     		movs	r2, r7
 3091 00ca AA40     		lsls	r2, r2, r5
 3092 00cc 7433     		adds	r3, r3, #116
 3093 00ce 5C43     		muls	r4, r3
 3094 00d0 264B     		ldr	r3, .L216
 3095 00d2 1C19     		adds	r4, r3, r4
 3096 00d4 E369     		ldr	r3, [r4, #28]
 3097 00d6 1343     		orrs	r3, r2
 3098 00d8 E361     		str	r3, [r4, #28]
1304:..\src\app\alt_mode/alt_modes_mngr.c **** 
 3099              		.loc 1 1304 0
 3100 00da A369     		ldr	r3, [r4, #24]
 3101 00dc 9343     		bics	r3, r2
 3102 00de A361     		str	r3, [r4, #24]
1307:..\src\app\alt_mode/alt_modes_mngr.c ****                     am_info_p->cbk(port);
 3103              		.loc 1 1307 0
 3104 00e0 0223     		movs	r3, #2
 3105 00e2 0370     		strb	r3, [r0]
1308:..\src\app\alt_mode/alt_modes_mngr.c **** 
 3106              		.loc 1 1308 0
 3107 00e4 C369     		ldr	r3, [r0, #28]
 3108 00e6 3000     		movs	r0, r6
 3109              	.LVL323:
 3110 00e8 9847     		blx	r3
 3111              	.LVL324:
1311:..\src\app\alt_mode/alt_modes_mngr.c ****                     return true;
ARM GAS  e:\temp\ccP12Hvn.s 			page 86


 3112              		.loc 1 1311 0
 3113 00ea 6834     		adds	r4, r4, #104
 3114 00ec 2770     		strb	r7, [r4]
1312:..\src\app\alt_mode/alt_modes_mngr.c ****                 }
 3115              		.loc 1 1312 0
 3116 00ee 0124     		movs	r4, #1
 3117 00f0 36E0     		b	.L204
 3118              	.LVL325:
 3119              	.L202:
1320:..\src\app\alt_mode/alt_modes_mngr.c ****          (cmd_info.alt_mode_event.data_role == gl_dpm_port_type[port]))
 3120              		.loc 1 1320 0
 3121 00f2 4A46     		mov	r2, r9
 3122 00f4 002A     		cmp	r2, #0
 3123 00f6 28D0     		beq	.L210
1320:..\src\app\alt_mode/alt_modes_mngr.c ****          (cmd_info.alt_mode_event.data_role == gl_dpm_port_type[port]))
 3124              		.loc 1 1320 0 is_stmt 0 discriminator 1
 3125 00f8 2022     		movs	r2, #32
 3126 00fa 845C     		ldrb	r4, [r0, r2]
 3127 00fc 002C     		cmp	r4, #0
 3128 00fe 2FD0     		beq	.L204
1320:..\src\app\alt_mode/alt_modes_mngr.c ****          (cmd_info.alt_mode_event.data_role == gl_dpm_port_type[port]))
 3129              		.loc 1 1320 0 discriminator 2
 3130 0100 0278     		ldrb	r2, [r0]
 3131 0102 012A     		cmp	r2, #1
 3132 0104 23D1     		bne	.L211
1321:..\src\app\alt_mode/alt_modes_mngr.c ****     {
 3133              		.loc 1 1321 0 is_stmt 1 discriminator 3
 3134 0106 FA07     		lsls	r2, r7, #31
 3135 0108 D20F     		lsrs	r2, r2, #31
 3136 010a D2B2     		uxtb	r2, r2
1320:..\src\app\alt_mode/alt_modes_mngr.c ****          (cmd_info.alt_mode_event.data_role == gl_dpm_port_type[port]))
 3137              		.loc 1 1320 0 discriminator 3
 3138 010c 9A42     		cmp	r2, r3
 3139 010e 20D1     		bne	.L212
1324:..\src\app\alt_mode/alt_modes_mngr.c ****         {
 3140              		.loc 1 1324 0
 3141 0110 0122     		movs	r2, #1
 3142 0112 9743     		bics	r7, r2
 3143              	.LVL326:
 3144 0114 FFB2     		uxtb	r7, r7
 3145 0116 0A2F     		cmp	r7, #10
 3146 0118 05D1     		bne	.L205
1326:..\src\app\alt_mode/alt_modes_mngr.c ****         }
 3147              		.loc 1 1326 0
 3148 011a C36A     		ldr	r3, [r0, #44]
 3149              	.LVL327:
 3150 011c 4146     		mov	r1, r8
 3151 011e 3000     		movs	r0, r6
 3152              	.LVL328:
 3153 0120 9847     		blx	r3
 3154              	.LVL329:
 3155 0122 0400     		movs	r4, r0
 3156 0124 1CE0     		b	.L204
 3157              	.LVL330:
 3158              	.L205:
1329:..\src\app\alt_mode/alt_modes_mngr.c ****         {
 3159              		.loc 1 1329 0
ARM GAS  e:\temp\ccP12Hvn.s 			page 87


 3160 0126 082F     		cmp	r7, #8
 3161 0128 15D1     		bne	.L213
1331:..\src\app\alt_mode/alt_modes_mngr.c ****             {
 3162              		.loc 1 1331 0
 3163 012a 002B     		cmp	r3, #0
 3164 012c 15D0     		beq	.L214
1333:..\src\app\alt_mode/alt_modes_mngr.c ****                 if (am_info_p->cbk != NULL)
 3165              		.loc 1 1333 0
 3166 012e 0723     		movs	r3, #7
 3167 0130 0370     		strb	r3, [r0]
1334:..\src\app\alt_mode/alt_modes_mngr.c ****                 {
 3168              		.loc 1 1334 0
 3169 0132 C369     		ldr	r3, [r0, #28]
 3170 0134 002B     		cmp	r3, #0
 3171 0136 12D0     		beq	.L215
1336:..\src\app\alt_mode/alt_modes_mngr.c ****                     return true;
 3172              		.loc 1 1336 0
 3173 0138 3000     		movs	r0, r6
 3174              	.LVL331:
 3175 013a 9847     		blx	r3
 3176              	.LVL332:
1337:..\src\app\alt_mode/alt_modes_mngr.c ****                 }
 3177              		.loc 1 1337 0
 3178 013c 10E0     		b	.L204
 3179              	.LVL333:
 3180              	.L207:
1315:..\src\app\alt_mode/alt_modes_mngr.c ****         }
 3181              		.loc 1 1315 0
 3182 013e 0024     		movs	r4, #0
 3183 0140 0EE0     		b	.L204
 3184              	.L208:
 3185 0142 0024     		movs	r4, #0
 3186 0144 0CE0     		b	.L204
 3187              	.L209:
 3188 0146 0024     		movs	r4, #0
 3189 0148 0AE0     		b	.L204
 3190              	.L210:
1344:..\src\app\alt_mode/alt_modes_mngr.c **** }
 3191              		.loc 1 1344 0
 3192 014a 0024     		movs	r4, #0
 3193 014c 08E0     		b	.L204
 3194              	.L211:
 3195 014e 0024     		movs	r4, #0
 3196 0150 06E0     		b	.L204
 3197              	.L212:
 3198 0152 0024     		movs	r4, #0
 3199 0154 04E0     		b	.L204
 3200              	.LVL334:
 3201              	.L213:
 3202 0156 0024     		movs	r4, #0
 3203 0158 02E0     		b	.L204
 3204              	.L214:
 3205 015a 0024     		movs	r4, #0
 3206 015c 00E0     		b	.L204
 3207              	.L215:
 3208 015e 0024     		movs	r4, #0
 3209              	.LVL335:
ARM GAS  e:\temp\ccP12Hvn.s 			page 88


 3210              	.L204:
1345:..\src\app\alt_mode/alt_modes_mngr.c **** 
 3211              		.loc 1 1345 0
 3212 0160 2000     		movs	r0, r4
 3213              		@ sp needed
 3214              	.LVL336:
 3215              	.LVL337:
 3216              	.LVL338:
 3217              	.LVL339:
 3218 0162 0CBC     		pop	{r2, r3}
 3219 0164 9046     		mov	r8, r2
 3220 0166 9946     		mov	r9, r3
 3221 0168 F8BD     		pop	{r3, r4, r5, r6, r7, pc}
 3222              	.L217:
 3223 016a C046     		.align	2
 3224              	.L216:
 3225 016c 00000000 		.word	alt_mode
 3226 0170 00000000 		.word	gl_dpm_port_type
 3227              		.cfi_endproc
 3228              	.LFE60:
 3229              		.size	eval_app_alt_mode_cmd, .-eval_app_alt_mode_cmd
 3230              		.section	.text.eval_rec_vdm,"ax",%progbits
 3231              		.align	2
 3232              		.global	eval_rec_vdm
 3233              		.code	16
 3234              		.thumb_func
 3235              		.type	eval_rec_vdm, %function
 3236              	eval_rec_vdm:
 3237              	.LFB63:
1372:..\src\app\alt_mode/alt_modes_mngr.c **** 
1373:..\src\app\alt_mode/alt_modes_mngr.c **** #if ( CCG_UCSI_ENABLE && UCSI_ALT_MODE_ENABLED )
1374:..\src\app\alt_mode/alt_modes_mngr.c **** 
1375:..\src\app\alt_mode/alt_modes_mngr.c **** const atch_tgt_info_t* get_atch(uint8_t port)
1376:..\src\app\alt_mode/alt_modes_mngr.c **** {
1377:..\src\app\alt_mode/alt_modes_mngr.c ****     return alt_mode[port].reg_info.atch_tgt_info;
1378:..\src\app\alt_mode/alt_modes_mngr.c **** }
1379:..\src\app\alt_mode/alt_modes_mngr.c **** 
1380:..\src\app\alt_mode/alt_modes_mngr.c **** vdm_msg_info_t* get_vdm_info(uint8_t port)
1381:..\src\app\alt_mode/alt_modes_mngr.c **** {
1382:..\src\app\alt_mode/alt_modes_mngr.c ****     return alt_mode[port].vdm_info;
1383:..\src\app\alt_mode/alt_modes_mngr.c **** }
1384:..\src\app\alt_mode/alt_modes_mngr.c **** 
1385:..\src\app\alt_mode/alt_modes_mngr.c **** alt_mode_state_t get_alt_mode_state(alt_mode_info_t* alt_mode_info_ptr)
1386:..\src\app\alt_mode/alt_modes_mngr.c **** {
1387:..\src\app\alt_mode/alt_modes_mngr.c ****     return (alt_mode_state_t)alt_mode_info_ptr->mode_state;
1388:..\src\app\alt_mode/alt_modes_mngr.c **** }
1389:..\src\app\alt_mode/alt_modes_mngr.c **** 
1390:..\src\app\alt_mode/alt_modes_mngr.c **** alt_mode_reg_info_t get_alt_mode_reg_info(uint8_t port)
1391:..\src\app\alt_mode/alt_modes_mngr.c **** {
1392:..\src\app\alt_mode/alt_modes_mngr.c ****     return alt_mode[port].reg_info;   
1393:..\src\app\alt_mode/alt_modes_mngr.c **** }    
1394:..\src\app\alt_mode/alt_modes_mngr.c ****     
1395:..\src\app\alt_mode/alt_modes_mngr.c **** uint32_t get_alt_mode_id(uint8_t port)
1396:..\src\app\alt_mode/alt_modes_mngr.c **** {
1397:..\src\app\alt_mode/alt_modes_mngr.c ****     return alt_mode[port].reg_info.alt_mode_id;
1398:..\src\app\alt_mode/alt_modes_mngr.c **** }
1399:..\src\app\alt_mode/alt_modes_mngr.c **** 
ARM GAS  e:\temp\ccP12Hvn.s 			page 89


1400:..\src\app\alt_mode/alt_modes_mngr.c **** const comp_tbl_t get_tbl_info(uint8_t port, uint8_t idx)
1401:..\src\app\alt_mode/alt_modes_mngr.c **** {
1402:..\src\app\alt_mode/alt_modes_mngr.c **** #if UFP_ALT_MODE_SUPP  
1403:..\src\app\alt_mode/alt_modes_mngr.c ****     if (gl_dpm_port_type[port] == PRT_TYPE_UFP)
1404:..\src\app\alt_mode/alt_modes_mngr.c ****         return ufp_compatibility_mode_table[idx][idx];
1405:..\src\app\alt_mode/alt_modes_mngr.c **** #endif
1406:..\src\app\alt_mode/alt_modes_mngr.c ****     return dfp_compatibility_mode_table[idx][idx];
1407:..\src\app\alt_mode/alt_modes_mngr.c **** }
1408:..\src\app\alt_mode/alt_modes_mngr.c **** 
1409:..\src\app\alt_mode/alt_modes_mngr.c **** uint32_t get_tbl_mode_info(uint8_t port, uint8_t idx) 
1410:..\src\app\alt_mode/alt_modes_mngr.c **** {
1411:..\src\app\alt_mode/alt_modes_mngr.c ****     return idx;
1412:..\src\app\alt_mode/alt_modes_mngr.c **** }
1413:..\src\app\alt_mode/alt_modes_mngr.c **** 
1414:..\src\app\alt_mode/alt_modes_mngr.c **** uint8_t is_alt_mode_active(uint8_t port, uint8_t alt_mode_idx)
1415:..\src\app\alt_mode/alt_modes_mngr.c **** {
1416:..\src\app\alt_mode/alt_modes_mngr.c ****     return IS_FLAG_CHECKED(alt_mode[port].am_supported_modes & (~alt_mode[port].am_exited_modes), a
1417:..\src\app\alt_mode/alt_modes_mngr.c **** }
1418:..\src\app\alt_mode/alt_modes_mngr.c ****  
1419:..\src\app\alt_mode/alt_modes_mngr.c **** void init_alt_mode(uint8_t port_idx, uint8_t alt_mode_idx)
1420:..\src\app\alt_mode/alt_modes_mngr.c **** {                
1421:..\src\app\alt_mode/alt_modes_mngr.c ****     alt_mode_info_t* am_info_p = get_mode_info(port_idx, alt_mode_idx);
1422:..\src\app\alt_mode/alt_modes_mngr.c **** 
1423:..\src\app\alt_mode/alt_modes_mngr.c **** 	/* Set flag as active mode */
1424:..\src\app\alt_mode/alt_modes_mngr.c ****     SET_FLAG(alt_mode[port_idx].am_active_modes, alt_mode_idx);
1425:..\src\app\alt_mode/alt_modes_mngr.c ****     REMOVE_FLAG(alt_mode[port_idx].am_exited_modes, alt_mode_idx);
1426:..\src\app\alt_mode/alt_modes_mngr.c **** 
1427:..\src\app\alt_mode/alt_modes_mngr.c ****     /* Inits alt mode */
1428:..\src\app\alt_mode/alt_modes_mngr.c ****     am_info_p->mode_state = ALT_MODE_STATE_INIT;
1429:..\src\app\alt_mode/alt_modes_mngr.c ****     am_info_p->cbk(port_idx);
1430:..\src\app\alt_mode/alt_modes_mngr.c **** 
1431:..\src\app\alt_mode/alt_modes_mngr.c ****     /* Goto alt mode processing */
1432:..\src\app\alt_mode/alt_modes_mngr.c ****     alt_mode[port_idx].state = ALT_MODE_MNGR_STATE_PROCESS;
1433:..\src\app\alt_mode/alt_modes_mngr.c **** }
1434:..\src\app\alt_mode/alt_modes_mngr.c **** 
1435:..\src\app\alt_mode/alt_modes_mngr.c **** uint32_t get_supp_alt_modes(uint8_t port)
1436:..\src\app\alt_mode/alt_modes_mngr.c **** {
1437:..\src\app\alt_mode/alt_modes_mngr.c ****     return alt_mode[port].am_supported_modes;
1438:..\src\app\alt_mode/alt_modes_mngr.c **** }
1439:..\src\app\alt_mode/alt_modes_mngr.c **** 
1440:..\src\app\alt_mode/alt_modes_mngr.c **** void set_alt_mode_state(uint8_t port_idx, uint8_t alt_mode_idx)
1441:..\src\app\alt_mode/alt_modes_mngr.c **** {
1442:..\src\app\alt_mode/alt_modes_mngr.c **** 	/* Set flag as active mode */
1443:..\src\app\alt_mode/alt_modes_mngr.c ****     SET_FLAG(alt_mode[port_idx].am_active_modes, alt_mode_idx);
1444:..\src\app\alt_mode/alt_modes_mngr.c ****     REMOVE_FLAG(alt_mode[port_idx].am_exited_modes, alt_mode_idx);
1445:..\src\app\alt_mode/alt_modes_mngr.c **** }
1446:..\src\app\alt_mode/alt_modes_mngr.c **** #endif /*CCG_UCSI_ENABLE && UCSI_ALT_MODE_ENABLED*/
1447:..\src\app\alt_mode/alt_modes_mngr.c **** 
1448:..\src\app\alt_mode/alt_modes_mngr.c **** #if UFP_ALT_MODE_SUPP
1449:..\src\app\alt_mode/alt_modes_mngr.c **** 
1450:..\src\app\alt_mode/alt_modes_mngr.c **** static bool ufp_reg_alt_mode(uint8_t port, const pd_packet_t *vdm)
1451:..\src\app\alt_mode/alt_modes_mngr.c **** {
1452:..\src\app\alt_mode/alt_modes_mngr.c ****     uint8_t              svid_idx, vdo_numb, alt_mode_idx = 0;
1453:..\src\app\alt_mode/alt_modes_mngr.c ****     pd_do_t             *dobj;
1454:..\src\app\alt_mode/alt_modes_mngr.c ****     alt_mode_info_t     *am_info_p = NULL;
1455:..\src\app\alt_mode/alt_modes_mngr.c ****     alt_mode_reg_info_t *reg       = &(alt_mode[port].reg_info);
1456:..\src\app\alt_mode/alt_modes_mngr.c ****     uint32_t             svid      = vdm->dat[VDM_HEADER_IDX].std_vdm_hdr.svid;
ARM GAS  e:\temp\ccP12Hvn.s 			page 90


1457:..\src\app\alt_mode/alt_modes_mngr.c ****     uint32_t             obj_pos   = vdm->dat[VDM_HEADER_IDX].std_vdm_hdr.obj_pos;
1458:..\src\app\alt_mode/alt_modes_mngr.c **** 
1459:..\src\app\alt_mode/alt_modes_mngr.c ****     /* Check if any alt mode is supported by DFP */
1460:..\src\app\alt_mode/alt_modes_mngr.c ****     if (get_alt_mode_numb(port) != false)
1461:..\src\app\alt_mode/alt_modes_mngr.c ****     {
1462:..\src\app\alt_mode/alt_modes_mngr.c ****         /* Get index of related svid register function */
1463:..\src\app\alt_mode/alt_modes_mngr.c ****         svid_idx = get_alt_mode_svid_idx(port, svid);
1464:..\src\app\alt_mode/alt_modes_mngr.c ****         /* If SVID supported by CCG */
1465:..\src\app\alt_mode/alt_modes_mngr.c ****         if (svid_idx != MODE_NOT_SUPPORTED)
1466:..\src\app\alt_mode/alt_modes_mngr.c ****         {
1467:..\src\app\alt_mode/alt_modes_mngr.c ****             reg->data_role = PRT_TYPE_UFP;
1468:..\src\app\alt_mode/alt_modes_mngr.c ****             /* Get SVID related VDOs and number of VDOs */
1469:..\src\app\alt_mode/alt_modes_mngr.c ****             if (get_modes_vdo_info (port, svid, &dobj, &vdo_numb) == false)
1470:..\src\app\alt_mode/alt_modes_mngr.c ****             {
1471:..\src\app\alt_mode/alt_modes_mngr.c ****                 return false;
1472:..\src\app\alt_mode/alt_modes_mngr.c ****             }
1473:..\src\app\alt_mode/alt_modes_mngr.c ****             /* Check if object position is not greather than VDO numb */
1474:..\src\app\alt_mode/alt_modes_mngr.c ****             if ((obj_pos < vdo_numb) && (svid == supp_svid_tbl[svid_idx]))
1475:..\src\app\alt_mode/alt_modes_mngr.c ****             {
1476:..\src\app\alt_mode/alt_modes_mngr.c ****                 /* Save Disc mode VDO and object position */
1477:..\src\app\alt_mode/alt_modes_mngr.c ****                 reg->svid_vdo = dobj[obj_pos];
1478:..\src\app\alt_mode/alt_modes_mngr.c ****                 /* Check if UFP support attached target alt mode */
1479:..\src\app\alt_mode/alt_modes_mngr.c ****                 am_info_p = is_alt_mode_allowed[svid_idx](port, reg);
1480:..\src\app\alt_mode/alt_modes_mngr.c ****                 /* If VDO relates to any of supported alt modes */
1481:..\src\app\alt_mode/alt_modes_mngr.c ****                 if ((alt_mode[port].reg_info.alt_mode_id != MODE_NOT_SUPPORTED) && (am_info_p != NU
1482:..\src\app\alt_mode/alt_modes_mngr.c ****                 {
1483:..\src\app\alt_mode/alt_modes_mngr.c ****                     /* If alternate modes discovered and could be runned */
1484:..\src\app\alt_mode/alt_modes_mngr.c ****                     /* Get index of alt mode in the compatibility table */
1485:..\src\app\alt_mode/alt_modes_mngr.c ****                     alt_mode_idx = get_alt_mode_tbl_idx(port, svid, reg->alt_mode_id);
1486:..\src\app\alt_mode/alt_modes_mngr.c ****                     if (alt_mode_idx != MODE_NOT_SUPPORTED)
1487:..\src\app\alt_mode/alt_modes_mngr.c ****                     {
1488:..\src\app\alt_mode/alt_modes_mngr.c ****                         /* Save alt mode ID and obj position */
1489:..\src\app\alt_mode/alt_modes_mngr.c ****                         am_info_p->alt_mode_id = reg->alt_mode_id;
1490:..\src\app\alt_mode/alt_modes_mngr.c ****                         am_info_p->obj_pos = obj_pos;
1491:..\src\app\alt_mode/alt_modes_mngr.c ****                         /* Save pointer to alt mode info struct */
1492:..\src\app\alt_mode/alt_modes_mngr.c ****                         alt_mode[port].alt_mode_info[alt_mode_idx] = am_info_p;
1493:..\src\app\alt_mode/alt_modes_mngr.c ****                         /* Set flag that alt mode could be runned */
1494:..\src\app\alt_mode/alt_modes_mngr.c ****                         SET_FLAG(alt_mode[port].am_supported_modes, alt_mode_idx);
1495:..\src\app\alt_mode/alt_modes_mngr.c ****                         return true;
1496:..\src\app\alt_mode/alt_modes_mngr.c ****                     }
1497:..\src\app\alt_mode/alt_modes_mngr.c ****                 }
1498:..\src\app\alt_mode/alt_modes_mngr.c ****             }
1499:..\src\app\alt_mode/alt_modes_mngr.c **** #if (CCG_BB_ENABLE != 0)               
1500:..\src\app\alt_mode/alt_modes_mngr.c ****             else if (bb_is_present(port) != false)
1501:..\src\app\alt_mode/alt_modes_mngr.c ****             {
1502:..\src\app\alt_mode/alt_modes_mngr.c ****                 /* Go throught all alt modes */
1503:..\src\app\alt_mode/alt_modes_mngr.c ****                 for (alt_mode_idx = 0; alt_mode_idx < alt_mode[port].alt_modes_numb; alt_mode_idx++
1504:..\src\app\alt_mode/alt_modes_mngr.c ****                 {
1505:..\src\app\alt_mode/alt_modes_mngr.c ****                     am_info_p = get_mode_info(port, alt_mode_idx);
1506:..\src\app\alt_mode/alt_modes_mngr.c ****                     /* If Alt mode with corresponded SVID already active then don't notify BB devic
1507:..\src\app\alt_mode/alt_modes_mngr.c ****                     if (
1508:..\src\app\alt_mode/alt_modes_mngr.c ****                             (am_info_p != NULL) && 
1509:..\src\app\alt_mode/alt_modes_mngr.c ****                             (am_info_p->VDM_HDR.svid == vdm->dat[VDM_HEADER_IDX].std_vdm_hdr.svid) 
1510:..\src\app\alt_mode/alt_modes_mngr.c ****                             (am_info_p->is_active == true)
1511:..\src\app\alt_mode/alt_modes_mngr.c ****                        )
1512:..\src\app\alt_mode/alt_modes_mngr.c ****                     {
1513:..\src\app\alt_mode/alt_modes_mngr.c ****                         return false;
ARM GAS  e:\temp\ccP12Hvn.s 			page 91


1514:..\src\app\alt_mode/alt_modes_mngr.c ****                     }                     
1515:..\src\app\alt_mode/alt_modes_mngr.c ****                     /*
1516:..\src\app\alt_mode/alt_modes_mngr.c ****                      * If Alt mode with corresponded SVID not activated and 
1517:..\src\app\alt_mode/alt_modes_mngr.c ****                      * Enter Mode command has object position which not supported 
1518:..\src\app\alt_mode/alt_modes_mngr.c ****                      * by CCG then enumerate BB
1519:..\src\app\alt_mode/alt_modes_mngr.c ****                      */
1520:..\src\app\alt_mode/alt_modes_mngr.c ****                     /* Disable AME timeout timer. */
1521:..\src\app\alt_mode/alt_modes_mngr.c ****                     timer_stop(port, APP_AME_TIMEOUT_TIMER);
1522:..\src\app\alt_mode/alt_modes_mngr.c ****                     /* Update BB alt mode status register as Error */
1523:..\src\app\alt_mode/alt_modes_mngr.c ****                     bb_update_alt_status(port, svid_idx, BB_ALT_MODE_STAT_UNSUCCESSFUL);
1524:..\src\app\alt_mode/alt_modes_mngr.c ****                     /* Enable BB controller */
1525:..\src\app\alt_mode/alt_modes_mngr.c ****                     bb_enable(port, BB_CAUSE_AME_FAILURE);
1526:..\src\app\alt_mode/alt_modes_mngr.c ****                 }
1527:..\src\app\alt_mode/alt_modes_mngr.c ****             }
1528:..\src\app\alt_mode/alt_modes_mngr.c **** #endif /* (CCG_BB_ENABLE != 0) */            
1529:..\src\app\alt_mode/alt_modes_mngr.c ****         }
1530:..\src\app\alt_mode/alt_modes_mngr.c ****     }
1531:..\src\app\alt_mode/alt_modes_mngr.c **** 
1532:..\src\app\alt_mode/alt_modes_mngr.c ****     return false;
1533:..\src\app\alt_mode/alt_modes_mngr.c **** }
1534:..\src\app\alt_mode/alt_modes_mngr.c **** 
1535:..\src\app\alt_mode/alt_modes_mngr.c **** static bool is_mode_activated(uint8_t port, const pd_packet_t *vdm)
1536:..\src\app\alt_mode/alt_modes_mngr.c **** {
1537:..\src\app\alt_mode/alt_modes_mngr.c ****     uint8_t      idx;
1538:..\src\app\alt_mode/alt_modes_mngr.c **** 
1539:..\src\app\alt_mode/alt_modes_mngr.c ****     /* If any alt mode already registered */
1540:..\src\app\alt_mode/alt_modes_mngr.c ****     if (alt_mode[port].am_supported_modes != NONE_MODE_MASK)
1541:..\src\app\alt_mode/alt_modes_mngr.c ****     {
1542:..\src\app\alt_mode/alt_modes_mngr.c ****         for (idx = 0; idx < alt_mode[port].alt_modes_numb; idx++)
1543:..\src\app\alt_mode/alt_modes_mngr.c ****         {
1544:..\src\app\alt_mode/alt_modes_mngr.c ****             /* Try to find alt mode among supported alt modes */
1545:..\src\app\alt_mode/alt_modes_mngr.c ****             if (
1546:..\src\app\alt_mode/alt_modes_mngr.c ****                     (alt_mode[port].alt_mode_info[idx] != NULL) &&
1547:..\src\app\alt_mode/alt_modes_mngr.c ****                     (get_mode_info(port, idx)->VDM_HDR.svid ==
1548:..\src\app\alt_mode/alt_modes_mngr.c ****                      vdm->dat[VDM_HEADER_IDX].std_vdm_hdr.svid) &&
1549:..\src\app\alt_mode/alt_modes_mngr.c ****                     (get_mode_info(port, idx)->obj_pos ==
1550:..\src\app\alt_mode/alt_modes_mngr.c ****                      vdm->dat[VDM_HEADER_IDX].std_vdm_hdr.obj_pos)
1551:..\src\app\alt_mode/alt_modes_mngr.c ****                )
1552:..\src\app\alt_mode/alt_modes_mngr.c ****             {
1553:..\src\app\alt_mode/alt_modes_mngr.c ****                 /* return true if ufp alt mode already registered in alt mode mngr */
1554:..\src\app\alt_mode/alt_modes_mngr.c ****                 return true;
1555:..\src\app\alt_mode/alt_modes_mngr.c ****             }
1556:..\src\app\alt_mode/alt_modes_mngr.c ****         }
1557:..\src\app\alt_mode/alt_modes_mngr.c ****     }
1558:..\src\app\alt_mode/alt_modes_mngr.c **** 
1559:..\src\app\alt_mode/alt_modes_mngr.c ****     /* Register alt mode and check possibility of alt mode entering
1560:..\src\app\alt_mode/alt_modes_mngr.c ****      * CDT 237168 */
1561:..\src\app\alt_mode/alt_modes_mngr.c ****     return ufp_reg_alt_mode(port, vdm);
1562:..\src\app\alt_mode/alt_modes_mngr.c **** }
1563:..\src\app\alt_mode/alt_modes_mngr.c **** 
1564:..\src\app\alt_mode/alt_modes_mngr.c **** #endif /* UFP_ALT_MODE_SUPP */
1565:..\src\app\alt_mode/alt_modes_mngr.c **** 
1566:..\src\app\alt_mode/alt_modes_mngr.c **** bool eval_rec_vdm(uint8_t port, const pd_packet_t *vdm)
1567:..\src\app\alt_mode/alt_modes_mngr.c **** {
 3238              		.loc 1 1567 0
 3239              		.cfi_startproc
 3240              		@ args = 0, pretend = 0, frame = 8
ARM GAS  e:\temp\ccP12Hvn.s 			page 92


 3241              		@ frame_needed = 0, uses_anonymous_args = 0
 3242              	.LVL340:
 3243 0000 F0B5     		push	{r4, r5, r6, r7, lr}
 3244              		.cfi_def_cfa_offset 20
 3245              		.cfi_offset 4, -20
 3246              		.cfi_offset 5, -16
 3247              		.cfi_offset 6, -12
 3248              		.cfi_offset 7, -8
 3249              		.cfi_offset 14, -4
 3250 0002 5746     		mov	r7, r10
 3251 0004 4E46     		mov	r6, r9
 3252 0006 4546     		mov	r5, r8
 3253 0008 E0B4     		push	{r5, r6, r7}
 3254              		.cfi_def_cfa_offset 32
 3255              		.cfi_offset 8, -32
 3256              		.cfi_offset 9, -28
 3257              		.cfi_offset 10, -24
 3258 000a 82B0     		sub	sp, sp, #8
 3259              		.cfi_def_cfa_offset 40
 3260 000c 0700     		movs	r7, r0
 3261 000e 8946     		mov	r9, r1
 3262              	.LVL341:
1568:..\src\app\alt_mode/alt_modes_mngr.c ****     uint8_t         idx;
1569:..\src\app\alt_mode/alt_modes_mngr.c **** #if UFP_ALT_MODE_SUPP
1570:..\src\app\alt_mode/alt_modes_mngr.c ****     uint8_t         idx2;
1571:..\src\app\alt_mode/alt_modes_mngr.c ****     bool            enter_flag   = false;
1572:..\src\app\alt_mode/alt_modes_mngr.c ****     const comp_tbl_t* tbl_addr   = NULL;
1573:..\src\app\alt_mode/alt_modes_mngr.c **** #endif /* UFP_ALT_MODE_SUPP */
1574:..\src\app\alt_mode/alt_modes_mngr.c ****     alt_mode_info_t *am_info_p   = NULL;
1575:..\src\app\alt_mode/alt_modes_mngr.c ****     pd_do_t         vdm_header   = vdm->dat[VDM_HEADER_IDX];
 3263              		.loc 1 1575 0
 3264 0010 8E68     		ldr	r6, [r1, #8]
 3265              	.LVL342:
1576:..\src\app\alt_mode/alt_modes_mngr.c ****     vdm_resp_t*     vdm_response = &(app_get_status(port)->vdm_resp);
 3266              		.loc 1 1576 0
 3267 0012 FFF7FEFF 		bl	app_get_status
 3268              	.LVL343:
 3269 0016 0190     		str	r0, [sp, #4]
 3270              	.LVL344:
1577:..\src\app\alt_mode/alt_modes_mngr.c **** 
1578:..\src\app\alt_mode/alt_modes_mngr.c **** 
1579:..\src\app\alt_mode/alt_modes_mngr.c ****     if (VDM_HDR.vdm_type == VDM_TYPE_STRUCTURED)
 3271              		.loc 1 1579 0
 3272 0018 3304     		lsls	r3, r6, #16
 3273 001a 1B0E     		lsrs	r3, r3, #24
 3274 001c 7F22     		movs	r2, #127
 3275 001e 9343     		bics	r3, r2
 3276 0020 DBB2     		uxtb	r3, r3
 3277 0022 9846     		mov	r8, r3
 3278 0024 002B     		cmp	r3, #0
 3279 0026 0DD0     		beq	.L219
1580:..\src\app\alt_mode/alt_modes_mngr.c ****     {
1581:..\src\app\alt_mode/alt_modes_mngr.c ****         /* Discovery commands not processed by alt modes manager */
1582:..\src\app\alt_mode/alt_modes_mngr.c ****         if (VDM_HDR.cmd < VDM_CMD_ENTER_MODE)
 3280              		.loc 1 1582 0
 3281 0028 F306     		lsls	r3, r6, #27
 3282 002a DB0E     		lsrs	r3, r3, #27
ARM GAS  e:\temp\ccP12Hvn.s 			page 93


 3283 002c 032B     		cmp	r3, #3
 3284 002e 00DC     		bgt	.LCB3288
 3285 0030 95E0     		b	.L229	@long jump
 3286              	.LCB3288:
1583:..\src\app\alt_mode/alt_modes_mngr.c ****         {
1584:..\src\app\alt_mode/alt_modes_mngr.c ****             return false;
1585:..\src\app\alt_mode/alt_modes_mngr.c ****         }
1586:..\src\app\alt_mode/alt_modes_mngr.c ****         /* Save number of available alt modes */
1587:..\src\app\alt_mode/alt_modes_mngr.c ****         alt_mode[port].alt_modes_numb = get_alt_mode_numb(port);
 3287              		.loc 1 1587 0
 3288 0032 3800     		movs	r0, r7
 3289              	.LVL345:
 3290 0034 FFF7FEFF 		bl	get_alt_mode_numb
 3291              	.LVL346:
 3292 0038 7423     		movs	r3, #116
 3293 003a 7B43     		muls	r3, r7
 3294 003c 4E4A     		ldr	r2, .L231
 3295 003e D318     		adds	r3, r2, r3
 3296 0040 3033     		adds	r3, r3, #48
 3297 0042 1870     		strb	r0, [r3]
 3298              	.L219:
1567:..\src\app\alt_mode/alt_modes_mngr.c ****     uint8_t         idx;
 3299              		.loc 1 1567 0 discriminator 1
 3300 0044 0024     		movs	r4, #0
 3301 0046 7EE0     		b	.L221
 3302              	.LVL347:
 3303              	.L228:
1588:..\src\app\alt_mode/alt_modes_mngr.c **** 
1589:..\src\app\alt_mode/alt_modes_mngr.c **** #if UFP_ALT_MODE_SUPP
1590:..\src\app\alt_mode/alt_modes_mngr.c ****         /* If Enter mode cmd */
1591:..\src\app\alt_mode/alt_modes_mngr.c ****         if (
1592:..\src\app\alt_mode/alt_modes_mngr.c ****                 (VDM_HDR.cmd == VDM_CMD_ENTER_MODE) &&
1593:..\src\app\alt_mode/alt_modes_mngr.c ****                 (gl_dpm_port_type[port] == PRT_TYPE_UFP)
1594:..\src\app\alt_mode/alt_modes_mngr.c ****            )
1595:..\src\app\alt_mode/alt_modes_mngr.c ****         {
1596:..\src\app\alt_mode/alt_modes_mngr.c ****             if (is_mode_activated(port, vdm) == true)
1597:..\src\app\alt_mode/alt_modes_mngr.c ****             {
1598:..\src\app\alt_mode/alt_modes_mngr.c ****                 enter_flag = true;
1599:..\src\app\alt_mode/alt_modes_mngr.c ****             }
1600:..\src\app\alt_mode/alt_modes_mngr.c ****         }
1601:..\src\app\alt_mode/alt_modes_mngr.c **** #endif /* UFP_ALT_MODE_SUPP */
1602:..\src\app\alt_mode/alt_modes_mngr.c ****     }
1603:..\src\app\alt_mode/alt_modes_mngr.c ****     /* Go throught all alt modes */
1604:..\src\app\alt_mode/alt_modes_mngr.c ****     for (idx = 0; idx < alt_mode[port].alt_modes_numb; idx++)
1605:..\src\app\alt_mode/alt_modes_mngr.c ****     {
1606:..\src\app\alt_mode/alt_modes_mngr.c ****         am_info_p = get_mode_info(port, idx);
 3304              		.loc 1 1606 0
 3305 0048 2100     		movs	r1, r4
 3306 004a 3800     		movs	r0, r7
 3307 004c FFF7FEFF 		bl	get_mode_info
 3308              	.LVL348:
 3309 0050 051E     		subs	r5, r0, #0
 3310              	.LVL349:
1607:..\src\app\alt_mode/alt_modes_mngr.c **** 
1608:..\src\app\alt_mode/alt_modes_mngr.c ****         /* Check if received command processing allowed */
1609:..\src\app\alt_mode/alt_modes_mngr.c ****         if (
 3311              		.loc 1 1609 0
ARM GAS  e:\temp\ccP12Hvn.s 			page 94


 3312 0052 5CD0     		beq	.L222
1610:..\src\app\alt_mode/alt_modes_mngr.c ****                 (am_info_p != NULL) && (am_info_p->VDM_HDR.svid == VDM_HDR.svid) &&
 3313              		.loc 1 1610 0
 3314 0054 4289     		ldrh	r2, [r0, #10]
 3315 0056 330C     		lsrs	r3, r6, #16
 3316 0058 9A42     		cmp	r2, r3
 3317 005a 58D1     		bne	.L222
1611:..\src\app\alt_mode/alt_modes_mngr.c ****                 (
1612:..\src\app\alt_mode/alt_modes_mngr.c ****                     (am_info_p->obj_pos == VDM_HDR.obj_pos) || 
 3318              		.loc 1 1612 0 discriminator 1
 3319 005c 4279     		ldrb	r2, [r0, #5]
 3320 005e 7305     		lsls	r3, r6, #21
 3321 0060 5B0F     		lsrs	r3, r3, #29
1610:..\src\app\alt_mode/alt_modes_mngr.c ****                 (am_info_p != NULL) && (am_info_p->VDM_HDR.svid == VDM_HDR.svid) &&
 3322              		.loc 1 1610 0 discriminator 1
 3323 0062 9A42     		cmp	r2, r3
 3324 0064 0AD0     		beq	.L223
1613:..\src\app\alt_mode/alt_modes_mngr.c ****                     (am_info_p->custom_att_obj_pos == true) || 
 3325              		.loc 1 1613 0
 3326 0066 2122     		movs	r2, #33
 3327 0068 825C     		ldrb	r2, [r0, r2]
1612:..\src\app\alt_mode/alt_modes_mngr.c ****                     (am_info_p->custom_att_obj_pos == true) || 
 3328              		.loc 1 1612 0
 3329 006a 002A     		cmp	r2, #0
 3330 006c 06D1     		bne	.L223
1614:..\src\app\alt_mode/alt_modes_mngr.c ****                     ((am_info_p->uvdm_supp == true) && 
 3331              		.loc 1 1614 0
 3332 006e 2232     		adds	r2, r2, #34
 3333 0070 825C     		ldrb	r2, [r0, r2]
1613:..\src\app\alt_mode/alt_modes_mngr.c ****                     (am_info_p->custom_att_obj_pos == true) || 
 3334              		.loc 1 1613 0
 3335 0072 002A     		cmp	r2, #0
 3336 0074 4BD0     		beq	.L222
 3337              		.loc 1 1614 0
 3338 0076 4246     		mov	r2, r8
 3339 0078 002A     		cmp	r2, #0
 3340 007a 48D1     		bne	.L222
 3341              	.L223:
1615:..\src\app\alt_mode/alt_modes_mngr.c ****                     (VDM_HDR.vdm_type == VDM_TYPE_UNSTRUCTURED))
1616:..\src\app\alt_mode/alt_modes_mngr.c ****                 )
1617:..\src\app\alt_mode/alt_modes_mngr.c ****             )
1618:..\src\app\alt_mode/alt_modes_mngr.c ****         {
1619:..\src\app\alt_mode/alt_modes_mngr.c **** #if UFP_ALT_MODE_SUPP
1620:..\src\app\alt_mode/alt_modes_mngr.c ****             /* If Enter mode cmd */
1621:..\src\app\alt_mode/alt_modes_mngr.c ****             if (enter_flag == true)
1622:..\src\app\alt_mode/alt_modes_mngr.c ****             {
1623:..\src\app\alt_mode/alt_modes_mngr.c ****                 /* If alt mode already active then ACK */
1624:..\src\app\alt_mode/alt_modes_mngr.c ****                 if (am_info_p->is_active == true)
1625:..\src\app\alt_mode/alt_modes_mngr.c ****                 {
1626:..\src\app\alt_mode/alt_modes_mngr.c ****                     return true;
1627:..\src\app\alt_mode/alt_modes_mngr.c ****                 }
1628:..\src\app\alt_mode/alt_modes_mngr.c **** 
1629:..\src\app\alt_mode/alt_modes_mngr.c ****                 /* If all alt modes not active and just entered  */
1630:..\src\app\alt_mode/alt_modes_mngr.c ****                 if (alt_mode[port].am_active_modes == NONE_MODE_MASK)
1631:..\src\app\alt_mode/alt_modes_mngr.c ****                 {
1632:..\src\app\alt_mode/alt_modes_mngr.c ****                     /* Save Header */
1633:..\src\app\alt_mode/alt_modes_mngr.c ****                     am_info_p->vdm_header    = vdm_header;
ARM GAS  e:\temp\ccP12Hvn.s 			page 95


1634:..\src\app\alt_mode/alt_modes_mngr.c ****                     am_info_p->vdo_numb[SOP] = vdm->len - VDO_START_IDX;
1635:..\src\app\alt_mode/alt_modes_mngr.c **** 
1636:..\src\app\alt_mode/alt_modes_mngr.c ****                     if ((vdm->len > VDO_START_IDX) && (vdm->len <= (am_info_p->vdo_max_numb + VDO_S
1637:..\src\app\alt_mode/alt_modes_mngr.c ****                     {
1638:..\src\app\alt_mode/alt_modes_mngr.c ****                         /* Save received VDO */
1639:..\src\app\alt_mode/alt_modes_mngr.c ****                         memcpy(am_info_p->vdo[SOP], &(vdm->dat[VDO_START_IDX]),
1640:..\src\app\alt_mode/alt_modes_mngr.c ****                               (am_info_p->vdo_numb[SOP]) * PD_WORD_SIZE);
1641:..\src\app\alt_mode/alt_modes_mngr.c ****                     }
1642:..\src\app\alt_mode/alt_modes_mngr.c **** 
1643:..\src\app\alt_mode/alt_modes_mngr.c ****                     /* Run ufp alt mode cbk */
1644:..\src\app\alt_mode/alt_modes_mngr.c ****                     am_info_p->mode_state = ALT_MODE_STATE_IDLE;
1645:..\src\app\alt_mode/alt_modes_mngr.c ****                     am_info_p->cbk(port);
1646:..\src\app\alt_mode/alt_modes_mngr.c **** 
1647:..\src\app\alt_mode/alt_modes_mngr.c ****                     if (am_info_p->mode_state != ALT_MODE_STATE_FAIL)
1648:..\src\app\alt_mode/alt_modes_mngr.c ****                     {
1649:..\src\app\alt_mode/alt_modes_mngr.c ****                         /* Set mode as active */
1650:..\src\app\alt_mode/alt_modes_mngr.c ****                         am_info_p->is_active = true;
1651:..\src\app\alt_mode/alt_modes_mngr.c **** 
1652:..\src\app\alt_mode/alt_modes_mngr.c ****                         /* Notify APP layer that ALT mode has been entered. */
1653:..\src\app\alt_mode/alt_modes_mngr.c ****                         app_get_status(port)->alt_mode_entered = true;
1654:..\src\app\alt_mode/alt_modes_mngr.c **** 
1655:..\src\app\alt_mode/alt_modes_mngr.c ****                         /* Send notifications to the solution if alt mode entered. */
1656:..\src\app\alt_mode/alt_modes_mngr.c ****                         sln_pd_event_handler (port, APP_EVT_ALT_MODE,
1657:..\src\app\alt_mode/alt_modes_mngr.c ****                                 form_alt_mode_event (port,
1658:..\src\app\alt_mode/alt_modes_mngr.c ****                                     am_info_p->VDM_HDR.svid,
1659:..\src\app\alt_mode/alt_modes_mngr.c ****                                         am_info_p->alt_mode_id,
1660:..\src\app\alt_mode/alt_modes_mngr.c ****                                             AM_EVT_ALT_MODE_ENTERED, NO_DATA));
1661:..\src\app\alt_mode/alt_modes_mngr.c **** 
1662:..\src\app\alt_mode/alt_modes_mngr.c **** #if (CCG_BB_ENABLE != 0)
1663:..\src\app\alt_mode/alt_modes_mngr.c ****                         if (bb_is_present(port) != false)
1664:..\src\app\alt_mode/alt_modes_mngr.c ****                         {
1665:..\src\app\alt_mode/alt_modes_mngr.c ****                             /* Disable AME timeout timer. */
1666:..\src\app\alt_mode/alt_modes_mngr.c ****                             timer_stop(port, APP_AME_TIMEOUT_TIMER);
1667:..\src\app\alt_mode/alt_modes_mngr.c ****                             /* Enable BB controller */
1668:..\src\app\alt_mode/alt_modes_mngr.c ****                             bb_enable(port, BB_CAUSE_AME_SUCCESS);
1669:..\src\app\alt_mode/alt_modes_mngr.c ****                             /* Update BB alt mode status register as successful config */
1670:..\src\app\alt_mode/alt_modes_mngr.c ****                             bb_update_alt_status(port, idx, BB_ALT_MODE_STAT_SUCCESSFUL);
1671:..\src\app\alt_mode/alt_modes_mngr.c ****                         }
1672:..\src\app\alt_mode/alt_modes_mngr.c **** #endif /* (CCG_BB_ENABLE != 0) */
1673:..\src\app\alt_mode/alt_modes_mngr.c **** 
1674:..\src\app\alt_mode/alt_modes_mngr.c ****                         /* Set flag that alt mode could be processed */
1675:..\src\app\alt_mode/alt_modes_mngr.c ****                         SET_FLAG(alt_mode[port].am_active_modes, idx);
1676:..\src\app\alt_mode/alt_modes_mngr.c ****                         return true;
1677:..\src\app\alt_mode/alt_modes_mngr.c ****                     }
1678:..\src\app\alt_mode/alt_modes_mngr.c **** 
1679:..\src\app\alt_mode/alt_modes_mngr.c **** #if (CCG_BB_ENABLE != 0)
1680:..\src\app\alt_mode/alt_modes_mngr.c ****                     if (bb_is_present(port) != false)
1681:..\src\app\alt_mode/alt_modes_mngr.c ****                     {
1682:..\src\app\alt_mode/alt_modes_mngr.c ****                         /* Disable AME timeout timer. */
1683:..\src\app\alt_mode/alt_modes_mngr.c ****                         timer_stop(port, APP_AME_TIMEOUT_TIMER);
1684:..\src\app\alt_mode/alt_modes_mngr.c ****                         /* Enable BB controller */
1685:..\src\app\alt_mode/alt_modes_mngr.c ****                         bb_enable(port, BB_CAUSE_AME_FAILURE);
1686:..\src\app\alt_mode/alt_modes_mngr.c ****                         /* Update BB alt mode status register as Error */
1687:..\src\app\alt_mode/alt_modes_mngr.c ****                         bb_update_alt_status(port, idx, BB_ALT_MODE_STAT_UNSUCCESSFUL);
1688:..\src\app\alt_mode/alt_modes_mngr.c ****                     }
1689:..\src\app\alt_mode/alt_modes_mngr.c **** #endif /* (CCG_BB_ENABLE != 0) */
1690:..\src\app\alt_mode/alt_modes_mngr.c ****                     return false;
ARM GAS  e:\temp\ccP12Hvn.s 			page 96


1691:..\src\app\alt_mode/alt_modes_mngr.c ****                 }
1692:..\src\app\alt_mode/alt_modes_mngr.c ****                 else
1693:..\src\app\alt_mode/alt_modes_mngr.c ****                 {
1694:..\src\app\alt_mode/alt_modes_mngr.c ****                     /* Check alt mode in ufp consistent table  */
1695:..\src\app\alt_mode/alt_modes_mngr.c ****                     for (idx2 = 0; idx2 < alt_mode[port].alt_modes_numb; idx2++)
1696:..\src\app\alt_mode/alt_modes_mngr.c ****                     {
1697:..\src\app\alt_mode/alt_modes_mngr.c ****                         /* find table index of any active alt mode */
1698:..\src\app\alt_mode/alt_modes_mngr.c ****                         if (IS_FLAG_CHECKED(alt_mode[port].am_active_modes, idx2))
1699:..\src\app\alt_mode/alt_modes_mngr.c ****                         {
1700:..\src\app\alt_mode/alt_modes_mngr.c ****                             tbl_addr = &ufp_compatibility_mode_table[idx][idx2];
1701:..\src\app\alt_mode/alt_modes_mngr.c **** #if ALT_MODE_DIFF_CONFIG    
1702:..\src\app\alt_mode/alt_modes_mngr.c ****                             if (port == TYPEC_PORT_1_IDX)
1703:..\src\app\alt_mode/alt_modes_mngr.c ****                             {
1704:..\src\app\alt_mode/alt_modes_mngr.c ****                                 tbl_addr = &ufp_compatibility_mode_table_p1[idx][idx2];
1705:..\src\app\alt_mode/alt_modes_mngr.c ****                             }
1706:..\src\app\alt_mode/alt_modes_mngr.c **** #endif /* ALT_MODE_DIFF_CONFIG */                 
1707:..\src\app\alt_mode/alt_modes_mngr.c ****                             /* If alt mode consistent with active alt mode */
1708:..\src\app\alt_mode/alt_modes_mngr.c ****                             if (tbl_addr->svid != NO_DATA)
1709:..\src\app\alt_mode/alt_modes_mngr.c ****                             {
1710:..\src\app\alt_mode/alt_modes_mngr.c ****                                 /* Save cmd */
1711:..\src\app\alt_mode/alt_modes_mngr.c ****                                 am_info_p->VDM_HDR.cmd = VDM_HDR.cmd;
1712:..\src\app\alt_mode/alt_modes_mngr.c ****                                 am_info_p->vdo_numb[SOP] = vdm->len - VDO_START_IDX;
1713:..\src\app\alt_mode/alt_modes_mngr.c ****                                 /* Save Rec VDO */
1714:..\src\app\alt_mode/alt_modes_mngr.c ****                                 if ((vdm->len > VDO_START_IDX) && (vdm->len <= (am_info_p->vdo_max_
1715:..\src\app\alt_mode/alt_modes_mngr.c ****                                 {
1716:..\src\app\alt_mode/alt_modes_mngr.c ****                                     /* Copy received VDO */
1717:..\src\app\alt_mode/alt_modes_mngr.c ****                                     memcpy(am_info_p->vdo[SOP], &(vdm->dat[VDO_START_IDX]),
1718:..\src\app\alt_mode/alt_modes_mngr.c ****                                             (am_info_p->vdo_numb[SOP]) * PD_WORD_SIZE);
1719:..\src\app\alt_mode/alt_modes_mngr.c ****                                 }
1720:..\src\app\alt_mode/alt_modes_mngr.c ****                                 /* Run ufp alt mode cbk */
1721:..\src\app\alt_mode/alt_modes_mngr.c ****                                 am_info_p->mode_state = ALT_MODE_STATE_IDLE;
1722:..\src\app\alt_mode/alt_modes_mngr.c ****                                 am_info_p->cbk(port);
1723:..\src\app\alt_mode/alt_modes_mngr.c ****                                 if (am_info_p->mode_state != ALT_MODE_STATE_FAIL)
1724:..\src\app\alt_mode/alt_modes_mngr.c ****                                 {
1725:..\src\app\alt_mode/alt_modes_mngr.c ****                                     /* Set mode as active */
1726:..\src\app\alt_mode/alt_modes_mngr.c ****                                     am_info_p->is_active = true;
1727:..\src\app\alt_mode/alt_modes_mngr.c ****                                     /* Set flag that alt mode could be processed */
1728:..\src\app\alt_mode/alt_modes_mngr.c ****                                     SET_FLAG(alt_mode[port].am_active_modes, idx);
1729:..\src\app\alt_mode/alt_modes_mngr.c ****                                     return true;
1730:..\src\app\alt_mode/alt_modes_mngr.c ****                                 }
1731:..\src\app\alt_mode/alt_modes_mngr.c ****                                 return false;
1732:..\src\app\alt_mode/alt_modes_mngr.c ****                             }
1733:..\src\app\alt_mode/alt_modes_mngr.c ****                         }
1734:..\src\app\alt_mode/alt_modes_mngr.c ****                     }
1735:..\src\app\alt_mode/alt_modes_mngr.c ****                     return false;
1736:..\src\app\alt_mode/alt_modes_mngr.c ****                 }
1737:..\src\app\alt_mode/alt_modes_mngr.c ****             }
1738:..\src\app\alt_mode/alt_modes_mngr.c ****             /* Any other received command */
1739:..\src\app\alt_mode/alt_modes_mngr.c ****             else
1740:..\src\app\alt_mode/alt_modes_mngr.c **** #endif /* UFP_ALT_MODE_SUPP */
1741:..\src\app\alt_mode/alt_modes_mngr.c ****             {
1742:..\src\app\alt_mode/alt_modes_mngr.c ****                 /* Check if alt mode is active */
1743:..\src\app\alt_mode/alt_modes_mngr.c ****                 if (am_info_p->is_active == false)
 3342              		.loc 1 1743 0
 3343 007c 2022     		movs	r2, #32
 3344 007e AA5C     		ldrb	r2, [r5, r2]
 3345 0080 9246     		mov	r10, r2
ARM GAS  e:\temp\ccP12Hvn.s 			page 97


 3346 0082 002A     		cmp	r2, #0
 3347 0084 70D0     		beq	.L220
1744:..\src\app\alt_mode/alt_modes_mngr.c ****                 {
1745:..\src\app\alt_mode/alt_modes_mngr.c ****                     return false;
1746:..\src\app\alt_mode/alt_modes_mngr.c ****                 }
1747:..\src\app\alt_mode/alt_modes_mngr.c **** 
1748:..\src\app\alt_mode/alt_modes_mngr.c ****                 /* Save cmd */
1749:..\src\app\alt_mode/alt_modes_mngr.c ****                 am_info_p->vdm_header    = vdm_header;
 3348              		.loc 1 1749 0
 3349 0086 AE60     		str	r6, [r5, #8]
1750:..\src\app\alt_mode/alt_modes_mngr.c ****                 am_info_p->vdo_numb[SOP] = vdm->len - VDO_START_IDX;
 3350              		.loc 1 1750 0
 3351 0088 4A46     		mov	r2, r9
 3352 008a 5278     		ldrb	r2, [r2, #1]
 3353 008c 013A     		subs	r2, r2, #1
 3354 008e 2A76     		strb	r2, [r5, #24]
1751:..\src\app\alt_mode/alt_modes_mngr.c ****                 /* Save custom attention object position if needed */
1752:..\src\app\alt_mode/alt_modes_mngr.c ****                 if (
1753:..\src\app\alt_mode/alt_modes_mngr.c ****                         (VDM_HDR.cmd == VDM_CMD_ATTENTION) && 
 3355              		.loc 1 1753 0
 3356 0090 1F22     		movs	r2, #31
 3357 0092 1640     		ands	r6, r2
 3358              	.LVL350:
1752:..\src\app\alt_mode/alt_modes_mngr.c ****                         (VDM_HDR.cmd == VDM_CMD_ATTENTION) && 
 3359              		.loc 1 1752 0
 3360 0094 062E     		cmp	r6, #6
 3361 0096 0BD1     		bne	.L224
1754:..\src\app\alt_mode/alt_modes_mngr.c ****                         (am_info_p->custom_att_obj_pos)    &&
 3362              		.loc 1 1754 0
 3363 0098 0232     		adds	r2, r2, #2
 3364 009a AA5C     		ldrb	r2, [r5, r2]
1753:..\src\app\alt_mode/alt_modes_mngr.c ****                         (am_info_p->custom_att_obj_pos)    &&
 3365              		.loc 1 1753 0
 3366 009c 002A     		cmp	r2, #0
 3367 009e 07D0     		beq	.L224
 3368              		.loc 1 1754 0
 3369 00a0 4246     		mov	r2, r8
 3370 00a2 002A     		cmp	r2, #0
 3371 00a4 04D0     		beq	.L224
1755:..\src\app\alt_mode/alt_modes_mngr.c ****                         (VDM_HDR.vdm_type == VDM_TYPE_STRUCTURED)
1756:..\src\app\alt_mode/alt_modes_mngr.c ****                     )
1757:..\src\app\alt_mode/alt_modes_mngr.c ****                 {
1758:..\src\app\alt_mode/alt_modes_mngr.c ****                     am_info_p->VDM_HDR.obj_pos = VDM_HDR.obj_pos;
 3372              		.loc 1 1758 0
 3373 00a6 6A7A     		ldrb	r2, [r5, #9]
 3374 00a8 0721     		movs	r1, #7
 3375 00aa 8A43     		bics	r2, r1
 3376 00ac 1343     		orrs	r3, r2
 3377 00ae 6B72     		strb	r3, [r5, #9]
 3378              	.LVL351:
 3379              	.L224:
1759:..\src\app\alt_mode/alt_modes_mngr.c ****                 }
1760:..\src\app\alt_mode/alt_modes_mngr.c **** 
1761:..\src\app\alt_mode/alt_modes_mngr.c ****                 /* Save Rec VDO */
1762:..\src\app\alt_mode/alt_modes_mngr.c ****                 if ((vdm->len > VDO_START_IDX) &&
 3380              		.loc 1 1762 0
 3381 00b0 4B46     		mov	r3, r9
ARM GAS  e:\temp\ccP12Hvn.s 			page 98


 3382 00b2 5B78     		ldrb	r3, [r3, #1]
 3383 00b4 012B     		cmp	r3, #1
 3384 00b6 0CD9     		bls	.L225
1763:..\src\app\alt_mode/alt_modes_mngr.c ****                         (vdm->len <= (am_info_p->vdo_max_numb + VDO_START_IDX)))
 3385              		.loc 1 1763 0 discriminator 1
 3386 00b8 2A79     		ldrb	r2, [r5, #4]
 3387 00ba 0132     		adds	r2, r2, #1
1762:..\src\app\alt_mode/alt_modes_mngr.c ****                         (vdm->len <= (am_info_p->vdo_max_numb + VDO_START_IDX)))
 3388              		.loc 1 1762 0 discriminator 1
 3389 00bc 9342     		cmp	r3, r2
 3390 00be 08D8     		bhi	.L225
1764:..\src\app\alt_mode/alt_modes_mngr.c ****                 {
1765:..\src\app\alt_mode/alt_modes_mngr.c ****                     /* Save received VDO */
1766:..\src\app\alt_mode/alt_modes_mngr.c ****                     memcpy(am_info_p->vdo[SOP], &(vdm->dat[VDO_START_IDX]),
 3391              		.loc 1 1766 0
 3392 00c0 4946     		mov	r1, r9
 3393 00c2 0C31     		adds	r1, r1, #12
 3394 00c4 2D4A     		ldr	r2, .L231+4
 3395 00c6 9446     		mov	ip, r2
 3396 00c8 6344     		add	r3, r3, ip
 3397 00ca 9A00     		lsls	r2, r3, #2
 3398 00cc E868     		ldr	r0, [r5, #12]
 3399              	.LVL352:
 3400 00ce FFF7FEFF 		bl	memcpy
 3401              	.LVL353:
 3402              	.L225:
1767:..\src\app\alt_mode/alt_modes_mngr.c ****                             ((vdm->len - VDO_START_IDX) * PD_WORD_SIZE));
1768:..\src\app\alt_mode/alt_modes_mngr.c ****                 }
1769:..\src\app\alt_mode/alt_modes_mngr.c **** 
1770:..\src\app\alt_mode/alt_modes_mngr.c ****                 /* Set alt mode state as idle */
1771:..\src\app\alt_mode/alt_modes_mngr.c ****                 am_info_p->mode_state = ALT_MODE_STATE_IDLE;
 3403              		.loc 1 1771 0
 3404 00d2 0123     		movs	r3, #1
 3405 00d4 2B70     		strb	r3, [r5]
1772:..\src\app\alt_mode/alt_modes_mngr.c ****                 /* Run alt mode cbk */
1773:..\src\app\alt_mode/alt_modes_mngr.c ****                 am_info_p->cbk(port);
 3406              		.loc 1 1773 0
 3407 00d6 3800     		movs	r0, r7
 3408 00d8 EB69     		ldr	r3, [r5, #28]
 3409 00da 9847     		blx	r3
 3410              	.LVL354:
1774:..\src\app\alt_mode/alt_modes_mngr.c **** 
1775:..\src\app\alt_mode/alt_modes_mngr.c ****                 /* If command processed successful */
1776:..\src\app\alt_mode/alt_modes_mngr.c ****                 if (am_info_p->mode_state != ALT_MODE_STATE_FAIL)
 3411              		.loc 1 1776 0
 3412 00dc 2B78     		ldrb	r3, [r5]
 3413 00de 052B     		cmp	r3, #5
 3414 00e0 40D0     		beq	.L230
1777:..\src\app\alt_mode/alt_modes_mngr.c ****                 {
1778:..\src\app\alt_mode/alt_modes_mngr.c ****                     /* Copy VDM header to respond buffer if Unstructured*/
1779:..\src\app\alt_mode/alt_modes_mngr.c ****                     if (am_info_p->VDM_HDR.vdm_type == VDM_TYPE_UNSTRUCTURED)
 3415              		.loc 1 1779 0
 3416 00e2 6B7A     		ldrb	r3, [r5, #9]
 3417 00e4 7F22     		movs	r2, #127
 3418 00e6 9343     		bics	r3, r2
 3419 00e8 02D1     		bne	.L226
1780:..\src\app\alt_mode/alt_modes_mngr.c ****                     {
ARM GAS  e:\temp\ccP12Hvn.s 			page 99


1781:..\src\app\alt_mode/alt_modes_mngr.c ****                         vdm_response->resp_buf[VDM_HEADER_IDX] = am_info_p->vdm_header;
 3420              		.loc 1 1781 0
 3421 00ea 019B     		ldr	r3, [sp, #4]
 3422 00ec AA68     		ldr	r2, [r5, #8]
 3423 00ee 1A61     		str	r2, [r3, #16]
 3424              	.L226:
1782:..\src\app\alt_mode/alt_modes_mngr.c ****                     }
1783:..\src\app\alt_mode/alt_modes_mngr.c ****                     /* Set number of data objects */
1784:..\src\app\alt_mode/alt_modes_mngr.c ****                     vdm_response->do_count = am_info_p->vdo_numb[SOP] + VDO_START_IDX;
 3425              		.loc 1 1784 0
 3426 00f0 2B7E     		ldrb	r3, [r5, #24]
 3427 00f2 0133     		adds	r3, r3, #1
 3428 00f4 2C22     		movs	r2, #44
 3429 00f6 0199     		ldr	r1, [sp, #4]
 3430 00f8 8B54     		strb	r3, [r1, r2]
1785:..\src\app\alt_mode/alt_modes_mngr.c ****                     if (am_info_p->vdo_numb[SOP] != NO_DATA)
 3431              		.loc 1 1785 0
 3432 00fa 2A7E     		ldrb	r2, [r5, #24]
 3433 00fc 002A     		cmp	r2, #0
 3434 00fe 33D0     		beq	.L220
1786:..\src\app\alt_mode/alt_modes_mngr.c ****                     {
1787:..\src\app\alt_mode/alt_modes_mngr.c ****                         /* If VDO resp is needed */
1788:..\src\app\alt_mode/alt_modes_mngr.c ****                         memcpy( &(vdm_response->resp_buf[VDO_START_IDX]),
 3435              		.loc 1 1788 0
 3436 0100 0800     		movs	r0, r1
 3437 0102 1430     		adds	r0, r0, #20
1789:..\src\app\alt_mode/alt_modes_mngr.c ****                                 am_info_p->vdo[SOP],
 3438              		.loc 1 1789 0
 3439 0104 E968     		ldr	r1, [r5, #12]
1788:..\src\app\alt_mode/alt_modes_mngr.c ****                                 am_info_p->vdo[SOP],
 3440              		.loc 1 1788 0
 3441 0106 9200     		lsls	r2, r2, #2
 3442 0108 FFF7FEFF 		bl	memcpy
 3443              	.LVL355:
 3444 010c 2CE0     		b	.L220
 3445              	.LVL356:
 3446              	.L222:
1790:..\src\app\alt_mode/alt_modes_mngr.c ****                                 (am_info_p->vdo_numb[SOP]) * PD_WORD_SIZE);
1791:..\src\app\alt_mode/alt_modes_mngr.c **** 
1792:..\src\app\alt_mode/alt_modes_mngr.c ****                     }
1793:..\src\app\alt_mode/alt_modes_mngr.c ****                     return true;
1794:..\src\app\alt_mode/alt_modes_mngr.c ****                 }
1795:..\src\app\alt_mode/alt_modes_mngr.c ****                 else
1796:..\src\app\alt_mode/alt_modes_mngr.c ****                 {
1797:..\src\app\alt_mode/alt_modes_mngr.c ****                     return false;
1798:..\src\app\alt_mode/alt_modes_mngr.c ****                 }
1799:..\src\app\alt_mode/alt_modes_mngr.c ****             }
1800:..\src\app\alt_mode/alt_modes_mngr.c ****         }
1801:..\src\app\alt_mode/alt_modes_mngr.c **** 
1802:..\src\app\alt_mode/alt_modes_mngr.c ****         /* If Exit all modes */
1803:..\src\app\alt_mode/alt_modes_mngr.c ****         if (
1804:..\src\app\alt_mode/alt_modes_mngr.c ****                 (VDM_HDR.vdm_type == VDM_TYPE_STRUCTURED)   &&
1805:..\src\app\alt_mode/alt_modes_mngr.c ****                 (VDM_HDR.obj_pos == EXIT_ALL_MODES)         &&
 3447              		.loc 1 1805 0
 3448 010e 1C4B     		ldr	r3, .L231+8
 3449 0110 3340     		ands	r3, r6
 3450 0112 9BB2     		uxth	r3, r3
ARM GAS  e:\temp\ccP12Hvn.s 			page 100


1803:..\src\app\alt_mode/alt_modes_mngr.c ****                 (VDM_HDR.vdm_type == VDM_TYPE_STRUCTURED)   &&
 3451              		.loc 1 1803 0
 3452 0114 1B4A     		ldr	r2, .L231+12
 3453 0116 9342     		cmp	r3, r2
 3454 0118 13D1     		bne	.L227
1806:..\src\app\alt_mode/alt_modes_mngr.c ****                 (VDM_HDR.cmd == VDM_CMD_EXIT_MODE)          &&
1807:..\src\app\alt_mode/alt_modes_mngr.c ****                 (am_info_p->VDM_HDR.svid == VDM_HDR.svid)   &&
 3455              		.loc 1 1807 0
 3456 011a 6A89     		ldrh	r2, [r5, #10]
 3457 011c 330C     		lsrs	r3, r6, #16
1806:..\src\app\alt_mode/alt_modes_mngr.c ****                 (VDM_HDR.cmd == VDM_CMD_EXIT_MODE)          &&
 3458              		.loc 1 1806 0
 3459 011e 9A42     		cmp	r2, r3
 3460 0120 0FD1     		bne	.L227
1808:..\src\app\alt_mode/alt_modes_mngr.c ****                 (am_info_p->is_active)
 3461              		.loc 1 1808 0
 3462 0122 2023     		movs	r3, #32
 3463 0124 EB5C     		ldrb	r3, [r5, r3]
 3464 0126 9A46     		mov	r10, r3
1807:..\src\app\alt_mode/alt_modes_mngr.c ****                 (am_info_p->is_active)
 3465              		.loc 1 1807 0
 3466 0128 002B     		cmp	r3, #0
 3467 012a 0AD0     		beq	.L227
1809:..\src\app\alt_mode/alt_modes_mngr.c ****             )
1810:..\src\app\alt_mode/alt_modes_mngr.c ****         {
1811:..\src\app\alt_mode/alt_modes_mngr.c ****             /* Save cmd */
1812:..\src\app\alt_mode/alt_modes_mngr.c ****             am_info_p->VDM_HDR.cmd = EXIT_ALL_MODES;
 3468              		.loc 1 1812 0
 3469 012c 2B7A     		ldrb	r3, [r5, #8]
 3470 012e 1F22     		movs	r2, #31
 3471 0130 9343     		bics	r3, r2
 3472 0132 1A00     		movs	r2, r3
 3473 0134 0723     		movs	r3, #7
 3474 0136 1343     		orrs	r3, r2
 3475 0138 2B72     		strb	r3, [r5, #8]
1813:..\src\app\alt_mode/alt_modes_mngr.c ****             /* Run ufp alt mode cbk */
1814:..\src\app\alt_mode/alt_modes_mngr.c ****             am_info_p->cbk(port);
 3476              		.loc 1 1814 0
 3477 013a EB69     		ldr	r3, [r5, #28]
 3478 013c 3800     		movs	r0, r7
 3479              	.LVL357:
 3480 013e 9847     		blx	r3
 3481              	.LVL358:
1815:..\src\app\alt_mode/alt_modes_mngr.c ****             return true;
 3482              		.loc 1 1815 0
 3483 0140 12E0     		b	.L220
 3484              	.LVL359:
 3485              	.L227:
1604:..\src\app\alt_mode/alt_modes_mngr.c ****     {
 3486              		.loc 1 1604 0 discriminator 2
 3487 0142 0134     		adds	r4, r4, #1
 3488              	.LVL360:
 3489 0144 E4B2     		uxtb	r4, r4
 3490              	.LVL361:
 3491              	.L221:
1604:..\src\app\alt_mode/alt_modes_mngr.c ****     {
 3492              		.loc 1 1604 0 is_stmt 0 discriminator 1
ARM GAS  e:\temp\ccP12Hvn.s 			page 101


 3493 0146 7423     		movs	r3, #116
 3494 0148 7B43     		muls	r3, r7
 3495 014a 0B4A     		ldr	r2, .L231
 3496 014c D318     		adds	r3, r2, r3
 3497 014e 3033     		adds	r3, r3, #48
 3498 0150 1B78     		ldrb	r3, [r3]
 3499 0152 9C42     		cmp	r4, r3
 3500 0154 00D2     		bcs	.LCB3488
 3501 0156 77E7     		b	.L228	@long jump
 3502              	.LCB3488:
1816:..\src\app\alt_mode/alt_modes_mngr.c ****         }
1817:..\src\app\alt_mode/alt_modes_mngr.c ****     }
1818:..\src\app\alt_mode/alt_modes_mngr.c **** 
1819:..\src\app\alt_mode/alt_modes_mngr.c ****     return false;
 3503              		.loc 1 1819 0 is_stmt 1
 3504 0158 0023     		movs	r3, #0
 3505 015a 9A46     		mov	r10, r3
 3506 015c 04E0     		b	.L220
 3507              	.LVL362:
 3508              	.L229:
1584:..\src\app\alt_mode/alt_modes_mngr.c ****         }
 3509              		.loc 1 1584 0
 3510 015e 0023     		movs	r3, #0
 3511 0160 9A46     		mov	r10, r3
 3512 0162 01E0     		b	.L220
 3513              	.LVL363:
 3514              	.L230:
1797:..\src\app\alt_mode/alt_modes_mngr.c ****                 }
 3515              		.loc 1 1797 0
 3516 0164 0023     		movs	r3, #0
 3517 0166 9A46     		mov	r10, r3
 3518              	.LVL364:
 3519              	.L220:
1820:..\src\app\alt_mode/alt_modes_mngr.c **** }
 3520              		.loc 1 1820 0
 3521 0168 5046     		mov	r0, r10
 3522 016a 02B0     		add	sp, sp, #8
 3523              		@ sp needed
 3524              	.LVL365:
 3525              	.LVL366:
 3526 016c 1CBC     		pop	{r2, r3, r4}
 3527 016e 9046     		mov	r8, r2
 3528 0170 9946     		mov	r9, r3
 3529 0172 A246     		mov	r10, r4
 3530 0174 F0BD     		pop	{r4, r5, r6, r7, pc}
 3531              	.L232:
 3532 0176 C046     		.align	2
 3533              	.L231:
 3534 0178 00000000 		.word	alt_mode
 3535 017c FFFFFF3F 		.word	1073741823
 3536 0180 1F87FFFF 		.word	-30945
 3537 0184 05870000 		.word	34565
 3538              		.cfi_endproc
 3539              	.LFE63:
 3540              		.size	eval_rec_vdm, .-eval_rec_vdm
 3541              		.section	.text.alt_mode_get_status,"ax",%progbits
 3542              		.align	2
ARM GAS  e:\temp\ccP12Hvn.s 			page 102


 3543              		.global	alt_mode_get_status
 3544              		.code	16
 3545              		.thumb_func
 3546              		.type	alt_mode_get_status, %function
 3547              	alt_mode_get_status:
 3548              	.LFB64:
1821:..\src\app\alt_mode/alt_modes_mngr.c **** 
1822:..\src\app\alt_mode/alt_modes_mngr.c **** uint8_t alt_mode_get_status(uint8_t port)
1823:..\src\app\alt_mode/alt_modes_mngr.c **** {
 3549              		.loc 1 1823 0
 3550              		.cfi_startproc
 3551              		@ args = 0, pretend = 0, frame = 0
 3552              		@ frame_needed = 0, uses_anonymous_args = 0
 3553              	.LVL367:
 3554 0000 F0B5     		push	{r4, r5, r6, r7, lr}
 3555              		.cfi_def_cfa_offset 20
 3556              		.cfi_offset 4, -20
 3557              		.cfi_offset 5, -16
 3558              		.cfi_offset 6, -12
 3559              		.cfi_offset 7, -8
 3560              		.cfi_offset 14, -4
 3561 0002 4746     		mov	r7, r8
 3562 0004 80B4     		push	{r7}
 3563              		.cfi_def_cfa_offset 24
 3564              		.cfi_offset 8, -24
 3565 0006 0400     		movs	r4, r0
 3566              	.LVL368:
1824:..\src\app\alt_mode/alt_modes_mngr.c ****     uint8_t ret = NO_DATA;
1825:..\src\app\alt_mode/alt_modes_mngr.c **** #if DFP_ALT_MODE_SUPP
1826:..\src\app\alt_mode/alt_modes_mngr.c ****     alt_mode_info_t *am_info_p = NULL;
1827:..\src\app\alt_mode/alt_modes_mngr.c ****     uint8_t          alt_mode_idx;
1828:..\src\app\alt_mode/alt_modes_mngr.c **** 
1829:..\src\app\alt_mode/alt_modes_mngr.c ****     if (alt_mode[port].state == ALT_MODE_MNGR_STATE_PROCESS)
 3567              		.loc 1 1829 0
 3568 0008 0600     		movs	r6, r0
 3569 000a 7423     		movs	r3, #116
 3570 000c 4343     		muls	r3, r0
 3571 000e 1B4A     		ldr	r2, .L239
 3572 0010 D318     		adds	r3, r2, r3
 3573 0012 6833     		adds	r3, r3, #104
 3574 0014 1B78     		ldrb	r3, [r3]
 3575 0016 012B     		cmp	r3, #1
 3576 0018 1CD0     		beq	.L238
1824:..\src\app\alt_mode/alt_modes_mngr.c ****     uint8_t ret = NO_DATA;
 3577              		.loc 1 1824 0
 3578 001a 0020     		movs	r0, #0
 3579              	.LVL369:
 3580 001c 2AE0     		b	.L235
 3581              	.LVL370:
 3582              	.L237:
1830:..\src\app\alt_mode/alt_modes_mngr.c ****     {
1831:..\src\app\alt_mode/alt_modes_mngr.c ****         /* Check each alternate mode */
1832:..\src\app\alt_mode/alt_modes_mngr.c ****         for (alt_mode_idx = 0; alt_mode_idx < alt_mode[port].alt_modes_numb; alt_mode_idx++)
1833:..\src\app\alt_mode/alt_modes_mngr.c ****         {
1834:..\src\app\alt_mode/alt_modes_mngr.c ****             if (IS_FLAG_CHECKED(alt_mode[port].am_active_modes, alt_mode_idx))
 3583              		.loc 1 1834 0
 3584 001e 7423     		movs	r3, #116
ARM GAS  e:\temp\ccP12Hvn.s 			page 103


 3585 0020 7343     		muls	r3, r6
 3586 0022 164A     		ldr	r2, .L239
 3587 0024 D318     		adds	r3, r2, r3
 3588 0026 DB69     		ldr	r3, [r3, #28]
 3589 0028 EB40     		lsrs	r3, r3, r5
 3590 002a DB07     		lsls	r3, r3, #31
 3591 002c 0FD5     		bpl	.L236
1835:..\src\app\alt_mode/alt_modes_mngr.c ****             {
1836:..\src\app\alt_mode/alt_modes_mngr.c ****                 am_info_p = get_mode_info (port, alt_mode_idx);
 3592              		.loc 1 1836 0
 3593 002e 2900     		movs	r1, r5
 3594 0030 2000     		movs	r0, r4
 3595 0032 FFF7FEFF 		bl	get_mode_info
 3596              	.LVL371:
1837:..\src\app\alt_mode/alt_modes_mngr.c ****                 if (am_info_p != NULL)
 3597              		.loc 1 1837 0
 3598 0036 0028     		cmp	r0, #0
 3599 0038 09D0     		beq	.L236
1838:..\src\app\alt_mode/alt_modes_mngr.c ****                 {
1839:..\src\app\alt_mode/alt_modes_mngr.c ****                     if (am_info_p->is_active != false)
 3600              		.loc 1 1839 0
 3601 003a 2023     		movs	r3, #32
 3602 003c C35C     		ldrb	r3, [r0, r3]
 3603 003e 002B     		cmp	r3, #0
 3604 0040 05D0     		beq	.L236
1840:..\src\app\alt_mode/alt_modes_mngr.c ****                     {
1841:..\src\app\alt_mode/alt_modes_mngr.c ****                         /* Set alt modes which were entered */
1842:..\src\app\alt_mode/alt_modes_mngr.c ****                         SET_FLAG(ret, alt_mode_idx);
 3605              		.loc 1 1842 0
 3606 0042 0120     		movs	r0, #1
 3607              	.LVL372:
 3608 0044 A840     		lsls	r0, r0, r5
 3609 0046 4346     		mov	r3, r8
 3610 0048 1843     		orrs	r0, r3
 3611 004a C3B2     		uxtb	r3, r0
 3612 004c 9846     		mov	r8, r3
 3613              	.LVL373:
 3614              	.L236:
1832:..\src\app\alt_mode/alt_modes_mngr.c ****         {
 3615              		.loc 1 1832 0 discriminator 2
 3616 004e 0135     		adds	r5, r5, #1
 3617              	.LVL374:
 3618 0050 EDB2     		uxtb	r5, r5
 3619              	.LVL375:
 3620 0052 02E0     		b	.L234
 3621              	.LVL376:
 3622              	.L238:
 3623 0054 0025     		movs	r5, #0
 3624 0056 0023     		movs	r3, #0
 3625 0058 9846     		mov	r8, r3
 3626              	.LVL377:
 3627              	.L234:
1832:..\src\app\alt_mode/alt_modes_mngr.c ****         {
 3628              		.loc 1 1832 0 is_stmt 0 discriminator 1
 3629 005a 7423     		movs	r3, #116
 3630 005c 7343     		muls	r3, r6
 3631 005e 074A     		ldr	r2, .L239
ARM GAS  e:\temp\ccP12Hvn.s 			page 104


 3632 0060 D318     		adds	r3, r2, r3
 3633 0062 3033     		adds	r3, r3, #48
 3634 0064 1B78     		ldrb	r3, [r3]
 3635 0066 9D42     		cmp	r5, r3
 3636 0068 D9D3     		bcc	.L237
1843:..\src\app\alt_mode/alt_modes_mngr.c ****                     }
1844:..\src\app\alt_mode/alt_modes_mngr.c ****                 }
1845:..\src\app\alt_mode/alt_modes_mngr.c ****             }
1846:..\src\app\alt_mode/alt_modes_mngr.c ****         }
1847:..\src\app\alt_mode/alt_modes_mngr.c ****         /* Mode discovery complete. */
1848:..\src\app\alt_mode/alt_modes_mngr.c ****         ret |= 0x80;
 3637              		.loc 1 1848 0 is_stmt 1
 3638 006a 8020     		movs	r0, #128
 3639 006c 4042     		rsbs	r0, r0, #0
 3640 006e 4346     		mov	r3, r8
 3641 0070 1843     		orrs	r0, r3
 3642 0072 C0B2     		uxtb	r0, r0
 3643              	.LVL378:
 3644              	.L235:
1849:..\src\app\alt_mode/alt_modes_mngr.c ****     }
1850:..\src\app\alt_mode/alt_modes_mngr.c **** 
1851:..\src\app\alt_mode/alt_modes_mngr.c **** #endif /* DFP_ALT_MODE_SUPP */
1852:..\src\app\alt_mode/alt_modes_mngr.c **** 
1853:..\src\app\alt_mode/alt_modes_mngr.c ****     return ret;
1854:..\src\app\alt_mode/alt_modes_mngr.c **** }
 3645              		.loc 1 1854 0
 3646              		@ sp needed
 3647 0074 04BC     		pop	{r2}
 3648 0076 9046     		mov	r8, r2
 3649 0078 F0BD     		pop	{r4, r5, r6, r7, pc}
 3650              	.L240:
 3651 007a C046     		.align	2
 3652              	.L239:
 3653 007c 00000000 		.word	alt_mode
 3654              		.cfi_endproc
 3655              	.LFE64:
 3656              		.size	alt_mode_get_status, .-alt_mode_get_status
 3657              		.comm	alt_mode,232,4
 3658              		.global	is_alt_mode_allowed
 3659              		.global	supp_svid_tbl
 3660              		.global	dfp_compatibility_mode_table
 3661              		.section	.rodata
 3662              		.align	2
 3663              		.set	.LANCHOR0,. + 0
 3664              		.type	dfp_compatibility_mode_table, %object
 3665              		.size	dfp_compatibility_mode_table, 4
 3666              	dfp_compatibility_mode_table:
 3667 0020 01FF     		.short	-255
 3668 0022 00       		.byte	0
 3669 0023 00       		.space	1
 3670              		.type	alt_mode_ams_table, %object
 3671              		.size	alt_mode_ams_table, 32
 3672              	alt_mode_ams_table:
 3673 0024 00000000 		.word	run_disc_mode
 3674 0028 00000000 		.word	eval_disc_mode
 3675 002c 00000000 		.word	disc_mode_fail
 3676 0030 00000000 		.word	alt_mode_mngr_deinit
ARM GAS  e:\temp\ccP12Hvn.s 			page 105


 3677 0034 00000000 		.word	monitor_alt_modes
 3678 0038 00000000 		.word	eval_alt_modes
 3679 003c 00000000 		.word	fail_alt_modes
 3680 0040 00000000 		.word	alt_mode_mngr_deinit
 3681              		.align	2
 3682              		.type	is_alt_mode_allowed, %object
 3683              		.size	is_alt_mode_allowed, 4
 3684              	is_alt_mode_allowed:
 3685 0044 00000000 		.word	reg_dp_modes
 3686              		.type	supp_svid_tbl, %object
 3687              		.size	supp_svid_tbl, 2
 3688              	supp_svid_tbl:
 3689 0048 01FF     		.short	-255
 3690              		.text
 3691              	.Letext0:
 3692              		.file 2 "e:\\cypress\\psoc creator\\4.2\\psoc creator\\import\\gnu\\arm\\5.4.1\\arm-none-eabi\\inc
 3693              		.file 3 "e:\\cypress\\psoc creator\\4.2\\psoc creator\\import\\gnu\\arm\\5.4.1\\arm-none-eabi\\inc
 3694              		.file 4 "..\\src\\pd_common/pd.h"
 3695              		.file 5 "..\\src\\app\\alt_mode/vdm_task_mngr.h"
 3696              		.file 6 "..\\src\\app\\alt_mode/alt_modes_mngr.h"
 3697              		.file 7 "..\\src\\app\\alt_mode/alt_mode_hw.h"
 3698              		.file 8 "..\\common/alt_modes_config.h"
 3699              		.file 9 "..\\src\\pd_common/dpm.h"
 3700              		.file 10 "..\\src\\app/app.h"
 3701              		.file 11 "..\\src\\app\\alt_mode/dp_sid.h"
 3702              		.section	.debug_info,"",%progbits
 3703              	.Ldebug_info0:
 3704 0000 D8340000 		.4byte	0x34d8
 3705 0004 0400     		.2byte	0x4
 3706 0006 00000000 		.4byte	.Ldebug_abbrev0
 3707 000a 04       		.byte	0x4
 3708 000b 01       		.uleb128 0x1
 3709 000c 14050000 		.4byte	.LASF518
 3710 0010 0C       		.byte	0xc
 3711 0011 3D160000 		.4byte	.LASF519
 3712 0015 910E0000 		.4byte	.LASF520
 3713 0019 00000000 		.4byte	.Ldebug_ranges0+0
 3714 001d 00000000 		.4byte	0
 3715 0021 00000000 		.4byte	.Ldebug_line0
 3716 0025 02       		.uleb128 0x2
 3717 0026 01       		.byte	0x1
 3718 0027 06       		.byte	0x6
 3719 0028 5A100000 		.4byte	.LASF0
 3720 002c 03       		.uleb128 0x3
 3721 002d 32010000 		.4byte	.LASF3
 3722 0031 02       		.byte	0x2
 3723 0032 1D       		.byte	0x1d
 3724 0033 37000000 		.4byte	0x37
 3725 0037 02       		.uleb128 0x2
 3726 0038 01       		.byte	0x1
 3727 0039 08       		.byte	0x8
 3728 003a DD070000 		.4byte	.LASF1
 3729 003e 02       		.uleb128 0x2
 3730 003f 02       		.byte	0x2
 3731 0040 05       		.byte	0x5
 3732 0041 AA1C0000 		.4byte	.LASF2
 3733 0045 03       		.uleb128 0x3
ARM GAS  e:\temp\ccP12Hvn.s 			page 106


 3734 0046 F1060000 		.4byte	.LASF4
 3735 004a 02       		.byte	0x2
 3736 004b 2B       		.byte	0x2b
 3737 004c 50000000 		.4byte	0x50
 3738 0050 02       		.uleb128 0x2
 3739 0051 02       		.byte	0x2
 3740 0052 07       		.byte	0x7
 3741 0053 47100000 		.4byte	.LASF5
 3742 0057 02       		.uleb128 0x2
 3743 0058 04       		.byte	0x4
 3744 0059 05       		.byte	0x5
 3745 005a 57120000 		.4byte	.LASF6
 3746 005e 03       		.uleb128 0x3
 3747 005f EE160000 		.4byte	.LASF7
 3748 0063 02       		.byte	0x2
 3749 0064 41       		.byte	0x41
 3750 0065 69000000 		.4byte	0x69
 3751 0069 02       		.uleb128 0x2
 3752 006a 04       		.byte	0x4
 3753 006b 07       		.byte	0x7
 3754 006c CC130000 		.4byte	.LASF8
 3755 0070 02       		.uleb128 0x2
 3756 0071 08       		.byte	0x8
 3757 0072 05       		.byte	0x5
 3758 0073 561A0000 		.4byte	.LASF9
 3759 0077 02       		.uleb128 0x2
 3760 0078 08       		.byte	0x8
 3761 0079 07       		.byte	0x7
 3762 007a 51180000 		.4byte	.LASF10
 3763 007e 04       		.uleb128 0x4
 3764 007f 04       		.byte	0x4
 3765 0080 05       		.byte	0x5
 3766 0081 696E7400 		.ascii	"int\000"
 3767 0085 02       		.uleb128 0x2
 3768 0086 04       		.byte	0x4
 3769 0087 07       		.byte	0x7
 3770 0088 621C0000 		.4byte	.LASF11
 3771 008c 03       		.uleb128 0x3
 3772 008d 030B0000 		.4byte	.LASF12
 3773 0091 03       		.byte	0x3
 3774 0092 18       		.byte	0x18
 3775 0093 2C000000 		.4byte	0x2c
 3776 0097 03       		.uleb128 0x3
 3777 0098 08020000 		.4byte	.LASF13
 3778 009c 03       		.byte	0x3
 3779 009d 24       		.byte	0x24
 3780 009e 45000000 		.4byte	0x45
 3781 00a2 03       		.uleb128 0x3
 3782 00a3 40130000 		.4byte	.LASF14
 3783 00a7 03       		.byte	0x3
 3784 00a8 30       		.byte	0x30
 3785 00a9 5E000000 		.4byte	0x5e
 3786 00ad 02       		.uleb128 0x2
 3787 00ae 04       		.byte	0x4
 3788 00af 04       		.byte	0x4
 3789 00b0 40080000 		.4byte	.LASF15
 3790 00b4 02       		.uleb128 0x2
ARM GAS  e:\temp\ccP12Hvn.s 			page 107


 3791 00b5 08       		.byte	0x8
 3792 00b6 04       		.byte	0x4
 3793 00b7 300E0000 		.4byte	.LASF16
 3794 00bb 02       		.uleb128 0x2
 3795 00bc 01       		.byte	0x1
 3796 00bd 08       		.byte	0x8
 3797 00be 65140000 		.4byte	.LASF17
 3798 00c2 02       		.uleb128 0x2
 3799 00c3 08       		.byte	0x8
 3800 00c4 04       		.byte	0x4
 3801 00c5 A9130000 		.4byte	.LASF18
 3802 00c9 02       		.uleb128 0x2
 3803 00ca 04       		.byte	0x4
 3804 00cb 07       		.byte	0x7
 3805 00cc 02100000 		.4byte	.LASF19
 3806 00d0 05       		.uleb128 0x5
 3807 00d1 01       		.byte	0x1
 3808 00d2 37000000 		.4byte	0x37
 3809 00d6 04       		.byte	0x4
 3810 00d7 9F03     		.2byte	0x39f
 3811 00d9 32010000 		.4byte	0x132
 3812 00dd 06       		.uleb128 0x6
 3813 00de AE1A0000 		.4byte	.LASF20
 3814 00e2 01       		.byte	0x1
 3815 00e3 06       		.uleb128 0x6
 3816 00e4 BC090000 		.4byte	.LASF21
 3817 00e8 02       		.byte	0x2
 3818 00e9 06       		.uleb128 0x6
 3819 00ea 1B000000 		.4byte	.LASF22
 3820 00ee 03       		.byte	0x3
 3821 00ef 06       		.uleb128 0x6
 3822 00f0 EA1A0000 		.4byte	.LASF23
 3823 00f4 04       		.byte	0x4
 3824 00f5 06       		.uleb128 0x6
 3825 00f6 D21C0000 		.4byte	.LASF24
 3826 00fa 05       		.byte	0x5
 3827 00fb 06       		.uleb128 0x6
 3828 00fc DE0A0000 		.4byte	.LASF25
 3829 0100 06       		.byte	0x6
 3830 0101 06       		.uleb128 0x6
 3831 0102 041A0000 		.4byte	.LASF26
 3832 0106 07       		.byte	0x7
 3833 0107 06       		.uleb128 0x6
 3834 0108 BF0F0000 		.4byte	.LASF27
 3835 010c 08       		.byte	0x8
 3836 010d 06       		.uleb128 0x6
 3837 010e 641A0000 		.4byte	.LASF28
 3838 0112 09       		.byte	0x9
 3839 0113 06       		.uleb128 0x6
 3840 0114 37150000 		.4byte	.LASF29
 3841 0118 0A       		.byte	0xa
 3842 0119 06       		.uleb128 0x6
 3843 011a 4A1C0000 		.4byte	.LASF30
 3844 011e 0B       		.byte	0xb
 3845 011f 06       		.uleb128 0x6
 3846 0120 28090000 		.4byte	.LASF31
 3847 0124 0C       		.byte	0xc
ARM GAS  e:\temp\ccP12Hvn.s 			page 108


 3848 0125 06       		.uleb128 0x6
 3849 0126 CE010000 		.4byte	.LASF32
 3850 012a 0D       		.byte	0xd
 3851 012b 06       		.uleb128 0x6
 3852 012c A7170000 		.4byte	.LASF33
 3853 0130 0E       		.byte	0xe
 3854 0131 00       		.byte	0
 3855 0132 07       		.uleb128 0x7
 3856 0133 EB070000 		.4byte	.LASF34
 3857 0137 04       		.byte	0x4
 3858 0138 AE03     		.2byte	0x3ae
 3859 013a D0000000 		.4byte	0xd0
 3860 013e 05       		.uleb128 0x5
 3861 013f 01       		.byte	0x1
 3862 0140 37000000 		.4byte	0x37
 3863 0144 04       		.byte	0x4
 3864 0145 EA03     		.2byte	0x3ea
 3865 0147 7C010000 		.4byte	0x17c
 3866 014b 08       		.uleb128 0x8
 3867 014c 534F5000 		.ascii	"SOP\000"
 3868 0150 00       		.byte	0
 3869 0151 06       		.uleb128 0x6
 3870 0152 700B0000 		.4byte	.LASF35
 3871 0156 01       		.byte	0x1
 3872 0157 06       		.uleb128 0x6
 3873 0158 D00B0000 		.4byte	.LASF36
 3874 015c 02       		.byte	0x2
 3875 015d 06       		.uleb128 0x6
 3876 015e 16120000 		.4byte	.LASF37
 3877 0162 03       		.byte	0x3
 3878 0163 06       		.uleb128 0x6
 3879 0164 5D020000 		.4byte	.LASF38
 3880 0168 04       		.byte	0x4
 3881 0169 06       		.uleb128 0x6
 3882 016a 841C0000 		.4byte	.LASF39
 3883 016e 05       		.byte	0x5
 3884 016f 06       		.uleb128 0x6
 3885 0170 091B0000 		.4byte	.LASF40
 3886 0174 06       		.byte	0x6
 3887 0175 06       		.uleb128 0x6
 3888 0176 E5060000 		.4byte	.LASF41
 3889 017a 07       		.byte	0x7
 3890 017b 00       		.byte	0
 3891 017c 07       		.uleb128 0x7
 3892 017d BC080000 		.4byte	.LASF42
 3893 0181 04       		.byte	0x4
 3894 0182 F303     		.2byte	0x3f3
 3895 0184 3E010000 		.4byte	0x13e
 3896 0188 05       		.uleb128 0x5
 3897 0189 01       		.byte	0x1
 3898 018a 37000000 		.4byte	0x37
 3899 018e 04       		.byte	0x4
 3900 018f 0504     		.2byte	0x405
 3901 0191 A8010000 		.4byte	0x1a8
 3902 0195 06       		.uleb128 0x6
 3903 0196 EA090000 		.4byte	.LASF43
 3904 019a 00       		.byte	0
ARM GAS  e:\temp\ccP12Hvn.s 			page 109


 3905 019b 06       		.uleb128 0x6
 3906 019c B5130000 		.4byte	.LASF44
 3907 01a0 01       		.byte	0x1
 3908 01a1 06       		.uleb128 0x6
 3909 01a2 9A180000 		.4byte	.LASF45
 3910 01a6 02       		.byte	0x2
 3911 01a7 00       		.byte	0
 3912 01a8 07       		.uleb128 0x7
 3913 01a9 141C0000 		.4byte	.LASF46
 3914 01ad 04       		.byte	0x4
 3915 01ae 0904     		.2byte	0x409
 3916 01b0 88010000 		.4byte	0x188
 3917 01b4 05       		.uleb128 0x5
 3918 01b5 01       		.byte	0x1
 3919 01b6 37000000 		.4byte	0x37
 3920 01ba 04       		.byte	0x4
 3921 01bb 6104     		.2byte	0x461
 3922 01bd CE010000 		.4byte	0x1ce
 3923 01c1 06       		.uleb128 0x6
 3924 01c2 FF0C0000 		.4byte	.LASF47
 3925 01c6 00       		.byte	0
 3926 01c7 06       		.uleb128 0x6
 3927 01c8 F9130000 		.4byte	.LASF48
 3928 01cc 01       		.byte	0x1
 3929 01cd 00       		.byte	0
 3930 01ce 05       		.uleb128 0x5
 3931 01cf 01       		.byte	0x1
 3932 01d0 37000000 		.4byte	0x37
 3933 01d4 04       		.byte	0x4
 3934 01d5 6B04     		.2byte	0x46b
 3935 01d7 0C020000 		.4byte	0x20c
 3936 01db 06       		.uleb128 0x6
 3937 01dc 6F1C0000 		.4byte	.LASF49
 3938 01e0 01       		.byte	0x1
 3939 01e1 06       		.uleb128 0x6
 3940 01e2 08180000 		.4byte	.LASF50
 3941 01e6 02       		.byte	0x2
 3942 01e7 06       		.uleb128 0x6
 3943 01e8 E7130000 		.4byte	.LASF51
 3944 01ec 03       		.byte	0x3
 3945 01ed 06       		.uleb128 0x6
 3946 01ee 71150000 		.4byte	.LASF52
 3947 01f2 04       		.byte	0x4
 3948 01f3 06       		.uleb128 0x6
 3949 01f4 F6010000 		.4byte	.LASF53
 3950 01f8 05       		.byte	0x5
 3951 01f9 06       		.uleb128 0x6
 3952 01fa E31C0000 		.4byte	.LASF54
 3953 01fe 06       		.byte	0x6
 3954 01ff 06       		.uleb128 0x6
 3955 0200 42140000 		.4byte	.LASF55
 3956 0204 10       		.byte	0x10
 3957 0205 06       		.uleb128 0x6
 3958 0206 C2080000 		.4byte	.LASF56
 3959 020a 11       		.byte	0x11
 3960 020b 00       		.byte	0
 3961 020c 05       		.uleb128 0x5
ARM GAS  e:\temp\ccP12Hvn.s 			page 110


 3962 020d 01       		.byte	0x1
 3963 020e 37000000 		.4byte	0x37
 3964 0212 04       		.byte	0x4
 3965 0213 8005     		.2byte	0x580
 3966 0215 10030000 		.4byte	0x310
 3967 0219 06       		.uleb128 0x6
 3968 021a A1030000 		.4byte	.LASF57
 3969 021e 00       		.byte	0
 3970 021f 06       		.uleb128 0x6
 3971 0220 D1150000 		.4byte	.LASF58
 3972 0224 01       		.byte	0x1
 3973 0225 06       		.uleb128 0x6
 3974 0226 16160000 		.4byte	.LASF59
 3975 022a 02       		.byte	0x2
 3976 022b 06       		.uleb128 0x6
 3977 022c F7090000 		.4byte	.LASF60
 3978 0230 03       		.byte	0x3
 3979 0231 06       		.uleb128 0x6
 3980 0232 A6000000 		.4byte	.LASF61
 3981 0236 04       		.byte	0x4
 3982 0237 06       		.uleb128 0x6
 3983 0238 77040000 		.4byte	.LASF62
 3984 023c 05       		.byte	0x5
 3985 023d 06       		.uleb128 0x6
 3986 023e 46120000 		.4byte	.LASF63
 3987 0242 06       		.byte	0x6
 3988 0243 06       		.uleb128 0x6
 3989 0244 19090000 		.4byte	.LASF64
 3990 0248 07       		.byte	0x7
 3991 0249 06       		.uleb128 0x6
 3992 024a 5F170000 		.4byte	.LASF65
 3993 024e 08       		.byte	0x8
 3994 024f 06       		.uleb128 0x6
 3995 0250 AF0D0000 		.4byte	.LASF66
 3996 0254 09       		.byte	0x9
 3997 0255 06       		.uleb128 0x6
 3998 0256 4F090000 		.4byte	.LASF67
 3999 025a 0A       		.byte	0xa
 4000 025b 06       		.uleb128 0x6
 4001 025c D8170000 		.4byte	.LASF68
 4002 0260 0B       		.byte	0xb
 4003 0261 06       		.uleb128 0x6
 4004 0262 B0040000 		.4byte	.LASF69
 4005 0266 0C       		.byte	0xc
 4006 0267 06       		.uleb128 0x6
 4007 0268 271D0000 		.4byte	.LASF70
 4008 026c 0D       		.byte	0xd
 4009 026d 06       		.uleb128 0x6
 4010 026e C9160000 		.4byte	.LASF71
 4011 0272 0E       		.byte	0xe
 4012 0273 06       		.uleb128 0x6
 4013 0274 B3060000 		.4byte	.LASF72
 4014 0278 0F       		.byte	0xf
 4015 0279 06       		.uleb128 0x6
 4016 027a C7000000 		.4byte	.LASF73
 4017 027e 10       		.byte	0x10
 4018 027f 06       		.uleb128 0x6
ARM GAS  e:\temp\ccP12Hvn.s 			page 111


 4019 0280 7E0D0000 		.4byte	.LASF74
 4020 0284 11       		.byte	0x11
 4021 0285 06       		.uleb128 0x6
 4022 0286 39180000 		.4byte	.LASF75
 4023 028a 12       		.byte	0x12
 4024 028b 06       		.uleb128 0x6
 4025 028c 600F0000 		.4byte	.LASF76
 4026 0290 13       		.byte	0x13
 4027 0291 06       		.uleb128 0x6
 4028 0292 90170000 		.4byte	.LASF77
 4029 0296 14       		.byte	0x14
 4030 0297 06       		.uleb128 0x6
 4031 0298 10130000 		.4byte	.LASF78
 4032 029c 15       		.byte	0x15
 4033 029d 06       		.uleb128 0x6
 4034 029e F80B0000 		.4byte	.LASF79
 4035 02a2 16       		.byte	0x16
 4036 02a3 06       		.uleb128 0x6
 4037 02a4 F8140000 		.4byte	.LASF80
 4038 02a8 17       		.byte	0x17
 4039 02a9 06       		.uleb128 0x6
 4040 02aa 5E0C0000 		.4byte	.LASF81
 4041 02ae 18       		.byte	0x18
 4042 02af 06       		.uleb128 0x6
 4043 02b0 6A0A0000 		.4byte	.LASF82
 4044 02b4 19       		.byte	0x19
 4045 02b5 06       		.uleb128 0x6
 4046 02b6 F1040000 		.4byte	.LASF83
 4047 02ba 1A       		.byte	0x1a
 4048 02bb 06       		.uleb128 0x6
 4049 02bc 401A0000 		.4byte	.LASF84
 4050 02c0 1B       		.byte	0x1b
 4051 02c1 06       		.uleb128 0x6
 4052 02c2 58150000 		.4byte	.LASF85
 4053 02c6 1C       		.byte	0x1c
 4054 02c7 06       		.uleb128 0x6
 4055 02c8 0C070000 		.4byte	.LASF86
 4056 02cc 1D       		.byte	0x1d
 4057 02cd 06       		.uleb128 0x6
 4058 02ce DF050000 		.4byte	.LASF87
 4059 02d2 1E       		.byte	0x1e
 4060 02d3 06       		.uleb128 0x6
 4061 02d4 33060000 		.4byte	.LASF88
 4062 02d8 1F       		.byte	0x1f
 4063 02d9 06       		.uleb128 0x6
 4064 02da BA0C0000 		.4byte	.LASF89
 4065 02de 20       		.byte	0x20
 4066 02df 06       		.uleb128 0x6
 4067 02e0 201C0000 		.4byte	.LASF90
 4068 02e4 21       		.byte	0x21
 4069 02e5 06       		.uleb128 0x6
 4070 02e6 AC100000 		.4byte	.LASF91
 4071 02ea 22       		.byte	0x22
 4072 02eb 06       		.uleb128 0x6
 4073 02ec F6070000 		.4byte	.LASF92
 4074 02f0 23       		.byte	0x23
 4075 02f1 06       		.uleb128 0x6
ARM GAS  e:\temp\ccP12Hvn.s 			page 112


 4076 02f2 0F030000 		.4byte	.LASF93
 4077 02f6 24       		.byte	0x24
 4078 02f7 06       		.uleb128 0x6
 4079 02f8 27150000 		.4byte	.LASF94
 4080 02fc 25       		.byte	0x25
 4081 02fd 06       		.uleb128 0x6
 4082 02fe 871B0000 		.4byte	.LASF95
 4083 0302 26       		.byte	0x26
 4084 0303 06       		.uleb128 0x6
 4085 0304 66000000 		.4byte	.LASF96
 4086 0308 27       		.byte	0x27
 4087 0309 06       		.uleb128 0x6
 4088 030a 7F130000 		.4byte	.LASF97
 4089 030e 28       		.byte	0x28
 4090 030f 00       		.byte	0
 4091 0310 05       		.uleb128 0x5
 4092 0311 01       		.byte	0x1
 4093 0312 37000000 		.4byte	0x37
 4094 0316 04       		.byte	0x4
 4095 0317 B905     		.2byte	0x5b9
 4096 0319 36030000 		.4byte	0x336
 4097 031d 06       		.uleb128 0x6
 4098 031e 741B0000 		.4byte	.LASF98
 4099 0322 00       		.byte	0
 4100 0323 06       		.uleb128 0x6
 4101 0324 1E030000 		.4byte	.LASF99
 4102 0328 01       		.byte	0x1
 4103 0329 06       		.uleb128 0x6
 4104 032a 1E0B0000 		.4byte	.LASF100
 4105 032e 02       		.byte	0x2
 4106 032f 06       		.uleb128 0x6
 4107 0330 DB110000 		.4byte	.LASF101
 4108 0334 03       		.byte	0x3
 4109 0335 00       		.byte	0
 4110 0336 07       		.uleb128 0x7
 4111 0337 D1110000 		.4byte	.LASF102
 4112 033b 04       		.byte	0x4
 4113 033c BE05     		.2byte	0x5be
 4114 033e 10030000 		.4byte	0x310
 4115 0342 09       		.uleb128 0x9
 4116 0343 4A060000 		.4byte	.LASF116
 4117 0347 04       		.byte	0x4
 4118 0348 04       		.byte	0x4
 4119 0349 D405     		.2byte	0x5d4
 4120 034b 10040000 		.4byte	0x410
 4121 034f 0A       		.uleb128 0xa
 4122 0350 A0090000 		.4byte	.LASF103
 4123 0354 04       		.byte	0x4
 4124 0355 D605     		.2byte	0x5d6
 4125 0357 A2000000 		.4byte	0xa2
 4126 035b 04       		.byte	0x4
 4127 035c 05       		.byte	0x5
 4128 035d 1B       		.byte	0x1b
 4129 035e 00       		.byte	0
 4130 035f 0A       		.uleb128 0xa
 4131 0360 C81C0000 		.4byte	.LASF104
 4132 0364 04       		.byte	0x4
ARM GAS  e:\temp\ccP12Hvn.s 			page 113


 4133 0365 D705     		.2byte	0x5d7
 4134 0367 A2000000 		.4byte	0xa2
 4135 036b 04       		.byte	0x4
 4136 036c 01       		.byte	0x1
 4137 036d 1A       		.byte	0x1a
 4138 036e 00       		.byte	0
 4139 036f 0A       		.uleb128 0xa
 4140 0370 C0020000 		.4byte	.LASF105
 4141 0374 04       		.byte	0x4
 4142 0375 D805     		.2byte	0x5d8
 4143 0377 A2000000 		.4byte	0xa2
 4144 037b 04       		.byte	0x4
 4145 037c 02       		.byte	0x2
 4146 037d 18       		.byte	0x18
 4147 037e 00       		.byte	0
 4148 037f 0A       		.uleb128 0xa
 4149 0380 6A170000 		.4byte	.LASF106
 4150 0384 04       		.byte	0x4
 4151 0385 D905     		.2byte	0x5d9
 4152 0387 A2000000 		.4byte	0xa2
 4153 038b 04       		.byte	0x4
 4154 038c 01       		.byte	0x1
 4155 038d 17       		.byte	0x17
 4156 038e 00       		.byte	0
 4157 038f 0A       		.uleb128 0xa
 4158 0390 6D030000 		.4byte	.LASF107
 4159 0394 04       		.byte	0x4
 4160 0395 DA05     		.2byte	0x5da
 4161 0397 A2000000 		.4byte	0xa2
 4162 039b 04       		.byte	0x4
 4163 039c 03       		.byte	0x3
 4164 039d 14       		.byte	0x14
 4165 039e 00       		.byte	0
 4166 039f 0B       		.uleb128 0xb
 4167 03a0 6C656E00 		.ascii	"len\000"
 4168 03a4 04       		.byte	0x4
 4169 03a5 DB05     		.2byte	0x5db
 4170 03a7 A2000000 		.4byte	0xa2
 4171 03ab 04       		.byte	0x4
 4172 03ac 03       		.byte	0x3
 4173 03ad 11       		.byte	0x11
 4174 03ae 00       		.byte	0
 4175 03af 0A       		.uleb128 0xa
 4176 03b0 5B0F0000 		.4byte	.LASF108
 4177 03b4 04       		.byte	0x4
 4178 03b5 DC05     		.2byte	0x5dc
 4179 03b7 A2000000 		.4byte	0xa2
 4180 03bb 04       		.byte	0x4
 4181 03bc 01       		.byte	0x1
 4182 03bd 10       		.byte	0x10
 4183 03be 00       		.byte	0
 4184 03bf 0A       		.uleb128 0xa
 4185 03c0 74030000 		.4byte	.LASF109
 4186 03c4 04       		.byte	0x4
 4187 03c5 DD05     		.2byte	0x5dd
 4188 03c7 A2000000 		.4byte	0xa2
 4189 03cb 04       		.byte	0x4
ARM GAS  e:\temp\ccP12Hvn.s 			page 114


 4190 03cc 09       		.byte	0x9
 4191 03cd 07       		.byte	0x7
 4192 03ce 00       		.byte	0
 4193 03cf 0A       		.uleb128 0xa
 4194 03d0 2F100000 		.4byte	.LASF110
 4195 03d4 04       		.byte	0x4
 4196 03d5 DE05     		.2byte	0x5de
 4197 03d7 A2000000 		.4byte	0xa2
 4198 03db 04       		.byte	0x4
 4199 03dc 01       		.byte	0x1
 4200 03dd 06       		.byte	0x6
 4201 03de 00       		.byte	0
 4202 03df 0A       		.uleb128 0xa
 4203 03e0 D10C0000 		.4byte	.LASF111
 4204 03e4 04       		.byte	0x4
 4205 03e5 DF05     		.2byte	0x5df
 4206 03e7 A2000000 		.4byte	0xa2
 4207 03eb 04       		.byte	0x4
 4208 03ec 01       		.byte	0x1
 4209 03ed 05       		.byte	0x5
 4210 03ee 00       		.byte	0
 4211 03ef 0A       		.uleb128 0xa
 4212 03f0 A0130000 		.4byte	.LASF112
 4213 03f4 04       		.byte	0x4
 4214 03f5 E005     		.2byte	0x5e0
 4215 03f7 A2000000 		.4byte	0xa2
 4216 03fb 04       		.byte	0x4
 4217 03fc 04       		.byte	0x4
 4218 03fd 01       		.byte	0x1
 4219 03fe 00       		.byte	0
 4220 03ff 0A       		.uleb128 0xa
 4221 0400 1D0D0000 		.4byte	.LASF113
 4222 0404 04       		.byte	0x4
 4223 0405 E105     		.2byte	0x5e1
 4224 0407 A2000000 		.4byte	0xa2
 4225 040b 04       		.byte	0x4
 4226 040c 01       		.byte	0x1
 4227 040d 00       		.byte	0
 4228 040e 00       		.byte	0
 4229 040f 00       		.byte	0
 4230 0410 0C       		.uleb128 0xc
 4231 0411 04       		.byte	0x4
 4232 0412 04       		.byte	0x4
 4233 0413 D105     		.2byte	0x5d1
 4234 0415 32040000 		.4byte	0x432
 4235 0419 0D       		.uleb128 0xd
 4236 041a 76616C00 		.ascii	"val\000"
 4237 041e 04       		.byte	0x4
 4238 041f D305     		.2byte	0x5d3
 4239 0421 A2000000 		.4byte	0xa2
 4240 0425 0D       		.uleb128 0xd
 4241 0426 68647200 		.ascii	"hdr\000"
 4242 042a 04       		.byte	0x4
 4243 042b E205     		.2byte	0x5e2
 4244 042d 42030000 		.4byte	0x342
 4245 0431 00       		.byte	0
 4246 0432 07       		.uleb128 0x7
ARM GAS  e:\temp\ccP12Hvn.s 			page 115


 4247 0433 EF030000 		.4byte	.LASF114
 4248 0437 04       		.byte	0x4
 4249 0438 E305     		.2byte	0x5e3
 4250 043a 10040000 		.4byte	0x410
 4251 043e 0E       		.uleb128 0xe
 4252 043f 02       		.byte	0x2
 4253 0440 04       		.byte	0x4
 4254 0441 EB05     		.2byte	0x5eb
 4255 0443 98040000 		.4byte	0x498
 4256 0447 0A       		.uleb128 0xa
 4257 0448 74030000 		.4byte	.LASF109
 4258 044c 04       		.byte	0x4
 4259 044d ED05     		.2byte	0x5ed
 4260 044f 97000000 		.4byte	0x97
 4261 0453 02       		.byte	0x2
 4262 0454 09       		.byte	0x9
 4263 0455 07       		.byte	0x7
 4264 0456 00       		.byte	0
 4265 0457 0A       		.uleb128 0xa
 4266 0458 2F100000 		.4byte	.LASF110
 4267 045c 04       		.byte	0x4
 4268 045d EE05     		.2byte	0x5ee
 4269 045f 97000000 		.4byte	0x97
 4270 0463 02       		.byte	0x2
 4271 0464 01       		.byte	0x1
 4272 0465 06       		.byte	0x6
 4273 0466 00       		.byte	0
 4274 0467 0A       		.uleb128 0xa
 4275 0468 D10C0000 		.4byte	.LASF111
 4276 046c 04       		.byte	0x4
 4277 046d EF05     		.2byte	0x5ef
 4278 046f 97000000 		.4byte	0x97
 4279 0473 02       		.byte	0x2
 4280 0474 01       		.byte	0x1
 4281 0475 05       		.byte	0x5
 4282 0476 00       		.byte	0
 4283 0477 0A       		.uleb128 0xa
 4284 0478 A0130000 		.4byte	.LASF112
 4285 047c 04       		.byte	0x4
 4286 047d F005     		.2byte	0x5f0
 4287 047f 97000000 		.4byte	0x97
 4288 0483 02       		.byte	0x2
 4289 0484 04       		.byte	0x4
 4290 0485 01       		.byte	0x1
 4291 0486 00       		.byte	0
 4292 0487 0A       		.uleb128 0xa
 4293 0488 1D0D0000 		.4byte	.LASF113
 4294 048c 04       		.byte	0x4
 4295 048d F105     		.2byte	0x5f1
 4296 048f 97000000 		.4byte	0x97
 4297 0493 02       		.byte	0x2
 4298 0494 01       		.byte	0x1
 4299 0495 00       		.byte	0
 4300 0496 00       		.byte	0
 4301 0497 00       		.byte	0
 4302 0498 0C       		.uleb128 0xc
 4303 0499 02       		.byte	0x2
ARM GAS  e:\temp\ccP12Hvn.s 			page 116


 4304 049a 04       		.byte	0x4
 4305 049b E805     		.2byte	0x5e8
 4306 049d BA040000 		.4byte	0x4ba
 4307 04a1 0D       		.uleb128 0xd
 4308 04a2 76616C00 		.ascii	"val\000"
 4309 04a6 04       		.byte	0x4
 4310 04a7 EA05     		.2byte	0x5ea
 4311 04a9 97000000 		.4byte	0x97
 4312 04ad 0F       		.uleb128 0xf
 4313 04ae 5B0F0000 		.4byte	.LASF108
 4314 04b2 04       		.byte	0x4
 4315 04b3 F205     		.2byte	0x5f2
 4316 04b5 3E040000 		.4byte	0x43e
 4317 04b9 00       		.byte	0
 4318 04ba 07       		.uleb128 0x7
 4319 04bb 7A0B0000 		.4byte	.LASF115
 4320 04bf 04       		.byte	0x4
 4321 04c0 F305     		.2byte	0x5f3
 4322 04c2 98040000 		.4byte	0x498
 4323 04c6 09       		.uleb128 0x9
 4324 04c7 D8140000 		.4byte	.LASF117
 4325 04cb 04       		.byte	0x4
 4326 04cc 04       		.byte	0x4
 4327 04cd 0006     		.2byte	0x600
 4328 04cf 04050000 		.4byte	0x504
 4329 04d3 0A       		.uleb128 0xa
 4330 04d4 2F100000 		.4byte	.LASF110
 4331 04d8 04       		.byte	0x4
 4332 04d9 0206     		.2byte	0x602
 4333 04db A2000000 		.4byte	0xa2
 4334 04df 04       		.byte	0x4
 4335 04e0 10       		.byte	0x10
 4336 04e1 10       		.byte	0x10
 4337 04e2 00       		.byte	0
 4338 04e3 0A       		.uleb128 0xa
 4339 04e4 35100000 		.4byte	.LASF118
 4340 04e8 04       		.byte	0x4
 4341 04e9 0306     		.2byte	0x603
 4342 04eb A2000000 		.4byte	0xa2
 4343 04ef 04       		.byte	0x4
 4344 04f0 0C       		.byte	0xc
 4345 04f1 04       		.byte	0x4
 4346 04f2 00       		.byte	0
 4347 04f3 0A       		.uleb128 0xa
 4348 04f4 41070000 		.4byte	.LASF119
 4349 04f8 04       		.byte	0x4
 4350 04f9 0406     		.2byte	0x604
 4351 04fb A2000000 		.4byte	0xa2
 4352 04ff 04       		.byte	0x4
 4353 0500 04       		.byte	0x4
 4354 0501 00       		.byte	0
 4355 0502 00       		.byte	0
 4356 0503 00       		.byte	0
 4357 0504 09       		.uleb128 0x9
 4358 0505 361B0000 		.4byte	.LASF120
 4359 0509 04       		.byte	0x4
 4360 050a 04       		.byte	0x4
ARM GAS  e:\temp\ccP12Hvn.s 			page 117


 4361 050b 0706     		.2byte	0x607
 4362 050d C2050000 		.4byte	0x5c2
 4363 0511 0A       		.uleb128 0xa
 4364 0512 34130000 		.4byte	.LASF121
 4365 0516 04       		.byte	0x4
 4366 0517 0906     		.2byte	0x609
 4367 0519 A2000000 		.4byte	0xa2
 4368 051d 04       		.byte	0x4
 4369 051e 0A       		.byte	0xa
 4370 051f 16       		.byte	0x16
 4371 0520 00       		.byte	0
 4372 0521 0A       		.uleb128 0xa
 4373 0522 EB190000 		.4byte	.LASF122
 4374 0526 04       		.byte	0x4
 4375 0527 0A06     		.2byte	0x60a
 4376 0529 A2000000 		.4byte	0xa2
 4377 052d 04       		.byte	0x4
 4378 052e 0A       		.byte	0xa
 4379 052f 0C       		.byte	0xc
 4380 0530 00       		.byte	0
 4381 0531 0A       		.uleb128 0xa
 4382 0532 22020000 		.4byte	.LASF123
 4383 0536 04       		.byte	0x4
 4384 0537 0B06     		.2byte	0x60b
 4385 0539 A2000000 		.4byte	0xa2
 4386 053d 04       		.byte	0x4
 4387 053e 02       		.byte	0x2
 4388 053f 0A       		.byte	0xa
 4389 0540 00       		.byte	0
 4390 0541 0A       		.uleb128 0xa
 4391 0542 30000000 		.4byte	.LASF124
 4392 0546 04       		.byte	0x4
 4393 0547 0C06     		.2byte	0x60c
 4394 0549 A2000000 		.4byte	0xa2
 4395 054d 04       		.byte	0x4
 4396 054e 02       		.byte	0x2
 4397 054f 08       		.byte	0x8
 4398 0550 00       		.byte	0
 4399 0551 0A       		.uleb128 0xa
 4400 0552 44040000 		.4byte	.LASF125
 4401 0556 04       		.byte	0x4
 4402 0557 0D06     		.2byte	0x60d
 4403 0559 A2000000 		.4byte	0xa2
 4404 055d 04       		.byte	0x4
 4405 055e 01       		.byte	0x1
 4406 055f 07       		.byte	0x7
 4407 0560 00       		.byte	0
 4408 0561 0A       		.uleb128 0xa
 4409 0562 150D0000 		.4byte	.LASF126
 4410 0566 04       		.byte	0x4
 4411 0567 0E06     		.2byte	0x60e
 4412 0569 A2000000 		.4byte	0xa2
 4413 056d 04       		.byte	0x4
 4414 056e 01       		.byte	0x1
 4415 056f 06       		.byte	0x6
 4416 0570 00       		.byte	0
 4417 0571 0A       		.uleb128 0xa
ARM GAS  e:\temp\ccP12Hvn.s 			page 118


 4418 0572 00040000 		.4byte	.LASF127
 4419 0576 04       		.byte	0x4
 4420 0577 0F06     		.2byte	0x60f
 4421 0579 A2000000 		.4byte	0xa2
 4422 057d 04       		.byte	0x4
 4423 057e 01       		.byte	0x1
 4424 057f 05       		.byte	0x5
 4425 0580 00       		.byte	0
 4426 0581 0A       		.uleb128 0xa
 4427 0582 0B190000 		.4byte	.LASF128
 4428 0586 04       		.byte	0x4
 4429 0587 1006     		.2byte	0x610
 4430 0589 A2000000 		.4byte	0xa2
 4431 058d 04       		.byte	0x4
 4432 058e 01       		.byte	0x1
 4433 058f 04       		.byte	0x4
 4434 0590 00       		.byte	0
 4435 0591 0A       		.uleb128 0xa
 4436 0592 5C0D0000 		.4byte	.LASF129
 4437 0596 04       		.byte	0x4
 4438 0597 1106     		.2byte	0x611
 4439 0599 A2000000 		.4byte	0xa2
 4440 059d 04       		.byte	0x4
 4441 059e 01       		.byte	0x1
 4442 059f 03       		.byte	0x3
 4443 05a0 00       		.byte	0
 4444 05a1 0A       		.uleb128 0xa
 4445 05a2 E9080000 		.4byte	.LASF130
 4446 05a6 04       		.byte	0x4
 4447 05a7 1206     		.2byte	0x612
 4448 05a9 A2000000 		.4byte	0xa2
 4449 05ad 04       		.byte	0x4
 4450 05ae 01       		.byte	0x1
 4451 05af 02       		.byte	0x2
 4452 05b0 00       		.byte	0
 4453 05b1 0A       		.uleb128 0xa
 4454 05b2 2D180000 		.4byte	.LASF131
 4455 05b6 04       		.byte	0x4
 4456 05b7 1306     		.2byte	0x613
 4457 05b9 A2000000 		.4byte	0xa2
 4458 05bd 04       		.byte	0x4
 4459 05be 02       		.byte	0x2
 4460 05bf 00       		.byte	0
 4461 05c0 00       		.byte	0
 4462 05c1 00       		.byte	0
 4463 05c2 09       		.uleb128 0x9
 4464 05c3 D0140000 		.4byte	.LASF132
 4465 05c7 04       		.byte	0x4
 4466 05c8 04       		.byte	0x4
 4467 05c9 1606     		.2byte	0x616
 4468 05cb 10060000 		.4byte	0x610
 4469 05cf 0A       		.uleb128 0xa
 4470 05d0 34130000 		.4byte	.LASF121
 4471 05d4 04       		.byte	0x4
 4472 05d5 1806     		.2byte	0x618
 4473 05d7 A2000000 		.4byte	0xa2
 4474 05db 04       		.byte	0x4
ARM GAS  e:\temp\ccP12Hvn.s 			page 119


 4475 05dc 0A       		.byte	0xa
 4476 05dd 16       		.byte	0x16
 4477 05de 00       		.byte	0
 4478 05df 0A       		.uleb128 0xa
 4479 05e0 DF190000 		.4byte	.LASF133
 4480 05e4 04       		.byte	0x4
 4481 05e5 1906     		.2byte	0x619
 4482 05e7 A2000000 		.4byte	0xa2
 4483 05eb 04       		.byte	0x4
 4484 05ec 0A       		.byte	0xa
 4485 05ed 0C       		.byte	0xc
 4486 05ee 00       		.byte	0
 4487 05ef 0A       		.uleb128 0xa
 4488 05f0 151B0000 		.4byte	.LASF134
 4489 05f4 04       		.byte	0x4
 4490 05f5 1A06     		.2byte	0x61a
 4491 05f7 A2000000 		.4byte	0xa2
 4492 05fb 04       		.byte	0x4
 4493 05fc 0A       		.byte	0xa
 4494 05fd 02       		.byte	0x2
 4495 05fe 00       		.byte	0
 4496 05ff 0A       		.uleb128 0xa
 4497 0600 2D180000 		.4byte	.LASF131
 4498 0604 04       		.byte	0x4
 4499 0605 1B06     		.2byte	0x61b
 4500 0607 A2000000 		.4byte	0xa2
 4501 060b 04       		.byte	0x4
 4502 060c 02       		.byte	0x2
 4503 060d 00       		.byte	0
 4504 060e 00       		.byte	0
 4505 060f 00       		.byte	0
 4506 0610 09       		.uleb128 0x9
 4507 0611 59060000 		.4byte	.LASF135
 4508 0615 04       		.byte	0x4
 4509 0616 04       		.byte	0x4
 4510 0617 1E06     		.2byte	0x61e
 4511 0619 5E060000 		.4byte	0x65e
 4512 061d 0A       		.uleb128 0xa
 4513 061e 071D0000 		.4byte	.LASF136
 4514 0622 04       		.byte	0x4
 4515 0623 2006     		.2byte	0x620
 4516 0625 A2000000 		.4byte	0xa2
 4517 0629 04       		.byte	0x4
 4518 062a 0A       		.byte	0xa
 4519 062b 16       		.byte	0x16
 4520 062c 00       		.byte	0
 4521 062d 0A       		.uleb128 0xa
 4522 062e DF190000 		.4byte	.LASF133
 4523 0632 04       		.byte	0x4
 4524 0633 2106     		.2byte	0x621
 4525 0635 A2000000 		.4byte	0xa2
 4526 0639 04       		.byte	0x4
 4527 063a 0A       		.byte	0xa
 4528 063b 0C       		.byte	0xc
 4529 063c 00       		.byte	0
 4530 063d 0A       		.uleb128 0xa
 4531 063e 151B0000 		.4byte	.LASF134
ARM GAS  e:\temp\ccP12Hvn.s 			page 120


 4532 0642 04       		.byte	0x4
 4533 0643 2206     		.2byte	0x622
 4534 0645 A2000000 		.4byte	0xa2
 4535 0649 04       		.byte	0x4
 4536 064a 0A       		.byte	0xa
 4537 064b 02       		.byte	0x2
 4538 064c 00       		.byte	0
 4539 064d 0A       		.uleb128 0xa
 4540 064e 2D180000 		.4byte	.LASF131
 4541 0652 04       		.byte	0x4
 4542 0653 2306     		.2byte	0x623
 4543 0655 A2000000 		.4byte	0xa2
 4544 0659 04       		.byte	0x4
 4545 065a 02       		.byte	0x2
 4546 065b 00       		.byte	0
 4547 065c 00       		.byte	0
 4548 065d 00       		.byte	0
 4549 065e 09       		.uleb128 0x9
 4550 065f 9E1B0000 		.4byte	.LASF137
 4551 0663 04       		.byte	0x4
 4552 0664 04       		.byte	0x4
 4553 0665 2606     		.2byte	0x626
 4554 0667 AC060000 		.4byte	0x6ac
 4555 066b 0A       		.uleb128 0xa
 4556 066c A61B0000 		.4byte	.LASF138
 4557 0670 04       		.byte	0x4
 4558 0671 2806     		.2byte	0x628
 4559 0673 A2000000 		.4byte	0xa2
 4560 0677 04       		.byte	0x4
 4561 0678 0A       		.byte	0xa
 4562 0679 16       		.byte	0x16
 4563 067a 00       		.byte	0
 4564 067b 0A       		.uleb128 0xa
 4565 067c DF190000 		.4byte	.LASF133
 4566 0680 04       		.byte	0x4
 4567 0681 2906     		.2byte	0x629
 4568 0683 A2000000 		.4byte	0xa2
 4569 0687 04       		.byte	0x4
 4570 0688 0A       		.byte	0xa
 4571 0689 0C       		.byte	0xc
 4572 068a 00       		.byte	0
 4573 068b 0A       		.uleb128 0xa
 4574 068c 151B0000 		.4byte	.LASF134
 4575 0690 04       		.byte	0x4
 4576 0691 2A06     		.2byte	0x62a
 4577 0693 A2000000 		.4byte	0xa2
 4578 0697 04       		.byte	0x4
 4579 0698 0A       		.byte	0xa
 4580 0699 02       		.byte	0x2
 4581 069a 00       		.byte	0
 4582 069b 0A       		.uleb128 0xa
 4583 069c 2D180000 		.4byte	.LASF131
 4584 06a0 04       		.byte	0x4
 4585 06a1 2B06     		.2byte	0x62b
 4586 06a3 A2000000 		.4byte	0xa2
 4587 06a7 04       		.byte	0x4
 4588 06a8 02       		.byte	0x2
ARM GAS  e:\temp\ccP12Hvn.s 			page 121


 4589 06a9 00       		.byte	0
 4590 06aa 00       		.byte	0
 4591 06ab 00       		.byte	0
 4592 06ac 09       		.uleb128 0x9
 4593 06ad 90180000 		.4byte	.LASF139
 4594 06b1 04       		.byte	0x4
 4595 06b2 04       		.byte	0x4
 4596 06b3 2E06     		.2byte	0x62e
 4597 06b5 5A070000 		.4byte	0x75a
 4598 06b9 0A       		.uleb128 0xa
 4599 06ba 7B1A0000 		.4byte	.LASF140
 4600 06be 04       		.byte	0x4
 4601 06bf 3006     		.2byte	0x630
 4602 06c1 A2000000 		.4byte	0xa2
 4603 06c5 04       		.byte	0x4
 4604 06c6 0A       		.byte	0xa
 4605 06c7 16       		.byte	0x16
 4606 06c8 00       		.byte	0
 4607 06c9 0A       		.uleb128 0xa
 4608 06ca EB190000 		.4byte	.LASF122
 4609 06ce 04       		.byte	0x4
 4610 06cf 3106     		.2byte	0x631
 4611 06d1 A2000000 		.4byte	0xa2
 4612 06d5 04       		.byte	0x4
 4613 06d6 0A       		.byte	0xa
 4614 06d7 0C       		.byte	0xc
 4615 06d8 00       		.byte	0
 4616 06d9 0A       		.uleb128 0xa
 4617 06da 140E0000 		.4byte	.LASF141
 4618 06de 04       		.byte	0x4
 4619 06df 3206     		.2byte	0x632
 4620 06e1 A2000000 		.4byte	0xa2
 4621 06e5 04       		.byte	0x4
 4622 06e6 03       		.byte	0x3
 4623 06e7 09       		.byte	0x9
 4624 06e8 00       		.byte	0
 4625 06e9 0A       		.uleb128 0xa
 4626 06ea 88180000 		.4byte	.LASF142
 4627 06ee 04       		.byte	0x4
 4628 06ef 3306     		.2byte	0x633
 4629 06f1 A2000000 		.4byte	0xa2
 4630 06f5 04       		.byte	0x4
 4631 06f6 02       		.byte	0x2
 4632 06f7 07       		.byte	0x7
 4633 06f8 00       		.byte	0
 4634 06f9 0A       		.uleb128 0xa
 4635 06fa 150D0000 		.4byte	.LASF126
 4636 06fe 04       		.byte	0x4
 4637 06ff 3406     		.2byte	0x634
 4638 0701 A2000000 		.4byte	0xa2
 4639 0705 04       		.byte	0x4
 4640 0706 01       		.byte	0x1
 4641 0707 06       		.byte	0x6
 4642 0708 00       		.byte	0
 4643 0709 0A       		.uleb128 0xa
 4644 070a 00040000 		.4byte	.LASF127
 4645 070e 04       		.byte	0x4
ARM GAS  e:\temp\ccP12Hvn.s 			page 122


 4646 070f 3506     		.2byte	0x635
 4647 0711 A2000000 		.4byte	0xa2
 4648 0715 04       		.byte	0x4
 4649 0716 01       		.byte	0x1
 4650 0717 05       		.byte	0x5
 4651 0718 00       		.byte	0
 4652 0719 0A       		.uleb128 0xa
 4653 071a 0B190000 		.4byte	.LASF128
 4654 071e 04       		.byte	0x4
 4655 071f 3606     		.2byte	0x636
 4656 0721 A2000000 		.4byte	0xa2
 4657 0725 04       		.byte	0x4
 4658 0726 01       		.byte	0x1
 4659 0727 04       		.byte	0x4
 4660 0728 00       		.byte	0
 4661 0729 0A       		.uleb128 0xa
 4662 072a B41B0000 		.4byte	.LASF143
 4663 072e 04       		.byte	0x4
 4664 072f 3706     		.2byte	0x637
 4665 0731 A2000000 		.4byte	0xa2
 4666 0735 04       		.byte	0x4
 4667 0736 01       		.byte	0x1
 4668 0737 03       		.byte	0x3
 4669 0738 00       		.byte	0
 4670 0739 0A       		.uleb128 0xa
 4671 073a E9080000 		.4byte	.LASF130
 4672 073e 04       		.byte	0x4
 4673 073f 3806     		.2byte	0x638
 4674 0741 A2000000 		.4byte	0xa2
 4675 0745 04       		.byte	0x4
 4676 0746 01       		.byte	0x1
 4677 0747 02       		.byte	0x2
 4678 0748 00       		.byte	0
 4679 0749 0A       		.uleb128 0xa
 4680 074a 2D180000 		.4byte	.LASF131
 4681 074e 04       		.byte	0x4
 4682 074f 3906     		.2byte	0x639
 4683 0751 A2000000 		.4byte	0xa2
 4684 0755 04       		.byte	0x4
 4685 0756 02       		.byte	0x2
 4686 0757 00       		.byte	0
 4687 0758 00       		.byte	0
 4688 0759 00       		.byte	0
 4689 075a 09       		.uleb128 0x9
 4690 075b 24130000 		.4byte	.LASF144
 4691 075f 04       		.byte	0x4
 4692 0760 04       		.byte	0x4
 4693 0761 3C06     		.2byte	0x63c
 4694 0763 A8070000 		.4byte	0x7a8
 4695 0767 0A       		.uleb128 0xa
 4696 0768 7B1A0000 		.4byte	.LASF140
 4697 076c 04       		.byte	0x4
 4698 076d 3E06     		.2byte	0x63e
 4699 076f A2000000 		.4byte	0xa2
 4700 0773 04       		.byte	0x4
 4701 0774 0A       		.byte	0xa
 4702 0775 16       		.byte	0x16
ARM GAS  e:\temp\ccP12Hvn.s 			page 123


 4703 0776 00       		.byte	0
 4704 0777 0A       		.uleb128 0xa
 4705 0778 DF190000 		.4byte	.LASF133
 4706 077c 04       		.byte	0x4
 4707 077d 3F06     		.2byte	0x63f
 4708 077f A2000000 		.4byte	0xa2
 4709 0783 04       		.byte	0x4
 4710 0784 0A       		.byte	0xa
 4711 0785 0C       		.byte	0xc
 4712 0786 00       		.byte	0
 4713 0787 0A       		.uleb128 0xa
 4714 0788 151B0000 		.4byte	.LASF134
 4715 078c 04       		.byte	0x4
 4716 078d 4006     		.2byte	0x640
 4717 078f A2000000 		.4byte	0xa2
 4718 0793 04       		.byte	0x4
 4719 0794 0A       		.byte	0xa
 4720 0795 02       		.byte	0x2
 4721 0796 00       		.byte	0
 4722 0797 0A       		.uleb128 0xa
 4723 0798 2D180000 		.4byte	.LASF131
 4724 079c 04       		.byte	0x4
 4725 079d 4106     		.2byte	0x641
 4726 079f A2000000 		.4byte	0xa2
 4727 07a3 04       		.byte	0x4
 4728 07a4 02       		.byte	0x2
 4729 07a5 00       		.byte	0
 4730 07a6 00       		.byte	0
 4731 07a7 00       		.byte	0
 4732 07a8 09       		.uleb128 0x9
 4733 07a9 F8030000 		.4byte	.LASF145
 4734 07ad 04       		.byte	0x4
 4735 07ae 04       		.byte	0x4
 4736 07af 4406     		.2byte	0x644
 4737 07b1 F6070000 		.4byte	0x7f6
 4738 07b5 0A       		.uleb128 0xa
 4739 07b6 170F0000 		.4byte	.LASF146
 4740 07ba 04       		.byte	0x4
 4741 07bb 4606     		.2byte	0x646
 4742 07bd A2000000 		.4byte	0xa2
 4743 07c1 04       		.byte	0x4
 4744 07c2 0A       		.byte	0xa
 4745 07c3 16       		.byte	0x16
 4746 07c4 00       		.byte	0
 4747 07c5 0A       		.uleb128 0xa
 4748 07c6 DF190000 		.4byte	.LASF133
 4749 07ca 04       		.byte	0x4
 4750 07cb 4706     		.2byte	0x647
 4751 07cd A2000000 		.4byte	0xa2
 4752 07d1 04       		.byte	0x4
 4753 07d2 0A       		.byte	0xa
 4754 07d3 0C       		.byte	0xc
 4755 07d4 00       		.byte	0
 4756 07d5 0A       		.uleb128 0xa
 4757 07d6 151B0000 		.4byte	.LASF134
 4758 07da 04       		.byte	0x4
 4759 07db 4806     		.2byte	0x648
ARM GAS  e:\temp\ccP12Hvn.s 			page 124


 4760 07dd A2000000 		.4byte	0xa2
 4761 07e1 04       		.byte	0x4
 4762 07e2 0A       		.byte	0xa
 4763 07e3 02       		.byte	0x2
 4764 07e4 00       		.byte	0
 4765 07e5 0A       		.uleb128 0xa
 4766 07e6 2D180000 		.4byte	.LASF131
 4767 07ea 04       		.byte	0x4
 4768 07eb 4906     		.2byte	0x649
 4769 07ed A2000000 		.4byte	0xa2
 4770 07f1 04       		.byte	0x4
 4771 07f2 02       		.byte	0x2
 4772 07f3 00       		.byte	0
 4773 07f4 00       		.byte	0
 4774 07f5 00       		.byte	0
 4775 07f6 09       		.uleb128 0x9
 4776 07f7 46110000 		.4byte	.LASF147
 4777 07fb 04       		.byte	0x4
 4778 07fc 04       		.byte	0x4
 4779 07fd 4C06     		.2byte	0x64c
 4780 07ff A4080000 		.4byte	0x8a4
 4781 0803 0A       		.uleb128 0xa
 4782 0804 900A0000 		.4byte	.LASF148
 4783 0808 04       		.byte	0x4
 4784 0809 4E06     		.2byte	0x64e
 4785 080b A2000000 		.4byte	0xa2
 4786 080f 04       		.byte	0x4
 4787 0810 0A       		.byte	0xa
 4788 0811 16       		.byte	0x16
 4789 0812 00       		.byte	0
 4790 0813 0A       		.uleb128 0xa
 4791 0814 7B1A0000 		.4byte	.LASF140
 4792 0818 04       		.byte	0x4
 4793 0819 4F06     		.2byte	0x64f
 4794 081b A2000000 		.4byte	0xa2
 4795 081f 04       		.byte	0x4
 4796 0820 0A       		.byte	0xa
 4797 0821 0C       		.byte	0xc
 4798 0822 00       		.byte	0
 4799 0823 0A       		.uleb128 0xa
 4800 0824 F50A0000 		.4byte	.LASF149
 4801 0828 04       		.byte	0x4
 4802 0829 5006     		.2byte	0x650
 4803 082b A2000000 		.4byte	0xa2
 4804 082f 04       		.byte	0x4
 4805 0830 03       		.byte	0x3
 4806 0831 09       		.byte	0x9
 4807 0832 00       		.byte	0
 4808 0833 0A       		.uleb128 0xa
 4809 0834 44040000 		.4byte	.LASF125
 4810 0838 04       		.byte	0x4
 4811 0839 5106     		.2byte	0x651
 4812 083b A2000000 		.4byte	0xa2
 4813 083f 04       		.byte	0x4
 4814 0840 01       		.byte	0x1
 4815 0841 08       		.byte	0x8
 4816 0842 00       		.byte	0
ARM GAS  e:\temp\ccP12Hvn.s 			page 125


 4817 0843 0A       		.uleb128 0xa
 4818 0844 4E190000 		.4byte	.LASF150
 4819 0848 04       		.byte	0x4
 4820 0849 5206     		.2byte	0x652
 4821 084b A2000000 		.4byte	0xa2
 4822 084f 04       		.byte	0x4
 4823 0850 01       		.byte	0x1
 4824 0851 07       		.byte	0x7
 4825 0852 00       		.byte	0
 4826 0853 0A       		.uleb128 0xa
 4827 0854 00040000 		.4byte	.LASF127
 4828 0858 04       		.byte	0x4
 4829 0859 5306     		.2byte	0x653
 4830 085b A2000000 		.4byte	0xa2
 4831 085f 04       		.byte	0x4
 4832 0860 01       		.byte	0x1
 4833 0861 06       		.byte	0x6
 4834 0862 00       		.byte	0
 4835 0863 0A       		.uleb128 0xa
 4836 0864 BE170000 		.4byte	.LASF151
 4837 0868 04       		.byte	0x4
 4838 0869 5406     		.2byte	0x654
 4839 086b A2000000 		.4byte	0xa2
 4840 086f 04       		.byte	0x4
 4841 0870 01       		.byte	0x1
 4842 0871 05       		.byte	0x5
 4843 0872 00       		.byte	0
 4844 0873 0A       		.uleb128 0xa
 4845 0874 1B040000 		.4byte	.LASF152
 4846 0878 04       		.byte	0x4
 4847 0879 5506     		.2byte	0x655
 4848 087b A2000000 		.4byte	0xa2
 4849 087f 04       		.byte	0x4
 4850 0880 01       		.byte	0x1
 4851 0881 04       		.byte	0x4
 4852 0882 00       		.byte	0
 4853 0883 0A       		.uleb128 0xa
 4854 0884 3E120000 		.4byte	.LASF153
 4855 0888 04       		.byte	0x4
 4856 0889 5606     		.2byte	0x656
 4857 088b A2000000 		.4byte	0xa2
 4858 088f 04       		.byte	0x4
 4859 0890 03       		.byte	0x3
 4860 0891 01       		.byte	0x1
 4861 0892 00       		.byte	0
 4862 0893 0A       		.uleb128 0xa
 4863 0894 FC0A0000 		.4byte	.LASF154
 4864 0898 04       		.byte	0x4
 4865 0899 5706     		.2byte	0x657
 4866 089b A2000000 		.4byte	0xa2
 4867 089f 04       		.byte	0x4
 4868 08a0 01       		.byte	0x1
 4869 08a1 00       		.byte	0
 4870 08a2 00       		.byte	0
 4871 08a3 00       		.byte	0
 4872 08a4 09       		.uleb128 0x9
 4873 08a5 0B100000 		.4byte	.LASF155
ARM GAS  e:\temp\ccP12Hvn.s 			page 126


 4874 08a9 04       		.byte	0x4
 4875 08aa 04       		.byte	0x4
 4876 08ab 5A06     		.2byte	0x65a
 4877 08ad 52090000 		.4byte	0x952
 4878 08b1 0A       		.uleb128 0xa
 4879 08b2 41020000 		.4byte	.LASF156
 4880 08b6 04       		.byte	0x4
 4881 08b7 5C06     		.2byte	0x65c
 4882 08b9 A2000000 		.4byte	0xa2
 4883 08bd 04       		.byte	0x4
 4884 08be 0A       		.byte	0xa
 4885 08bf 16       		.byte	0x16
 4886 08c0 00       		.byte	0
 4887 08c1 0A       		.uleb128 0xa
 4888 08c2 7B1A0000 		.4byte	.LASF140
 4889 08c6 04       		.byte	0x4
 4890 08c7 5D06     		.2byte	0x65d
 4891 08c9 A2000000 		.4byte	0xa2
 4892 08cd 04       		.byte	0x4
 4893 08ce 0A       		.byte	0xa
 4894 08cf 0C       		.byte	0xc
 4895 08d0 00       		.byte	0
 4896 08d1 0A       		.uleb128 0xa
 4897 08d2 F50A0000 		.4byte	.LASF149
 4898 08d6 04       		.byte	0x4
 4899 08d7 5E06     		.2byte	0x65e
 4900 08d9 A2000000 		.4byte	0xa2
 4901 08dd 04       		.byte	0x4
 4902 08de 03       		.byte	0x3
 4903 08df 09       		.byte	0x9
 4904 08e0 00       		.byte	0
 4905 08e1 0A       		.uleb128 0xa
 4906 08e2 44040000 		.4byte	.LASF125
 4907 08e6 04       		.byte	0x4
 4908 08e7 5F06     		.2byte	0x65f
 4909 08e9 A2000000 		.4byte	0xa2
 4910 08ed 04       		.byte	0x4
 4911 08ee 01       		.byte	0x1
 4912 08ef 08       		.byte	0x8
 4913 08f0 00       		.byte	0
 4914 08f1 0A       		.uleb128 0xa
 4915 08f2 4E190000 		.4byte	.LASF150
 4916 08f6 04       		.byte	0x4
 4917 08f7 6006     		.2byte	0x660
 4918 08f9 A2000000 		.4byte	0xa2
 4919 08fd 04       		.byte	0x4
 4920 08fe 01       		.byte	0x1
 4921 08ff 07       		.byte	0x7
 4922 0900 00       		.byte	0
 4923 0901 0A       		.uleb128 0xa
 4924 0902 00040000 		.4byte	.LASF127
 4925 0906 04       		.byte	0x4
 4926 0907 6106     		.2byte	0x661
 4927 0909 A2000000 		.4byte	0xa2
 4928 090d 04       		.byte	0x4
 4929 090e 01       		.byte	0x1
 4930 090f 06       		.byte	0x6
ARM GAS  e:\temp\ccP12Hvn.s 			page 127


 4931 0910 00       		.byte	0
 4932 0911 0A       		.uleb128 0xa
 4933 0912 BE170000 		.4byte	.LASF151
 4934 0916 04       		.byte	0x4
 4935 0917 6206     		.2byte	0x662
 4936 0919 A2000000 		.4byte	0xa2
 4937 091d 04       		.byte	0x4
 4938 091e 01       		.byte	0x1
 4939 091f 05       		.byte	0x5
 4940 0920 00       		.byte	0
 4941 0921 0A       		.uleb128 0xa
 4942 0922 1B040000 		.4byte	.LASF152
 4943 0926 04       		.byte	0x4
 4944 0927 6306     		.2byte	0x663
 4945 0929 A2000000 		.4byte	0xa2
 4946 092d 04       		.byte	0x4
 4947 092e 01       		.byte	0x1
 4948 092f 04       		.byte	0x4
 4949 0930 00       		.byte	0
 4950 0931 0A       		.uleb128 0xa
 4951 0932 3E120000 		.4byte	.LASF153
 4952 0936 04       		.byte	0x4
 4953 0937 6406     		.2byte	0x664
 4954 0939 A2000000 		.4byte	0xa2
 4955 093d 04       		.byte	0x4
 4956 093e 03       		.byte	0x3
 4957 093f 01       		.byte	0x1
 4958 0940 00       		.byte	0
 4959 0941 0A       		.uleb128 0xa
 4960 0942 FC0A0000 		.4byte	.LASF154
 4961 0946 04       		.byte	0x4
 4962 0947 6506     		.2byte	0x665
 4963 0949 A2000000 		.4byte	0xa2
 4964 094d 04       		.byte	0x4
 4965 094e 01       		.byte	0x1
 4966 094f 00       		.byte	0
 4967 0950 00       		.byte	0
 4968 0951 00       		.byte	0
 4969 0952 09       		.uleb128 0x9
 4970 0953 DE1B0000 		.4byte	.LASF157
 4971 0957 04       		.byte	0x4
 4972 0958 04       		.byte	0x4
 4973 0959 6806     		.2byte	0x668
 4974 095b 000A0000 		.4byte	0xa00
 4975 095f 0A       		.uleb128 0xa
 4976 0960 BC0A0000 		.4byte	.LASF158
 4977 0964 04       		.byte	0x4
 4978 0965 6A06     		.2byte	0x66a
 4979 0967 A2000000 		.4byte	0xa2
 4980 096b 04       		.byte	0x4
 4981 096c 0A       		.byte	0xa
 4982 096d 16       		.byte	0x16
 4983 096e 00       		.byte	0
 4984 096f 0A       		.uleb128 0xa
 4985 0970 170F0000 		.4byte	.LASF146
 4986 0974 04       		.byte	0x4
 4987 0975 6B06     		.2byte	0x66b
ARM GAS  e:\temp\ccP12Hvn.s 			page 128


 4988 0977 A2000000 		.4byte	0xa2
 4989 097b 04       		.byte	0x4
 4990 097c 0A       		.byte	0xa
 4991 097d 0C       		.byte	0xc
 4992 097e 00       		.byte	0
 4993 097f 0A       		.uleb128 0xa
 4994 0980 F50A0000 		.4byte	.LASF149
 4995 0984 04       		.byte	0x4
 4996 0985 6C06     		.2byte	0x66c
 4997 0987 A2000000 		.4byte	0xa2
 4998 098b 04       		.byte	0x4
 4999 098c 03       		.byte	0x3
 5000 098d 09       		.byte	0x9
 5001 098e 00       		.byte	0
 5002 098f 0A       		.uleb128 0xa
 5003 0990 44040000 		.4byte	.LASF125
 5004 0994 04       		.byte	0x4
 5005 0995 6D06     		.2byte	0x66d
 5006 0997 A2000000 		.4byte	0xa2
 5007 099b 04       		.byte	0x4
 5008 099c 01       		.byte	0x1
 5009 099d 08       		.byte	0x8
 5010 099e 00       		.byte	0
 5011 099f 0A       		.uleb128 0xa
 5012 09a0 4E190000 		.4byte	.LASF150
 5013 09a4 04       		.byte	0x4
 5014 09a5 6E06     		.2byte	0x66e
 5015 09a7 A2000000 		.4byte	0xa2
 5016 09ab 04       		.byte	0x4
 5017 09ac 01       		.byte	0x1
 5018 09ad 07       		.byte	0x7
 5019 09ae 00       		.byte	0
 5020 09af 0A       		.uleb128 0xa
 5021 09b0 00040000 		.4byte	.LASF127
 5022 09b4 04       		.byte	0x4
 5023 09b5 6F06     		.2byte	0x66f
 5024 09b7 A2000000 		.4byte	0xa2
 5025 09bb 04       		.byte	0x4
 5026 09bc 01       		.byte	0x1
 5027 09bd 06       		.byte	0x6
 5028 09be 00       		.byte	0
 5029 09bf 0A       		.uleb128 0xa
 5030 09c0 BE170000 		.4byte	.LASF151
 5031 09c4 04       		.byte	0x4
 5032 09c5 7006     		.2byte	0x670
 5033 09c7 A2000000 		.4byte	0xa2
 5034 09cb 04       		.byte	0x4
 5035 09cc 01       		.byte	0x1
 5036 09cd 05       		.byte	0x5
 5037 09ce 00       		.byte	0
 5038 09cf 0A       		.uleb128 0xa
 5039 09d0 1B040000 		.4byte	.LASF152
 5040 09d4 04       		.byte	0x4
 5041 09d5 7106     		.2byte	0x671
 5042 09d7 A2000000 		.4byte	0xa2
 5043 09db 04       		.byte	0x4
 5044 09dc 01       		.byte	0x1
ARM GAS  e:\temp\ccP12Hvn.s 			page 129


 5045 09dd 04       		.byte	0x4
 5046 09de 00       		.byte	0
 5047 09df 0A       		.uleb128 0xa
 5048 09e0 3E120000 		.4byte	.LASF153
 5049 09e4 04       		.byte	0x4
 5050 09e5 7206     		.2byte	0x672
 5051 09e7 A2000000 		.4byte	0xa2
 5052 09eb 04       		.byte	0x4
 5053 09ec 03       		.byte	0x3
 5054 09ed 01       		.byte	0x1
 5055 09ee 00       		.byte	0
 5056 09ef 0A       		.uleb128 0xa
 5057 09f0 FC0A0000 		.4byte	.LASF154
 5058 09f4 04       		.byte	0x4
 5059 09f5 7306     		.2byte	0x673
 5060 09f7 A2000000 		.4byte	0xa2
 5061 09fb 04       		.byte	0x4
 5062 09fc 01       		.byte	0x1
 5063 09fd 00       		.byte	0
 5064 09fe 00       		.byte	0
 5065 09ff 00       		.byte	0
 5066 0a00 09       		.uleb128 0x9
 5067 0a01 2F080000 		.4byte	.LASF159
 5068 0a05 04       		.byte	0x4
 5069 0a06 04       		.byte	0x4
 5070 0a07 7606     		.2byte	0x676
 5071 0a09 AE0A0000 		.4byte	0xaae
 5072 0a0d 0A       		.uleb128 0xa
 5073 0a0e AC0B0000 		.4byte	.LASF160
 5074 0a12 04       		.byte	0x4
 5075 0a13 7806     		.2byte	0x678
 5076 0a15 A2000000 		.4byte	0xa2
 5077 0a19 04       		.byte	0x4
 5078 0a1a 0A       		.byte	0xa
 5079 0a1b 16       		.byte	0x16
 5080 0a1c 00       		.byte	0
 5081 0a1d 0A       		.uleb128 0xa
 5082 0a1e 170F0000 		.4byte	.LASF146
 5083 0a22 04       		.byte	0x4
 5084 0a23 7906     		.2byte	0x679
 5085 0a25 A2000000 		.4byte	0xa2
 5086 0a29 04       		.byte	0x4
 5087 0a2a 0A       		.byte	0xa
 5088 0a2b 0C       		.byte	0xc
 5089 0a2c 00       		.byte	0
 5090 0a2d 0A       		.uleb128 0xa
 5091 0a2e F50A0000 		.4byte	.LASF149
 5092 0a32 04       		.byte	0x4
 5093 0a33 7A06     		.2byte	0x67a
 5094 0a35 A2000000 		.4byte	0xa2
 5095 0a39 04       		.byte	0x4
 5096 0a3a 03       		.byte	0x3
 5097 0a3b 09       		.byte	0x9
 5098 0a3c 00       		.byte	0
 5099 0a3d 0A       		.uleb128 0xa
 5100 0a3e 44040000 		.4byte	.LASF125
 5101 0a42 04       		.byte	0x4
ARM GAS  e:\temp\ccP12Hvn.s 			page 130


 5102 0a43 7B06     		.2byte	0x67b
 5103 0a45 A2000000 		.4byte	0xa2
 5104 0a49 04       		.byte	0x4
 5105 0a4a 01       		.byte	0x1
 5106 0a4b 08       		.byte	0x8
 5107 0a4c 00       		.byte	0
 5108 0a4d 0A       		.uleb128 0xa
 5109 0a4e 4E190000 		.4byte	.LASF150
 5110 0a52 04       		.byte	0x4
 5111 0a53 7C06     		.2byte	0x67c
 5112 0a55 A2000000 		.4byte	0xa2
 5113 0a59 04       		.byte	0x4
 5114 0a5a 01       		.byte	0x1
 5115 0a5b 07       		.byte	0x7
 5116 0a5c 00       		.byte	0
 5117 0a5d 0A       		.uleb128 0xa
 5118 0a5e 00040000 		.4byte	.LASF127
 5119 0a62 04       		.byte	0x4
 5120 0a63 7D06     		.2byte	0x67d
 5121 0a65 A2000000 		.4byte	0xa2
 5122 0a69 04       		.byte	0x4
 5123 0a6a 01       		.byte	0x1
 5124 0a6b 06       		.byte	0x6
 5125 0a6c 00       		.byte	0
 5126 0a6d 0A       		.uleb128 0xa
 5127 0a6e BE170000 		.4byte	.LASF151
 5128 0a72 04       		.byte	0x4
 5129 0a73 7E06     		.2byte	0x67e
 5130 0a75 A2000000 		.4byte	0xa2
 5131 0a79 04       		.byte	0x4
 5132 0a7a 01       		.byte	0x1
 5133 0a7b 05       		.byte	0x5
 5134 0a7c 00       		.byte	0
 5135 0a7d 0A       		.uleb128 0xa
 5136 0a7e 1B040000 		.4byte	.LASF152
 5137 0a82 04       		.byte	0x4
 5138 0a83 7F06     		.2byte	0x67f
 5139 0a85 A2000000 		.4byte	0xa2
 5140 0a89 04       		.byte	0x4
 5141 0a8a 01       		.byte	0x1
 5142 0a8b 04       		.byte	0x4
 5143 0a8c 00       		.byte	0
 5144 0a8d 0A       		.uleb128 0xa
 5145 0a8e 3E120000 		.4byte	.LASF153
 5146 0a92 04       		.byte	0x4
 5147 0a93 8006     		.2byte	0x680
 5148 0a95 A2000000 		.4byte	0xa2
 5149 0a99 04       		.byte	0x4
 5150 0a9a 03       		.byte	0x3
 5151 0a9b 01       		.byte	0x1
 5152 0a9c 00       		.byte	0
 5153 0a9d 0A       		.uleb128 0xa
 5154 0a9e FC0A0000 		.4byte	.LASF154
 5155 0aa2 04       		.byte	0x4
 5156 0aa3 8106     		.2byte	0x681
 5157 0aa5 A2000000 		.4byte	0xa2
 5158 0aa9 04       		.byte	0x4
ARM GAS  e:\temp\ccP12Hvn.s 			page 131


 5159 0aaa 01       		.byte	0x1
 5160 0aab 00       		.byte	0
 5161 0aac 00       		.byte	0
 5162 0aad 00       		.byte	0
 5163 0aae 09       		.uleb128 0x9
 5164 0aaf 340F0000 		.4byte	.LASF161
 5165 0ab3 04       		.byte	0x4
 5166 0ab4 04       		.byte	0x4
 5167 0ab5 8406     		.2byte	0x684
 5168 0ab7 5C0B0000 		.4byte	0xb5c
 5169 0abb 0A       		.uleb128 0xa
 5170 0abc D8090000 		.4byte	.LASF162
 5171 0ac0 04       		.byte	0x4
 5172 0ac1 8606     		.2byte	0x686
 5173 0ac3 A2000000 		.4byte	0xa2
 5174 0ac7 04       		.byte	0x4
 5175 0ac8 0A       		.byte	0xa
 5176 0ac9 16       		.byte	0x16
 5177 0aca 00       		.byte	0
 5178 0acb 0A       		.uleb128 0xa
 5179 0acc 88060000 		.4byte	.LASF163
 5180 0ad0 04       		.byte	0x4
 5181 0ad1 8706     		.2byte	0x687
 5182 0ad3 A2000000 		.4byte	0xa2
 5183 0ad7 04       		.byte	0x4
 5184 0ad8 0A       		.byte	0xa
 5185 0ad9 0C       		.byte	0xc
 5186 0ada 00       		.byte	0
 5187 0adb 0A       		.uleb128 0xa
 5188 0adc F50A0000 		.4byte	.LASF149
 5189 0ae0 04       		.byte	0x4
 5190 0ae1 8806     		.2byte	0x688
 5191 0ae3 A2000000 		.4byte	0xa2
 5192 0ae7 04       		.byte	0x4
 5193 0ae8 03       		.byte	0x3
 5194 0ae9 09       		.byte	0x9
 5195 0aea 00       		.byte	0
 5196 0aeb 0A       		.uleb128 0xa
 5197 0aec 44040000 		.4byte	.LASF125
 5198 0af0 04       		.byte	0x4
 5199 0af1 8906     		.2byte	0x689
 5200 0af3 A2000000 		.4byte	0xa2
 5201 0af7 04       		.byte	0x4
 5202 0af8 01       		.byte	0x1
 5203 0af9 08       		.byte	0x8
 5204 0afa 00       		.byte	0
 5205 0afb 0A       		.uleb128 0xa
 5206 0afc 4E190000 		.4byte	.LASF150
 5207 0b00 04       		.byte	0x4
 5208 0b01 8A06     		.2byte	0x68a
 5209 0b03 A2000000 		.4byte	0xa2
 5210 0b07 04       		.byte	0x4
 5211 0b08 01       		.byte	0x1
 5212 0b09 07       		.byte	0x7
 5213 0b0a 00       		.byte	0
 5214 0b0b 0A       		.uleb128 0xa
 5215 0b0c 00040000 		.4byte	.LASF127
ARM GAS  e:\temp\ccP12Hvn.s 			page 132


 5216 0b10 04       		.byte	0x4
 5217 0b11 8B06     		.2byte	0x68b
 5218 0b13 A2000000 		.4byte	0xa2
 5219 0b17 04       		.byte	0x4
 5220 0b18 01       		.byte	0x1
 5221 0b19 06       		.byte	0x6
 5222 0b1a 00       		.byte	0
 5223 0b1b 0A       		.uleb128 0xa
 5224 0b1c BE170000 		.4byte	.LASF151
 5225 0b20 04       		.byte	0x4
 5226 0b21 8C06     		.2byte	0x68c
 5227 0b23 A2000000 		.4byte	0xa2
 5228 0b27 04       		.byte	0x4
 5229 0b28 01       		.byte	0x1
 5230 0b29 05       		.byte	0x5
 5231 0b2a 00       		.byte	0
 5232 0b2b 0A       		.uleb128 0xa
 5233 0b2c 1B040000 		.4byte	.LASF152
 5234 0b30 04       		.byte	0x4
 5235 0b31 8D06     		.2byte	0x68d
 5236 0b33 A2000000 		.4byte	0xa2
 5237 0b37 04       		.byte	0x4
 5238 0b38 01       		.byte	0x1
 5239 0b39 04       		.byte	0x4
 5240 0b3a 00       		.byte	0
 5241 0b3b 0A       		.uleb128 0xa
 5242 0b3c 3E120000 		.4byte	.LASF153
 5243 0b40 04       		.byte	0x4
 5244 0b41 8E06     		.2byte	0x68e
 5245 0b43 A2000000 		.4byte	0xa2
 5246 0b47 04       		.byte	0x4
 5247 0b48 03       		.byte	0x3
 5248 0b49 01       		.byte	0x1
 5249 0b4a 00       		.byte	0
 5250 0b4b 0A       		.uleb128 0xa
 5251 0b4c FC0A0000 		.4byte	.LASF154
 5252 0b50 04       		.byte	0x4
 5253 0b51 8F06     		.2byte	0x68f
 5254 0b53 A2000000 		.4byte	0xa2
 5255 0b57 04       		.byte	0x4
 5256 0b58 01       		.byte	0x1
 5257 0b59 00       		.byte	0
 5258 0b5a 00       		.byte	0
 5259 0b5b 00       		.byte	0
 5260 0b5c 09       		.uleb128 0x9
 5261 0b5d 0A0A0000 		.4byte	.LASF164
 5262 0b61 04       		.byte	0x4
 5263 0b62 04       		.byte	0x4
 5264 0b63 9206     		.2byte	0x692
 5265 0b65 0A0C0000 		.4byte	0xc0a
 5266 0b69 0A       		.uleb128 0xa
 5267 0b6a 200F0000 		.4byte	.LASF165
 5268 0b6e 04       		.byte	0x4
 5269 0b6f 9406     		.2byte	0x694
 5270 0b71 A2000000 		.4byte	0xa2
 5271 0b75 04       		.byte	0x4
 5272 0b76 0A       		.byte	0xa
ARM GAS  e:\temp\ccP12Hvn.s 			page 133


 5273 0b77 16       		.byte	0x16
 5274 0b78 00       		.byte	0
 5275 0b79 0A       		.uleb128 0xa
 5276 0b7a 88060000 		.4byte	.LASF163
 5277 0b7e 04       		.byte	0x4
 5278 0b7f 9506     		.2byte	0x695
 5279 0b81 A2000000 		.4byte	0xa2
 5280 0b85 04       		.byte	0x4
 5281 0b86 0A       		.byte	0xa
 5282 0b87 0C       		.byte	0xc
 5283 0b88 00       		.byte	0
 5284 0b89 0A       		.uleb128 0xa
 5285 0b8a F50A0000 		.4byte	.LASF149
 5286 0b8e 04       		.byte	0x4
 5287 0b8f 9606     		.2byte	0x696
 5288 0b91 A2000000 		.4byte	0xa2
 5289 0b95 04       		.byte	0x4
 5290 0b96 03       		.byte	0x3
 5291 0b97 09       		.byte	0x9
 5292 0b98 00       		.byte	0
 5293 0b99 0A       		.uleb128 0xa
 5294 0b9a 44040000 		.4byte	.LASF125
 5295 0b9e 04       		.byte	0x4
 5296 0b9f 9706     		.2byte	0x697
 5297 0ba1 A2000000 		.4byte	0xa2
 5298 0ba5 04       		.byte	0x4
 5299 0ba6 01       		.byte	0x1
 5300 0ba7 08       		.byte	0x8
 5301 0ba8 00       		.byte	0
 5302 0ba9 0A       		.uleb128 0xa
 5303 0baa 4E190000 		.4byte	.LASF150
 5304 0bae 04       		.byte	0x4
 5305 0baf 9806     		.2byte	0x698
 5306 0bb1 A2000000 		.4byte	0xa2
 5307 0bb5 04       		.byte	0x4
 5308 0bb6 01       		.byte	0x1
 5309 0bb7 07       		.byte	0x7
 5310 0bb8 00       		.byte	0
 5311 0bb9 0A       		.uleb128 0xa
 5312 0bba 00040000 		.4byte	.LASF127
 5313 0bbe 04       		.byte	0x4
 5314 0bbf 9906     		.2byte	0x699
 5315 0bc1 A2000000 		.4byte	0xa2
 5316 0bc5 04       		.byte	0x4
 5317 0bc6 01       		.byte	0x1
 5318 0bc7 06       		.byte	0x6
 5319 0bc8 00       		.byte	0
 5320 0bc9 0A       		.uleb128 0xa
 5321 0bca BE170000 		.4byte	.LASF151
 5322 0bce 04       		.byte	0x4
 5323 0bcf 9A06     		.2byte	0x69a
 5324 0bd1 A2000000 		.4byte	0xa2
 5325 0bd5 04       		.byte	0x4
 5326 0bd6 01       		.byte	0x1
 5327 0bd7 05       		.byte	0x5
 5328 0bd8 00       		.byte	0
 5329 0bd9 0A       		.uleb128 0xa
ARM GAS  e:\temp\ccP12Hvn.s 			page 134


 5330 0bda 1B040000 		.4byte	.LASF152
 5331 0bde 04       		.byte	0x4
 5332 0bdf 9B06     		.2byte	0x69b
 5333 0be1 A2000000 		.4byte	0xa2
 5334 0be5 04       		.byte	0x4
 5335 0be6 01       		.byte	0x1
 5336 0be7 04       		.byte	0x4
 5337 0be8 00       		.byte	0
 5338 0be9 0A       		.uleb128 0xa
 5339 0bea 3E120000 		.4byte	.LASF153
 5340 0bee 04       		.byte	0x4
 5341 0bef 9C06     		.2byte	0x69c
 5342 0bf1 A2000000 		.4byte	0xa2
 5343 0bf5 04       		.byte	0x4
 5344 0bf6 03       		.byte	0x3
 5345 0bf7 01       		.byte	0x1
 5346 0bf8 00       		.byte	0
 5347 0bf9 0A       		.uleb128 0xa
 5348 0bfa FC0A0000 		.4byte	.LASF154
 5349 0bfe 04       		.byte	0x4
 5350 0bff 9D06     		.2byte	0x69d
 5351 0c01 A2000000 		.4byte	0xa2
 5352 0c05 04       		.byte	0x4
 5353 0c06 01       		.byte	0x1
 5354 0c07 00       		.byte	0
 5355 0c08 00       		.byte	0
 5356 0c09 00       		.byte	0
 5357 0c0a 09       		.uleb128 0x9
 5358 0c0b CC090000 		.4byte	.LASF166
 5359 0c0f 04       		.byte	0x4
 5360 0c10 04       		.byte	0x4
 5361 0c11 A006     		.2byte	0x6a0
 5362 0c13 980C0000 		.4byte	0xc98
 5363 0c17 0B       		.uleb128 0xb
 5364 0c18 636D6400 		.ascii	"cmd\000"
 5365 0c1c 04       		.byte	0x4
 5366 0c1d A206     		.2byte	0x6a2
 5367 0c1f A2000000 		.4byte	0xa2
 5368 0c23 04       		.byte	0x4
 5369 0c24 05       		.byte	0x5
 5370 0c25 1B       		.byte	0x1b
 5371 0c26 00       		.byte	0
 5372 0c27 0A       		.uleb128 0xa
 5373 0c28 2F100000 		.4byte	.LASF110
 5374 0c2c 04       		.byte	0x4
 5375 0c2d A306     		.2byte	0x6a3
 5376 0c2f A2000000 		.4byte	0xa2
 5377 0c33 04       		.byte	0x4
 5378 0c34 01       		.byte	0x1
 5379 0c35 1A       		.byte	0x1a
 5380 0c36 00       		.byte	0
 5381 0c37 0A       		.uleb128 0xa
 5382 0c38 D50F0000 		.4byte	.LASF167
 5383 0c3c 04       		.byte	0x4
 5384 0c3d A406     		.2byte	0x6a4
 5385 0c3f A2000000 		.4byte	0xa2
 5386 0c43 04       		.byte	0x4
ARM GAS  e:\temp\ccP12Hvn.s 			page 135


 5387 0c44 02       		.byte	0x2
 5388 0c45 18       		.byte	0x18
 5389 0c46 00       		.byte	0
 5390 0c47 0A       		.uleb128 0xa
 5391 0c48 3E120000 		.4byte	.LASF153
 5392 0c4c 04       		.byte	0x4
 5393 0c4d A506     		.2byte	0x6a5
 5394 0c4f A2000000 		.4byte	0xa2
 5395 0c53 04       		.byte	0x4
 5396 0c54 03       		.byte	0x3
 5397 0c55 15       		.byte	0x15
 5398 0c56 00       		.byte	0
 5399 0c57 0A       		.uleb128 0xa
 5400 0c58 35100000 		.4byte	.LASF118
 5401 0c5c 04       		.byte	0x4
 5402 0c5d A606     		.2byte	0x6a6
 5403 0c5f A2000000 		.4byte	0xa2
 5404 0c63 04       		.byte	0x4
 5405 0c64 02       		.byte	0x2
 5406 0c65 13       		.byte	0x13
 5407 0c66 00       		.byte	0
 5408 0c67 0A       		.uleb128 0xa
 5409 0c68 AA0F0000 		.4byte	.LASF168
 5410 0c6c 04       		.byte	0x4
 5411 0c6d A706     		.2byte	0x6a7
 5412 0c6f A2000000 		.4byte	0xa2
 5413 0c73 04       		.byte	0x4
 5414 0c74 02       		.byte	0x2
 5415 0c75 11       		.byte	0x11
 5416 0c76 00       		.byte	0
 5417 0c77 0A       		.uleb128 0xa
 5418 0c78 B7020000 		.4byte	.LASF169
 5419 0c7c 04       		.byte	0x4
 5420 0c7d A806     		.2byte	0x6a8
 5421 0c7f A2000000 		.4byte	0xa2
 5422 0c83 04       		.byte	0x4
 5423 0c84 01       		.byte	0x1
 5424 0c85 10       		.byte	0x10
 5425 0c86 00       		.byte	0
 5426 0c87 0A       		.uleb128 0xa
 5427 0c88 240A0000 		.4byte	.LASF170
 5428 0c8c 04       		.byte	0x4
 5429 0c8d A906     		.2byte	0x6a9
 5430 0c8f A2000000 		.4byte	0xa2
 5431 0c93 04       		.byte	0x4
 5432 0c94 10       		.byte	0x10
 5433 0c95 00       		.byte	0
 5434 0c96 00       		.byte	0
 5435 0c97 00       		.byte	0
 5436 0c98 09       		.uleb128 0x9
 5437 0c99 36170000 		.4byte	.LASF171
 5438 0c9d 04       		.byte	0x4
 5439 0c9e 04       		.byte	0x4
 5440 0c9f AC06     		.2byte	0x6ac
 5441 0ca1 160D0000 		.4byte	0xd16
 5442 0ca5 0B       		.uleb128 0xb
 5443 0ca6 636D6400 		.ascii	"cmd\000"
ARM GAS  e:\temp\ccP12Hvn.s 			page 136


 5444 0caa 04       		.byte	0x4
 5445 0cab AE06     		.2byte	0x6ae
 5446 0cad A2000000 		.4byte	0xa2
 5447 0cb1 04       		.byte	0x4
 5448 0cb2 05       		.byte	0x5
 5449 0cb3 1B       		.byte	0x1b
 5450 0cb4 00       		.byte	0
 5451 0cb5 0A       		.uleb128 0xa
 5452 0cb6 E61B0000 		.4byte	.LASF172
 5453 0cba 04       		.byte	0x4
 5454 0cbb AF06     		.2byte	0x6af
 5455 0cbd A2000000 		.4byte	0xa2
 5456 0cc1 04       		.byte	0x4
 5457 0cc2 03       		.byte	0x3
 5458 0cc3 18       		.byte	0x18
 5459 0cc4 00       		.byte	0
 5460 0cc5 0A       		.uleb128 0xa
 5461 0cc6 2F100000 		.4byte	.LASF110
 5462 0cca 04       		.byte	0x4
 5463 0ccb B006     		.2byte	0x6b0
 5464 0ccd A2000000 		.4byte	0xa2
 5465 0cd1 04       		.byte	0x4
 5466 0cd2 03       		.byte	0x3
 5467 0cd3 15       		.byte	0x15
 5468 0cd4 00       		.byte	0
 5469 0cd5 0A       		.uleb128 0xa
 5470 0cd6 D50F0000 		.4byte	.LASF167
 5471 0cda 04       		.byte	0x4
 5472 0cdb B106     		.2byte	0x6b1
 5473 0cdd A2000000 		.4byte	0xa2
 5474 0ce1 04       		.byte	0x4
 5475 0ce2 02       		.byte	0x2
 5476 0ce3 13       		.byte	0x13
 5477 0ce4 00       		.byte	0
 5478 0ce5 0A       		.uleb128 0xa
 5479 0ce6 D0180000 		.4byte	.LASF173
 5480 0cea 04       		.byte	0x4
 5481 0ceb B206     		.2byte	0x6b2
 5482 0ced A2000000 		.4byte	0xa2
 5483 0cf1 04       		.byte	0x4
 5484 0cf2 02       		.byte	0x2
 5485 0cf3 11       		.byte	0x11
 5486 0cf4 00       		.byte	0
 5487 0cf5 0A       		.uleb128 0xa
 5488 0cf6 B7020000 		.4byte	.LASF169
 5489 0cfa 04       		.byte	0x4
 5490 0cfb B306     		.2byte	0x6b3
 5491 0cfd A2000000 		.4byte	0xa2
 5492 0d01 04       		.byte	0x4
 5493 0d02 01       		.byte	0x1
 5494 0d03 10       		.byte	0x10
 5495 0d04 00       		.byte	0
 5496 0d05 0A       		.uleb128 0xa
 5497 0d06 240A0000 		.4byte	.LASF170
 5498 0d0a 04       		.byte	0x4
 5499 0d0b B406     		.2byte	0x6b4
 5500 0d0d A2000000 		.4byte	0xa2
ARM GAS  e:\temp\ccP12Hvn.s 			page 137


 5501 0d11 04       		.byte	0x4
 5502 0d12 10       		.byte	0x10
 5503 0d13 00       		.byte	0
 5504 0d14 00       		.byte	0
 5505 0d15 00       		.byte	0
 5506 0d16 09       		.uleb128 0x9
 5507 0d17 8A120000 		.4byte	.LASF174
 5508 0d1b 04       		.byte	0x4
 5509 0d1c 04       		.byte	0x4
 5510 0d1d B706     		.2byte	0x6b7
 5511 0d1f 640D0000 		.4byte	0xd64
 5512 0d23 0A       		.uleb128 0xa
 5513 0d24 77140000 		.4byte	.LASF175
 5514 0d28 04       		.byte	0x4
 5515 0d29 B906     		.2byte	0x6b9
 5516 0d2b A2000000 		.4byte	0xa2
 5517 0d2f 04       		.byte	0x4
 5518 0d30 08       		.byte	0x8
 5519 0d31 18       		.byte	0x18
 5520 0d32 00       		.byte	0
 5521 0d33 0A       		.uleb128 0xa
 5522 0d34 7D140000 		.4byte	.LASF176
 5523 0d38 04       		.byte	0x4
 5524 0d39 BA06     		.2byte	0x6ba
 5525 0d3b A2000000 		.4byte	0xa2
 5526 0d3f 04       		.byte	0x4
 5527 0d40 07       		.byte	0x7
 5528 0d41 11       		.byte	0x11
 5529 0d42 00       		.byte	0
 5530 0d43 0A       		.uleb128 0xa
 5531 0d44 B7020000 		.4byte	.LASF169
 5532 0d48 04       		.byte	0x4
 5533 0d49 BB06     		.2byte	0x6bb
 5534 0d4b A2000000 		.4byte	0xa2
 5535 0d4f 04       		.byte	0x4
 5536 0d50 01       		.byte	0x1
 5537 0d51 10       		.byte	0x10
 5538 0d52 00       		.byte	0
 5539 0d53 0A       		.uleb128 0xa
 5540 0d54 240A0000 		.4byte	.LASF170
 5541 0d58 04       		.byte	0x4
 5542 0d59 BC06     		.2byte	0x6bc
 5543 0d5b A2000000 		.4byte	0xa2
 5544 0d5f 04       		.byte	0x4
 5545 0d60 10       		.byte	0x10
 5546 0d61 00       		.byte	0
 5547 0d62 00       		.byte	0
 5548 0d63 00       		.byte	0
 5549 0d64 09       		.uleb128 0x9
 5550 0d65 77100000 		.4byte	.LASF177
 5551 0d69 04       		.byte	0x4
 5552 0d6a 04       		.byte	0x4
 5553 0d6b BF06     		.2byte	0x6bf
 5554 0d6d B20D0000 		.4byte	0xdb2
 5555 0d71 0A       		.uleb128 0xa
 5556 0d72 A9110000 		.4byte	.LASF178
 5557 0d76 04       		.byte	0x4
ARM GAS  e:\temp\ccP12Hvn.s 			page 138


 5558 0d77 C106     		.2byte	0x6c1
 5559 0d79 A2000000 		.4byte	0xa2
 5560 0d7d 04       		.byte	0x4
 5561 0d7e 08       		.byte	0x8
 5562 0d7f 18       		.byte	0x18
 5563 0d80 00       		.byte	0
 5564 0d81 0A       		.uleb128 0xa
 5565 0d82 B0110000 		.4byte	.LASF179
 5566 0d86 04       		.byte	0x4
 5567 0d87 C206     		.2byte	0x6c2
 5568 0d89 A2000000 		.4byte	0xa2
 5569 0d8d 04       		.byte	0x4
 5570 0d8e 08       		.byte	0x8
 5571 0d8f 10       		.byte	0x10
 5572 0d90 00       		.byte	0
 5573 0d91 0A       		.uleb128 0xa
 5574 0d92 B7110000 		.4byte	.LASF180
 5575 0d96 04       		.byte	0x4
 5576 0d97 C306     		.2byte	0x6c3
 5577 0d99 A2000000 		.4byte	0xa2
 5578 0d9d 04       		.byte	0x4
 5579 0d9e 08       		.byte	0x8
 5580 0d9f 08       		.byte	0x8
 5581 0da0 00       		.byte	0
 5582 0da1 0A       		.uleb128 0xa
 5583 0da2 BE110000 		.4byte	.LASF181
 5584 0da6 04       		.byte	0x4
 5585 0da7 C406     		.2byte	0x6c4
 5586 0da9 A2000000 		.4byte	0xa2
 5587 0dad 04       		.byte	0x4
 5588 0dae 08       		.byte	0x8
 5589 0daf 00       		.byte	0
 5590 0db0 00       		.byte	0
 5591 0db1 00       		.byte	0
 5592 0db2 09       		.uleb128 0x9
 5593 0db3 250D0000 		.4byte	.LASF182
 5594 0db7 04       		.byte	0x4
 5595 0db8 04       		.byte	0x4
 5596 0db9 C706     		.2byte	0x6c7
 5597 0dbb 300E0000 		.4byte	0xe30
 5598 0dbf 0A       		.uleb128 0xa
 5599 0dc0 26170000 		.4byte	.LASF183
 5600 0dc4 04       		.byte	0x4
 5601 0dc5 C906     		.2byte	0x6c9
 5602 0dc7 A2000000 		.4byte	0xa2
 5603 0dcb 04       		.byte	0x4
 5604 0dcc 10       		.byte	0x10
 5605 0dcd 10       		.byte	0x10
 5606 0dce 00       		.byte	0
 5607 0dcf 0A       		.uleb128 0xa
 5608 0dd0 2F100000 		.4byte	.LASF110
 5609 0dd4 04       		.byte	0x4
 5610 0dd5 CB06     		.2byte	0x6cb
 5611 0dd7 A2000000 		.4byte	0xa2
 5612 0ddb 04       		.byte	0x4
 5613 0ddc 07       		.byte	0x7
 5614 0ddd 09       		.byte	0x9
ARM GAS  e:\temp\ccP12Hvn.s 			page 139


 5615 0dde 00       		.byte	0
 5616 0ddf 0A       		.uleb128 0xa
 5617 0de0 CD120000 		.4byte	.LASF184
 5618 0de4 04       		.byte	0x4
 5619 0de5 CC06     		.2byte	0x6cc
 5620 0de7 A2000000 		.4byte	0xa2
 5621 0deb 04       		.byte	0x4
 5622 0dec 03       		.byte	0x3
 5623 0ded 06       		.byte	0x6
 5624 0dee 00       		.byte	0
 5625 0def 0A       		.uleb128 0xa
 5626 0df0 081C0000 		.4byte	.LASF185
 5627 0df4 04       		.byte	0x4
 5628 0df5 D006     		.2byte	0x6d0
 5629 0df7 A2000000 		.4byte	0xa2
 5630 0dfb 04       		.byte	0x4
 5631 0dfc 01       		.byte	0x1
 5632 0dfd 05       		.byte	0x5
 5633 0dfe 00       		.byte	0
 5634 0dff 0A       		.uleb128 0xa
 5635 0e00 C1040000 		.4byte	.LASF186
 5636 0e04 04       		.byte	0x4
 5637 0e05 D106     		.2byte	0x6d1
 5638 0e07 A2000000 		.4byte	0xa2
 5639 0e0b 04       		.byte	0x4
 5640 0e0c 03       		.byte	0x3
 5641 0e0d 02       		.byte	0x2
 5642 0e0e 00       		.byte	0
 5643 0e0f 0A       		.uleb128 0xa
 5644 0e10 111D0000 		.4byte	.LASF187
 5645 0e14 04       		.byte	0x4
 5646 0e15 D206     		.2byte	0x6d2
 5647 0e17 A2000000 		.4byte	0xa2
 5648 0e1b 04       		.byte	0x4
 5649 0e1c 01       		.byte	0x1
 5650 0e1d 01       		.byte	0x1
 5651 0e1e 00       		.byte	0
 5652 0e1f 0A       		.uleb128 0xa
 5653 0e20 8A0C0000 		.4byte	.LASF188
 5654 0e24 04       		.byte	0x4
 5655 0e25 D306     		.2byte	0x6d3
 5656 0e27 A2000000 		.4byte	0xa2
 5657 0e2b 04       		.byte	0x4
 5658 0e2c 01       		.byte	0x1
 5659 0e2d 00       		.byte	0
 5660 0e2e 00       		.byte	0
 5661 0e2f 00       		.byte	0
 5662 0e30 09       		.uleb128 0x9
 5663 0e31 7B180000 		.4byte	.LASF189
 5664 0e35 04       		.byte	0x4
 5665 0e36 04       		.byte	0x4
 5666 0e37 D606     		.2byte	0x6d6
 5667 0e39 4E0E0000 		.4byte	0xe4e
 5668 0e3d 0A       		.uleb128 0xa
 5669 0e3e FF1C0000 		.4byte	.LASF190
 5670 0e42 04       		.byte	0x4
 5671 0e43 D806     		.2byte	0x6d8
ARM GAS  e:\temp\ccP12Hvn.s 			page 140


 5672 0e45 A2000000 		.4byte	0xa2
 5673 0e49 04       		.byte	0x4
 5674 0e4a 20       		.byte	0x20
 5675 0e4b 00       		.byte	0
 5676 0e4c 00       		.byte	0
 5677 0e4d 00       		.byte	0
 5678 0e4e 09       		.uleb128 0x9
 5679 0e4f CB170000 		.4byte	.LASF191
 5680 0e53 04       		.byte	0x4
 5681 0e54 04       		.byte	0x4
 5682 0e55 DB06     		.2byte	0x6db
 5683 0e57 7C0E0000 		.4byte	0xe7c
 5684 0e5b 0A       		.uleb128 0xa
 5685 0e5c 22060000 		.4byte	.LASF192
 5686 0e60 04       		.byte	0x4
 5687 0e61 DD06     		.2byte	0x6dd
 5688 0e63 A2000000 		.4byte	0xa2
 5689 0e67 04       		.byte	0x4
 5690 0e68 10       		.byte	0x10
 5691 0e69 10       		.byte	0x10
 5692 0e6a 00       		.byte	0
 5693 0e6b 0A       		.uleb128 0xa
 5694 0e6c 04070000 		.4byte	.LASF193
 5695 0e70 04       		.byte	0x4
 5696 0e71 DE06     		.2byte	0x6de
 5697 0e73 A2000000 		.4byte	0xa2
 5698 0e77 04       		.byte	0x4
 5699 0e78 10       		.byte	0x10
 5700 0e79 00       		.byte	0
 5701 0e7a 00       		.byte	0
 5702 0e7b 00       		.byte	0
 5703 0e7c 09       		.uleb128 0x9
 5704 0e7d ED0D0000 		.4byte	.LASF194
 5705 0e81 04       		.byte	0x4
 5706 0e82 04       		.byte	0x4
 5707 0e83 E106     		.2byte	0x6e1
 5708 0e85 7A0F0000 		.4byte	0xf7a
 5709 0e89 0A       		.uleb128 0xa
 5710 0e8a E70C0000 		.4byte	.LASF195
 5711 0e8e 04       		.byte	0x4
 5712 0e8f E306     		.2byte	0x6e3
 5713 0e91 A2000000 		.4byte	0xa2
 5714 0e95 04       		.byte	0x4
 5715 0e96 03       		.byte	0x3
 5716 0e97 1D       		.byte	0x1d
 5717 0e98 00       		.byte	0
 5718 0e99 0A       		.uleb128 0xa
 5719 0e9a E31A0000 		.4byte	.LASF196
 5720 0e9e 04       		.byte	0x4
 5721 0e9f E406     		.2byte	0x6e4
 5722 0ea1 A2000000 		.4byte	0xa2
 5723 0ea5 04       		.byte	0x4
 5724 0ea6 01       		.byte	0x1
 5725 0ea7 1C       		.byte	0x1c
 5726 0ea8 00       		.byte	0
 5727 0ea9 0A       		.uleb128 0xa
 5728 0eaa 98000000 		.4byte	.LASF197
ARM GAS  e:\temp\ccP12Hvn.s 			page 141


 5729 0eae 04       		.byte	0x4
 5730 0eaf E506     		.2byte	0x6e5
 5731 0eb1 A2000000 		.4byte	0xa2
 5732 0eb5 04       		.byte	0x4
 5733 0eb6 01       		.byte	0x1
 5734 0eb7 1B       		.byte	0x1b
 5735 0eb8 00       		.byte	0
 5736 0eb9 0A       		.uleb128 0xa
 5737 0eba 990F0000 		.4byte	.LASF198
 5738 0ebe 04       		.byte	0x4
 5739 0ebf E606     		.2byte	0x6e6
 5740 0ec1 A2000000 		.4byte	0xa2
 5741 0ec5 04       		.byte	0x4
 5742 0ec6 02       		.byte	0x2
 5743 0ec7 19       		.byte	0x19
 5744 0ec8 00       		.byte	0
 5745 0ec9 0A       		.uleb128 0xa
 5746 0eca E8160000 		.4byte	.LASF199
 5747 0ece 04       		.byte	0x4
 5748 0ecf E706     		.2byte	0x6e7
 5749 0ed1 A2000000 		.4byte	0xa2
 5750 0ed5 04       		.byte	0x4
 5751 0ed6 01       		.byte	0x1
 5752 0ed7 18       		.byte	0x18
 5753 0ed8 00       		.byte	0
 5754 0ed9 0A       		.uleb128 0xa
 5755 0eda E2160000 		.4byte	.LASF200
 5756 0ede 04       		.byte	0x4
 5757 0edf E806     		.2byte	0x6e8
 5758 0ee1 A2000000 		.4byte	0xa2
 5759 0ee5 04       		.byte	0x4
 5760 0ee6 01       		.byte	0x1
 5761 0ee7 17       		.byte	0x17
 5762 0ee8 00       		.byte	0
 5763 0ee9 0A       		.uleb128 0xa
 5764 0eea C21C0000 		.4byte	.LASF201
 5765 0eee 04       		.byte	0x4
 5766 0eef E906     		.2byte	0x6e9
 5767 0ef1 A2000000 		.4byte	0xa2
 5768 0ef5 04       		.byte	0x4
 5769 0ef6 01       		.byte	0x1
 5770 0ef7 16       		.byte	0x16
 5771 0ef8 00       		.byte	0
 5772 0ef9 0A       		.uleb128 0xa
 5773 0efa BC1C0000 		.4byte	.LASF202
 5774 0efe 04       		.byte	0x4
 5775 0eff EA06     		.2byte	0x6ea
 5776 0f01 A2000000 		.4byte	0xa2
 5777 0f05 04       		.byte	0x4
 5778 0f06 01       		.byte	0x1
 5779 0f07 15       		.byte	0x15
 5780 0f08 00       		.byte	0
 5781 0f09 0A       		.uleb128 0xa
 5782 0f0a 83010000 		.4byte	.LASF203
 5783 0f0e 04       		.byte	0x4
 5784 0f0f EB06     		.2byte	0x6eb
 5785 0f11 A2000000 		.4byte	0xa2
ARM GAS  e:\temp\ccP12Hvn.s 			page 142


 5786 0f15 04       		.byte	0x4
 5787 0f16 02       		.byte	0x2
 5788 0f17 13       		.byte	0x13
 5789 0f18 00       		.byte	0
 5790 0f19 0A       		.uleb128 0xa
 5791 0f1a A4140000 		.4byte	.LASF204
 5792 0f1e 04       		.byte	0x4
 5793 0f1f EC06     		.2byte	0x6ec
 5794 0f21 A2000000 		.4byte	0xa2
 5795 0f25 04       		.byte	0x4
 5796 0f26 04       		.byte	0x4
 5797 0f27 0F       		.byte	0xf
 5798 0f28 00       		.byte	0
 5799 0f29 0A       		.uleb128 0xa
 5800 0f2a BC000000 		.4byte	.LASF205
 5801 0f2e 04       		.byte	0x4
 5802 0f2f ED06     		.2byte	0x6ed
 5803 0f31 A2000000 		.4byte	0xa2
 5804 0f35 04       		.byte	0x4
 5805 0f36 01       		.byte	0x1
 5806 0f37 0E       		.byte	0xe
 5807 0f38 00       		.byte	0
 5808 0f39 0A       		.uleb128 0xa
 5809 0f3a 9A1C0000 		.4byte	.LASF206
 5810 0f3e 04       		.byte	0x4
 5811 0f3f EE06     		.2byte	0x6ee
 5812 0f41 A2000000 		.4byte	0xa2
 5813 0f45 04       		.byte	0x4
 5814 0f46 02       		.byte	0x2
 5815 0f47 0C       		.byte	0xc
 5816 0f48 00       		.byte	0
 5817 0f49 0A       		.uleb128 0xa
 5818 0f4a 2F100000 		.4byte	.LASF110
 5819 0f4e 04       		.byte	0x4
 5820 0f4f EF06     		.2byte	0x6ef
 5821 0f51 A2000000 		.4byte	0xa2
 5822 0f55 04       		.byte	0x4
 5823 0f56 04       		.byte	0x4
 5824 0f57 08       		.byte	0x8
 5825 0f58 00       		.byte	0
 5826 0f59 0A       		.uleb128 0xa
 5827 0f5a A10B0000 		.4byte	.LASF207
 5828 0f5e 04       		.byte	0x4
 5829 0f5f F006     		.2byte	0x6f0
 5830 0f61 A2000000 		.4byte	0xa2
 5831 0f65 04       		.byte	0x4
 5832 0f66 04       		.byte	0x4
 5833 0f67 04       		.byte	0x4
 5834 0f68 00       		.byte	0
 5835 0f69 0A       		.uleb128 0xa
 5836 0f6a 130B0000 		.4byte	.LASF208
 5837 0f6e 04       		.byte	0x4
 5838 0f6f F106     		.2byte	0x6f1
 5839 0f71 A2000000 		.4byte	0xa2
 5840 0f75 04       		.byte	0x4
 5841 0f76 04       		.byte	0x4
 5842 0f77 00       		.byte	0
ARM GAS  e:\temp\ccP12Hvn.s 			page 143


 5843 0f78 00       		.byte	0
 5844 0f79 00       		.byte	0
 5845 0f7a 09       		.uleb128 0x9
 5846 0f7b B3150000 		.4byte	.LASF209
 5847 0f7f 04       		.byte	0x4
 5848 0f80 04       		.byte	0x4
 5849 0f81 F406     		.2byte	0x6f4
 5850 0f83 58100000 		.4byte	0x1058
 5851 0f87 0A       		.uleb128 0xa
 5852 0f88 E70C0000 		.4byte	.LASF195
 5853 0f8c 04       		.byte	0x4
 5854 0f8d F606     		.2byte	0x6f6
 5855 0f8f A2000000 		.4byte	0xa2
 5856 0f93 04       		.byte	0x4
 5857 0f94 03       		.byte	0x3
 5858 0f95 1D       		.byte	0x1d
 5859 0f96 00       		.byte	0
 5860 0f97 0A       		.uleb128 0xa
 5861 0f98 2F100000 		.4byte	.LASF110
 5862 0f9c 04       		.byte	0x4
 5863 0f9d F706     		.2byte	0x6f7
 5864 0f9f A2000000 		.4byte	0xa2
 5865 0fa3 04       		.byte	0x4
 5866 0fa4 02       		.byte	0x2
 5867 0fa5 1B       		.byte	0x1b
 5868 0fa6 00       		.byte	0
 5869 0fa7 0A       		.uleb128 0xa
 5870 0fa8 990F0000 		.4byte	.LASF198
 5871 0fac 04       		.byte	0x4
 5872 0fad F806     		.2byte	0x6f8
 5873 0faf A2000000 		.4byte	0xa2
 5874 0fb3 04       		.byte	0x4
 5875 0fb4 02       		.byte	0x2
 5876 0fb5 19       		.byte	0x19
 5877 0fb6 00       		.byte	0
 5878 0fb7 0A       		.uleb128 0xa
 5879 0fb8 35100000 		.4byte	.LASF118
 5880 0fbc 04       		.byte	0x4
 5881 0fbd F906     		.2byte	0x6f9
 5882 0fbf A2000000 		.4byte	0xa2
 5883 0fc3 04       		.byte	0x4
 5884 0fc4 02       		.byte	0x2
 5885 0fc5 17       		.byte	0x17
 5886 0fc6 00       		.byte	0
 5887 0fc7 0A       		.uleb128 0xa
 5888 0fc8 AB010000 		.4byte	.LASF210
 5889 0fcc 04       		.byte	0x4
 5890 0fcd FA06     		.2byte	0x6fa
 5891 0fcf A2000000 		.4byte	0xa2
 5892 0fd3 04       		.byte	0x4
 5893 0fd4 02       		.byte	0x2
 5894 0fd5 15       		.byte	0x15
 5895 0fd6 00       		.byte	0
 5896 0fd7 0A       		.uleb128 0xa
 5897 0fd8 83010000 		.4byte	.LASF203
 5898 0fdc 04       		.byte	0x4
 5899 0fdd FB06     		.2byte	0x6fb
ARM GAS  e:\temp\ccP12Hvn.s 			page 144


 5900 0fdf A2000000 		.4byte	0xa2
 5901 0fe3 04       		.byte	0x4
 5902 0fe4 02       		.byte	0x2
 5903 0fe5 13       		.byte	0x13
 5904 0fe6 00       		.byte	0
 5905 0fe7 0A       		.uleb128 0xa
 5906 0fe8 A4140000 		.4byte	.LASF204
 5907 0fec 04       		.byte	0x4
 5908 0fed FC06     		.2byte	0x6fc
 5909 0fef A2000000 		.4byte	0xa2
 5910 0ff3 04       		.byte	0x4
 5911 0ff4 04       		.byte	0x4
 5912 0ff5 0F       		.byte	0xf
 5913 0ff6 00       		.byte	0
 5914 0ff7 0A       		.uleb128 0xa
 5915 0ff8 BC000000 		.4byte	.LASF205
 5916 0ffc 04       		.byte	0x4
 5917 0ffd FD06     		.2byte	0x6fd
 5918 0fff A2000000 		.4byte	0xa2
 5919 1003 04       		.byte	0x4
 5920 1004 01       		.byte	0x1
 5921 1005 0E       		.byte	0xe
 5922 1006 00       		.byte	0
 5923 1007 0A       		.uleb128 0xa
 5924 1008 9A1C0000 		.4byte	.LASF206
 5925 100c 04       		.byte	0x4
 5926 100d FE06     		.2byte	0x6fe
 5927 100f A2000000 		.4byte	0xa2
 5928 1013 04       		.byte	0x4
 5929 1014 02       		.byte	0x2
 5930 1015 0C       		.byte	0xc
 5931 1016 00       		.byte	0
 5932 1017 0A       		.uleb128 0xa
 5933 1018 3B100000 		.4byte	.LASF211
 5934 101c 04       		.byte	0x4
 5935 101d FF06     		.2byte	0x6ff
 5936 101f A2000000 		.4byte	0xa2
 5937 1023 04       		.byte	0x4
 5938 1024 01       		.byte	0x1
 5939 1025 0B       		.byte	0xb
 5940 1026 00       		.byte	0
 5941 1027 0A       		.uleb128 0xa
 5942 1028 38040000 		.4byte	.LASF212
 5943 102c 04       		.byte	0x4
 5944 102d 0007     		.2byte	0x700
 5945 102f A2000000 		.4byte	0xa2
 5946 1033 04       		.byte	0x4
 5947 1034 03       		.byte	0x3
 5948 1035 08       		.byte	0x8
 5949 1036 00       		.byte	0
 5950 1037 0A       		.uleb128 0xa
 5951 1038 A10B0000 		.4byte	.LASF207
 5952 103c 04       		.byte	0x4
 5953 103d 0107     		.2byte	0x701
 5954 103f A2000000 		.4byte	0xa2
 5955 1043 04       		.byte	0x4
 5956 1044 04       		.byte	0x4
ARM GAS  e:\temp\ccP12Hvn.s 			page 145


 5957 1045 04       		.byte	0x4
 5958 1046 00       		.byte	0
 5959 1047 0A       		.uleb128 0xa
 5960 1048 130B0000 		.4byte	.LASF208
 5961 104c 04       		.byte	0x4
 5962 104d 0207     		.2byte	0x702
 5963 104f A2000000 		.4byte	0xa2
 5964 1053 04       		.byte	0x4
 5965 1054 04       		.byte	0x4
 5966 1055 00       		.byte	0
 5967 1056 00       		.byte	0
 5968 1057 00       		.byte	0
 5969 1058 09       		.uleb128 0x9
 5970 1059 90150000 		.4byte	.LASF213
 5971 105d 04       		.byte	0x4
 5972 105e 04       		.byte	0x4
 5973 105f 0507     		.2byte	0x705
 5974 1061 46110000 		.4byte	0x1146
 5975 1065 0A       		.uleb128 0xa
 5976 1066 E70C0000 		.4byte	.LASF195
 5977 106a 04       		.byte	0x4
 5978 106b 0707     		.2byte	0x707
 5979 106d A2000000 		.4byte	0xa2
 5980 1071 04       		.byte	0x4
 5981 1072 03       		.byte	0x3
 5982 1073 1D       		.byte	0x1d
 5983 1074 00       		.byte	0
 5984 1075 0A       		.uleb128 0xa
 5985 1076 E31A0000 		.4byte	.LASF196
 5986 107a 04       		.byte	0x4
 5987 107b 0807     		.2byte	0x708
 5988 107d A2000000 		.4byte	0xa2
 5989 1081 04       		.byte	0x4
 5990 1082 01       		.byte	0x1
 5991 1083 1C       		.byte	0x1c
 5992 1084 00       		.byte	0
 5993 1085 0A       		.uleb128 0xa
 5994 1086 98000000 		.4byte	.LASF197
 5995 108a 04       		.byte	0x4
 5996 108b 0907     		.2byte	0x709
 5997 108d A2000000 		.4byte	0xa2
 5998 1091 04       		.byte	0x4
 5999 1092 01       		.byte	0x1
 6000 1093 1B       		.byte	0x1b
 6001 1094 00       		.byte	0
 6002 1095 0A       		.uleb128 0xa
 6003 1096 990F0000 		.4byte	.LASF198
 6004 109a 04       		.byte	0x4
 6005 109b 0A07     		.2byte	0x70a
 6006 109d A2000000 		.4byte	0xa2
 6007 10a1 04       		.byte	0x4
 6008 10a2 02       		.byte	0x2
 6009 10a3 19       		.byte	0x19
 6010 10a4 00       		.byte	0
 6011 10a5 0A       		.uleb128 0xa
 6012 10a6 2F100000 		.4byte	.LASF110
 6013 10aa 04       		.byte	0x4
ARM GAS  e:\temp\ccP12Hvn.s 			page 146


 6014 10ab 0B07     		.2byte	0x70b
 6015 10ad A2000000 		.4byte	0xa2
 6016 10b1 04       		.byte	0x4
 6017 10b2 02       		.byte	0x2
 6018 10b3 17       		.byte	0x17
 6019 10b4 00       		.byte	0
 6020 10b5 0A       		.uleb128 0xa
 6021 10b6 AB010000 		.4byte	.LASF210
 6022 10ba 04       		.byte	0x4
 6023 10bb 0C07     		.2byte	0x70c
 6024 10bd A2000000 		.4byte	0xa2
 6025 10c1 04       		.byte	0x4
 6026 10c2 02       		.byte	0x2
 6027 10c3 15       		.byte	0x15
 6028 10c4 00       		.byte	0
 6029 10c5 0A       		.uleb128 0xa
 6030 10c6 83010000 		.4byte	.LASF203
 6031 10ca 04       		.byte	0x4
 6032 10cb 0D07     		.2byte	0x70d
 6033 10cd A2000000 		.4byte	0xa2
 6034 10d1 04       		.byte	0x4
 6035 10d2 02       		.byte	0x2
 6036 10d3 13       		.byte	0x13
 6037 10d4 00       		.byte	0
 6038 10d5 0A       		.uleb128 0xa
 6039 10d6 A4140000 		.4byte	.LASF204
 6040 10da 04       		.byte	0x4
 6041 10db 0E07     		.2byte	0x70e
 6042 10dd A2000000 		.4byte	0xa2
 6043 10e1 04       		.byte	0x4
 6044 10e2 04       		.byte	0x4
 6045 10e3 0F       		.byte	0xf
 6046 10e4 00       		.byte	0
 6047 10e5 0A       		.uleb128 0xa
 6048 10e6 BC000000 		.4byte	.LASF205
 6049 10ea 04       		.byte	0x4
 6050 10eb 0F07     		.2byte	0x70f
 6051 10ed A2000000 		.4byte	0xa2
 6052 10f1 04       		.byte	0x4
 6053 10f2 01       		.byte	0x1
 6054 10f3 0E       		.byte	0xe
 6055 10f4 00       		.byte	0
 6056 10f5 0A       		.uleb128 0xa
 6057 10f6 9A1C0000 		.4byte	.LASF206
 6058 10fa 04       		.byte	0x4
 6059 10fb 1007     		.2byte	0x710
 6060 10fd A2000000 		.4byte	0xa2
 6061 1101 04       		.byte	0x4
 6062 1102 02       		.byte	0x2
 6063 1103 0C       		.byte	0xc
 6064 1104 00       		.byte	0
 6065 1105 0A       		.uleb128 0xa
 6066 1106 35100000 		.4byte	.LASF118
 6067 110a 04       		.byte	0x4
 6068 110b 1107     		.2byte	0x711
 6069 110d A2000000 		.4byte	0xa2
 6070 1111 04       		.byte	0x4
ARM GAS  e:\temp\ccP12Hvn.s 			page 147


 6071 1112 01       		.byte	0x1
 6072 1113 0B       		.byte	0xb
 6073 1114 00       		.byte	0
 6074 1115 0A       		.uleb128 0xa
 6075 1116 38040000 		.4byte	.LASF212
 6076 111a 04       		.byte	0x4
 6077 111b 1207     		.2byte	0x712
 6078 111d A2000000 		.4byte	0xa2
 6079 1121 04       		.byte	0x4
 6080 1122 03       		.byte	0x3
 6081 1123 08       		.byte	0x8
 6082 1124 00       		.byte	0
 6083 1125 0A       		.uleb128 0xa
 6084 1126 A10B0000 		.4byte	.LASF207
 6085 112a 04       		.byte	0x4
 6086 112b 1307     		.2byte	0x713
 6087 112d A2000000 		.4byte	0xa2
 6088 1131 04       		.byte	0x4
 6089 1132 04       		.byte	0x4
 6090 1133 04       		.byte	0x4
 6091 1134 00       		.byte	0
 6092 1135 0A       		.uleb128 0xa
 6093 1136 130B0000 		.4byte	.LASF208
 6094 113a 04       		.byte	0x4
 6095 113b 1407     		.2byte	0x714
 6096 113d A2000000 		.4byte	0xa2
 6097 1141 04       		.byte	0x4
 6098 1142 04       		.byte	0x4
 6099 1143 00       		.byte	0
 6100 1144 00       		.byte	0
 6101 1145 00       		.byte	0
 6102 1146 09       		.uleb128 0x9
 6103 1147 84150000 		.4byte	.LASF214
 6104 114b 04       		.byte	0x4
 6105 114c 04       		.byte	0x4
 6106 114d 1707     		.2byte	0x717
 6107 114f 04120000 		.4byte	0x1204
 6108 1153 0A       		.uleb128 0xa
 6109 1154 E70C0000 		.4byte	.LASF195
 6110 1158 04       		.byte	0x4
 6111 1159 1907     		.2byte	0x719
 6112 115b A2000000 		.4byte	0xa2
 6113 115f 04       		.byte	0x4
 6114 1160 03       		.byte	0x3
 6115 1161 1D       		.byte	0x1d
 6116 1162 00       		.byte	0
 6117 1163 0A       		.uleb128 0xa
 6118 1164 EF140000 		.4byte	.LASF215
 6119 1168 04       		.byte	0x4
 6120 1169 1A07     		.2byte	0x71a
 6121 116b A2000000 		.4byte	0xa2
 6122 116f 04       		.byte	0x4
 6123 1170 01       		.byte	0x1
 6124 1171 1C       		.byte	0x1c
 6125 1172 00       		.byte	0
 6126 1173 0A       		.uleb128 0xa
 6127 1174 00000000 		.4byte	.LASF216
ARM GAS  e:\temp\ccP12Hvn.s 			page 148


 6128 1178 04       		.byte	0x4
 6129 1179 1B07     		.2byte	0x71b
 6130 117b A2000000 		.4byte	0xa2
 6131 117f 04       		.byte	0x4
 6132 1180 01       		.byte	0x1
 6133 1181 1B       		.byte	0x1b
 6134 1182 00       		.byte	0
 6135 1183 0A       		.uleb128 0xa
 6136 1184 50030000 		.4byte	.LASF217
 6137 1188 04       		.byte	0x4
 6138 1189 1C07     		.2byte	0x71c
 6139 118b A2000000 		.4byte	0xa2
 6140 118f 04       		.byte	0x4
 6141 1190 03       		.byte	0x3
 6142 1191 18       		.byte	0x18
 6143 1192 00       		.byte	0
 6144 1193 0A       		.uleb128 0xa
 6145 1194 E8160000 		.4byte	.LASF199
 6146 1198 04       		.byte	0x4
 6147 1199 1D07     		.2byte	0x71d
 6148 119b A2000000 		.4byte	0xa2
 6149 119f 04       		.byte	0x4
 6150 11a0 01       		.byte	0x1
 6151 11a1 17       		.byte	0x17
 6152 11a2 00       		.byte	0
 6153 11a3 0A       		.uleb128 0xa
 6154 11a4 E2160000 		.4byte	.LASF200
 6155 11a8 04       		.byte	0x4
 6156 11a9 1E07     		.2byte	0x71e
 6157 11ab A2000000 		.4byte	0xa2
 6158 11af 04       		.byte	0x4
 6159 11b0 01       		.byte	0x1
 6160 11b1 16       		.byte	0x16
 6161 11b2 00       		.byte	0
 6162 11b3 0A       		.uleb128 0xa
 6163 11b4 C21C0000 		.4byte	.LASF201
 6164 11b8 04       		.byte	0x4
 6165 11b9 1F07     		.2byte	0x71f
 6166 11bb A2000000 		.4byte	0xa2
 6167 11bf 04       		.byte	0x4
 6168 11c0 01       		.byte	0x1
 6169 11c1 15       		.byte	0x15
 6170 11c2 00       		.byte	0
 6171 11c3 0A       		.uleb128 0xa
 6172 11c4 BC1C0000 		.4byte	.LASF202
 6173 11c8 04       		.byte	0x4
 6174 11c9 2007     		.2byte	0x720
 6175 11cb A2000000 		.4byte	0xa2
 6176 11cf 04       		.byte	0x4
 6177 11d0 01       		.byte	0x1
 6178 11d1 14       		.byte	0x14
 6179 11d2 00       		.byte	0
 6180 11d3 0A       		.uleb128 0xa
 6181 11d4 2F100000 		.4byte	.LASF110
 6182 11d8 04       		.byte	0x4
 6183 11d9 2107     		.2byte	0x721
 6184 11db A2000000 		.4byte	0xa2
ARM GAS  e:\temp\ccP12Hvn.s 			page 149


 6185 11df 04       		.byte	0x4
 6186 11e0 0C       		.byte	0xc
 6187 11e1 08       		.byte	0x8
 6188 11e2 00       		.byte	0
 6189 11e3 0A       		.uleb128 0xa
 6190 11e4 BD1B0000 		.4byte	.LASF218
 6191 11e8 04       		.byte	0x4
 6192 11e9 2207     		.2byte	0x722
 6193 11eb A2000000 		.4byte	0xa2
 6194 11ef 04       		.byte	0x4
 6195 11f0 04       		.byte	0x4
 6196 11f1 04       		.byte	0x4
 6197 11f2 00       		.byte	0
 6198 11f3 0A       		.uleb128 0xa
 6199 11f4 B10A0000 		.4byte	.LASF219
 6200 11f8 04       		.byte	0x4
 6201 11f9 2307     		.2byte	0x723
 6202 11fb A2000000 		.4byte	0xa2
 6203 11ff 04       		.byte	0x4
 6204 1200 04       		.byte	0x4
 6205 1201 00       		.byte	0
 6206 1202 00       		.byte	0
 6207 1203 00       		.byte	0
 6208 1204 09       		.uleb128 0x9
 6209 1205 78190000 		.4byte	.LASF220
 6210 1209 04       		.byte	0x4
 6211 120a 04       		.byte	0x4
 6212 120b 2607     		.2byte	0x726
 6213 120d 92120000 		.4byte	0x1292
 6214 1211 0A       		.uleb128 0xa
 6215 1212 E70C0000 		.4byte	.LASF195
 6216 1216 04       		.byte	0x4
 6217 1217 2807     		.2byte	0x728
 6218 1219 A2000000 		.4byte	0xa2
 6219 121d 04       		.byte	0x4
 6220 121e 03       		.byte	0x3
 6221 121f 1D       		.byte	0x1d
 6222 1220 00       		.byte	0
 6223 1221 0A       		.uleb128 0xa
 6224 1222 EF140000 		.4byte	.LASF215
 6225 1226 04       		.byte	0x4
 6226 1227 2907     		.2byte	0x729
 6227 1229 A2000000 		.4byte	0xa2
 6228 122d 04       		.byte	0x4
 6229 122e 01       		.byte	0x1
 6230 122f 1C       		.byte	0x1c
 6231 1230 00       		.byte	0
 6232 1231 0A       		.uleb128 0xa
 6233 1232 00000000 		.4byte	.LASF216
 6234 1236 04       		.byte	0x4
 6235 1237 2A07     		.2byte	0x72a
 6236 1239 A2000000 		.4byte	0xa2
 6237 123d 04       		.byte	0x4
 6238 123e 01       		.byte	0x1
 6239 123f 1B       		.byte	0x1b
 6240 1240 00       		.byte	0
 6241 1241 0A       		.uleb128 0xa
ARM GAS  e:\temp\ccP12Hvn.s 			page 150


 6242 1242 50030000 		.4byte	.LASF217
 6243 1246 04       		.byte	0x4
 6244 1247 2B07     		.2byte	0x72b
 6245 1249 A2000000 		.4byte	0xa2
 6246 124d 04       		.byte	0x4
 6247 124e 03       		.byte	0x3
 6248 124f 18       		.byte	0x18
 6249 1250 00       		.byte	0
 6250 1251 0A       		.uleb128 0xa
 6251 1252 2F100000 		.4byte	.LASF110
 6252 1256 04       		.byte	0x4
 6253 1257 2C07     		.2byte	0x72c
 6254 1259 A2000000 		.4byte	0xa2
 6255 125d 04       		.byte	0x4
 6256 125e 0D       		.byte	0xd
 6257 125f 0B       		.byte	0xb
 6258 1260 00       		.byte	0
 6259 1261 0A       		.uleb128 0xa
 6260 1262 38040000 		.4byte	.LASF212
 6261 1266 04       		.byte	0x4
 6262 1267 2D07     		.2byte	0x72d
 6263 1269 A2000000 		.4byte	0xa2
 6264 126d 04       		.byte	0x4
 6265 126e 03       		.byte	0x3
 6266 126f 08       		.byte	0x8
 6267 1270 00       		.byte	0
 6268 1271 0A       		.uleb128 0xa
 6269 1272 BD1B0000 		.4byte	.LASF218
 6270 1276 04       		.byte	0x4
 6271 1277 2E07     		.2byte	0x72e
 6272 1279 A2000000 		.4byte	0xa2
 6273 127d 04       		.byte	0x4
 6274 127e 04       		.byte	0x4
 6275 127f 04       		.byte	0x4
 6276 1280 00       		.byte	0
 6277 1281 0A       		.uleb128 0xa
 6278 1282 B10A0000 		.4byte	.LASF219
 6279 1286 04       		.byte	0x4
 6280 1287 2F07     		.2byte	0x72f
 6281 1289 A2000000 		.4byte	0xa2
 6282 128d 04       		.byte	0x4
 6283 128e 04       		.byte	0x4
 6284 128f 00       		.byte	0
 6285 1290 00       		.byte	0
 6286 1291 00       		.byte	0
 6287 1292 09       		.uleb128 0x9
 6288 1293 AA080000 		.4byte	.LASF221
 6289 1297 04       		.byte	0x4
 6290 1298 04       		.byte	0x4
 6291 1299 3207     		.2byte	0x732
 6292 129b C0120000 		.4byte	0x12c0
 6293 129f 0A       		.uleb128 0xa
 6294 12a0 CF060000 		.4byte	.LASF222
 6295 12a4 04       		.byte	0x4
 6296 12a5 3407     		.2byte	0x734
 6297 12a7 A2000000 		.4byte	0xa2
 6298 12ab 04       		.byte	0x4
ARM GAS  e:\temp\ccP12Hvn.s 			page 151


 6299 12ac 10       		.byte	0x10
 6300 12ad 10       		.byte	0x10
 6301 12ae 00       		.byte	0
 6302 12af 0A       		.uleb128 0xa
 6303 12b0 0D040000 		.4byte	.LASF223
 6304 12b4 04       		.byte	0x4
 6305 12b5 3507     		.2byte	0x735
 6306 12b7 A2000000 		.4byte	0xa2
 6307 12bb 04       		.byte	0x4
 6308 12bc 10       		.byte	0x10
 6309 12bd 00       		.byte	0
 6310 12be 00       		.byte	0
 6311 12bf 00       		.byte	0
 6312 12c0 09       		.uleb128 0x9
 6313 12c1 5C130000 		.4byte	.LASF224
 6314 12c5 04       		.byte	0x4
 6315 12c6 04       		.byte	0x4
 6316 12c7 3807     		.2byte	0x738
 6317 12c9 3E130000 		.4byte	0x133e
 6318 12cd 0A       		.uleb128 0xa
 6319 12ce 2A060000 		.4byte	.LASF225
 6320 12d2 04       		.byte	0x4
 6321 12d3 3A07     		.2byte	0x73a
 6322 12d5 A2000000 		.4byte	0xa2
 6323 12d9 04       		.byte	0x4
 6324 12da 02       		.byte	0x2
 6325 12db 1E       		.byte	0x1e
 6326 12dc 00       		.byte	0
 6327 12dd 0A       		.uleb128 0xa
 6328 12de B0020000 		.4byte	.LASF226
 6329 12e2 04       		.byte	0x4
 6330 12e3 3B07     		.2byte	0x73b
 6331 12e5 A2000000 		.4byte	0xa2
 6332 12e9 04       		.byte	0x4
 6333 12ea 04       		.byte	0x4
 6334 12eb 1A       		.byte	0x1a
 6335 12ec 00       		.byte	0
 6336 12ed 0A       		.uleb128 0xa
 6337 12ee A41C0000 		.4byte	.LASF227
 6338 12f2 04       		.byte	0x4
 6339 12f3 3C07     		.2byte	0x73c
 6340 12f5 A2000000 		.4byte	0xa2
 6341 12f9 04       		.byte	0x4
 6342 12fa 01       		.byte	0x1
 6343 12fb 19       		.byte	0x19
 6344 12fc 00       		.byte	0
 6345 12fd 0A       		.uleb128 0xa
 6346 12fe 330B0000 		.4byte	.LASF228
 6347 1302 04       		.byte	0x4
 6348 1303 3D07     		.2byte	0x73d
 6349 1305 A2000000 		.4byte	0xa2
 6350 1309 04       		.byte	0x4
 6351 130a 01       		.byte	0x1
 6352 130b 18       		.byte	0x18
 6353 130c 00       		.byte	0
 6354 130d 0A       		.uleb128 0xa
 6355 130e A6040000 		.4byte	.LASF229
ARM GAS  e:\temp\ccP12Hvn.s 			page 152


 6356 1312 04       		.byte	0x4
 6357 1313 3E07     		.2byte	0x73e
 6358 1315 A2000000 		.4byte	0xa2
 6359 1319 04       		.byte	0x4
 6360 131a 08       		.byte	0x8
 6361 131b 10       		.byte	0x10
 6362 131c 00       		.byte	0
 6363 131d 0A       		.uleb128 0xa
 6364 131e 9F0A0000 		.4byte	.LASF230
 6365 1322 04       		.byte	0x4
 6366 1323 3F07     		.2byte	0x73f
 6367 1325 A2000000 		.4byte	0xa2
 6368 1329 04       		.byte	0x4
 6369 132a 08       		.byte	0x8
 6370 132b 08       		.byte	0x8
 6371 132c 00       		.byte	0
 6372 132d 0A       		.uleb128 0xa
 6373 132e FD150000 		.4byte	.LASF231
 6374 1332 04       		.byte	0x4
 6375 1333 4007     		.2byte	0x740
 6376 1335 A2000000 		.4byte	0xa2
 6377 1339 04       		.byte	0x4
 6378 133a 08       		.byte	0x8
 6379 133b 00       		.byte	0
 6380 133c 00       		.byte	0
 6381 133d 00       		.byte	0
 6382 133e 09       		.uleb128 0x9
 6383 133f 5D110000 		.4byte	.LASF232
 6384 1343 04       		.byte	0x4
 6385 1344 04       		.byte	0x4
 6386 1345 4307     		.2byte	0x743
 6387 1347 DB130000 		.4byte	0x13db
 6388 134b 0A       		.uleb128 0xa
 6389 134c DB020000 		.4byte	.LASF233
 6390 1350 04       		.byte	0x4
 6391 1351 4507     		.2byte	0x745
 6392 1353 A2000000 		.4byte	0xa2
 6393 1357 04       		.byte	0x4
 6394 1358 02       		.byte	0x2
 6395 1359 1E       		.byte	0x1e
 6396 135a 00       		.byte	0
 6397 135b 0A       		.uleb128 0xa
 6398 135c 46080000 		.4byte	.LASF234
 6399 1360 04       		.byte	0x4
 6400 1361 4607     		.2byte	0x746
 6401 1363 A2000000 		.4byte	0xa2
 6402 1367 04       		.byte	0x4
 6403 1368 01       		.byte	0x1
 6404 1369 1D       		.byte	0x1d
 6405 136a 00       		.byte	0
 6406 136b 0B       		.uleb128 0xb
 6407 136c 656E00   		.ascii	"en\000"
 6408 136f 04       		.byte	0x4
 6409 1370 4707     		.2byte	0x747
 6410 1372 A2000000 		.4byte	0xa2
 6411 1376 04       		.byte	0x4
 6412 1377 01       		.byte	0x1
ARM GAS  e:\temp\ccP12Hvn.s 			page 153


 6413 1378 1C       		.byte	0x1c
 6414 1379 00       		.byte	0
 6415 137a 0A       		.uleb128 0xa
 6416 137b 26070000 		.4byte	.LASF235
 6417 137f 04       		.byte	0x4
 6418 1380 4807     		.2byte	0x748
 6419 1382 A2000000 		.4byte	0xa2
 6420 1386 04       		.byte	0x4
 6421 1387 01       		.byte	0x1
 6422 1388 1B       		.byte	0x1b
 6423 1389 00       		.byte	0
 6424 138a 0A       		.uleb128 0xa
 6425 138b A61A0000 		.4byte	.LASF236
 6426 138f 04       		.byte	0x4
 6427 1390 4907     		.2byte	0x749
 6428 1392 A2000000 		.4byte	0xa2
 6429 1396 04       		.byte	0x4
 6430 1397 01       		.byte	0x1
 6431 1398 1A       		.byte	0x1a
 6432 1399 00       		.byte	0
 6433 139a 0A       		.uleb128 0xa
 6434 139b 820A0000 		.4byte	.LASF237
 6435 139f 04       		.byte	0x4
 6436 13a0 4A07     		.2byte	0x74a
 6437 13a2 A2000000 		.4byte	0xa2
 6438 13a6 04       		.byte	0x4
 6439 13a7 01       		.byte	0x1
 6440 13a8 19       		.byte	0x19
 6441 13a9 00       		.byte	0
 6442 13aa 0A       		.uleb128 0xa
 6443 13ab FE1B0000 		.4byte	.LASF238
 6444 13af 04       		.byte	0x4
 6445 13b0 4B07     		.2byte	0x74b
 6446 13b2 A2000000 		.4byte	0xa2
 6447 13b6 04       		.byte	0x4
 6448 13b7 01       		.byte	0x1
 6449 13b8 18       		.byte	0x18
 6450 13b9 00       		.byte	0
 6451 13ba 0A       		.uleb128 0xa
 6452 13bb 91040000 		.4byte	.LASF239
 6453 13bf 04       		.byte	0x4
 6454 13c0 4C07     		.2byte	0x74c
 6455 13c2 A2000000 		.4byte	0xa2
 6456 13c6 04       		.byte	0x4
 6457 13c7 01       		.byte	0x1
 6458 13c8 17       		.byte	0x17
 6459 13c9 00       		.byte	0
 6460 13ca 0A       		.uleb128 0xa
 6461 13cb FD150000 		.4byte	.LASF231
 6462 13cf 04       		.byte	0x4
 6463 13d0 4D07     		.2byte	0x74d
 6464 13d2 A2000000 		.4byte	0xa2
 6465 13d6 04       		.byte	0x4
 6466 13d7 17       		.byte	0x17
 6467 13d8 00       		.byte	0
 6468 13d9 00       		.byte	0
 6469 13da 00       		.byte	0
ARM GAS  e:\temp\ccP12Hvn.s 			page 154


 6470 13db 09       		.uleb128 0x9
 6471 13dc DE0F0000 		.4byte	.LASF240
 6472 13e0 04       		.byte	0x4
 6473 13e1 04       		.byte	0x4
 6474 13e2 5007     		.2byte	0x750
 6475 13e4 49140000 		.4byte	0x1449
 6476 13e8 0A       		.uleb128 0xa
 6477 13e9 6B120000 		.4byte	.LASF241
 6478 13ed 04       		.byte	0x4
 6479 13ee 5207     		.2byte	0x752
 6480 13f0 A2000000 		.4byte	0xa2
 6481 13f4 04       		.byte	0x4
 6482 13f5 02       		.byte	0x2
 6483 13f6 1E       		.byte	0x1e
 6484 13f7 00       		.byte	0
 6485 13f8 0A       		.uleb128 0xa
 6486 13f9 06010000 		.4byte	.LASF242
 6487 13fd 04       		.byte	0x4
 6488 13fe 5307     		.2byte	0x753
 6489 1400 A2000000 		.4byte	0xa2
 6490 1404 04       		.byte	0x4
 6491 1405 04       		.byte	0x4
 6492 1406 1A       		.byte	0x1a
 6493 1407 00       		.byte	0
 6494 1408 0A       		.uleb128 0xa
 6495 1409 2F100000 		.4byte	.LASF110
 6496 140d 04       		.byte	0x4
 6497 140e 5407     		.2byte	0x754
 6498 1410 A2000000 		.4byte	0xa2
 6499 1414 04       		.byte	0x4
 6500 1415 02       		.byte	0x2
 6501 1416 18       		.byte	0x18
 6502 1417 00       		.byte	0
 6503 1418 0A       		.uleb128 0xa
 6504 1419 5B080000 		.4byte	.LASF243
 6505 141d 04       		.byte	0x4
 6506 141e 5507     		.2byte	0x755
 6507 1420 A2000000 		.4byte	0xa2
 6508 1424 04       		.byte	0x4
 6509 1425 08       		.byte	0x8
 6510 1426 10       		.byte	0x10
 6511 1427 00       		.byte	0
 6512 1428 0A       		.uleb128 0xa
 6513 1429 430B0000 		.4byte	.LASF244
 6514 142d 04       		.byte	0x4
 6515 142e 5607     		.2byte	0x756
 6516 1430 A2000000 		.4byte	0xa2
 6517 1434 04       		.byte	0x4
 6518 1435 08       		.byte	0x8
 6519 1436 08       		.byte	0x8
 6520 1437 00       		.byte	0
 6521 1438 0A       		.uleb128 0xa
 6522 1439 35100000 		.4byte	.LASF118
 6523 143d 04       		.byte	0x4
 6524 143e 5707     		.2byte	0x757
 6525 1440 A2000000 		.4byte	0xa2
 6526 1444 04       		.byte	0x4
ARM GAS  e:\temp\ccP12Hvn.s 			page 155


 6527 1445 08       		.byte	0x8
 6528 1446 00       		.byte	0
 6529 1447 00       		.byte	0
 6530 1448 00       		.byte	0
 6531 1449 09       		.uleb128 0x9
 6532 144a 7A080000 		.4byte	.LASF245
 6533 144e 04       		.byte	0x4
 6534 144f 04       		.byte	0x4
 6535 1450 5B07     		.2byte	0x75b
 6536 1452 E7140000 		.4byte	0x14e7
 6537 1456 0A       		.uleb128 0xa
 6538 1457 B41C0000 		.4byte	.LASF246
 6539 145b 04       		.byte	0x4
 6540 145c 5D07     		.2byte	0x75d
 6541 145e A2000000 		.4byte	0xa2
 6542 1462 04       		.byte	0x4
 6543 1463 07       		.byte	0x7
 6544 1464 19       		.byte	0x19
 6545 1465 00       		.byte	0
 6546 1466 0A       		.uleb128 0xa
 6547 1467 2F100000 		.4byte	.LASF110
 6548 146b 04       		.byte	0x4
 6549 146c 5E07     		.2byte	0x75e
 6550 146e A2000000 		.4byte	0xa2
 6551 1472 04       		.byte	0x4
 6552 1473 01       		.byte	0x1
 6553 1474 18       		.byte	0x18
 6554 1475 00       		.byte	0
 6555 1476 0A       		.uleb128 0xa
 6556 1477 28190000 		.4byte	.LASF247
 6557 147b 04       		.byte	0x4
 6558 147c 5F07     		.2byte	0x75f
 6559 147e A2000000 		.4byte	0xa2
 6560 1482 04       		.byte	0x4
 6561 1483 08       		.byte	0x8
 6562 1484 10       		.byte	0x10
 6563 1485 00       		.byte	0
 6564 1486 0A       		.uleb128 0xa
 6565 1487 35100000 		.4byte	.LASF118
 6566 148b 04       		.byte	0x4
 6567 148c 6007     		.2byte	0x760
 6568 148e A2000000 		.4byte	0xa2
 6569 1492 04       		.byte	0x4
 6570 1493 01       		.byte	0x1
 6571 1494 0F       		.byte	0xf
 6572 1495 00       		.byte	0
 6573 1496 0A       		.uleb128 0xa
 6574 1497 221A0000 		.4byte	.LASF248
 6575 149b 04       		.byte	0x4
 6576 149c 6107     		.2byte	0x761
 6577 149e A2000000 		.4byte	0xa2
 6578 14a2 04       		.byte	0x4
 6579 14a3 08       		.byte	0x8
 6580 14a4 07       		.byte	0x7
 6581 14a5 00       		.byte	0
 6582 14a6 0A       		.uleb128 0xa
 6583 14a7 3B100000 		.4byte	.LASF211
ARM GAS  e:\temp\ccP12Hvn.s 			page 156


 6584 14ab 04       		.byte	0x4
 6585 14ac 6207     		.2byte	0x762
 6586 14ae A2000000 		.4byte	0xa2
 6587 14b2 04       		.byte	0x4
 6588 14b3 02       		.byte	0x2
 6589 14b4 05       		.byte	0x5
 6590 14b5 00       		.byte	0
 6591 14b6 0A       		.uleb128 0xa
 6592 14b7 CF190000 		.4byte	.LASF249
 6593 14bb 04       		.byte	0x4
 6594 14bc 6307     		.2byte	0x763
 6595 14be A2000000 		.4byte	0xa2
 6596 14c2 04       		.byte	0x4
 6597 14c3 01       		.byte	0x1
 6598 14c4 04       		.byte	0x4
 6599 14c5 00       		.byte	0
 6600 14c6 0A       		.uleb128 0xa
 6601 14c7 88190000 		.4byte	.LASF250
 6602 14cb 04       		.byte	0x4
 6603 14cc 6407     		.2byte	0x764
 6604 14ce A2000000 		.4byte	0xa2
 6605 14d2 04       		.byte	0x4
 6606 14d3 02       		.byte	0x2
 6607 14d4 02       		.byte	0x2
 6608 14d5 00       		.byte	0
 6609 14d6 0A       		.uleb128 0xa
 6610 14d7 2D180000 		.4byte	.LASF131
 6611 14db 04       		.byte	0x4
 6612 14dc 6507     		.2byte	0x765
 6613 14de A2000000 		.4byte	0xa2
 6614 14e2 04       		.byte	0x4
 6615 14e3 02       		.byte	0x2
 6616 14e4 00       		.byte	0
 6617 14e5 00       		.byte	0
 6618 14e6 00       		.byte	0
 6619 14e7 09       		.uleb128 0x9
 6620 14e8 80060000 		.4byte	.LASF251
 6621 14ec 04       		.byte	0x4
 6622 14ed 04       		.byte	0x4
 6623 14ee 6807     		.2byte	0x768
 6624 14f0 95150000 		.4byte	0x1595
 6625 14f4 0A       		.uleb128 0xa
 6626 14f5 160A0000 		.4byte	.LASF252
 6627 14f9 04       		.byte	0x4
 6628 14fa 6A07     		.2byte	0x76a
 6629 14fc A2000000 		.4byte	0xa2
 6630 1500 04       		.byte	0x4
 6631 1501 07       		.byte	0x7
 6632 1502 19       		.byte	0x19
 6633 1503 00       		.byte	0
 6634 1504 0A       		.uleb128 0xa
 6635 1505 2F100000 		.4byte	.LASF110
 6636 1509 04       		.byte	0x4
 6637 150a 6B07     		.2byte	0x76b
 6638 150c A2000000 		.4byte	0xa2
 6639 1510 04       		.byte	0x4
 6640 1511 01       		.byte	0x1
ARM GAS  e:\temp\ccP12Hvn.s 			page 157


 6641 1512 18       		.byte	0x18
 6642 1513 00       		.byte	0
 6643 1514 0A       		.uleb128 0xa
 6644 1515 28190000 		.4byte	.LASF247
 6645 1519 04       		.byte	0x4
 6646 151a 6C07     		.2byte	0x76c
 6647 151c A2000000 		.4byte	0xa2
 6648 1520 04       		.byte	0x4
 6649 1521 08       		.byte	0x8
 6650 1522 10       		.byte	0x10
 6651 1523 00       		.byte	0
 6652 1524 0A       		.uleb128 0xa
 6653 1525 35100000 		.4byte	.LASF118
 6654 1529 04       		.byte	0x4
 6655 152a 6D07     		.2byte	0x76d
 6656 152c A2000000 		.4byte	0xa2
 6657 1530 04       		.byte	0x4
 6658 1531 01       		.byte	0x1
 6659 1532 0F       		.byte	0xf
 6660 1533 00       		.byte	0
 6661 1534 0A       		.uleb128 0xa
 6662 1535 221A0000 		.4byte	.LASF248
 6663 1539 04       		.byte	0x4
 6664 153a 6E07     		.2byte	0x76e
 6665 153c A2000000 		.4byte	0xa2
 6666 1540 04       		.byte	0x4
 6667 1541 08       		.byte	0x8
 6668 1542 07       		.byte	0x7
 6669 1543 00       		.byte	0
 6670 1544 0A       		.uleb128 0xa
 6671 1545 3B100000 		.4byte	.LASF211
 6672 1549 04       		.byte	0x4
 6673 154a 6F07     		.2byte	0x76f
 6674 154c A2000000 		.4byte	0xa2
 6675 1550 04       		.byte	0x4
 6676 1551 01       		.byte	0x1
 6677 1552 06       		.byte	0x6
 6678 1553 00       		.byte	0
 6679 1554 0A       		.uleb128 0xa
 6680 1555 1A180000 		.4byte	.LASF253
 6681 1559 04       		.byte	0x4
 6682 155a 7007     		.2byte	0x770
 6683 155c A2000000 		.4byte	0xa2
 6684 1560 04       		.byte	0x4
 6685 1561 01       		.byte	0x1
 6686 1562 05       		.byte	0x5
 6687 1563 00       		.byte	0
 6688 1564 0A       		.uleb128 0xa
 6689 1565 41100000 		.4byte	.LASF254
 6690 1569 04       		.byte	0x4
 6691 156a 7107     		.2byte	0x771
 6692 156c A2000000 		.4byte	0xa2
 6693 1570 04       		.byte	0x4
 6694 1571 01       		.byte	0x1
 6695 1572 04       		.byte	0x4
 6696 1573 00       		.byte	0
 6697 1574 0A       		.uleb128 0xa
ARM GAS  e:\temp\ccP12Hvn.s 			page 158


 6698 1575 88190000 		.4byte	.LASF250
 6699 1579 04       		.byte	0x4
 6700 157a 7207     		.2byte	0x772
 6701 157c A2000000 		.4byte	0xa2
 6702 1580 04       		.byte	0x4
 6703 1581 02       		.byte	0x2
 6704 1582 02       		.byte	0x2
 6705 1583 00       		.byte	0
 6706 1584 0A       		.uleb128 0xa
 6707 1585 2D180000 		.4byte	.LASF131
 6708 1589 04       		.byte	0x4
 6709 158a 7307     		.2byte	0x773
 6710 158c A2000000 		.4byte	0xa2
 6711 1590 04       		.byte	0x4
 6712 1591 02       		.byte	0x2
 6713 1592 00       		.byte	0
 6714 1593 00       		.byte	0
 6715 1594 00       		.byte	0
 6716 1595 09       		.uleb128 0x9
 6717 1596 87100000 		.4byte	.LASF255
 6718 159a 04       		.byte	0x4
 6719 159b 04       		.byte	0x4
 6720 159c 7607     		.2byte	0x776
 6721 159e 53160000 		.4byte	0x1653
 6722 15a2 0A       		.uleb128 0xa
 6723 15a3 160A0000 		.4byte	.LASF252
 6724 15a7 04       		.byte	0x4
 6725 15a8 7807     		.2byte	0x778
 6726 15aa A2000000 		.4byte	0xa2
 6727 15ae 04       		.byte	0x4
 6728 15af 07       		.byte	0x7
 6729 15b0 19       		.byte	0x19
 6730 15b1 00       		.byte	0
 6731 15b2 0A       		.uleb128 0xa
 6732 15b3 2F100000 		.4byte	.LASF110
 6733 15b7 04       		.byte	0x4
 6734 15b8 7907     		.2byte	0x779
 6735 15ba A2000000 		.4byte	0xa2
 6736 15be 04       		.byte	0x4
 6737 15bf 02       		.byte	0x2
 6738 15c0 17       		.byte	0x17
 6739 15c1 00       		.byte	0
 6740 15c2 0A       		.uleb128 0xa
 6741 15c3 71080000 		.4byte	.LASF256
 6742 15c7 04       		.byte	0x4
 6743 15c8 7A07     		.2byte	0x77a
 6744 15ca A2000000 		.4byte	0xa2
 6745 15ce 04       		.byte	0x4
 6746 15cf 0B       		.byte	0xb
 6747 15d0 0C       		.byte	0xc
 6748 15d1 00       		.byte	0
 6749 15d2 0A       		.uleb128 0xa
 6750 15d3 35100000 		.4byte	.LASF118
 6751 15d7 04       		.byte	0x4
 6752 15d8 7B07     		.2byte	0x77b
 6753 15da A2000000 		.4byte	0xa2
 6754 15de 04       		.byte	0x4
ARM GAS  e:\temp\ccP12Hvn.s 			page 159


 6755 15df 03       		.byte	0x3
 6756 15e0 09       		.byte	0x9
 6757 15e1 00       		.byte	0
 6758 15e2 0A       		.uleb128 0xa
 6759 15e3 44040000 		.4byte	.LASF125
 6760 15e7 04       		.byte	0x4
 6761 15e8 7C07     		.2byte	0x77c
 6762 15ea A2000000 		.4byte	0xa2
 6763 15ee 04       		.byte	0x4
 6764 15ef 01       		.byte	0x1
 6765 15f0 08       		.byte	0x8
 6766 15f1 00       		.byte	0
 6767 15f2 0A       		.uleb128 0xa
 6768 15f3 4E190000 		.4byte	.LASF150
 6769 15f7 04       		.byte	0x4
 6770 15f8 7D07     		.2byte	0x77d
 6771 15fa A2000000 		.4byte	0xa2
 6772 15fe 04       		.byte	0x4
 6773 15ff 01       		.byte	0x1
 6774 1600 07       		.byte	0x7
 6775 1601 00       		.byte	0
 6776 1602 0A       		.uleb128 0xa
 6777 1603 00040000 		.4byte	.LASF127
 6778 1607 04       		.byte	0x4
 6779 1608 7E07     		.2byte	0x77e
 6780 160a A2000000 		.4byte	0xa2
 6781 160e 04       		.byte	0x4
 6782 160f 01       		.byte	0x1
 6783 1610 06       		.byte	0x6
 6784 1611 00       		.byte	0
 6785 1612 0A       		.uleb128 0xa
 6786 1613 BE170000 		.4byte	.LASF151
 6787 1617 04       		.byte	0x4
 6788 1618 7F07     		.2byte	0x77f
 6789 161a A2000000 		.4byte	0xa2
 6790 161e 04       		.byte	0x4
 6791 161f 01       		.byte	0x1
 6792 1620 05       		.byte	0x5
 6793 1621 00       		.byte	0
 6794 1622 0A       		.uleb128 0xa
 6795 1623 3B100000 		.4byte	.LASF211
 6796 1627 04       		.byte	0x4
 6797 1628 8007     		.2byte	0x780
 6798 162a A2000000 		.4byte	0xa2
 6799 162e 04       		.byte	0x4
 6800 162f 01       		.byte	0x1
 6801 1630 04       		.byte	0x4
 6802 1631 00       		.byte	0
 6803 1632 0A       		.uleb128 0xa
 6804 1633 3E120000 		.4byte	.LASF153
 6805 1637 04       		.byte	0x4
 6806 1638 8107     		.2byte	0x781
 6807 163a A2000000 		.4byte	0xa2
 6808 163e 04       		.byte	0x4
 6809 163f 03       		.byte	0x3
 6810 1640 01       		.byte	0x1
 6811 1641 00       		.byte	0
ARM GAS  e:\temp\ccP12Hvn.s 			page 160


 6812 1642 0A       		.uleb128 0xa
 6813 1643 FC0A0000 		.4byte	.LASF154
 6814 1647 04       		.byte	0x4
 6815 1648 8207     		.2byte	0x782
 6816 164a A2000000 		.4byte	0xa2
 6817 164e 04       		.byte	0x4
 6818 164f 01       		.byte	0x1
 6819 1650 00       		.byte	0
 6820 1651 00       		.byte	0
 6821 1652 00       		.byte	0
 6822 1653 09       		.uleb128 0x9
 6823 1654 59030000 		.4byte	.LASF257
 6824 1658 04       		.byte	0x4
 6825 1659 04       		.byte	0x4
 6826 165a 8507     		.2byte	0x785
 6827 165c 01170000 		.4byte	0x1701
 6828 1660 0A       		.uleb128 0xa
 6829 1661 2F100000 		.4byte	.LASF110
 6830 1665 04       		.byte	0x4
 6831 1666 8707     		.2byte	0x787
 6832 1668 A2000000 		.4byte	0xa2
 6833 166c 04       		.byte	0x4
 6834 166d 10       		.byte	0x10
 6835 166e 10       		.byte	0x10
 6836 166f 00       		.byte	0
 6837 1670 0A       		.uleb128 0xa
 6838 1671 620B0000 		.4byte	.LASF258
 6839 1675 04       		.byte	0x4
 6840 1676 8807     		.2byte	0x788
 6841 1678 A2000000 		.4byte	0xa2
 6842 167c 04       		.byte	0x4
 6843 167d 04       		.byte	0x4
 6844 167e 0C       		.byte	0xc
 6845 167f 00       		.byte	0
 6846 1680 0A       		.uleb128 0xa
 6847 1681 0D140000 		.4byte	.LASF259
 6848 1685 04       		.byte	0x4
 6849 1686 8907     		.2byte	0x789
 6850 1688 A2000000 		.4byte	0xa2
 6851 168c 04       		.byte	0x4
 6852 168d 04       		.byte	0x4
 6853 168e 08       		.byte	0x8
 6854 168f 00       		.byte	0
 6855 1690 0A       		.uleb128 0xa
 6856 1691 35100000 		.4byte	.LASF118
 6857 1695 04       		.byte	0x4
 6858 1696 8A07     		.2byte	0x78a
 6859 1698 A2000000 		.4byte	0xa2
 6860 169c 04       		.byte	0x4
 6861 169d 01       		.byte	0x1
 6862 169e 07       		.byte	0x7
 6863 169f 00       		.byte	0
 6864 16a0 0A       		.uleb128 0xa
 6865 16a1 350C0000 		.4byte	.LASF260
 6866 16a5 04       		.byte	0x4
 6867 16a6 8B07     		.2byte	0x78b
 6868 16a8 A2000000 		.4byte	0xa2
ARM GAS  e:\temp\ccP12Hvn.s 			page 161


 6869 16ac 04       		.byte	0x4
 6870 16ad 01       		.byte	0x1
 6871 16ae 06       		.byte	0x6
 6872 16af 00       		.byte	0
 6873 16b0 0B       		.uleb128 0xb
 6874 16b1 6F637000 		.ascii	"ocp\000"
 6875 16b5 04       		.byte	0x4
 6876 16b6 8C07     		.2byte	0x78c
 6877 16b8 A2000000 		.4byte	0xa2
 6878 16bc 04       		.byte	0x4
 6879 16bd 01       		.byte	0x1
 6880 16be 05       		.byte	0x5
 6881 16bf 00       		.byte	0
 6882 16c0 0B       		.uleb128 0xb
 6883 16c1 6F747000 		.ascii	"otp\000"
 6884 16c5 04       		.byte	0x4
 6885 16c6 8D07     		.2byte	0x78d
 6886 16c8 A2000000 		.4byte	0xa2
 6887 16cc 04       		.byte	0x4
 6888 16cd 01       		.byte	0x1
 6889 16ce 04       		.byte	0x4
 6890 16cf 00       		.byte	0
 6891 16d0 0A       		.uleb128 0xa
 6892 16d1 E0140000 		.4byte	.LASF261
 6893 16d5 04       		.byte	0x4
 6894 16d6 8E07     		.2byte	0x78e
 6895 16d8 A2000000 		.4byte	0xa2
 6896 16dc 04       		.byte	0x4
 6897 16dd 01       		.byte	0x1
 6898 16de 03       		.byte	0x3
 6899 16df 00       		.byte	0
 6900 16e0 0A       		.uleb128 0xa
 6901 16e1 31140000 		.4byte	.LASF262
 6902 16e5 04       		.byte	0x4
 6903 16e6 8F07     		.2byte	0x78f
 6904 16e8 A2000000 		.4byte	0xa2
 6905 16ec 04       		.byte	0x4
 6906 16ed 01       		.byte	0x1
 6907 16ee 02       		.byte	0x2
 6908 16ef 00       		.byte	0
 6909 16f0 0B       		.uleb128 0xb
 6910 16f1 6F767000 		.ascii	"ovp\000"
 6911 16f5 04       		.byte	0x4
 6912 16f6 9007     		.2byte	0x790
 6913 16f8 A2000000 		.4byte	0xa2
 6914 16fc 04       		.byte	0x4
 6915 16fd 01       		.byte	0x1
 6916 16fe 01       		.byte	0x1
 6917 16ff 00       		.byte	0
 6918 1700 00       		.byte	0
 6919 1701 09       		.uleb128 0x9
 6920 1702 EE1B0000 		.4byte	.LASF263
 6921 1706 04       		.byte	0x4
 6922 1707 04       		.byte	0x4
 6923 1708 9307     		.2byte	0x793
 6924 170a 8F170000 		.4byte	0x178f
 6925 170e 0A       		.uleb128 0xa
ARM GAS  e:\temp\ccP12Hvn.s 			page 162


 6926 170f F9080000 		.4byte	.LASF264
 6927 1713 04       		.byte	0x4
 6928 1714 9507     		.2byte	0x795
 6929 1716 A2000000 		.4byte	0xa2
 6930 171a 04       		.byte	0x4
 6931 171b 10       		.byte	0x10
 6932 171c 10       		.byte	0x10
 6933 171d 00       		.byte	0
 6934 171e 0A       		.uleb128 0xa
 6935 171f 63030000 		.4byte	.LASF265
 6936 1723 04       		.byte	0x4
 6937 1724 9607     		.2byte	0x796
 6938 1726 A2000000 		.4byte	0xa2
 6939 172a 04       		.byte	0x4
 6940 172b 03       		.byte	0x3
 6941 172c 0D       		.byte	0xd
 6942 172d 00       		.byte	0
 6943 172e 0A       		.uleb128 0xa
 6944 172f 78060000 		.4byte	.LASF266
 6945 1733 04       		.byte	0x4
 6946 1734 9707     		.2byte	0x797
 6947 1736 A2000000 		.4byte	0xa2
 6948 173a 04       		.byte	0x4
 6949 173b 02       		.byte	0x2
 6950 173c 0B       		.byte	0xb
 6951 173d 00       		.byte	0
 6952 173e 0A       		.uleb128 0xa
 6953 173f C81B0000 		.4byte	.LASF267
 6954 1743 04       		.byte	0x4
 6955 1744 9807     		.2byte	0x798
 6956 1746 A2000000 		.4byte	0xa2
 6957 174a 04       		.byte	0x4
 6958 174b 01       		.byte	0x1
 6959 174c 0A       		.byte	0xa
 6960 174d 00       		.byte	0
 6961 174e 0B       		.uleb128 0xb
 6962 174f 63626C00 		.ascii	"cbl\000"
 6963 1753 04       		.byte	0x4
 6964 1754 9907     		.2byte	0x799
 6965 1756 A2000000 		.4byte	0xa2
 6966 175a 04       		.byte	0x4
 6967 175b 01       		.byte	0x1
 6968 175c 09       		.byte	0x9
 6969 175d 00       		.byte	0
 6970 175e 0A       		.uleb128 0xa
 6971 175f B10F0000 		.4byte	.LASF268
 6972 1763 04       		.byte	0x4
 6973 1764 9A07     		.2byte	0x79a
 6974 1766 A2000000 		.4byte	0xa2
 6975 176a 04       		.byte	0x4
 6976 176b 01       		.byte	0x1
 6977 176c 08       		.byte	0x8
 6978 176d 00       		.byte	0
 6979 176e 0A       		.uleb128 0xa
 6980 176f DE130000 		.4byte	.LASF269
 6981 1773 04       		.byte	0x4
 6982 1774 9B07     		.2byte	0x79b
ARM GAS  e:\temp\ccP12Hvn.s 			page 163


 6983 1776 A2000000 		.4byte	0xa2
 6984 177a 04       		.byte	0x4
 6985 177b 01       		.byte	0x1
 6986 177c 07       		.byte	0x7
 6987 177d 00       		.byte	0
 6988 177e 0A       		.uleb128 0xa
 6989 177f FD150000 		.4byte	.LASF231
 6990 1783 04       		.byte	0x4
 6991 1784 9C07     		.2byte	0x79c
 6992 1786 A2000000 		.4byte	0xa2
 6993 178a 04       		.byte	0x4
 6994 178b 07       		.byte	0x7
 6995 178c 00       		.byte	0
 6996 178d 00       		.byte	0
 6997 178e 00       		.byte	0
 6998 178f 09       		.uleb128 0x9
 6999 1790 1C170000 		.4byte	.LASF270
 7000 1794 04       		.byte	0x4
 7001 1795 04       		.byte	0x4
 7002 1796 9F07     		.2byte	0x79f
 7003 1798 CD170000 		.4byte	0x17cd
 7004 179c 0A       		.uleb128 0xa
 7005 179d 02160000 		.4byte	.LASF271
 7006 17a1 04       		.byte	0x4
 7007 17a2 A107     		.2byte	0x7a1
 7008 17a4 A2000000 		.4byte	0xa2
 7009 17a8 04       		.byte	0x4
 7010 17a9 10       		.byte	0x10
 7011 17aa 10       		.byte	0x10
 7012 17ab 00       		.byte	0
 7013 17ac 0A       		.uleb128 0xa
 7014 17ad AE0C0000 		.4byte	.LASF272
 7015 17b1 04       		.byte	0x4
 7016 17b2 A207     		.2byte	0x7a2
 7017 17b4 A2000000 		.4byte	0xa2
 7018 17b8 04       		.byte	0x4
 7019 17b9 02       		.byte	0x2
 7020 17ba 0E       		.byte	0xe
 7021 17bb 00       		.byte	0
 7022 17bc 0A       		.uleb128 0xa
 7023 17bd FD150000 		.4byte	.LASF231
 7024 17c1 04       		.byte	0x4
 7025 17c2 A307     		.2byte	0x7a3
 7026 17c4 A2000000 		.4byte	0xa2
 7027 17c8 04       		.byte	0x4
 7028 17c9 0E       		.byte	0xe
 7029 17ca 00       		.byte	0
 7030 17cb 00       		.byte	0
 7031 17cc 00       		.byte	0
 7032 17cd 09       		.uleb128 0x9
 7033 17ce 6A140000 		.4byte	.LASF273
 7034 17d2 04       		.byte	0x4
 7035 17d3 04       		.byte	0x4
 7036 17d4 A607     		.2byte	0x7a6
 7037 17d6 1B180000 		.4byte	0x181b
 7038 17da 0A       		.uleb128 0xa
 7039 17db 910F0000 		.4byte	.LASF274
ARM GAS  e:\temp\ccP12Hvn.s 			page 164


 7040 17df 04       		.byte	0x4
 7041 17e0 A807     		.2byte	0x7a8
 7042 17e2 A2000000 		.4byte	0xa2
 7043 17e6 04       		.byte	0x4
 7044 17e7 14       		.byte	0x14
 7045 17e8 0C       		.byte	0xc
 7046 17e9 00       		.byte	0
 7047 17ea 0A       		.uleb128 0xa
 7048 17eb 2E170000 		.4byte	.LASF275
 7049 17ef 04       		.byte	0x4
 7050 17f0 A907     		.2byte	0x7a9
 7051 17f2 A2000000 		.4byte	0xa2
 7052 17f6 04       		.byte	0x4
 7053 17f7 03       		.byte	0x3
 7054 17f8 09       		.byte	0x9
 7055 17f9 00       		.byte	0
 7056 17fa 0A       		.uleb128 0xa
 7057 17fb 8F1C0000 		.4byte	.LASF276
 7058 17ff 04       		.byte	0x4
 7059 1800 AA07     		.2byte	0x7aa
 7060 1802 A2000000 		.4byte	0xa2
 7061 1806 04       		.byte	0x4
 7062 1807 01       		.byte	0x1
 7063 1808 08       		.byte	0x8
 7064 1809 00       		.byte	0
 7065 180a 0A       		.uleb128 0xa
 7066 180b 3A0B0000 		.4byte	.LASF277
 7067 180f 04       		.byte	0x4
 7068 1810 AB07     		.2byte	0x7ab
 7069 1812 A2000000 		.4byte	0xa2
 7070 1816 04       		.byte	0x4
 7071 1817 08       		.byte	0x8
 7072 1818 00       		.byte	0
 7073 1819 00       		.byte	0
 7074 181a 00       		.byte	0
 7075 181b 0C       		.uleb128 0xc
 7076 181c 04       		.byte	0x4
 7077 181d 04       		.byte	0x4
 7078 181e FB05     		.2byte	0x5fb
 7079 1820 ED190000 		.4byte	0x19ed
 7080 1824 0D       		.uleb128 0xd
 7081 1825 76616C00 		.ascii	"val\000"
 7082 1829 04       		.byte	0x4
 7083 182a FE05     		.2byte	0x5fe
 7084 182c A2000000 		.4byte	0xa2
 7085 1830 0F       		.uleb128 0xf
 7086 1831 67090000 		.4byte	.LASF278
 7087 1835 04       		.byte	0x4
 7088 1836 0506     		.2byte	0x605
 7089 1838 C6040000 		.4byte	0x4c6
 7090 183c 0F       		.uleb128 0xf
 7091 183d 4E150000 		.4byte	.LASF279
 7092 1841 04       		.byte	0x4
 7093 1842 1406     		.2byte	0x614
 7094 1844 04050000 		.4byte	0x504
 7095 1848 0F       		.uleb128 0xf
 7096 1849 F61B0000 		.4byte	.LASF280
ARM GAS  e:\temp\ccP12Hvn.s 			page 165


 7097 184d 04       		.byte	0x4
 7098 184e 1C06     		.2byte	0x61c
 7099 1850 C2050000 		.4byte	0x5c2
 7100 1854 0F       		.uleb128 0xf
 7101 1855 46190000 		.4byte	.LASF281
 7102 1859 04       		.byte	0x4
 7103 185a 2406     		.2byte	0x624
 7104 185c 10060000 		.4byte	0x610
 7105 1860 0F       		.uleb128 0xf
 7106 1861 0B0B0000 		.4byte	.LASF282
 7107 1865 04       		.byte	0x4
 7108 1866 2C06     		.2byte	0x62c
 7109 1868 5E060000 		.4byte	0x65e
 7110 186c 0F       		.uleb128 0xf
 7111 186d C2130000 		.4byte	.LASF283
 7112 1871 04       		.byte	0x4
 7113 1872 3A06     		.2byte	0x63a
 7114 1874 AC060000 		.4byte	0x6ac
 7115 1878 0F       		.uleb128 0xf
 7116 1879 9F190000 		.4byte	.LASF284
 7117 187d 04       		.byte	0x4
 7118 187e 4206     		.2byte	0x642
 7119 1880 5A070000 		.4byte	0x75a
 7120 1884 0F       		.uleb128 0xf
 7121 1885 2B1A0000 		.4byte	.LASF285
 7122 1889 04       		.byte	0x4
 7123 188a 4A06     		.2byte	0x64a
 7124 188c A8070000 		.4byte	0x7a8
 7125 1890 0F       		.uleb128 0xf
 7126 1891 E10D0000 		.4byte	.LASF286
 7127 1895 04       		.byte	0x4
 7128 1896 5806     		.2byte	0x658
 7129 1898 F6070000 		.4byte	0x7f6
 7130 189c 0F       		.uleb128 0xf
 7131 189d 9B010000 		.4byte	.LASF287
 7132 18a1 04       		.byte	0x4
 7133 18a2 6606     		.2byte	0x666
 7134 18a4 A4080000 		.4byte	0x8a4
 7135 18a8 0F       		.uleb128 0xf
 7136 18a9 68060000 		.4byte	.LASF288
 7137 18ad 04       		.byte	0x4
 7138 18ae 7406     		.2byte	0x674
 7139 18b0 52090000 		.4byte	0x952
 7140 18b4 0F       		.uleb128 0xf
 7141 18b5 5A010000 		.4byte	.LASF289
 7142 18b9 04       		.byte	0x4
 7143 18ba 8206     		.2byte	0x682
 7144 18bc 000A0000 		.4byte	0xa00
 7145 18c0 0F       		.uleb128 0xf
 7146 18c1 AB150000 		.4byte	.LASF290
 7147 18c5 04       		.byte	0x4
 7148 18c6 9006     		.2byte	0x690
 7149 18c8 AE0A0000 		.4byte	0xaae
 7150 18cc 0F       		.uleb128 0xf
 7151 18cd 22120000 		.4byte	.LASF291
 7152 18d1 04       		.byte	0x4
 7153 18d2 9E06     		.2byte	0x69e
ARM GAS  e:\temp\ccP12Hvn.s 			page 166


 7154 18d4 5C0B0000 		.4byte	0xb5c
 7155 18d8 0F       		.uleb128 0xf
 7156 18d9 F1110000 		.4byte	.LASF292
 7157 18dd 04       		.byte	0x4
 7158 18de AA06     		.2byte	0x6aa
 7159 18e0 0A0C0000 		.4byte	0xc0a
 7160 18e4 0F       		.uleb128 0xf
 7161 18e5 4E080000 		.4byte	.LASF293
 7162 18e9 04       		.byte	0x4
 7163 18ea B506     		.2byte	0x6b5
 7164 18ec 980C0000 		.4byte	0xc98
 7165 18f0 0F       		.uleb128 0xf
 7166 18f1 90090000 		.4byte	.LASF294
 7167 18f5 04       		.byte	0x4
 7168 18f6 BD06     		.2byte	0x6bd
 7169 18f8 160D0000 		.4byte	0xd16
 7170 18fc 0F       		.uleb128 0xf
 7171 18fd 82110000 		.4byte	.LASF295
 7172 1901 04       		.byte	0x4
 7173 1902 C506     		.2byte	0x6c5
 7174 1904 640D0000 		.4byte	0xd64
 7175 1908 0F       		.uleb128 0xf
 7176 1909 171A0000 		.4byte	.LASF296
 7177 190d 04       		.byte	0x4
 7178 190e D406     		.2byte	0x6d4
 7179 1910 B20D0000 		.4byte	0xdb2
 7180 1914 0F       		.uleb128 0xf
 7181 1915 C3140000 		.4byte	.LASF297
 7182 1919 04       		.byte	0x4
 7183 191a D906     		.2byte	0x6d9
 7184 191c 300E0000 		.4byte	0xe30
 7185 1920 0F       		.uleb128 0xf
 7186 1921 34070000 		.4byte	.LASF298
 7187 1925 04       		.byte	0x4
 7188 1926 DF06     		.2byte	0x6df
 7189 1928 4E0E0000 		.4byte	0xe4e
 7190 192c 0F       		.uleb128 0xf
 7191 192d BF150000 		.4byte	.LASF299
 7192 1931 04       		.byte	0x4
 7193 1932 F206     		.2byte	0x6f2
 7194 1934 7C0E0000 		.4byte	0xe7c
 7195 1938 0F       		.uleb128 0xf
 7196 1939 850E0000 		.4byte	.LASF300
 7197 193d 04       		.byte	0x4
 7198 193e 0307     		.2byte	0x703
 7199 1940 7A0F0000 		.4byte	0xf7a
 7200 1944 0F       		.uleb128 0xf
 7201 1945 0B010000 		.4byte	.LASF301
 7202 1949 04       		.byte	0x4
 7203 194a 1507     		.2byte	0x715
 7204 194c 58100000 		.4byte	0x1058
 7205 1950 0F       		.uleb128 0xf
 7206 1951 FA000000 		.4byte	.LASF302
 7207 1955 04       		.byte	0x4
 7208 1956 2407     		.2byte	0x724
 7209 1958 46110000 		.4byte	0x1146
 7210 195c 0F       		.uleb128 0xf
ARM GAS  e:\temp\ccP12Hvn.s 			page 167


 7211 195d 810F0000 		.4byte	.LASF303
 7212 1961 04       		.byte	0x4
 7213 1962 3007     		.2byte	0x730
 7214 1964 04120000 		.4byte	0x1204
 7215 1968 0F       		.uleb128 0xf
 7216 1969 F20C0000 		.4byte	.LASF304
 7217 196d 04       		.byte	0x4
 7218 196e 3607     		.2byte	0x736
 7219 1970 92120000 		.4byte	0x1292
 7220 1974 0F       		.uleb128 0xf
 7221 1975 67130000 		.4byte	.LASF305
 7222 1979 04       		.byte	0x4
 7223 197a 4107     		.2byte	0x741
 7224 197c C0120000 		.4byte	0x12c0
 7225 1980 0F       		.uleb128 0xf
 7226 1981 21180000 		.4byte	.LASF306
 7227 1985 04       		.byte	0x4
 7228 1986 4E07     		.2byte	0x74e
 7229 1988 3E130000 		.4byte	0x133e
 7230 198c 0F       		.uleb128 0xf
 7231 198d 66080000 		.4byte	.LASF307
 7232 1991 04       		.byte	0x4
 7233 1992 5807     		.2byte	0x758
 7234 1994 DB130000 		.4byte	0x13db
 7235 1998 0F       		.uleb128 0xf
 7236 1999 A20F0000 		.4byte	.LASF308
 7237 199d 04       		.byte	0x4
 7238 199e 6607     		.2byte	0x766
 7239 19a0 49140000 		.4byte	0x1449
 7240 19a4 0F       		.uleb128 0xf
 7241 19a5 0C0E0000 		.4byte	.LASF309
 7242 19a9 04       		.byte	0x4
 7243 19aa 7407     		.2byte	0x774
 7244 19ac E7140000 		.4byte	0x14e7
 7245 19b0 0F       		.uleb128 0xf
 7246 19b1 8C080000 		.4byte	.LASF310
 7247 19b5 04       		.byte	0x4
 7248 19b6 8307     		.2byte	0x783
 7249 19b8 95150000 		.4byte	0x1595
 7250 19bc 0F       		.uleb128 0xf
 7251 19bd 520D0000 		.4byte	.LASF311
 7252 19c1 04       		.byte	0x4
 7253 19c2 9107     		.2byte	0x791
 7254 19c4 53160000 		.4byte	0x1653
 7255 19c8 0F       		.uleb128 0xf
 7256 19c9 70060000 		.4byte	.LASF312
 7257 19cd 04       		.byte	0x4
 7258 19ce 9D07     		.2byte	0x79d
 7259 19d0 01170000 		.4byte	0x1701
 7260 19d4 0F       		.uleb128 0xf
 7261 19d5 0C120000 		.4byte	.LASF313
 7262 19d9 04       		.byte	0x4
 7263 19da A407     		.2byte	0x7a4
 7264 19dc 8F170000 		.4byte	0x178f
 7265 19e0 0F       		.uleb128 0xf
 7266 19e1 291B0000 		.4byte	.LASF314
 7267 19e5 04       		.byte	0x4
ARM GAS  e:\temp\ccP12Hvn.s 			page 168


 7268 19e6 AC07     		.2byte	0x7ac
 7269 19e8 CD170000 		.4byte	0x17cd
 7270 19ec 00       		.byte	0
 7271 19ed 07       		.uleb128 0x7
 7272 19ee DB0B0000 		.4byte	.LASF315
 7273 19f2 04       		.byte	0x4
 7274 19f3 AF07     		.2byte	0x7af
 7275 19f5 1B180000 		.4byte	0x181b
 7276 19f9 10       		.uleb128 0x10
 7277 19fa 8C000000 		.4byte	0x8c
 7278 19fe 091A0000 		.4byte	0x1a09
 7279 1a02 11       		.uleb128 0x11
 7280 1a03 C9000000 		.4byte	0xc9
 7281 1a07 02       		.byte	0x2
 7282 1a08 00       		.byte	0
 7283 1a09 10       		.uleb128 0x10
 7284 1a0a 97000000 		.4byte	0x97
 7285 1a0e 191A0000 		.4byte	0x1a19
 7286 1a12 11       		.uleb128 0x11
 7287 1a13 C9000000 		.4byte	0xc9
 7288 1a17 03       		.byte	0x3
 7289 1a18 00       		.byte	0
 7290 1a19 0E       		.uleb128 0xe
 7291 1a1a 20       		.byte	0x20
 7292 1a1b 04       		.byte	0x4
 7293 1a1c 6F09     		.2byte	0x96f
 7294 1a1e 4A1A0000 		.4byte	0x1a4a
 7295 1a22 12       		.uleb128 0x12
 7296 1a23 ED010000 		.4byte	.LASF316
 7297 1a27 04       		.byte	0x4
 7298 1a28 7109     		.2byte	0x971
 7299 1a2a 4A1A0000 		.4byte	0x1a4a
 7300 1a2e 00       		.byte	0
 7301 1a2f 12       		.uleb128 0x12
 7302 1a30 51010000 		.4byte	.LASF317
 7303 1a34 04       		.byte	0x4
 7304 1a35 7209     		.2byte	0x972
 7305 1a37 8C000000 		.4byte	0x8c
 7306 1a3b 1C       		.byte	0x1c
 7307 1a3c 12       		.uleb128 0x12
 7308 1a3d 18140000 		.4byte	.LASF318
 7309 1a41 04       		.byte	0x4
 7310 1a42 7309     		.2byte	0x973
 7311 1a44 36030000 		.4byte	0x336
 7312 1a48 1D       		.byte	0x1d
 7313 1a49 00       		.byte	0
 7314 1a4a 10       		.uleb128 0x10
 7315 1a4b ED190000 		.4byte	0x19ed
 7316 1a4f 5A1A0000 		.4byte	0x1a5a
 7317 1a53 11       		.uleb128 0x11
 7318 1a54 C9000000 		.4byte	0xc9
 7319 1a58 06       		.byte	0x6
 7320 1a59 00       		.byte	0
 7321 1a5a 07       		.uleb128 0x7
 7322 1a5b D8180000 		.4byte	.LASF319
 7323 1a5f 04       		.byte	0x4
 7324 1a60 7409     		.2byte	0x974
ARM GAS  e:\temp\ccP12Hvn.s 			page 169


 7325 1a62 191A0000 		.4byte	0x1a19
 7326 1a66 0E       		.uleb128 0xe
 7327 1a67 2C       		.byte	0x2c
 7328 1a68 04       		.byte	0x4
 7329 1a69 7C09     		.2byte	0x97c
 7330 1a6b CB1A0000 		.4byte	0x1acb
 7331 1a6f 12       		.uleb128 0x12
 7332 1a70 D7050000 		.4byte	.LASF320
 7333 1a74 04       		.byte	0x4
 7334 1a75 7E09     		.2byte	0x97e
 7335 1a77 7C010000 		.4byte	0x17c
 7336 1a7b 00       		.byte	0
 7337 1a7c 12       		.uleb128 0x12
 7338 1a7d 33160000 		.4byte	.LASF321
 7339 1a81 04       		.byte	0x4
 7340 1a82 7F09     		.2byte	0x97f
 7341 1a84 32010000 		.4byte	0x132
 7342 1a88 01       		.byte	0x1
 7343 1a89 12       		.uleb128 0x12
 7344 1a8a 8F1A0000 		.4byte	.LASF322
 7345 1a8e 04       		.byte	0x4
 7346 1a8f 8009     		.2byte	0x980
 7347 1a91 BA040000 		.4byte	0x4ba
 7348 1a95 02       		.byte	0x2
 7349 1a96 12       		.uleb128 0x12
 7350 1a97 39110000 		.4byte	.LASF323
 7351 1a9b 04       		.byte	0x4
 7352 1a9c 8109     		.2byte	0x981
 7353 1a9e 8C000000 		.4byte	0x8c
 7354 1aa2 04       		.byte	0x4
 7355 1aa3 12       		.uleb128 0x12
 7356 1aa4 B9010000 		.4byte	.LASF324
 7357 1aa8 04       		.byte	0x4
 7358 1aa9 8209     		.2byte	0x982
 7359 1aab CB1A0000 		.4byte	0x1acb
 7360 1aaf 08       		.byte	0x8
 7361 1ab0 12       		.uleb128 0x12
 7362 1ab1 D7080000 		.4byte	.LASF325
 7363 1ab5 04       		.byte	0x4
 7364 1ab6 8309     		.2byte	0x983
 7365 1ab8 8C000000 		.4byte	0x8c
 7366 1abc 0C       		.byte	0xc
 7367 1abd 12       		.uleb128 0x12
 7368 1abe 1D0A0000 		.4byte	.LASF326
 7369 1ac2 04       		.byte	0x4
 7370 1ac3 8709     		.2byte	0x987
 7371 1ac5 4A1A0000 		.4byte	0x1a4a
 7372 1ac9 10       		.byte	0x10
 7373 1aca 00       		.byte	0
 7374 1acb 13       		.uleb128 0x13
 7375 1acc 04       		.byte	0x4
 7376 1acd 8C000000 		.4byte	0x8c
 7377 1ad1 07       		.uleb128 0x7
 7378 1ad2 FA180000 		.4byte	.LASF327
 7379 1ad6 04       		.byte	0x4
 7380 1ad7 8809     		.2byte	0x988
 7381 1ad9 661A0000 		.4byte	0x1a66
ARM GAS  e:\temp\ccP12Hvn.s 			page 170


 7382 1add 0E       		.uleb128 0xe
 7383 1ade 24       		.byte	0x24
 7384 1adf 04       		.byte	0x4
 7385 1ae0 A109     		.2byte	0x9a1
 7386 1ae2 351B0000 		.4byte	0x1b35
 7387 1ae6 14       		.uleb128 0x14
 7388 1ae7 736F7000 		.ascii	"sop\000"
 7389 1aeb 04       		.byte	0x4
 7390 1aec A309     		.2byte	0x9a3
 7391 1aee 8C000000 		.4byte	0x8c
 7392 1af2 00       		.byte	0
 7393 1af3 14       		.uleb128 0x14
 7394 1af4 6C656E00 		.ascii	"len\000"
 7395 1af8 04       		.byte	0x4
 7396 1af9 A409     		.2byte	0x9a4
 7397 1afb 8C000000 		.4byte	0x8c
 7398 1aff 01       		.byte	0x1
 7399 1b00 14       		.uleb128 0x14
 7400 1b01 6D736700 		.ascii	"msg\000"
 7401 1b05 04       		.byte	0x4
 7402 1b06 A509     		.2byte	0x9a5
 7403 1b08 8C000000 		.4byte	0x8c
 7404 1b0c 02       		.byte	0x2
 7405 1b0d 12       		.uleb128 0x12
 7406 1b0e C81C0000 		.4byte	.LASF104
 7407 1b12 04       		.byte	0x4
 7408 1b13 A609     		.2byte	0x9a6
 7409 1b15 8C000000 		.4byte	0x8c
 7410 1b19 03       		.byte	0x3
 7411 1b1a 14       		.uleb128 0x14
 7412 1b1b 68647200 		.ascii	"hdr\000"
 7413 1b1f 04       		.byte	0x4
 7414 1b20 A709     		.2byte	0x9a7
 7415 1b22 32040000 		.4byte	0x432
 7416 1b26 04       		.byte	0x4
 7417 1b27 14       		.uleb128 0x14
 7418 1b28 64617400 		.ascii	"dat\000"
 7419 1b2c 04       		.byte	0x4
 7420 1b2d A809     		.2byte	0x9a8
 7421 1b2f 4A1A0000 		.4byte	0x1a4a
 7422 1b33 08       		.byte	0x8
 7423 1b34 00       		.byte	0
 7424 1b35 07       		.uleb128 0x7
 7425 1b36 8D020000 		.4byte	.LASF328
 7426 1b3a 04       		.byte	0x4
 7427 1b3b A909     		.2byte	0x9a9
 7428 1b3d DD1A0000 		.4byte	0x1add
 7429 1b41 13       		.uleb128 0x13
 7430 1b42 04       		.byte	0x4
 7431 1b43 471B0000 		.4byte	0x1b47
 7432 1b47 15       		.uleb128 0x15
 7433 1b48 351B0000 		.4byte	0x1b35
 7434 1b4c 13       		.uleb128 0x13
 7435 1b4d 04       		.byte	0x4
 7436 1b4e 5A1A0000 		.4byte	0x1a5a
 7437 1b52 13       		.uleb128 0x13
 7438 1b53 04       		.byte	0x4
ARM GAS  e:\temp\ccP12Hvn.s 			page 171


 7439 1b54 581B0000 		.4byte	0x1b58
 7440 1b58 16       		.uleb128 0x16
 7441 1b59 631B0000 		.4byte	0x1b63
 7442 1b5d 17       		.uleb128 0x17
 7443 1b5e 8C000000 		.4byte	0x8c
 7444 1b62 00       		.byte	0
 7445 1b63 02       		.uleb128 0x2
 7446 1b64 01       		.byte	0x1
 7447 1b65 02       		.byte	0x2
 7448 1b66 3C010000 		.4byte	.LASF329
 7449 1b6a 13       		.uleb128 0x13
 7450 1b6b 04       		.byte	0x4
 7451 1b6c D11A0000 		.4byte	0x1ad1
 7452 1b70 18       		.uleb128 0x18
 7453 1b71 01       		.byte	0x1
 7454 1b72 37000000 		.4byte	0x37
 7455 1b76 05       		.byte	0x5
 7456 1b77 63       		.byte	0x63
 7457 1b78 AD1B0000 		.4byte	0x1bad
 7458 1b7c 06       		.uleb128 0x6
 7459 1b7d C4030000 		.4byte	.LASF330
 7460 1b81 00       		.byte	0
 7461 1b82 06       		.uleb128 0x6
 7462 1b83 BF120000 		.4byte	.LASF331
 7463 1b87 01       		.byte	0x1
 7464 1b88 06       		.uleb128 0x6
 7465 1b89 6A020000 		.4byte	.LASF332
 7466 1b8d 02       		.byte	0x2
 7467 1b8e 06       		.uleb128 0x6
 7468 1b8f F90D0000 		.4byte	.LASF333
 7469 1b93 03       		.byte	0x3
 7470 1b94 06       		.uleb128 0x6
 7471 1b95 17010000 		.4byte	.LASF334
 7472 1b99 04       		.byte	0x4
 7473 1b9a 06       		.uleb128 0x6
 7474 1b9b 981A0000 		.4byte	.LASF335
 7475 1b9f 05       		.byte	0x5
 7476 1ba0 06       		.uleb128 0x6
 7477 1ba1 580A0000 		.4byte	.LASF336
 7478 1ba5 06       		.byte	0x6
 7479 1ba6 06       		.uleb128 0x6
 7480 1ba7 DB120000 		.4byte	.LASF337
 7481 1bab 07       		.byte	0x7
 7482 1bac 00       		.byte	0
 7483 1bad 03       		.uleb128 0x3
 7484 1bae 45030000 		.4byte	.LASF338
 7485 1bb2 05       		.byte	0x5
 7486 1bb3 6E       		.byte	0x6e
 7487 1bb4 701B0000 		.4byte	0x1b70
 7488 1bb8 18       		.uleb128 0x18
 7489 1bb9 01       		.byte	0x1
 7490 1bba 37000000 		.4byte	0x37
 7491 1bbe 05       		.byte	0x5
 7492 1bbf 77       		.byte	0x77
 7493 1bc0 DD1B0000 		.4byte	0x1bdd
 7494 1bc4 06       		.uleb128 0x6
 7495 1bc5 950B0000 		.4byte	.LASF339
ARM GAS  e:\temp\ccP12Hvn.s 			page 172


 7496 1bc9 00       		.byte	0
 7497 1bca 06       		.uleb128 0x6
 7498 1bcb 5C0E0000 		.4byte	.LASF340
 7499 1bcf 01       		.byte	0x1
 7500 1bd0 06       		.uleb128 0x6
 7501 1bd1 C1010000 		.4byte	.LASF341
 7502 1bd5 02       		.byte	0x2
 7503 1bd6 06       		.uleb128 0x6
 7504 1bd7 43170000 		.4byte	.LASF342
 7505 1bdb 03       		.byte	0x3
 7506 1bdc 00       		.byte	0
 7507 1bdd 03       		.uleb128 0x3
 7508 1bde DF080000 		.4byte	.LASF343
 7509 1be2 05       		.byte	0x5
 7510 1be3 7D       		.byte	0x7d
 7511 1be4 B81B0000 		.4byte	0x1bb8
 7512 1be8 19       		.uleb128 0x19
 7513 1be9 1C       		.byte	0x1c
 7514 1bea 05       		.byte	0x5
 7515 1beb 89       		.byte	0x89
 7516 1bec 2D1C0000 		.4byte	0x1c2d
 7517 1bf0 1A       		.uleb128 0x1a
 7518 1bf1 EF150000 		.4byte	.LASF344
 7519 1bf5 05       		.byte	0x5
 7520 1bf6 8B       		.byte	0x8b
 7521 1bf7 ED190000 		.4byte	0x19ed
 7522 1bfb 00       		.byte	0
 7523 1bfc 1A       		.uleb128 0x1a
 7524 1bfd 211B0000 		.4byte	.LASF345
 7525 1c01 05       		.byte	0x5
 7526 1c02 8C       		.byte	0x8c
 7527 1c03 ED190000 		.4byte	0x19ed
 7528 1c07 04       		.byte	0x4
 7529 1c08 1A       		.uleb128 0x1a
 7530 1c09 2C130000 		.4byte	.LASF346
 7531 1c0d 05       		.byte	0x5
 7532 1c0e 8D       		.byte	0x8d
 7533 1c0f 2D1C0000 		.4byte	0x1c2d
 7534 1c13 08       		.byte	0x8
 7535 1c14 1A       		.uleb128 0x1a
 7536 1c15 54110000 		.4byte	.LASF347
 7537 1c19 05       		.byte	0x5
 7538 1c1a 8E       		.byte	0x8e
 7539 1c1b 091A0000 		.4byte	0x1a09
 7540 1c1f 0C       		.byte	0xc
 7541 1c20 1A       		.uleb128 0x1a
 7542 1c21 E4010000 		.4byte	.LASF348
 7543 1c25 05       		.byte	0x5
 7544 1c26 8F       		.byte	0x8f
 7545 1c27 091A0000 		.4byte	0x1a09
 7546 1c2b 14       		.byte	0x14
 7547 1c2c 00       		.byte	0
 7548 1c2d 13       		.uleb128 0x13
 7549 1c2e 04       		.byte	0x4
 7550 1c2f 331C0000 		.4byte	0x1c33
 7551 1c33 15       		.uleb128 0x15
 7552 1c34 ED190000 		.4byte	0x19ed
ARM GAS  e:\temp\ccP12Hvn.s 			page 173


 7553 1c38 03       		.uleb128 0x3
 7554 1c39 3A1C0000 		.4byte	.LASF349
 7555 1c3d 05       		.byte	0x5
 7556 1c3e 91       		.byte	0x91
 7557 1c3f E81B0000 		.4byte	0x1be8
 7558 1c43 19       		.uleb128 0x19
 7559 1c44 24       		.byte	0x24
 7560 1c45 05       		.byte	0x5
 7561 1c46 99       		.byte	0x99
 7562 1c47 7C1C0000 		.4byte	0x1c7c
 7563 1c4b 1A       		.uleb128 0x1a
 7564 1c4c 8D000000 		.4byte	.LASF350
 7565 1c50 05       		.byte	0x5
 7566 1c51 9B       		.byte	0x9b
 7567 1c52 ED190000 		.4byte	0x19ed
 7568 1c56 00       		.byte	0
 7569 1c57 1A       		.uleb128 0x1a
 7570 1c58 0D160000 		.4byte	.LASF351
 7571 1c5c 05       		.byte	0x5
 7572 1c5d 9C       		.byte	0x9c
 7573 1c5e 8C000000 		.4byte	0x8c
 7574 1c62 04       		.byte	0x4
 7575 1c63 1A       		.uleb128 0x1a
 7576 1c64 0B050000 		.4byte	.LASF352
 7577 1c68 05       		.byte	0x5
 7578 1c69 9D       		.byte	0x9d
 7579 1c6a 8C000000 		.4byte	0x8c
 7580 1c6e 05       		.byte	0x5
 7581 1c6f 1B       		.uleb128 0x1b
 7582 1c70 76646F00 		.ascii	"vdo\000"
 7583 1c74 05       		.byte	0x5
 7584 1c75 9E       		.byte	0x9e
 7585 1c76 4A1A0000 		.4byte	0x1a4a
 7586 1c7a 08       		.byte	0x8
 7587 1c7b 00       		.byte	0
 7588 1c7c 03       		.uleb128 0x3
 7589 1c7d 0B080000 		.4byte	.LASF353
 7590 1c81 05       		.byte	0x5
 7591 1c82 A0       		.byte	0xa0
 7592 1c83 431C0000 		.4byte	0x1c43
 7593 1c87 18       		.uleb128 0x18
 7594 1c88 01       		.byte	0x1
 7595 1c89 37000000 		.4byte	0x37
 7596 1c8d 06       		.byte	0x6
 7597 1c8e A6       		.byte	0xa6
 7598 1c8f A01C0000 		.4byte	0x1ca0
 7599 1c93 06       		.uleb128 0x6
 7600 1c94 80070000 		.4byte	.LASF354
 7601 1c98 00       		.byte	0
 7602 1c99 06       		.uleb128 0x6
 7603 1c9a 690E0000 		.4byte	.LASF355
 7604 1c9e 01       		.byte	0x1
 7605 1c9f 00       		.byte	0
 7606 1ca0 03       		.uleb128 0x3
 7607 1ca1 06170000 		.4byte	.LASF356
 7608 1ca5 06       		.byte	0x6
 7609 1ca6 AA       		.byte	0xaa
ARM GAS  e:\temp\ccP12Hvn.s 			page 174


 7610 1ca7 871C0000 		.4byte	0x1c87
 7611 1cab 18       		.uleb128 0x18
 7612 1cac 01       		.byte	0x1
 7613 1cad 37000000 		.4byte	0x37
 7614 1cb1 06       		.byte	0x6
 7615 1cb2 B1       		.byte	0xb1
 7616 1cb3 E81C0000 		.4byte	0x1ce8
 7617 1cb7 06       		.uleb128 0x6
 7618 1cb8 E3180000 		.4byte	.LASF357
 7619 1cbc 00       		.byte	0
 7620 1cbd 06       		.uleb128 0x6
 7621 1cbe A7180000 		.4byte	.LASF358
 7622 1cc2 01       		.byte	0x1
 7623 1cc3 06       		.uleb128 0x6
 7624 1cc4 97160000 		.4byte	.LASF359
 7625 1cc8 02       		.byte	0x2
 7626 1cc9 06       		.uleb128 0x6
 7627 1cca 7C170000 		.4byte	.LASF360
 7628 1cce 03       		.byte	0x3
 7629 1ccf 06       		.uleb128 0x6
 7630 1cd0 67160000 		.4byte	.LASF361
 7631 1cd4 04       		.byte	0x4
 7632 1cd5 06       		.uleb128 0x6
 7633 1cd6 2D020000 		.4byte	.LASF362
 7634 1cda 05       		.byte	0x5
 7635 1cdb 06       		.uleb128 0x6
 7636 1cdc 68180000 		.4byte	.LASF363
 7637 1ce0 06       		.byte	0x6
 7638 1ce1 06       		.uleb128 0x6
 7639 1ce2 F4170000 		.4byte	.LASF364
 7640 1ce6 07       		.byte	0x7
 7641 1ce7 00       		.byte	0
 7642 1ce8 03       		.uleb128 0x3
 7643 1ce9 20140000 		.4byte	.LASF365
 7644 1ced 06       		.byte	0x6
 7645 1cee BB       		.byte	0xbb
 7646 1cef AB1C0000 		.4byte	0x1cab
 7647 1cf3 18       		.uleb128 0x18
 7648 1cf4 01       		.byte	0x1
 7649 1cf5 37000000 		.4byte	0x37
 7650 1cf9 06       		.byte	0x6
 7651 1cfa C2       		.byte	0xc2
 7652 1cfb 4E1D0000 		.4byte	0x1d4e
 7653 1cff 06       		.uleb128 0x6
 7654 1d00 82080000 		.4byte	.LASF366
 7655 1d04 00       		.byte	0
 7656 1d05 06       		.uleb128 0x6
 7657 1d06 94080000 		.4byte	.LASF367
 7658 1d0a 01       		.byte	0x1
 7659 1d0b 06       		.uleb128 0x6
 7660 1d0c 0F150000 		.4byte	.LASF368
 7661 1d10 02       		.byte	0x2
 7662 1d11 06       		.uleb128 0x6
 7663 1d12 DD100000 		.4byte	.LASF369
 7664 1d16 03       		.byte	0x3
 7665 1d17 06       		.uleb128 0x6
 7666 1d18 1A080000 		.4byte	.LASF370
ARM GAS  e:\temp\ccP12Hvn.s 			page 175


 7667 1d1c 04       		.byte	0x4
 7668 1d1d 06       		.uleb128 0x6
 7669 1d1e 401B0000 		.4byte	.LASF371
 7670 1d22 05       		.byte	0x5
 7671 1d23 06       		.uleb128 0x6
 7672 1d24 17190000 		.4byte	.LASF372
 7673 1d28 06       		.byte	0x6
 7674 1d29 06       		.uleb128 0x6
 7675 1d2a 9A120000 		.4byte	.LASF373
 7676 1d2e 07       		.byte	0x7
 7677 1d2f 06       		.uleb128 0x6
 7678 1d30 470C0000 		.4byte	.LASF374
 7679 1d34 08       		.byte	0x8
 7680 1d35 06       		.uleb128 0x6
 7681 1d36 B90B0000 		.4byte	.LASF375
 7682 1d3a 09       		.byte	0x9
 7683 1d3b 06       		.uleb128 0x6
 7684 1d3c D2030000 		.4byte	.LASF376
 7685 1d40 0A       		.byte	0xa
 7686 1d41 06       		.uleb128 0x6
 7687 1d42 D5040000 		.4byte	.LASF377
 7688 1d46 0B       		.byte	0xb
 7689 1d47 06       		.uleb128 0x6
 7690 1d48 AF120000 		.4byte	.LASF378
 7691 1d4c 0C       		.byte	0xc
 7692 1d4d 00       		.byte	0
 7693 1d4e 03       		.uleb128 0x3
 7694 1d4f B0140000 		.4byte	.LASF379
 7695 1d53 06       		.byte	0x6
 7696 1d54 D4       		.byte	0xd4
 7697 1d55 F31C0000 		.4byte	0x1cf3
 7698 1d59 18       		.uleb128 0x18
 7699 1d5a 01       		.byte	0x1
 7700 1d5b 37000000 		.4byte	0x37
 7701 1d5f 06       		.byte	0x6
 7702 1d60 DB       		.byte	0xdb
 7703 1d61 8A1D0000 		.4byte	0x1d8a
 7704 1d65 06       		.uleb128 0x6
 7705 1d66 551B0000 		.4byte	.LASF380
 7706 1d6a 00       		.byte	0
 7707 1d6b 06       		.uleb128 0x6
 7708 1d6c 210C0000 		.4byte	.LASF381
 7709 1d70 01       		.byte	0x1
 7710 1d71 06       		.uleb128 0x6
 7711 1d72 22100000 		.4byte	.LASF382
 7712 1d76 03       		.byte	0x3
 7713 1d77 06       		.uleb128 0x6
 7714 1d78 A20C0000 		.4byte	.LASF383
 7715 1d7c 04       		.byte	0x4
 7716 1d7d 06       		.uleb128 0x6
 7717 1d7e 4C0A0000 		.4byte	.LASF384
 7718 1d82 05       		.byte	0x5
 7719 1d83 06       		.uleb128 0x6
 7720 1d84 CD0D0000 		.4byte	.LASF385
 7721 1d88 06       		.byte	0x6
 7722 1d89 00       		.byte	0
 7723 1d8a 09       		.uleb128 0x9
ARM GAS  e:\temp\ccP12Hvn.s 			page 176


 7724 1d8b 92190000 		.4byte	.LASF386
 7725 1d8f 04       		.byte	0x4
 7726 1d90 06       		.byte	0x6
 7727 1d91 0101     		.2byte	0x101
 7728 1d93 D81D0000 		.4byte	0x1dd8
 7729 1d97 0A       		.uleb128 0xa
 7730 1d98 C81C0000 		.4byte	.LASF104
 7731 1d9c 06       		.byte	0x6
 7732 1d9d 0301     		.2byte	0x103
 7733 1d9f A2000000 		.4byte	0xa2
 7734 1da3 04       		.byte	0x4
 7735 1da4 01       		.byte	0x1
 7736 1da5 1F       		.byte	0x1f
 7737 1da6 00       		.byte	0
 7738 1da7 0A       		.uleb128 0xa
 7739 1da8 83090000 		.4byte	.LASF387
 7740 1dac 06       		.byte	0x6
 7741 1dad 0401     		.2byte	0x104
 7742 1daf A2000000 		.4byte	0xa2
 7743 1db3 04       		.byte	0x4
 7744 1db4 07       		.byte	0x7
 7745 1db5 18       		.byte	0x18
 7746 1db6 00       		.byte	0
 7747 1db7 0A       		.uleb128 0xa
 7748 1db8 83140000 		.4byte	.LASF388
 7749 1dbc 06       		.byte	0x6
 7750 1dbd 0501     		.2byte	0x105
 7751 1dbf A2000000 		.4byte	0xa2
 7752 1dc3 04       		.byte	0x4
 7753 1dc4 08       		.byte	0x8
 7754 1dc5 10       		.byte	0x10
 7755 1dc6 00       		.byte	0
 7756 1dc7 0A       		.uleb128 0xa
 7757 1dc8 240A0000 		.4byte	.LASF170
 7758 1dcc 06       		.byte	0x6
 7759 1dcd 0601     		.2byte	0x106
 7760 1dcf A2000000 		.4byte	0xa2
 7761 1dd3 04       		.byte	0x4
 7762 1dd4 10       		.byte	0x10
 7763 1dd5 00       		.byte	0
 7764 1dd6 00       		.byte	0
 7765 1dd7 00       		.byte	0
 7766 1dd8 09       		.uleb128 0x9
 7767 1dd9 A7190000 		.4byte	.LASF389
 7768 1ddd 04       		.byte	0x4
 7769 1dde 06       		.byte	0x6
 7770 1ddf 0A01     		.2byte	0x10a
 7771 1de1 061E0000 		.4byte	0x1e06
 7772 1de5 0A       		.uleb128 0xa
 7773 1de6 861A0000 		.4byte	.LASF390
 7774 1dea 06       		.byte	0x6
 7775 1deb 0C01     		.2byte	0x10c
 7776 1ded A2000000 		.4byte	0xa2
 7777 1df1 04       		.byte	0x4
 7778 1df2 18       		.byte	0x18
 7779 1df3 08       		.byte	0x8
 7780 1df4 00       		.byte	0
ARM GAS  e:\temp\ccP12Hvn.s 			page 177


 7781 1df5 0A       		.uleb128 0xa
 7782 1df6 5D190000 		.4byte	.LASF391
 7783 1dfa 06       		.byte	0x6
 7784 1dfb 0D01     		.2byte	0x10d
 7785 1dfd A2000000 		.4byte	0xa2
 7786 1e01 04       		.byte	0x4
 7787 1e02 08       		.byte	0x8
 7788 1e03 00       		.byte	0
 7789 1e04 00       		.byte	0
 7790 1e05 00       		.byte	0
 7791 1e06 1C       		.uleb128 0x1c
 7792 1e07 04       		.byte	0x4
 7793 1e08 06       		.byte	0x6
 7794 1e09 FC       		.byte	0xfc
 7795 1e0a 321E0000 		.4byte	0x1e32
 7796 1e0e 1D       		.uleb128 0x1d
 7797 1e0f 76616C00 		.ascii	"val\000"
 7798 1e13 06       		.byte	0x6
 7799 1e14 FE       		.byte	0xfe
 7800 1e15 A2000000 		.4byte	0xa2
 7801 1e19 0F       		.uleb128 0xf
 7802 1e1a 7E030000 		.4byte	.LASF392
 7803 1e1e 06       		.byte	0x6
 7804 1e1f 0701     		.2byte	0x107
 7805 1e21 8A1D0000 		.4byte	0x1d8a
 7806 1e25 0F       		.uleb128 0xf
 7807 1e26 290A0000 		.4byte	.LASF393
 7808 1e2a 06       		.byte	0x6
 7809 1e2b 0E01     		.2byte	0x10e
 7810 1e2d D81D0000 		.4byte	0x1dd8
 7811 1e31 00       		.byte	0
 7812 1e32 07       		.uleb128 0x7
 7813 1e33 3D0A0000 		.4byte	.LASF394
 7814 1e37 06       		.byte	0x6
 7815 1e38 1001     		.2byte	0x110
 7816 1e3a 061E0000 		.4byte	0x1e06
 7817 1e3e 07       		.uleb128 0x7
 7818 1e3f 06060000 		.4byte	.LASF395
 7819 1e43 06       		.byte	0x6
 7820 1e44 1B01     		.2byte	0x11b
 7821 1e46 521B0000 		.4byte	0x1b52
 7822 1e4a 07       		.uleb128 0x7
 7823 1e4b 99100000 		.4byte	.LASF396
 7824 1e4f 06       		.byte	0x6
 7825 1e50 2901     		.2byte	0x129
 7826 1e52 561E0000 		.4byte	0x1e56
 7827 1e56 13       		.uleb128 0x13
 7828 1e57 04       		.byte	0x4
 7829 1e58 5C1E0000 		.4byte	0x1e5c
 7830 1e5c 1E       		.uleb128 0x1e
 7831 1e5d 631B0000 		.4byte	0x1b63
 7832 1e61 701E0000 		.4byte	0x1e70
 7833 1e65 17       		.uleb128 0x17
 7834 1e66 8C000000 		.4byte	0x8c
 7835 1e6a 17       		.uleb128 0x17
 7836 1e6b 321E0000 		.4byte	0x1e32
 7837 1e6f 00       		.byte	0
ARM GAS  e:\temp\ccP12Hvn.s 			page 178


 7838 1e70 0E       		.uleb128 0xe
 7839 1e71 04       		.byte	0x4
 7840 1e72 06       		.byte	0x6
 7841 1e73 3201     		.2byte	0x132
 7842 1e75 941E0000 		.4byte	0x1e94
 7843 1e79 12       		.uleb128 0x12
 7844 1e7a 240A0000 		.4byte	.LASF170
 7845 1e7e 06       		.byte	0x6
 7846 1e7f 3401     		.2byte	0x134
 7847 1e81 97000000 		.4byte	0x97
 7848 1e85 00       		.byte	0
 7849 1e86 12       		.uleb128 0x12
 7850 1e87 C5110000 		.4byte	.LASF397
 7851 1e8b 06       		.byte	0x6
 7852 1e8c 3501     		.2byte	0x135
 7853 1e8e 8C000000 		.4byte	0x8c
 7854 1e92 02       		.byte	0x2
 7855 1e93 00       		.byte	0
 7856 1e94 07       		.uleb128 0x7
 7857 1e95 FB050000 		.4byte	.LASF398
 7858 1e99 06       		.byte	0x6
 7859 1e9a 3701     		.2byte	0x137
 7860 1e9c 701E0000 		.4byte	0x1e70
 7861 1ea0 0E       		.uleb128 0xe
 7862 1ea1 14       		.byte	0x14
 7863 1ea2 06       		.byte	0x6
 7864 1ea3 3E01     		.2byte	0x13e
 7865 1ea5 121F0000 		.4byte	0x1f12
 7866 1ea9 12       		.uleb128 0x12
 7867 1eaa F51C0000 		.4byte	.LASF399
 7868 1eae 06       		.byte	0x6
 7869 1eaf 4001     		.2byte	0x140
 7870 1eb1 8C000000 		.4byte	0x8c
 7871 1eb5 00       		.byte	0
 7872 1eb6 12       		.uleb128 0x12
 7873 1eb7 C81C0000 		.4byte	.LASF104
 7874 1ebb 06       		.byte	0x6
 7875 1ebc 4101     		.2byte	0x141
 7876 1ebe 8C000000 		.4byte	0x8c
 7877 1ec2 01       		.byte	0x1
 7878 1ec3 12       		.uleb128 0x12
 7879 1ec4 C5110000 		.4byte	.LASF397
 7880 1ec8 06       		.byte	0x6
 7881 1ec9 4201     		.2byte	0x142
 7882 1ecb 8C000000 		.4byte	0x8c
 7883 1ecf 02       		.byte	0x2
 7884 1ed0 12       		.uleb128 0x12
 7885 1ed1 72130000 		.4byte	.LASF400
 7886 1ed5 06       		.byte	0x6
 7887 1ed6 4301     		.2byte	0x143
 7888 1ed8 7C010000 		.4byte	0x17c
 7889 1edc 03       		.byte	0x3
 7890 1edd 12       		.uleb128 0x12
 7891 1ede 96140000 		.4byte	.LASF401
 7892 1ee2 06       		.byte	0x6
 7893 1ee3 4401     		.2byte	0x144
 7894 1ee5 ED190000 		.4byte	0x19ed
ARM GAS  e:\temp\ccP12Hvn.s 			page 179


 7895 1ee9 04       		.byte	0x4
 7896 1eea 12       		.uleb128 0x12
 7897 1eeb 490D0000 		.4byte	.LASF402
 7898 1eef 06       		.byte	0x6
 7899 1ef0 4501     		.2byte	0x145
 7900 1ef2 ED190000 		.4byte	0x19ed
 7901 1ef6 08       		.byte	0x8
 7902 1ef7 12       		.uleb128 0x12
 7903 1ef8 D90C0000 		.4byte	.LASF403
 7904 1efc 06       		.byte	0x6
 7905 1efd 4601     		.2byte	0x146
 7906 1eff 121F0000 		.4byte	0x1f12
 7907 1f03 0C       		.byte	0xc
 7908 1f04 12       		.uleb128 0x12
 7909 1f05 A90A0000 		.4byte	.LASF404
 7910 1f09 06       		.byte	0x6
 7911 1f0a 4701     		.2byte	0x147
 7912 1f0c 4E1D0000 		.4byte	0x1d4e
 7913 1f10 10       		.byte	0x10
 7914 1f11 00       		.byte	0
 7915 1f12 13       		.uleb128 0x13
 7916 1f13 04       		.byte	0x4
 7917 1f14 181F0000 		.4byte	0x1f18
 7918 1f18 15       		.uleb128 0x15
 7919 1f19 381C0000 		.4byte	0x1c38
 7920 1f1d 07       		.uleb128 0x7
 7921 1f1e 8D030000 		.4byte	.LASF405
 7922 1f22 06       		.byte	0x6
 7923 1f23 4801     		.2byte	0x148
 7924 1f25 A01E0000 		.4byte	0x1ea0
 7925 1f29 0E       		.uleb128 0xe
 7926 1f2a 30       		.byte	0x30
 7927 1f2b 06       		.byte	0x6
 7928 1f2c 4F01     		.2byte	0x14f
 7929 1f2e 10200000 		.4byte	0x2010
 7930 1f32 12       		.uleb128 0x12
 7931 1f33 60120000 		.4byte	.LASF406
 7932 1f37 06       		.byte	0x6
 7933 1f38 5101     		.2byte	0x151
 7934 1f3a E81C0000 		.4byte	0x1ce8
 7935 1f3e 00       		.byte	0
 7936 1f3f 12       		.uleb128 0x12
 7937 1f40 BF160000 		.4byte	.LASF407
 7938 1f44 06       		.byte	0x6
 7939 1f45 5201     		.2byte	0x152
 7940 1f47 10200000 		.4byte	0x2010
 7941 1f4b 01       		.byte	0x1
 7942 1f4c 12       		.uleb128 0x12
 7943 1f4d CA050000 		.4byte	.LASF408
 7944 1f51 06       		.byte	0x6
 7945 1f52 5301     		.2byte	0x153
 7946 1f54 8C000000 		.4byte	0x8c
 7947 1f58 04       		.byte	0x4
 7948 1f59 12       		.uleb128 0x12
 7949 1f5a 3E120000 		.4byte	.LASF153
 7950 1f5e 06       		.byte	0x6
 7951 1f5f 5401     		.2byte	0x154
ARM GAS  e:\temp\ccP12Hvn.s 			page 180


 7952 1f61 8C000000 		.4byte	0x8c
 7953 1f65 05       		.byte	0x5
 7954 1f66 12       		.uleb128 0x12
 7955 1f67 59140000 		.4byte	.LASF409
 7956 1f6b 06       		.byte	0x6
 7957 1f6c 5501     		.2byte	0x155
 7958 1f6e 8C000000 		.4byte	0x8c
 7959 1f72 06       		.byte	0x6
 7960 1f73 12       		.uleb128 0x12
 7961 1f74 C5110000 		.4byte	.LASF397
 7962 1f78 06       		.byte	0x6
 7963 1f79 5601     		.2byte	0x156
 7964 1f7b 8C000000 		.4byte	0x8c
 7965 1f7f 07       		.byte	0x7
 7966 1f80 12       		.uleb128 0x12
 7967 1f81 8D000000 		.4byte	.LASF350
 7968 1f85 06       		.byte	0x6
 7969 1f86 5701     		.2byte	0x157
 7970 1f88 ED190000 		.4byte	0x19ed
 7971 1f8c 08       		.byte	0x8
 7972 1f8d 14       		.uleb128 0x14
 7973 1f8e 76646F00 		.ascii	"vdo\000"
 7974 1f92 06       		.byte	0x6
 7975 1f93 5801     		.2byte	0x158
 7976 1f95 20200000 		.4byte	0x2020
 7977 1f99 0C       		.byte	0xc
 7978 1f9a 12       		.uleb128 0x12
 7979 1f9b 0B050000 		.4byte	.LASF352
 7980 1f9f 06       		.byte	0x6
 7981 1fa0 5901     		.2byte	0x159
 7982 1fa2 F9190000 		.4byte	0x19f9
 7983 1fa6 18       		.byte	0x18
 7984 1fa7 14       		.uleb128 0x14
 7985 1fa8 63626B00 		.ascii	"cbk\000"
 7986 1fac 06       		.byte	0x6
 7987 1fad 5A01     		.2byte	0x15a
 7988 1faf 3E1E0000 		.4byte	0x1e3e
 7989 1fb3 1C       		.byte	0x1c
 7990 1fb4 12       		.uleb128 0x12
 7991 1fb5 CB040000 		.4byte	.LASF410
 7992 1fb9 06       		.byte	0x6
 7993 1fba 5B01     		.2byte	0x15b
 7994 1fbc 631B0000 		.4byte	0x1b63
 7995 1fc0 20       		.byte	0x20
 7996 1fc1 12       		.uleb128 0x12
 7997 1fc2 84160000 		.4byte	.LASF411
 7998 1fc6 06       		.byte	0x6
 7999 1fc7 5C01     		.2byte	0x15c
 8000 1fc9 631B0000 		.4byte	0x1b63
 8001 1fcd 21       		.byte	0x21
 8002 1fce 12       		.uleb128 0x12
 8003 1fcf 6B070000 		.4byte	.LASF412
 8004 1fd3 06       		.byte	0x6
 8005 1fd4 5D01     		.2byte	0x15d
 8006 1fd6 631B0000 		.4byte	0x1b63
 8007 1fda 22       		.byte	0x22
 8008 1fdb 12       		.uleb128 0x12
ARM GAS  e:\temp\ccP12Hvn.s 			page 181


 8009 1fdc 20110000 		.4byte	.LASF413
 8010 1fe0 06       		.byte	0x6
 8011 1fe1 5E01     		.2byte	0x15e
 8012 1fe3 631B0000 		.4byte	0x1b63
 8013 1fe7 23       		.byte	0x23
 8014 1fe8 12       		.uleb128 0x12
 8015 1fe9 00030000 		.4byte	.LASF414
 8016 1fed 06       		.byte	0x6
 8017 1fee 6001     		.2byte	0x160
 8018 1ff0 631B0000 		.4byte	0x1b63
 8019 1ff4 24       		.byte	0x24
 8020 1ff5 12       		.uleb128 0x12
 8021 1ff6 99040000 		.4byte	.LASF415
 8022 1ffa 06       		.byte	0x6
 8023 1ffb 6101     		.2byte	0x161
 8024 1ffd 321E0000 		.4byte	0x1e32
 8025 2001 28       		.byte	0x28
 8026 2002 12       		.uleb128 0x12
 8027 2003 AD070000 		.4byte	.LASF416
 8028 2007 06       		.byte	0x6
 8029 2008 6201     		.2byte	0x162
 8030 200a 4A1E0000 		.4byte	0x1e4a
 8031 200e 2C       		.byte	0x2c
 8032 200f 00       		.byte	0
 8033 2010 10       		.uleb128 0x10
 8034 2011 E81C0000 		.4byte	0x1ce8
 8035 2015 20200000 		.4byte	0x2020
 8036 2019 11       		.uleb128 0x11
 8037 201a C9000000 		.4byte	0xc9
 8038 201e 02       		.byte	0x2
 8039 201f 00       		.byte	0
 8040 2020 10       		.uleb128 0x10
 8041 2021 30200000 		.4byte	0x2030
 8042 2025 30200000 		.4byte	0x2030
 8043 2029 11       		.uleb128 0x11
 8044 202a C9000000 		.4byte	0xc9
 8045 202e 02       		.byte	0x2
 8046 202f 00       		.byte	0
 8047 2030 13       		.uleb128 0x13
 8048 2031 04       		.byte	0x4
 8049 2032 ED190000 		.4byte	0x19ed
 8050 2036 07       		.uleb128 0x7
 8051 2037 00130000 		.4byte	.LASF417
 8052 203b 06       		.byte	0x6
 8053 203c 6401     		.2byte	0x164
 8054 203e 291F0000 		.4byte	0x1f29
 8055 2042 18       		.uleb128 0x18
 8056 2043 01       		.byte	0x1
 8057 2044 37000000 		.4byte	0x37
 8058 2048 07       		.byte	0x7
 8059 2049 58       		.byte	0x58
 8060 204a 7F200000 		.4byte	0x207f
 8061 204e 06       		.uleb128 0x6
 8062 204f ED120000 		.4byte	.LASF418
 8063 2053 00       		.byte	0
 8064 2054 06       		.uleb128 0x6
 8065 2055 FD110000 		.4byte	.LASF419
ARM GAS  e:\temp\ccP12Hvn.s 			page 182


 8066 2059 01       		.byte	0x1
 8067 205a 06       		.uleb128 0x6
 8068 205b E7000000 		.4byte	.LASF420
 8069 205f 02       		.byte	0x2
 8070 2060 06       		.uleb128 0x6
 8071 2061 31190000 		.4byte	.LASF421
 8072 2065 03       		.byte	0x3
 8073 2066 06       		.uleb128 0x6
 8074 2067 04090000 		.4byte	.LASF422
 8075 206b 04       		.byte	0x4
 8076 206c 06       		.uleb128 0x6
 8077 206d E8020000 		.4byte	.LASF423
 8078 2071 05       		.byte	0x5
 8079 2072 06       		.uleb128 0x6
 8080 2073 39000000 		.4byte	.LASF424
 8081 2077 06       		.byte	0x6
 8082 2078 06       		.uleb128 0x6
 8083 2079 33030000 		.4byte	.LASF425
 8084 207d 07       		.byte	0x7
 8085 207e 00       		.byte	0
 8086 207f 19       		.uleb128 0x19
 8087 2080 74       		.byte	0x74
 8088 2081 01       		.byte	0x1
 8089 2082 3E       		.byte	0x3e
 8090 2083 18210000 		.4byte	0x2118
 8091 2087 1A       		.uleb128 0x1a
 8092 2088 F3190000 		.4byte	.LASF426
 8093 208c 01       		.byte	0x1
 8094 208d 41       		.byte	0x41
 8095 208e 1D1F0000 		.4byte	0x1f1d
 8096 2092 00       		.byte	0
 8097 2093 1A       		.uleb128 0x1a
 8098 2094 50040000 		.4byte	.LASF427
 8099 2098 01       		.byte	0x1
 8100 2099 43       		.byte	0x43
 8101 209a A2000000 		.4byte	0xa2
 8102 209e 14       		.byte	0x14
 8103 209f 1A       		.uleb128 0x1a
 8104 20a0 7A120000 		.4byte	.LASF428
 8105 20a4 01       		.byte	0x1
 8106 20a5 45       		.byte	0x45
 8107 20a6 A2000000 		.4byte	0xa2
 8108 20aa 18       		.byte	0x18
 8109 20ab 1A       		.uleb128 0x1a
 8110 20ac 2E120000 		.4byte	.LASF429
 8111 20b0 01       		.byte	0x1
 8112 20b1 47       		.byte	0x47
 8113 20b2 A2000000 		.4byte	0xa2
 8114 20b6 1C       		.byte	0x1c
 8115 20b7 1A       		.uleb128 0x1a
 8116 20b8 090F0000 		.4byte	.LASF430
 8117 20bc 01       		.byte	0x1
 8118 20bd 49       		.byte	0x49
 8119 20be 18210000 		.4byte	0x2118
 8120 20c2 20       		.byte	0x20
 8121 20c3 1A       		.uleb128 0x1a
 8122 20c4 9E070000 		.4byte	.LASF431
ARM GAS  e:\temp\ccP12Hvn.s 			page 183


 8123 20c8 01       		.byte	0x1
 8124 20c9 4B       		.byte	0x4b
 8125 20ca 8C000000 		.4byte	0x8c
 8126 20ce 30       		.byte	0x30
 8127 20cf 1A       		.uleb128 0x1a
 8128 20d0 51060000 		.4byte	.LASF432
 8129 20d4 01       		.byte	0x1
 8130 20d5 4D       		.byte	0x4d
 8131 20d6 D11A0000 		.4byte	0x1ad1
 8132 20da 34       		.byte	0x34
 8133 20db 1A       		.uleb128 0x1a
 8134 20dc 99040000 		.4byte	.LASF415
 8135 20e0 01       		.byte	0x1
 8136 20e1 4F       		.byte	0x4f
 8137 20e2 2E210000 		.4byte	0x212e
 8138 20e6 60       		.byte	0x60
 8139 20e7 1A       		.uleb128 0x1a
 8140 20e8 6B110000 		.4byte	.LASF433
 8141 20ec 01       		.byte	0x1
 8142 20ed 51       		.byte	0x51
 8143 20ee A01C0000 		.4byte	0x1ca0
 8144 20f2 68       		.byte	0x68
 8145 20f3 1A       		.uleb128 0x1a
 8146 20f4 30110000 		.4byte	.LASF434
 8147 20f8 01       		.byte	0x1
 8148 20f9 53       		.byte	0x53
 8149 20fa 3E210000 		.4byte	0x213e
 8150 20fe 6C       		.byte	0x6c
 8151 20ff 1A       		.uleb128 0x1a
 8152 2100 780F0000 		.4byte	.LASF435
 8153 2104 01       		.byte	0x1
 8154 2105 55       		.byte	0x55
 8155 2106 8C000000 		.4byte	0x8c
 8156 210a 70       		.byte	0x70
 8157 210b 1A       		.uleb128 0x1a
 8158 210c FC190000 		.4byte	.LASF436
 8159 2110 01       		.byte	0x1
 8160 2111 57       		.byte	0x57
 8161 2112 8C000000 		.4byte	0x8c
 8162 2116 71       		.byte	0x71
 8163 2117 00       		.byte	0
 8164 2118 10       		.uleb128 0x10
 8165 2119 28210000 		.4byte	0x2128
 8166 211d 28210000 		.4byte	0x2128
 8167 2121 11       		.uleb128 0x11
 8168 2122 C9000000 		.4byte	0xc9
 8169 2126 03       		.byte	0x3
 8170 2127 00       		.byte	0
 8171 2128 13       		.uleb128 0x13
 8172 2129 04       		.byte	0x4
 8173 212a 36200000 		.4byte	0x2036
 8174 212e 10       		.uleb128 0x10
 8175 212f A2000000 		.4byte	0xa2
 8176 2133 3E210000 		.4byte	0x213e
 8177 2137 11       		.uleb128 0x11
 8178 2138 C9000000 		.4byte	0xc9
 8179 213c 01       		.byte	0x1
ARM GAS  e:\temp\ccP12Hvn.s 			page 184


 8180 213d 00       		.byte	0
 8181 213e 13       		.uleb128 0x13
 8182 213f 04       		.byte	0x4
 8183 2140 7C1C0000 		.4byte	0x1c7c
 8184 2144 03       		.uleb128 0x3
 8185 2145 99020000 		.4byte	.LASF437
 8186 2149 01       		.byte	0x1
 8187 214a 59       		.byte	0x59
 8188 214b 7F200000 		.4byte	0x207f
 8189 214f 1F       		.uleb128 0x1f
 8190 2150 5F1B0000 		.4byte	.LASF448
 8191 2154 01       		.byte	0x1
 8192 2155 0E01     		.2byte	0x10e
 8193 2157 00000000 		.4byte	.LFB37
 8194 215b 44000000 		.4byte	.LFE37-.LFB37
 8195 215f 01       		.uleb128 0x1
 8196 2160 9C       		.byte	0x9c
 8197 2161 94210000 		.4byte	0x2194
 8198 2165 20       		.uleb128 0x20
 8199 2166 62160000 		.4byte	.LASF438
 8200 216a 01       		.byte	0x1
 8201 216b 0E01     		.2byte	0x10e
 8202 216d 8C000000 		.4byte	0x8c
 8203 2171 00000000 		.4byte	.LLST0
 8204 2175 21       		.uleb128 0x21
 8205 2176 736F7000 		.ascii	"sop\000"
 8206 217a 01       		.byte	0x1
 8207 217b 0E01     		.2byte	0x10e
 8208 217d 7C010000 		.4byte	0x17c
 8209 2181 21000000 		.4byte	.LLST1
 8210 2185 22       		.uleb128 0x22
 8211 2186 74120000 		.4byte	.LASF439
 8212 218a 01       		.byte	0x1
 8213 218b 1001     		.2byte	0x110
 8214 218d 3E210000 		.4byte	0x213e
 8215 2191 01       		.uleb128 0x1
 8216 2192 53       		.byte	0x53
 8217 2193 00       		.byte	0
 8218 2194 23       		.uleb128 0x23
 8219 2195 6C0D0000 		.4byte	.LASF445
 8220 2199 01       		.byte	0x1
 8221 219a 7703     		.2byte	0x377
 8222 219c 8C000000 		.4byte	0x8c
 8223 21a0 00000000 		.4byte	.LFB48
 8224 21a4 68000000 		.4byte	.LFE48-.LFB48
 8225 21a8 01       		.uleb128 0x1
 8226 21a9 9C       		.byte	0x9c
 8227 21aa 0F220000 		.4byte	0x220f
 8228 21ae 20       		.uleb128 0x20
 8229 21af 62160000 		.4byte	.LASF438
 8230 21b3 01       		.byte	0x1
 8231 21b4 7703     		.2byte	0x377
 8232 21b6 8C000000 		.4byte	0x8c
 8233 21ba 40000000 		.4byte	.LLST2
 8234 21be 24       		.uleb128 0x24
 8235 21bf 8F100000 		.4byte	.LASF440
 8236 21c3 01       		.byte	0x1
ARM GAS  e:\temp\ccP12Hvn.s 			page 185


 8237 21c4 7903     		.2byte	0x379
 8238 21c6 A2000000 		.4byte	0xa2
 8239 21ca 7A000000 		.4byte	.LLST3
 8240 21ce 24       		.uleb128 0x24
 8241 21cf 94100000 		.4byte	.LASF441
 8242 21d3 01       		.byte	0x1
 8243 21d4 7903     		.2byte	0x379
 8244 21d6 A2000000 		.4byte	0xa2
 8245 21da 99000000 		.4byte	.LLST4
 8246 21de 24       		.uleb128 0x24
 8247 21df 5E000000 		.4byte	.LASF442
 8248 21e3 01       		.byte	0x1
 8249 21e4 7A03     		.2byte	0x37a
 8250 21e6 A2000000 		.4byte	0xa2
 8251 21ea B7000000 		.4byte	.LLST5
 8252 21ee 24       		.uleb128 0x24
 8253 21ef 75070000 		.4byte	.LASF443
 8254 21f3 01       		.byte	0x1
 8255 21f4 7B03     		.2byte	0x37b
 8256 21f6 A2000000 		.4byte	0xa2
 8257 21fa CA000000 		.4byte	.LLST6
 8258 21fe 24       		.uleb128 0x24
 8259 21ff 73170000 		.4byte	.LASF444
 8260 2203 01       		.byte	0x1
 8261 2204 7C03     		.2byte	0x37c
 8262 2206 0F220000 		.4byte	0x220f
 8263 220a CF010000 		.4byte	.LLST7
 8264 220e 00       		.byte	0
 8265 220f 13       		.uleb128 0x13
 8266 2210 04       		.byte	0x4
 8267 2211 15220000 		.4byte	0x2215
 8268 2215 15       		.uleb128 0x15
 8269 2216 941E0000 		.4byte	0x1e94
 8270 221a 23       		.uleb128 0x23
 8271 221b C90A0000 		.4byte	.LASF446
 8272 221f 01       		.byte	0x1
 8273 2220 6904     		.2byte	0x469
 8274 2222 8C000000 		.4byte	0x8c
 8275 2226 00000000 		.4byte	.LFB54
 8276 222a 50000000 		.4byte	.LFE54-.LFB54
 8277 222e 01       		.uleb128 0x1
 8278 222f 9C       		.byte	0x9c
 8279 2230 80220000 		.4byte	0x2280
 8280 2234 20       		.uleb128 0x20
 8281 2235 62160000 		.4byte	.LASF438
 8282 2239 01       		.byte	0x1
 8283 223a 6904     		.2byte	0x469
 8284 223c 8C000000 		.4byte	0x8c
 8285 2240 2D020000 		.4byte	.LLST8
 8286 2244 25       		.uleb128 0x25
 8287 2245 240A0000 		.4byte	.LASF170
 8288 2249 01       		.byte	0x1
 8289 224a 6904     		.2byte	0x469
 8290 224c 97000000 		.4byte	0x97
 8291 2250 01       		.uleb128 0x1
 8292 2251 51       		.byte	0x51
 8293 2252 26       		.uleb128 0x26
ARM GAS  e:\temp\ccP12Hvn.s 			page 186


 8294 2253 696400   		.ascii	"id\000"
 8295 2256 01       		.byte	0x1
 8296 2257 6904     		.2byte	0x469
 8297 2259 8C000000 		.4byte	0x8c
 8298 225d 01       		.uleb128 0x1
 8299 225e 52       		.byte	0x52
 8300 225f 27       		.uleb128 0x27
 8301 2260 69647800 		.ascii	"idx\000"
 8302 2264 01       		.byte	0x1
 8303 2265 6E04     		.2byte	0x46e
 8304 2267 8C000000 		.4byte	0x8c
 8305 226b 4E020000 		.4byte	.LLST9
 8306 226f 24       		.uleb128 0x24
 8307 2270 73170000 		.4byte	.LASF444
 8308 2274 01       		.byte	0x1
 8309 2275 6F04     		.2byte	0x46f
 8310 2277 0F220000 		.4byte	0x220f
 8311 227b 78020000 		.4byte	.LLST10
 8312 227f 00       		.byte	0
 8313 2280 23       		.uleb128 0x23
 8314 2281 1A0E0000 		.4byte	.LASF447
 8315 2285 01       		.byte	0x1
 8316 2286 9604     		.2byte	0x496
 8317 2288 8C000000 		.4byte	0x8c
 8318 228c 00000000 		.4byte	.LFB55
 8319 2290 30000000 		.4byte	.LFE55-.LFB55
 8320 2294 01       		.uleb128 0x1
 8321 2295 9C       		.byte	0x9c
 8322 2296 C9220000 		.4byte	0x22c9
 8323 229a 20       		.uleb128 0x20
 8324 229b 62160000 		.4byte	.LASF438
 8325 229f 01       		.byte	0x1
 8326 22a0 9604     		.2byte	0x496
 8327 22a2 8C000000 		.4byte	0x8c
 8328 22a6 A2020000 		.4byte	.LLST11
 8329 22aa 25       		.uleb128 0x25
 8330 22ab 240A0000 		.4byte	.LASF170
 8331 22af 01       		.byte	0x1
 8332 22b0 9604     		.2byte	0x496
 8333 22b2 97000000 		.4byte	0x97
 8334 22b6 01       		.uleb128 0x1
 8335 22b7 51       		.byte	0x51
 8336 22b8 27       		.uleb128 0x27
 8337 22b9 69647800 		.ascii	"idx\000"
 8338 22bd 01       		.byte	0x1
 8339 22be 9B04     		.2byte	0x49b
 8340 22c0 8C000000 		.4byte	0x8c
 8341 22c4 DC020000 		.4byte	.LLST12
 8342 22c8 00       		.byte	0
 8343 22c9 1F       		.uleb128 0x1f
 8344 22ca 4B0E0000 		.4byte	.LASF449
 8345 22ce 01       		.byte	0x1
 8346 22cf D103     		.2byte	0x3d1
 8347 22d1 00000000 		.4byte	.LFB50
 8348 22d5 54000000 		.4byte	.LFE50-.LFB50
 8349 22d9 01       		.uleb128 0x1
 8350 22da 9C       		.byte	0x9c
ARM GAS  e:\temp\ccP12Hvn.s 			page 187


 8351 22db 40230000 		.4byte	0x2340
 8352 22df 20       		.uleb128 0x20
 8353 22e0 62160000 		.4byte	.LASF438
 8354 22e4 01       		.byte	0x1
 8355 22e5 D103     		.2byte	0x3d1
 8356 22e7 8C000000 		.4byte	0x8c
 8357 22eb 06030000 		.4byte	.LLST13
 8358 22ef 20       		.uleb128 0x20
 8359 22f0 66070000 		.4byte	.LASF450
 8360 22f4 01       		.byte	0x1
 8361 22f5 D103     		.2byte	0x3d1
 8362 22f7 28210000 		.4byte	0x2128
 8363 22fb 27030000 		.4byte	.LLST14
 8364 22ff 20       		.uleb128 0x20
 8365 2300 0D160000 		.4byte	.LASF351
 8366 2304 01       		.byte	0x1
 8367 2305 D103     		.2byte	0x3d1
 8368 2307 7C010000 		.4byte	0x17c
 8369 230b 48030000 		.4byte	.LLST15
 8370 230f 24       		.uleb128 0x24
 8371 2310 74120000 		.4byte	.LASF439
 8372 2314 01       		.byte	0x1
 8373 2315 D603     		.2byte	0x3d6
 8374 2317 3E210000 		.4byte	0x213e
 8375 231b 69030000 		.4byte	.LLST16
 8376 231f 24       		.uleb128 0x24
 8377 2320 0B050000 		.4byte	.LASF352
 8378 2324 01       		.byte	0x1
 8379 2325 D703     		.2byte	0x3d7
 8380 2327 8C000000 		.4byte	0x8c
 8381 232b 7C030000 		.4byte	.LLST17
 8382 232f 28       		.uleb128 0x28
 8383 2330 4C000000 		.4byte	.LVL47
 8384 2334 6D340000 		.4byte	0x346d
 8385 2338 29       		.uleb128 0x29
 8386 2339 01       		.uleb128 0x1
 8387 233a 51       		.byte	0x51
 8388 233b 02       		.uleb128 0x2
 8389 233c 74       		.byte	0x74
 8390 233d 08       		.sleb128 8
 8391 233e 00       		.byte	0
 8392 233f 00       		.byte	0
 8393 2340 23       		.uleb128 0x23
 8394 2341 71110000 		.4byte	.LASF451
 8395 2345 01       		.byte	0x1
 8396 2346 A603     		.2byte	0x3a6
 8397 2348 8C000000 		.4byte	0x8c
 8398 234c 00000000 		.4byte	.LFB49
 8399 2350 A4000000 		.4byte	.LFE49-.LFB49
 8400 2354 01       		.uleb128 0x1
 8401 2355 9C       		.byte	0x9c
 8402 2356 AB230000 		.4byte	0x23ab
 8403 235a 20       		.uleb128 0x20
 8404 235b 62160000 		.4byte	.LASF438
 8405 235f 01       		.byte	0x1
 8406 2360 A603     		.2byte	0x3a6
 8407 2362 8C000000 		.4byte	0x8c
ARM GAS  e:\temp\ccP12Hvn.s 			page 188


 8408 2366 B1030000 		.4byte	.LLST18
 8409 236a 20       		.uleb128 0x20
 8410 236b 66070000 		.4byte	.LASF450
 8411 236f 01       		.byte	0x1
 8412 2370 A603     		.2byte	0x3a6
 8413 2372 28210000 		.4byte	0x2128
 8414 2376 D2030000 		.4byte	.LLST19
 8415 237a 20       		.uleb128 0x20
 8416 237b 0D160000 		.4byte	.LASF351
 8417 237f 01       		.byte	0x1
 8418 2380 A603     		.2byte	0x3a6
 8419 2382 7C010000 		.4byte	0x17c
 8420 2386 FE030000 		.4byte	.LLST20
 8421 238a 24       		.uleb128 0x24
 8422 238b 74120000 		.4byte	.LASF439
 8423 238f 01       		.byte	0x1
 8424 2390 AB03     		.2byte	0x3ab
 8425 2392 3E210000 		.4byte	0x213e
 8426 2396 2B040000 		.4byte	.LLST21
 8427 239a 28       		.uleb128 0x28
 8428 239b 46000000 		.4byte	.LVL54
 8429 239f 6D340000 		.4byte	0x346d
 8430 23a3 29       		.uleb128 0x29
 8431 23a4 01       		.uleb128 0x1
 8432 23a5 50       		.byte	0x50
 8433 23a6 02       		.uleb128 0x2
 8434 23a7 74       		.byte	0x74
 8435 23a8 08       		.sleb128 8
 8436 23a9 00       		.byte	0
 8437 23aa 00       		.byte	0
 8438 23ab 1F       		.uleb128 0x1f
 8439 23ac 4B0F0000 		.4byte	.LASF452
 8440 23b0 01       		.byte	0x1
 8441 23b1 B004     		.2byte	0x4b0
 8442 23b3 00000000 		.4byte	.LFB57
 8443 23b7 18000000 		.4byte	.LFE57-.LFB57
 8444 23bb 01       		.uleb128 0x1
 8445 23bc 9C       		.byte	0x9c
 8446 23bd E7230000 		.4byte	0x23e7
 8447 23c1 20       		.uleb128 0x20
 8448 23c2 62160000 		.4byte	.LASF438
 8449 23c6 01       		.byte	0x1
 8450 23c7 B004     		.2byte	0x4b0
 8451 23c9 8C000000 		.4byte	0x8c
 8452 23cd 3E040000 		.4byte	.LLST22
 8453 23d1 28       		.uleb128 0x28
 8454 23d2 12000000 		.4byte	.LVL59
 8455 23d6 76340000 		.4byte	0x3476
 8456 23da 29       		.uleb128 0x29
 8457 23db 01       		.uleb128 0x1
 8458 23dc 51       		.byte	0x51
 8459 23dd 01       		.uleb128 0x1
 8460 23de 30       		.byte	0x30
 8461 23df 29       		.uleb128 0x29
 8462 23e0 01       		.uleb128 0x1
 8463 23e1 52       		.byte	0x52
 8464 23e2 02       		.uleb128 0x2
ARM GAS  e:\temp\ccP12Hvn.s 			page 189


 8465 23e3 08       		.byte	0x8
 8466 23e4 74       		.byte	0x74
 8467 23e5 00       		.byte	0
 8468 23e6 00       		.byte	0
 8469 23e7 2A       		.uleb128 0x2a
 8470 23e8 63040000 		.4byte	.LASF453
 8471 23ec 01       		.byte	0x1
 8472 23ed FC       		.byte	0xfc
 8473 23ee 00000000 		.4byte	.LFB34
 8474 23f2 08000000 		.4byte	.LFE34-.LFB34
 8475 23f6 01       		.uleb128 0x1
 8476 23f7 9C       		.byte	0x9c
 8477 23f8 15240000 		.4byte	0x2415
 8478 23fc 2B       		.uleb128 0x2b
 8479 23fd 62160000 		.4byte	.LASF438
 8480 2401 01       		.byte	0x1
 8481 2402 FC       		.byte	0xfc
 8482 2403 8C000000 		.4byte	0x8c
 8483 2407 5F040000 		.4byte	.LLST23
 8484 240b 2C       		.uleb128 0x2c
 8485 240c 06000000 		.4byte	.LVL61
 8486 2410 7F340000 		.4byte	0x347f
 8487 2414 00       		.byte	0
 8488 2415 2D       		.uleb128 0x2d
 8489 2416 E30B0000 		.4byte	.LASF454
 8490 241a 01       		.byte	0x1
 8491 241b 0101     		.2byte	0x101
 8492 241d 00000000 		.4byte	.LFB35
 8493 2421 08000000 		.4byte	.LFE35-.LFB35
 8494 2425 01       		.uleb128 0x1
 8495 2426 9C       		.byte	0x9c
 8496 2427 45240000 		.4byte	0x2445
 8497 242b 20       		.uleb128 0x20
 8498 242c 62160000 		.4byte	.LASF438
 8499 2430 01       		.byte	0x1
 8500 2431 0101     		.2byte	0x101
 8501 2433 8C000000 		.4byte	0x8c
 8502 2437 80040000 		.4byte	.LLST24
 8503 243b 2C       		.uleb128 0x2c
 8504 243c 06000000 		.4byte	.LVL63
 8505 2440 8A340000 		.4byte	0x348a
 8506 2444 00       		.byte	0
 8507 2445 2E       		.uleb128 0x2e
 8508 2446 C41A0000 		.4byte	.LASF456
 8509 244a 01       		.byte	0x1
 8510 244b 0601     		.2byte	0x106
 8511 244d AD1B0000 		.4byte	0x1bad
 8512 2451 00000000 		.4byte	.LFB36
 8513 2455 28000000 		.4byte	.LFE36-.LFB36
 8514 2459 01       		.uleb128 0x1
 8515 245a 9C       		.byte	0x9c
 8516 245b 80240000 		.4byte	0x2480
 8517 245f 20       		.uleb128 0x20
 8518 2460 62160000 		.4byte	.LASF438
 8519 2464 01       		.byte	0x1
 8520 2465 0601     		.2byte	0x106
 8521 2467 8C000000 		.4byte	0x8c
ARM GAS  e:\temp\ccP12Hvn.s 			page 190


 8522 246b A1040000 		.4byte	.LLST25
 8523 246f 20       		.uleb128 0x20
 8524 2470 3C0F0000 		.4byte	.LASF455
 8525 2474 01       		.byte	0x1
 8526 2475 0601     		.2byte	0x106
 8527 2477 DD1B0000 		.4byte	0x1bdd
 8528 247b C2040000 		.4byte	.LLST26
 8529 247f 00       		.byte	0
 8530 2480 2F       		.uleb128 0x2f
 8531 2481 95060000 		.4byte	.LASF457
 8532 2485 01       		.byte	0x1
 8533 2486 1C04     		.2byte	0x41c
 8534 2488 8C000000 		.4byte	0x8c
 8535 248c 00000000 		.4byte	.LFB52
 8536 2490 14000000 		.4byte	.LFE52-.LFB52
 8537 2494 01       		.uleb128 0x1
 8538 2495 9C       		.byte	0x9c
 8539 2496 BB240000 		.4byte	0x24bb
 8540 249a 20       		.uleb128 0x20
 8541 249b 62160000 		.4byte	.LASF438
 8542 249f 01       		.byte	0x1
 8543 24a0 1C04     		.2byte	0x41c
 8544 24a2 8C000000 		.4byte	0x8c
 8545 24a6 E3040000 		.4byte	.LLST27
 8546 24aa 24       		.uleb128 0x24
 8547 24ab 5E000000 		.4byte	.LASF442
 8548 24af 01       		.byte	0x1
 8549 24b0 1E04     		.2byte	0x41e
 8550 24b2 8C000000 		.4byte	0x8c
 8551 24b6 1D050000 		.4byte	.LLST28
 8552 24ba 00       		.byte	0
 8553 24bb 30       		.uleb128 0x30
 8554 24bc 09000000 		.4byte	.LASF458
 8555 24c0 01       		.byte	0x1
 8556 24c1 A5       		.byte	0xa5
 8557 24c2 AD1B0000 		.4byte	0x1bad
 8558 24c6 00000000 		.4byte	.LFB32
 8559 24ca 90000000 		.4byte	.LFE32-.LFB32
 8560 24ce 01       		.uleb128 0x1
 8561 24cf 9C       		.byte	0x9c
 8562 24d0 4E250000 		.4byte	0x254e
 8563 24d4 2B       		.uleb128 0x2b
 8564 24d5 62160000 		.4byte	.LASF438
 8565 24d9 01       		.byte	0x1
 8566 24da A5       		.byte	0xa5
 8567 24db 8C000000 		.4byte	0x8c
 8568 24df 3C050000 		.4byte	.LLST29
 8569 24e3 2B       		.uleb128 0x2b
 8570 24e4 D90C0000 		.4byte	.LASF403
 8571 24e8 01       		.byte	0x1
 8572 24e9 A5       		.byte	0xa5
 8573 24ea 4E250000 		.4byte	0x254e
 8574 24ee 5D050000 		.4byte	.LLST30
 8575 24f2 2B       		.uleb128 0x2b
 8576 24f3 D11B0000 		.4byte	.LASF459
 8577 24f7 01       		.byte	0x1
 8578 24f8 A5       		.byte	0xa5
ARM GAS  e:\temp\ccP12Hvn.s 			page 191


 8579 24f9 3E210000 		.4byte	0x213e
 8580 24fd A2050000 		.4byte	.LLST31
 8581 2501 31       		.uleb128 0x31
 8582 2502 0C000000 		.4byte	.LVL72
 8583 2506 80240000 		.4byte	0x2480
 8584 250a 15250000 		.4byte	0x2515
 8585 250e 29       		.uleb128 0x29
 8586 250f 01       		.uleb128 0x1
 8587 2510 50       		.byte	0x50
 8588 2511 02       		.uleb128 0x2
 8589 2512 74       		.byte	0x74
 8590 2513 00       		.sleb128 0
 8591 2514 00       		.byte	0
 8592 2515 31       		.uleb128 0x31
 8593 2516 30000000 		.4byte	.LVL73
 8594 251a 80240000 		.4byte	0x2480
 8595 251e 29250000 		.4byte	0x2529
 8596 2522 29       		.uleb128 0x29
 8597 2523 01       		.uleb128 0x1
 8598 2524 50       		.byte	0x50
 8599 2525 02       		.uleb128 0x2
 8600 2526 74       		.byte	0x74
 8601 2527 00       		.sleb128 0
 8602 2528 00       		.byte	0
 8603 2529 31       		.uleb128 0x31
 8604 252a 4E000000 		.4byte	.LVL74
 8605 252e 95340000 		.4byte	0x3495
 8606 2532 3D250000 		.4byte	0x253d
 8607 2536 29       		.uleb128 0x29
 8608 2537 01       		.uleb128 0x1
 8609 2538 50       		.byte	0x50
 8610 2539 02       		.uleb128 0x2
 8611 253a 74       		.byte	0x74
 8612 253b 00       		.sleb128 0
 8613 253c 00       		.byte	0
 8614 253d 28       		.uleb128 0x28
 8615 253e 56000000 		.4byte	.LVL76
 8616 2542 A1340000 		.4byte	0x34a1
 8617 2546 29       		.uleb128 0x29
 8618 2547 01       		.uleb128 0x1
 8619 2548 50       		.byte	0x50
 8620 2549 02       		.uleb128 0x2
 8621 254a 74       		.byte	0x74
 8622 254b 00       		.sleb128 0
 8623 254c 00       		.byte	0
 8624 254d 00       		.byte	0
 8625 254e 13       		.uleb128 0x13
 8626 254f 04       		.byte	0x4
 8627 2550 381C0000 		.4byte	0x1c38
 8628 2554 2F       		.uleb128 0x2f
 8629 2555 66190000 		.4byte	.LASF460
 8630 2559 01       		.byte	0x1
 8631 255a 5703     		.2byte	0x357
 8632 255c 8C000000 		.4byte	0x8c
 8633 2560 00000000 		.4byte	.LFB47
 8634 2564 2C000000 		.4byte	.LFE47-.LFB47
 8635 2568 01       		.uleb128 0x1
ARM GAS  e:\temp\ccP12Hvn.s 			page 192


 8636 2569 9C       		.byte	0x9c
 8637 256a C8250000 		.4byte	0x25c8
 8638 256e 20       		.uleb128 0x20
 8639 256f 240A0000 		.4byte	.LASF170
 8640 2573 01       		.byte	0x1
 8641 2574 5703     		.2byte	0x357
 8642 2576 97000000 		.4byte	0x97
 8643 257a CE050000 		.4byte	.LLST32
 8644 257e 20       		.uleb128 0x20
 8645 257f 62160000 		.4byte	.LASF438
 8646 2583 01       		.byte	0x1
 8647 2584 5703     		.2byte	0x357
 8648 2586 8C000000 		.4byte	0x8c
 8649 258a EF050000 		.4byte	.LLST33
 8650 258e 27       		.uleb128 0x27
 8651 258f 69647800 		.ascii	"idx\000"
 8652 2593 01       		.byte	0x1
 8653 2594 5903     		.2byte	0x359
 8654 2596 8C000000 		.4byte	0x8c
 8655 259a 10060000 		.4byte	.LLST34
 8656 259e 24       		.uleb128 0x24
 8657 259f 5E000000 		.4byte	.LASF442
 8658 25a3 01       		.byte	0x1
 8659 25a4 5903     		.2byte	0x359
 8660 25a6 8C000000 		.4byte	0x8c
 8661 25aa 3A060000 		.4byte	.LLST35
 8662 25ae 24       		.uleb128 0x24
 8663 25af 73170000 		.4byte	.LASF444
 8664 25b3 01       		.byte	0x1
 8665 25b4 5A03     		.2byte	0x35a
 8666 25b6 0F220000 		.4byte	0x220f
 8667 25ba 58060000 		.4byte	.LLST36
 8668 25be 2C       		.uleb128 0x2c
 8669 25bf 0A000000 		.4byte	.LVL83
 8670 25c3 80240000 		.4byte	0x2480
 8671 25c7 00       		.byte	0
 8672 25c8 2F       		.uleb128 0x2f
 8673 25c9 F4100000 		.4byte	.LASF461
 8674 25cd 01       		.byte	0x1
 8675 25ce 3D04     		.2byte	0x43d
 8676 25d0 8C000000 		.4byte	0x8c
 8677 25d4 00000000 		.4byte	.LFB53
 8678 25d8 60000000 		.4byte	.LFE53-.LFB53
 8679 25dc 01       		.uleb128 0x1
 8680 25dd 9C       		.byte	0x9c
 8681 25de 33260000 		.4byte	0x2633
 8682 25e2 20       		.uleb128 0x20
 8683 25e3 62160000 		.4byte	.LASF438
 8684 25e7 01       		.byte	0x1
 8685 25e8 3D04     		.2byte	0x43d
 8686 25ea 8C000000 		.4byte	0x8c
 8687 25ee AB060000 		.4byte	.LLST37
 8688 25f2 24       		.uleb128 0x24
 8689 25f3 191D0000 		.4byte	.LASF462
 8690 25f7 01       		.byte	0x1
 8691 25f8 3F04     		.2byte	0x43f
 8692 25fa 8C000000 		.4byte	0x8c
ARM GAS  e:\temp\ccP12Hvn.s 			page 193


 8693 25fe FE060000 		.4byte	.LLST38
 8694 2602 27       		.uleb128 0x27
 8695 2603 69647800 		.ascii	"idx\000"
 8696 2607 01       		.byte	0x1
 8697 2608 4204     		.2byte	0x442
 8698 260a 8C000000 		.4byte	0x8c
 8699 260e 1D070000 		.4byte	.LLST39
 8700 2612 24       		.uleb128 0x24
 8701 2613 73170000 		.4byte	.LASF444
 8702 2617 01       		.byte	0x1
 8703 2618 4304     		.2byte	0x443
 8704 261a 0F220000 		.4byte	0x220f
 8705 261e 52070000 		.4byte	.LLST40
 8706 2622 24       		.uleb128 0x24
 8707 2623 8C140000 		.4byte	.LASF463
 8708 2627 01       		.byte	0x1
 8709 2628 4404     		.2byte	0x444
 8710 262a A8010000 		.4byte	0x1a8
 8711 262e 7C070000 		.4byte	.LLST41
 8712 2632 00       		.byte	0
 8713 2633 2D       		.uleb128 0x2d
 8714 2634 6F090000 		.4byte	.LASF464
 8715 2638 01       		.byte	0x1
 8716 2639 AB04     		.2byte	0x4ab
 8717 263b 00000000 		.4byte	.LFB56
 8718 263f 0C000000 		.4byte	.LFE56-.LFB56
 8719 2643 01       		.uleb128 0x1
 8720 2644 9C       		.byte	0x9c
 8721 2645 76260000 		.4byte	0x2676
 8722 2649 20       		.uleb128 0x20
 8723 264a 66070000 		.4byte	.LASF450
 8724 264e 01       		.byte	0x1
 8725 264f AB04     		.2byte	0x4ab
 8726 2651 28210000 		.4byte	0x2128
 8727 2655 8F070000 		.4byte	.LLST42
 8728 2659 28       		.uleb128 0x28
 8729 265a 0A000000 		.4byte	.LVL106
 8730 265e 76340000 		.4byte	0x3476
 8731 2662 29       		.uleb128 0x29
 8732 2663 01       		.uleb128 0x1
 8733 2664 50       		.byte	0x50
 8734 2665 03       		.uleb128 0x3
 8735 2666 F3       		.byte	0xf3
 8736 2667 01       		.uleb128 0x1
 8737 2668 50       		.byte	0x50
 8738 2669 29       		.uleb128 0x29
 8739 266a 01       		.uleb128 0x1
 8740 266b 51       		.byte	0x51
 8741 266c 01       		.uleb128 0x1
 8742 266d 30       		.byte	0x30
 8743 266e 29       		.uleb128 0x29
 8744 266f 01       		.uleb128 0x1
 8745 2670 52       		.byte	0x52
 8746 2671 02       		.uleb128 0x2
 8747 2672 08       		.byte	0x8
 8748 2673 30       		.byte	0x30
 8749 2674 00       		.byte	0
ARM GAS  e:\temp\ccP12Hvn.s 			page 194


 8750 2675 00       		.byte	0
 8751 2676 2F       		.uleb128 0x2f
 8752 2677 340D0000 		.4byte	.LASF465
 8753 267b 01       		.byte	0x1
 8754 267c B504     		.2byte	0x4b5
 8755 267e 6A1B0000 		.4byte	0x1b6a
 8756 2682 00000000 		.4byte	.LFB58
 8757 2686 14000000 		.4byte	.LFE58-.LFB58
 8758 268a 01       		.uleb128 0x1
 8759 268b 9C       		.byte	0x9c
 8760 268c A1260000 		.4byte	0x26a1
 8761 2690 20       		.uleb128 0x20
 8762 2691 62160000 		.4byte	.LASF438
 8763 2695 01       		.byte	0x1
 8764 2696 B504     		.2byte	0x4b5
 8765 2698 8C000000 		.4byte	0x8c
 8766 269c B0070000 		.4byte	.LLST43
 8767 26a0 00       		.byte	0
 8768 26a1 2F       		.uleb128 0x2f
 8769 26a2 370E0000 		.4byte	.LASF466
 8770 26a6 01       		.byte	0x1
 8771 26a7 4505     		.2byte	0x545
 8772 26a9 1B270000 		.4byte	0x271b
 8773 26ad 00000000 		.4byte	.LFB61
 8774 26b1 50000000 		.4byte	.LFE61-.LFB61
 8775 26b5 01       		.uleb128 0x1
 8776 26b6 9C       		.byte	0x9c
 8777 26b7 1B270000 		.4byte	0x271b
 8778 26bb 20       		.uleb128 0x20
 8779 26bc 62160000 		.4byte	.LASF438
 8780 26c0 01       		.byte	0x1
 8781 26c1 4505     		.2byte	0x545
 8782 26c3 8C000000 		.4byte	0x8c
 8783 26c7 D1070000 		.4byte	.LLST44
 8784 26cb 20       		.uleb128 0x20
 8785 26cc 240A0000 		.4byte	.LASF170
 8786 26d0 01       		.byte	0x1
 8787 26d1 4505     		.2byte	0x545
 8788 26d3 97000000 		.4byte	0x97
 8789 26d7 F2070000 		.4byte	.LLST45
 8790 26db 20       		.uleb128 0x20
 8791 26dc 021B0000 		.4byte	.LASF467
 8792 26e0 01       		.byte	0x1
 8793 26e1 4505     		.2byte	0x545
 8794 26e3 8C000000 		.4byte	0x8c
 8795 26e7 13080000 		.4byte	.LLST46
 8796 26eb 21       		.uleb128 0x21
 8797 26ec 65767400 		.ascii	"evt\000"
 8798 26f0 01       		.byte	0x1
 8799 26f1 4505     		.2byte	0x545
 8800 26f3 4E1D0000 		.4byte	0x1d4e
 8801 26f7 34080000 		.4byte	.LLST47
 8802 26fb 25       		.uleb128 0x25
 8803 26fc 01170000 		.4byte	.LASF468
 8804 2700 01       		.byte	0x1
 8805 2701 4505     		.2byte	0x545
 8806 2703 A2000000 		.4byte	0xa2
ARM GAS  e:\temp\ccP12Hvn.s 			page 195


 8807 2707 02       		.uleb128 0x2
 8808 2708 91       		.byte	0x91
 8809 2709 00       		.sleb128 0
 8810 270a 24       		.uleb128 0x24
 8811 270b 2F070000 		.4byte	.LASF469
 8812 270f 01       		.byte	0x1
 8813 2710 4705     		.2byte	0x547
 8814 2712 321E0000 		.4byte	0x1e32
 8815 2716 55080000 		.4byte	.LLST48
 8816 271a 00       		.byte	0
 8817 271b 13       		.uleb128 0x13
 8818 271c 04       		.byte	0x4
 8819 271d 21270000 		.4byte	0x2721
 8820 2721 15       		.uleb128 0x15
 8821 2722 A2000000 		.4byte	0xa2
 8822 2726 1F       		.uleb128 0x1f
 8823 2727 9E0D0000 		.4byte	.LASF470
 8824 272b 01       		.byte	0x1
 8825 272c 2201     		.2byte	0x122
 8826 272e 00000000 		.4byte	.LFB39
 8827 2732 44000000 		.4byte	.LFE39-.LFB39
 8828 2736 01       		.uleb128 0x1
 8829 2737 9C       		.byte	0x9c
 8830 2738 8E270000 		.4byte	0x278e
 8831 273c 20       		.uleb128 0x20
 8832 273d 62160000 		.4byte	.LASF438
 8833 2741 01       		.byte	0x1
 8834 2742 2201     		.2byte	0x122
 8835 2744 8C000000 		.4byte	0x8c
 8836 2748 73080000 		.4byte	.LLST49
 8837 274c 20       		.uleb128 0x20
 8838 274d 01170000 		.4byte	.LASF468
 8839 2751 01       		.byte	0x1
 8840 2752 2201     		.2byte	0x122
 8841 2754 A2000000 		.4byte	0xa2
 8842 2758 94080000 		.4byte	.LLST50
 8843 275c 31       		.uleb128 0x31
 8844 275d 30000000 		.4byte	.LVL122
 8845 2761 A1260000 		.4byte	0x26a1
 8846 2765 78270000 		.4byte	0x2778
 8847 2769 29       		.uleb128 0x29
 8848 276a 01       		.uleb128 0x1
 8849 276b 50       		.byte	0x50
 8850 276c 02       		.uleb128 0x2
 8851 276d 74       		.byte	0x74
 8852 276e 00       		.sleb128 0
 8853 276f 29       		.uleb128 0x29
 8854 2770 02       		.uleb128 0x2
 8855 2771 7D       		.byte	0x7d
 8856 2772 00       		.sleb128 0
 8857 2773 03       		.uleb128 0x3
 8858 2774 F3       		.byte	0xf3
 8859 2775 01       		.uleb128 0x1
 8860 2776 51       		.byte	0x51
 8861 2777 00       		.byte	0
 8862 2778 28       		.uleb128 0x28
 8863 2779 3A000000 		.4byte	.LVL123
ARM GAS  e:\temp\ccP12Hvn.s 			page 196


 8864 277d AD340000 		.4byte	0x34ad
 8865 2781 29       		.uleb128 0x29
 8866 2782 01       		.uleb128 0x1
 8867 2783 50       		.byte	0x50
 8868 2784 02       		.uleb128 0x2
 8869 2785 74       		.byte	0x74
 8870 2786 00       		.sleb128 0
 8871 2787 29       		.uleb128 0x29
 8872 2788 01       		.uleb128 0x1
 8873 2789 51       		.byte	0x51
 8874 278a 01       		.uleb128 0x1
 8875 278b 36       		.byte	0x36
 8876 278c 00       		.byte	0
 8877 278d 00       		.byte	0
 8878 278e 1F       		.uleb128 0x1f
 8879 278f 750C0000 		.4byte	.LASF471
 8880 2793 01       		.byte	0x1
 8881 2794 6C01     		.2byte	0x16c
 8882 2796 00000000 		.4byte	.LFB41
 8883 279a E4000000 		.4byte	.LFE41-.LFB41
 8884 279e 01       		.uleb128 0x1
 8885 279f 9C       		.byte	0x9c
 8886 27a0 7F280000 		.4byte	0x287f
 8887 27a4 20       		.uleb128 0x20
 8888 27a5 62160000 		.4byte	.LASF438
 8889 27a9 01       		.byte	0x1
 8890 27aa 6C01     		.2byte	0x16c
 8891 27ac 8C000000 		.4byte	0x8c
 8892 27b0 C1080000 		.4byte	.LLST51
 8893 27b4 20       		.uleb128 0x20
 8894 27b5 C9180000 		.4byte	.LASF472
 8895 27b9 01       		.byte	0x1
 8896 27ba 6C01     		.2byte	0x16c
 8897 27bc 631B0000 		.4byte	0x1b63
 8898 27c0 E2080000 		.4byte	.LLST52
 8899 27c4 32       		.uleb128 0x32
 8900 27c5 15060000 		.4byte	.LASF478
 8901 27c9 01       		.byte	0x1
 8902 27ca 6E01     		.2byte	0x16e
 8903 27cc 8C000000 		.4byte	0x8c
 8904 27d0 24       		.uleb128 0x24
 8905 27d1 11020000 		.4byte	.LASF473
 8906 27d5 01       		.byte	0x1
 8907 27d6 6E01     		.2byte	0x16e
 8908 27d8 8C000000 		.4byte	0x8c
 8909 27dc 03090000 		.4byte	.LLST53
 8910 27e0 24       		.uleb128 0x24
 8911 27e1 FC060000 		.4byte	.LASF474
 8912 27e5 01       		.byte	0x1
 8913 27e6 6E01     		.2byte	0x16e
 8914 27e8 8C000000 		.4byte	0x8c
 8915 27ec 16090000 		.4byte	.LLST54
 8916 27f0 24       		.uleb128 0x24
 8917 27f1 46070000 		.4byte	.LASF475
 8918 27f5 01       		.byte	0x1
 8919 27f6 6F01     		.2byte	0x16f
 8920 27f8 28210000 		.4byte	0x2128
ARM GAS  e:\temp\ccP12Hvn.s 			page 197


 8921 27fc 40090000 		.4byte	.LLST55
 8922 2800 24       		.uleb128 0x24
 8923 2801 74120000 		.4byte	.LASF439
 8924 2805 01       		.byte	0x1
 8925 2806 7001     		.2byte	0x170
 8926 2808 3E210000 		.4byte	0x213e
 8927 280c 5E090000 		.4byte	.LLST56
 8928 2810 27       		.uleb128 0x27
 8929 2811 72656700 		.ascii	"reg\000"
 8930 2815 01       		.byte	0x1
 8931 2816 7101     		.2byte	0x171
 8932 2818 7F280000 		.4byte	0x287f
 8933 281c 71090000 		.4byte	.LLST57
 8934 2820 31       		.uleb128 0x31
 8935 2821 24000000 		.4byte	.LVL128
 8936 2825 80220000 		.4byte	0x2280
 8937 2829 34280000 		.4byte	0x2834
 8938 282d 29       		.uleb128 0x29
 8939 282e 01       		.uleb128 0x1
 8940 282f 50       		.byte	0x50
 8941 2830 02       		.uleb128 0x2
 8942 2831 75       		.byte	0x75
 8943 2832 00       		.sleb128 0
 8944 2833 00       		.byte	0
 8945 2834 31       		.uleb128 0x31
 8946 2835 58000000 		.4byte	.LVL131
 8947 2839 B9340000 		.4byte	0x34b9
 8948 283d 51280000 		.4byte	0x2851
 8949 2841 29       		.uleb128 0x29
 8950 2842 01       		.uleb128 0x1
 8951 2843 50       		.byte	0x50
 8952 2844 04       		.uleb128 0x4
 8953 2845 7D       		.byte	0x7d
 8954 2846 00       		.sleb128 0
 8955 2847 94       		.byte	0x94
 8956 2848 01       		.byte	0x1
 8957 2849 29       		.uleb128 0x29
 8958 284a 01       		.uleb128 0x1
 8959 284b 51       		.byte	0x51
 8960 284c 03       		.uleb128 0x3
 8961 284d 91       		.byte	0x91
 8962 284e 64       		.sleb128 -28
 8963 284f 06       		.byte	0x6
 8964 2850 00       		.byte	0
 8965 2851 31       		.uleb128 0x31
 8966 2852 6E000000 		.4byte	.LVL133
 8967 2856 1A220000 		.4byte	0x221a
 8968 285a 67280000 		.4byte	0x2867
 8969 285e 29       		.uleb128 0x29
 8970 285f 01       		.uleb128 0x1
 8971 2860 50       		.byte	0x50
 8972 2861 04       		.uleb128 0x4
 8973 2862 7D       		.byte	0x7d
 8974 2863 00       		.sleb128 0
 8975 2864 94       		.byte	0x94
 8976 2865 01       		.byte	0x1
 8977 2866 00       		.byte	0
ARM GAS  e:\temp\ccP12Hvn.s 			page 198


 8978 2867 28       		.uleb128 0x28
 8979 2868 BA000000 		.4byte	.LVL136
 8980 286c 26270000 		.4byte	0x2726
 8981 2870 29       		.uleb128 0x29
 8982 2871 01       		.uleb128 0x1
 8983 2872 50       		.byte	0x50
 8984 2873 04       		.uleb128 0x4
 8985 2874 7D       		.byte	0x7d
 8986 2875 00       		.sleb128 0
 8987 2876 94       		.byte	0x94
 8988 2877 01       		.byte	0x1
 8989 2878 29       		.uleb128 0x29
 8990 2879 01       		.uleb128 0x1
 8991 287a 51       		.byte	0x51
 8992 287b 01       		.uleb128 0x1
 8993 287c 30       		.byte	0x30
 8994 287d 00       		.byte	0
 8995 287e 00       		.byte	0
 8996 287f 13       		.uleb128 0x13
 8997 2880 04       		.byte	0x4
 8998 2881 1D1F0000 		.4byte	0x1f1d
 8999 2885 23       		.uleb128 0x23
 9000 2886 9C150000 		.4byte	.LASF476
 9001 288a 01       		.byte	0x1
 9002 288b 0A02     		.2byte	0x20a
 9003 288d AD1B0000 		.4byte	0x1bad
 9004 2891 00000000 		.4byte	.LFB43
 9005 2895 34000000 		.4byte	.LFE43-.LFB43
 9006 2899 01       		.uleb128 0x1
 9007 289a 9C       		.byte	0x9c
 9008 289b C5280000 		.4byte	0x28c5
 9009 289f 20       		.uleb128 0x20
 9010 28a0 62160000 		.4byte	.LASF438
 9011 28a4 01       		.byte	0x1
 9012 28a5 0A02     		.2byte	0x20a
 9013 28a7 8C000000 		.4byte	0x8c
 9014 28ab 90090000 		.4byte	.LLST58
 9015 28af 28       		.uleb128 0x28
 9016 28b0 1A000000 		.4byte	.LVL142
 9017 28b4 8E270000 		.4byte	0x278e
 9018 28b8 29       		.uleb128 0x29
 9019 28b9 01       		.uleb128 0x1
 9020 28ba 50       		.byte	0x50
 9021 28bb 02       		.uleb128 0x2
 9022 28bc 74       		.byte	0x74
 9023 28bd 00       		.sleb128 0
 9024 28be 29       		.uleb128 0x29
 9025 28bf 01       		.uleb128 0x1
 9026 28c0 51       		.byte	0x51
 9027 28c1 01       		.uleb128 0x1
 9028 28c2 31       		.byte	0x31
 9029 28c3 00       		.byte	0
 9030 28c4 00       		.byte	0
 9031 28c5 23       		.uleb128 0x23
 9032 28c6 930C0000 		.4byte	.LASF477
 9033 28ca 01       		.byte	0x1
 9034 28cb A901     		.2byte	0x1a9
ARM GAS  e:\temp\ccP12Hvn.s 			page 199


 9035 28cd AD1B0000 		.4byte	0x1bad
 9036 28d1 00000000 		.4byte	.LFB42
 9037 28d5 50010000 		.4byte	.LFE42-.LFB42
 9038 28d9 01       		.uleb128 0x1
 9039 28da 9C       		.byte	0x9c
 9040 28db 112A0000 		.4byte	0x2a11
 9041 28df 20       		.uleb128 0x20
 9042 28e0 62160000 		.4byte	.LASF438
 9043 28e4 01       		.byte	0x1
 9044 28e5 A901     		.2byte	0x1a9
 9045 28e7 8C000000 		.4byte	0x8c
 9046 28eb B1090000 		.4byte	.LLST59
 9047 28ef 24       		.uleb128 0x24
 9048 28f0 FC060000 		.4byte	.LASF474
 9049 28f4 01       		.byte	0x1
 9050 28f5 AC01     		.2byte	0x1ac
 9051 28f7 8C000000 		.4byte	0x8c
 9052 28fb EB090000 		.4byte	.LLST60
 9053 28ff 24       		.uleb128 0x24
 9054 2900 15060000 		.4byte	.LASF478
 9055 2904 01       		.byte	0x1
 9056 2905 AC01     		.2byte	0x1ac
 9057 2907 8C000000 		.4byte	0x8c
 9058 290b 150A0000 		.4byte	.LLST61
 9059 290f 24       		.uleb128 0x24
 9060 2910 11020000 		.4byte	.LASF473
 9061 2914 01       		.byte	0x1
 9062 2915 AC01     		.2byte	0x1ac
 9063 2917 8C000000 		.4byte	0x8c
 9064 291b 280A0000 		.4byte	.LLST62
 9065 291f 24       		.uleb128 0x24
 9066 2920 46070000 		.4byte	.LASF475
 9067 2924 01       		.byte	0x1
 9068 2925 AD01     		.2byte	0x1ad
 9069 2927 28210000 		.4byte	0x2128
 9070 292b 3B0A0000 		.4byte	.LLST63
 9071 292f 24       		.uleb128 0x24
 9072 2930 74120000 		.4byte	.LASF439
 9073 2934 01       		.byte	0x1
 9074 2935 AE01     		.2byte	0x1ae
 9075 2937 3E210000 		.4byte	0x213e
 9076 293b 850A0000 		.4byte	.LLST64
 9077 293f 27       		.uleb128 0x27
 9078 2940 72656700 		.ascii	"reg\000"
 9079 2944 01       		.byte	0x1
 9080 2945 AF01     		.2byte	0x1af
 9081 2947 7F280000 		.4byte	0x287f
 9082 294b 980A0000 		.4byte	.LLST65
 9083 294f 31       		.uleb128 0x31
 9084 2950 26000000 		.4byte	.LVL147
 9085 2954 80220000 		.4byte	0x2280
 9086 2958 63290000 		.4byte	0x2963
 9087 295c 29       		.uleb128 0x29
 9088 295d 01       		.uleb128 0x1
 9089 295e 50       		.byte	0x50
 9090 295f 02       		.uleb128 0x2
 9091 2960 74       		.byte	0x74
ARM GAS  e:\temp\ccP12Hvn.s 			page 200


 9092 2961 00       		.sleb128 0
 9093 2962 00       		.byte	0
 9094 2963 31       		.uleb128 0x31
 9095 2964 52000000 		.4byte	.LVL150
 9096 2968 B9340000 		.4byte	0x34b9
 9097 296c 80290000 		.4byte	0x2980
 9098 2970 29       		.uleb128 0x29
 9099 2971 01       		.uleb128 0x1
 9100 2972 50       		.byte	0x50
 9101 2973 04       		.uleb128 0x4
 9102 2974 7D       		.byte	0x7d
 9103 2975 00       		.sleb128 0
 9104 2976 94       		.byte	0x94
 9105 2977 01       		.byte	0x1
 9106 2978 29       		.uleb128 0x29
 9107 2979 01       		.uleb128 0x1
 9108 297a 51       		.byte	0x51
 9109 297b 03       		.uleb128 0x3
 9110 297c 91       		.byte	0x91
 9111 297d 64       		.sleb128 -28
 9112 297e 06       		.byte	0x6
 9113 297f 00       		.byte	0
 9114 2980 31       		.uleb128 0x31
 9115 2981 70000000 		.4byte	.LVL153
 9116 2985 26270000 		.4byte	0x2726
 9117 2989 9B290000 		.4byte	0x299b
 9118 298d 29       		.uleb128 0x29
 9119 298e 01       		.uleb128 0x1
 9120 298f 50       		.byte	0x50
 9121 2990 04       		.uleb128 0x4
 9122 2991 7D       		.byte	0x7d
 9123 2992 00       		.sleb128 0
 9124 2993 94       		.byte	0x94
 9125 2994 01       		.byte	0x1
 9126 2995 29       		.uleb128 0x29
 9127 2996 01       		.uleb128 0x1
 9128 2997 51       		.byte	0x51
 9129 2998 01       		.uleb128 0x1
 9130 2999 30       		.byte	0x30
 9131 299a 00       		.byte	0
 9132 299b 31       		.uleb128 0x31
 9133 299c A4000000 		.4byte	.LVL157
 9134 29a0 26270000 		.4byte	0x2726
 9135 29a4 B1290000 		.4byte	0x29b1
 9136 29a8 29       		.uleb128 0x29
 9137 29a9 01       		.uleb128 0x1
 9138 29aa 50       		.byte	0x50
 9139 29ab 04       		.uleb128 0x4
 9140 29ac 7D       		.byte	0x7d
 9141 29ad 00       		.sleb128 0
 9142 29ae 94       		.byte	0x94
 9143 29af 01       		.byte	0x1
 9144 29b0 00       		.byte	0
 9145 29b1 31       		.uleb128 0x31
 9146 29b2 BE000000 		.4byte	.LVL158
 9147 29b6 1A220000 		.4byte	0x221a
 9148 29ba C7290000 		.4byte	0x29c7
ARM GAS  e:\temp\ccP12Hvn.s 			page 201


 9149 29be 29       		.uleb128 0x29
 9150 29bf 01       		.uleb128 0x1
 9151 29c0 50       		.byte	0x50
 9152 29c1 04       		.uleb128 0x4
 9153 29c2 7D       		.byte	0x7d
 9154 29c3 00       		.sleb128 0
 9155 29c4 94       		.byte	0x94
 9156 29c5 01       		.byte	0x1
 9157 29c6 00       		.byte	0
 9158 29c7 31       		.uleb128 0x31
 9159 29c8 08010000 		.4byte	.LVL162
 9160 29cc 4F210000 		.4byte	0x214f
 9161 29d0 E2290000 		.4byte	0x29e2
 9162 29d4 29       		.uleb128 0x29
 9163 29d5 01       		.uleb128 0x1
 9164 29d6 50       		.byte	0x50
 9165 29d7 04       		.uleb128 0x4
 9166 29d8 7D       		.byte	0x7d
 9167 29d9 00       		.sleb128 0
 9168 29da 94       		.byte	0x94
 9169 29db 01       		.byte	0x1
 9170 29dc 29       		.uleb128 0x29
 9171 29dd 01       		.uleb128 0x1
 9172 29de 51       		.byte	0x51
 9173 29df 01       		.uleb128 0x1
 9174 29e0 31       		.byte	0x31
 9175 29e1 00       		.byte	0
 9176 29e2 31       		.uleb128 0x31
 9177 29e3 16010000 		.4byte	.LVL165
 9178 29e7 8E270000 		.4byte	0x278e
 9179 29eb FB290000 		.4byte	0x29fb
 9180 29ef 29       		.uleb128 0x29
 9181 29f0 01       		.uleb128 0x1
 9182 29f1 50       		.byte	0x50
 9183 29f2 02       		.uleb128 0x2
 9184 29f3 74       		.byte	0x74
 9185 29f4 00       		.sleb128 0
 9186 29f5 29       		.uleb128 0x29
 9187 29f6 01       		.uleb128 0x1
 9188 29f7 51       		.byte	0x51
 9189 29f8 01       		.uleb128 0x1
 9190 29f9 30       		.byte	0x30
 9191 29fa 00       		.byte	0
 9192 29fb 28       		.uleb128 0x28
 9193 29fc 2C010000 		.4byte	.LVL166
 9194 2a00 4F210000 		.4byte	0x214f
 9195 2a04 29       		.uleb128 0x29
 9196 2a05 01       		.uleb128 0x1
 9197 2a06 50       		.byte	0x50
 9198 2a07 02       		.uleb128 0x2
 9199 2a08 74       		.byte	0x74
 9200 2a09 00       		.sleb128 0
 9201 2a0a 29       		.uleb128 0x29
 9202 2a0b 01       		.uleb128 0x1
 9203 2a0c 51       		.byte	0x51
 9204 2a0d 01       		.uleb128 0x1
 9205 2a0e 32       		.byte	0x32
ARM GAS  e:\temp\ccP12Hvn.s 			page 202


 9206 2a0f 00       		.byte	0
 9207 2a10 00       		.byte	0
 9208 2a11 1F       		.uleb128 0x1f
 9209 2a12 EC0F0000 		.4byte	.LASF479
 9210 2a16 01       		.byte	0x1
 9211 2a17 1B01     		.2byte	0x11b
 9212 2a19 00000000 		.4byte	.LFB38
 9213 2a1d 1E000000 		.4byte	.LFE38-.LFB38
 9214 2a21 01       		.uleb128 0x1
 9215 2a22 9C       		.byte	0x9c
 9216 2a23 972A0000 		.4byte	0x2a97
 9217 2a27 20       		.uleb128 0x20
 9218 2a28 62160000 		.4byte	.LASF438
 9219 2a2c 01       		.byte	0x1
 9220 2a2d 1B01     		.2byte	0x11b
 9221 2a2f 8C000000 		.4byte	0x8c
 9222 2a33 B70A0000 		.4byte	.LLST66
 9223 2a37 20       		.uleb128 0x20
 9224 2a38 240A0000 		.4byte	.LASF170
 9225 2a3c 01       		.byte	0x1
 9226 2a3d 1B01     		.2byte	0x11b
 9227 2a3f 97000000 		.4byte	0x97
 9228 2a43 D80A0000 		.4byte	.LLST67
 9229 2a47 20       		.uleb128 0x20
 9230 2a48 CB150000 		.4byte	.LASF480
 9231 2a4c 01       		.byte	0x1
 9232 2a4d 1B01     		.2byte	0x11b
 9233 2a4f 8C000000 		.4byte	0x8c
 9234 2a53 F90A0000 		.4byte	.LLST68
 9235 2a57 20       		.uleb128 0x20
 9236 2a58 61060000 		.4byte	.LASF481
 9237 2a5c 01       		.byte	0x1
 9238 2a5d 1B01     		.2byte	0x11b
 9239 2a5f 4E1D0000 		.4byte	0x1d4e
 9240 2a63 1A0B0000 		.4byte	.LLST69
 9241 2a67 31       		.uleb128 0x31
 9242 2a68 10000000 		.4byte	.LVL170
 9243 2a6c A1260000 		.4byte	0x26a1
 9244 2a70 812A0000 		.4byte	0x2a81
 9245 2a74 29       		.uleb128 0x29
 9246 2a75 01       		.uleb128 0x1
 9247 2a76 50       		.byte	0x50
 9248 2a77 02       		.uleb128 0x2
 9249 2a78 74       		.byte	0x74
 9250 2a79 00       		.sleb128 0
 9251 2a7a 29       		.uleb128 0x29
 9252 2a7b 02       		.uleb128 0x2
 9253 2a7c 7D       		.byte	0x7d
 9254 2a7d 00       		.sleb128 0
 9255 2a7e 01       		.uleb128 0x1
 9256 2a7f 30       		.byte	0x30
 9257 2a80 00       		.byte	0
 9258 2a81 28       		.uleb128 0x28
 9259 2a82 1A000000 		.4byte	.LVL171
 9260 2a86 AD340000 		.4byte	0x34ad
 9261 2a8a 29       		.uleb128 0x29
 9262 2a8b 01       		.uleb128 0x1
ARM GAS  e:\temp\ccP12Hvn.s 			page 203


 9263 2a8c 50       		.byte	0x50
 9264 2a8d 02       		.uleb128 0x2
 9265 2a8e 74       		.byte	0x74
 9266 2a8f 00       		.sleb128 0
 9267 2a90 29       		.uleb128 0x29
 9268 2a91 01       		.uleb128 0x1
 9269 2a92 51       		.byte	0x51
 9270 2a93 01       		.uleb128 0x1
 9271 2a94 36       		.byte	0x36
 9272 2a95 00       		.byte	0
 9273 2a96 00       		.byte	0
 9274 2a97 23       		.uleb128 0x23
 9275 2a98 2A040000 		.4byte	.LASF482
 9276 2a9c 01       		.byte	0x1
 9277 2a9d 2E01     		.2byte	0x12e
 9278 2a9f AD1B0000 		.4byte	0x1bad
 9279 2aa3 00000000 		.4byte	.LFB40
 9280 2aa7 9C000000 		.4byte	.LFE40-.LFB40
 9281 2aab 01       		.uleb128 0x1
 9282 2aac 9C       		.byte	0x9c
 9283 2aad 5C2B0000 		.4byte	0x2b5c
 9284 2ab1 20       		.uleb128 0x20
 9285 2ab2 62160000 		.4byte	.LASF438
 9286 2ab6 01       		.byte	0x1
 9287 2ab7 2E01     		.2byte	0x12e
 9288 2ab9 8C000000 		.4byte	0x8c
 9289 2abd 3B0B0000 		.4byte	.LLST70
 9290 2ac1 24       		.uleb128 0x24
 9291 2ac2 870A0000 		.4byte	.LASF483
 9292 2ac6 01       		.byte	0x1
 9293 2ac7 3101     		.2byte	0x131
 9294 2ac9 97000000 		.4byte	0x97
 9295 2acd 5C0B0000 		.4byte	.LLST71
 9296 2ad1 31       		.uleb128 0x31
 9297 2ad2 1C000000 		.4byte	.LVL174
 9298 2ad6 54250000 		.4byte	0x2554
 9299 2ada EB2A0000 		.4byte	0x2aeb
 9300 2ade 29       		.uleb128 0x29
 9301 2adf 01       		.uleb128 0x1
 9302 2ae0 50       		.byte	0x50
 9303 2ae1 02       		.uleb128 0x2
 9304 2ae2 77       		.byte	0x77
 9305 2ae3 00       		.sleb128 0
 9306 2ae4 29       		.uleb128 0x29
 9307 2ae5 01       		.uleb128 0x1
 9308 2ae6 51       		.byte	0x51
 9309 2ae7 02       		.uleb128 0x2
 9310 2ae8 74       		.byte	0x74
 9311 2ae9 00       		.sleb128 0
 9312 2aea 00       		.byte	0
 9313 2aeb 31       		.uleb128 0x31
 9314 2aec 2C000000 		.4byte	.LVL175
 9315 2af0 112A0000 		.4byte	0x2a11
 9316 2af4 0F2B0000 		.4byte	0x2b0f
 9317 2af8 29       		.uleb128 0x29
 9318 2af9 01       		.uleb128 0x1
 9319 2afa 50       		.byte	0x50
ARM GAS  e:\temp\ccP12Hvn.s 			page 204


 9320 2afb 02       		.uleb128 0x2
 9321 2afc 74       		.byte	0x74
 9322 2afd 00       		.sleb128 0
 9323 2afe 29       		.uleb128 0x29
 9324 2aff 01       		.uleb128 0x1
 9325 2b00 51       		.byte	0x51
 9326 2b01 02       		.uleb128 0x2
 9327 2b02 77       		.byte	0x77
 9328 2b03 00       		.sleb128 0
 9329 2b04 29       		.uleb128 0x29
 9330 2b05 01       		.uleb128 0x1
 9331 2b06 52       		.byte	0x52
 9332 2b07 01       		.uleb128 0x1
 9333 2b08 30       		.byte	0x30
 9334 2b09 29       		.uleb128 0x29
 9335 2b0a 01       		.uleb128 0x1
 9336 2b0b 53       		.byte	0x53
 9337 2b0c 01       		.uleb128 0x1
 9338 2b0d 36       		.byte	0x36
 9339 2b0e 00       		.byte	0
 9340 2b0f 31       		.uleb128 0x31
 9341 2b10 34000000 		.4byte	.LVL176
 9342 2b14 4F210000 		.4byte	0x214f
 9343 2b18 282B0000 		.4byte	0x2b28
 9344 2b1c 29       		.uleb128 0x29
 9345 2b1d 01       		.uleb128 0x1
 9346 2b1e 50       		.byte	0x50
 9347 2b1f 02       		.uleb128 0x2
 9348 2b20 74       		.byte	0x74
 9349 2b21 00       		.sleb128 0
 9350 2b22 29       		.uleb128 0x29
 9351 2b23 01       		.uleb128 0x1
 9352 2b24 51       		.byte	0x51
 9353 2b25 01       		.uleb128 0x1
 9354 2b26 30       		.byte	0x30
 9355 2b27 00       		.byte	0
 9356 2b28 31       		.uleb128 0x31
 9357 2b29 7A000000 		.4byte	.LVL179
 9358 2b2d 112A0000 		.4byte	0x2a11
 9359 2b31 4B2B0000 		.4byte	0x2b4b
 9360 2b35 29       		.uleb128 0x29
 9361 2b36 01       		.uleb128 0x1
 9362 2b37 50       		.byte	0x50
 9363 2b38 02       		.uleb128 0x2
 9364 2b39 74       		.byte	0x74
 9365 2b3a 00       		.sleb128 0
 9366 2b3b 29       		.uleb128 0x29
 9367 2b3c 01       		.uleb128 0x1
 9368 2b3d 51       		.byte	0x51
 9369 2b3e 01       		.uleb128 0x1
 9370 2b3f 30       		.byte	0x30
 9371 2b40 29       		.uleb128 0x29
 9372 2b41 01       		.uleb128 0x1
 9373 2b42 52       		.byte	0x52
 9374 2b43 01       		.uleb128 0x1
 9375 2b44 30       		.byte	0x30
 9376 2b45 29       		.uleb128 0x29
ARM GAS  e:\temp\ccP12Hvn.s 			page 205


 9377 2b46 01       		.uleb128 0x1
 9378 2b47 53       		.byte	0x53
 9379 2b48 01       		.uleb128 0x1
 9380 2b49 34       		.byte	0x34
 9381 2b4a 00       		.byte	0
 9382 2b4b 28       		.uleb128 0x28
 9383 2b4c 80000000 		.4byte	.LVL180
 9384 2b50 94210000 		.4byte	0x2194
 9385 2b54 29       		.uleb128 0x29
 9386 2b55 01       		.uleb128 0x1
 9387 2b56 50       		.byte	0x50
 9388 2b57 02       		.uleb128 0x2
 9389 2b58 74       		.byte	0x74
 9390 2b59 00       		.sleb128 0
 9391 2b5a 00       		.byte	0
 9392 2b5b 00       		.byte	0
 9393 2b5c 2F       		.uleb128 0x2f
 9394 2b5d BB180000 		.4byte	.LASF484
 9395 2b61 01       		.byte	0x1
 9396 2b62 5805     		.2byte	0x558
 9397 2b64 28210000 		.4byte	0x2128
 9398 2b68 00000000 		.4byte	.LFB62
 9399 2b6c 18000000 		.4byte	.LFE62-.LFB62
 9400 2b70 01       		.uleb128 0x1
 9401 2b71 9C       		.byte	0x9c
 9402 2b72 972B0000 		.4byte	0x2b97
 9403 2b76 20       		.uleb128 0x20
 9404 2b77 62160000 		.4byte	.LASF438
 9405 2b7b 01       		.byte	0x1
 9406 2b7c 5805     		.2byte	0x558
 9407 2b7e 8C000000 		.4byte	0x8c
 9408 2b82 7A0B0000 		.4byte	.LLST72
 9409 2b86 20       		.uleb128 0x20
 9410 2b87 880B0000 		.4byte	.LASF485
 9411 2b8b 01       		.byte	0x1
 9412 2b8c 5805     		.2byte	0x558
 9413 2b8e 8C000000 		.4byte	0x8c
 9414 2b92 9B0B0000 		.4byte	.LLST73
 9415 2b96 00       		.byte	0
 9416 2b97 30       		.uleb128 0x30
 9417 2b98 B9190000 		.4byte	.LASF486
 9418 2b9c 01       		.byte	0x1
 9419 2b9d E0       		.byte	0xe0
 9420 2b9e 631B0000 		.4byte	0x1b63
 9421 2ba2 00000000 		.4byte	.LFB33
 9422 2ba6 74000000 		.4byte	.LFE33-.LFB33
 9423 2baa 01       		.uleb128 0x1
 9424 2bab 9C       		.byte	0x9c
 9425 2bac 082C0000 		.4byte	0x2c08
 9426 2bb0 2B       		.uleb128 0x2b
 9427 2bb1 62160000 		.4byte	.LASF438
 9428 2bb5 01       		.byte	0x1
 9429 2bb6 E0       		.byte	0xe0
 9430 2bb7 8C000000 		.4byte	0x8c
 9431 2bbb BC0B0000 		.4byte	.LLST74
 9432 2bbf 33       		.uleb128 0x33
 9433 2bc0 410D0000 		.4byte	.LASF487
ARM GAS  e:\temp\ccP12Hvn.s 			page 206


 9434 2bc4 01       		.byte	0x1
 9435 2bc5 E2       		.byte	0xe2
 9436 2bc6 631B0000 		.4byte	0x1b63
 9437 2bca F60B0000 		.4byte	.LLST75
 9438 2bce 33       		.uleb128 0x33
 9439 2bcf 880B0000 		.4byte	.LASF485
 9440 2bd3 01       		.byte	0x1
 9441 2bd4 E4       		.byte	0xe4
 9442 2bd5 8C000000 		.4byte	0x8c
 9443 2bd9 430C0000 		.4byte	.LLST76
 9444 2bdd 31       		.uleb128 0x31
 9445 2bde 1A000000 		.4byte	.LVL187
 9446 2be2 C5340000 		.4byte	0x34c5
 9447 2be6 F12B0000 		.4byte	0x2bf1
 9448 2bea 29       		.uleb128 0x29
 9449 2beb 01       		.uleb128 0x1
 9450 2bec 50       		.byte	0x50
 9451 2bed 02       		.uleb128 0x2
 9452 2bee 74       		.byte	0x74
 9453 2bef 00       		.sleb128 0
 9454 2bf0 00       		.byte	0
 9455 2bf1 28       		.uleb128 0x28
 9456 2bf2 38000000 		.4byte	.LVL189
 9457 2bf6 5C2B0000 		.4byte	0x2b5c
 9458 2bfa 29       		.uleb128 0x29
 9459 2bfb 01       		.uleb128 0x1
 9460 2bfc 50       		.byte	0x50
 9461 2bfd 02       		.uleb128 0x2
 9462 2bfe 74       		.byte	0x74
 9463 2bff 00       		.sleb128 0
 9464 2c00 29       		.uleb128 0x29
 9465 2c01 01       		.uleb128 0x1
 9466 2c02 51       		.byte	0x51
 9467 2c03 02       		.uleb128 0x2
 9468 2c04 75       		.byte	0x75
 9469 2c05 00       		.sleb128 0
 9470 2c06 00       		.byte	0
 9471 2c07 00       		.byte	0
 9472 2c08 23       		.uleb128 0x23
 9473 2c09 8C010000 		.4byte	.LASF488
 9474 2c0d 01       		.byte	0x1
 9475 2c0e 2503     		.2byte	0x325
 9476 2c10 AD1B0000 		.4byte	0x1bad
 9477 2c14 00000000 		.4byte	.LFB46
 9478 2c18 A4000000 		.4byte	.LFE46-.LFB46
 9479 2c1c 01       		.uleb128 0x1
 9480 2c1d 9C       		.byte	0x9c
 9481 2c1e EC2C0000 		.4byte	0x2cec
 9482 2c22 20       		.uleb128 0x20
 9483 2c23 62160000 		.4byte	.LASF438
 9484 2c27 01       		.byte	0x1
 9485 2c28 2503     		.2byte	0x325
 9486 2c2a 8C000000 		.4byte	0x8c
 9487 2c2e 6C0C0000 		.4byte	.LLST77
 9488 2c32 24       		.uleb128 0x24
 9489 2c33 880B0000 		.4byte	.LASF485
 9490 2c37 01       		.byte	0x1
ARM GAS  e:\temp\ccP12Hvn.s 			page 207


 9491 2c38 2703     		.2byte	0x327
 9492 2c3a 8C000000 		.4byte	0x8c
 9493 2c3e 8D0C0000 		.4byte	.LLST78
 9494 2c42 24       		.uleb128 0x24
 9495 2c43 CE070000 		.4byte	.LASF489
 9496 2c47 01       		.byte	0x1
 9497 2c48 2803     		.2byte	0x328
 9498 2c4a E81C0000 		.4byte	0x1ce8
 9499 2c4e B70C0000 		.4byte	.LLST79
 9500 2c52 24       		.uleb128 0x24
 9501 2c53 C10D0000 		.4byte	.LASF490
 9502 2c57 01       		.byte	0x1
 9503 2c58 2903     		.2byte	0x329
 9504 2c5a 4E1D0000 		.4byte	0x1d4e
 9505 2c5e D60C0000 		.4byte	.LLST80
 9506 2c62 24       		.uleb128 0x24
 9507 2c63 46070000 		.4byte	.LASF475
 9508 2c67 01       		.byte	0x1
 9509 2c68 2A03     		.2byte	0x32a
 9510 2c6a 28210000 		.4byte	0x2128
 9511 2c6e 020D0000 		.4byte	.LLST81
 9512 2c72 24       		.uleb128 0x24
 9513 2c73 74120000 		.4byte	.LASF439
 9514 2c77 01       		.byte	0x1
 9515 2c78 2B03     		.2byte	0x32b
 9516 2c7a 3E210000 		.4byte	0x213e
 9517 2c7e 2C0D0000 		.4byte	.LLST82
 9518 2c82 31       		.uleb128 0x31
 9519 2c83 32000000 		.4byte	.LVL203
 9520 2c87 5C2B0000 		.4byte	0x2b5c
 9521 2c8b 9E2C0000 		.4byte	0x2c9e
 9522 2c8f 29       		.uleb128 0x29
 9523 2c90 01       		.uleb128 0x1
 9524 2c91 50       		.byte	0x50
 9525 2c92 04       		.uleb128 0x4
 9526 2c93 91       		.byte	0x91
 9527 2c94 60       		.sleb128 -32
 9528 2c95 94       		.byte	0x94
 9529 2c96 01       		.byte	0x1
 9530 2c97 29       		.uleb128 0x29
 9531 2c98 01       		.uleb128 0x1
 9532 2c99 51       		.byte	0x51
 9533 2c9a 02       		.uleb128 0x2
 9534 2c9b 76       		.byte	0x76
 9535 2c9c 00       		.sleb128 0
 9536 2c9d 00       		.byte	0
 9537 2c9e 31       		.uleb128 0x31
 9538 2c9f 6C000000 		.4byte	.LVL211
 9539 2ca3 A1260000 		.4byte	0x26a1
 9540 2ca7 C22C0000 		.4byte	0x2cc2
 9541 2cab 29       		.uleb128 0x29
 9542 2cac 01       		.uleb128 0x1
 9543 2cad 50       		.byte	0x50
 9544 2cae 04       		.uleb128 0x4
 9545 2caf 91       		.byte	0x91
 9546 2cb0 60       		.sleb128 -32
 9547 2cb1 94       		.byte	0x94
ARM GAS  e:\temp\ccP12Hvn.s 			page 208


 9548 2cb2 01       		.byte	0x1
 9549 2cb3 29       		.uleb128 0x29
 9550 2cb4 01       		.uleb128 0x1
 9551 2cb5 53       		.byte	0x53
 9552 2cb6 04       		.uleb128 0x4
 9553 2cb7 91       		.byte	0x91
 9554 2cb8 64       		.sleb128 -28
 9555 2cb9 94       		.byte	0x94
 9556 2cba 01       		.byte	0x1
 9557 2cbb 29       		.uleb128 0x29
 9558 2cbc 02       		.uleb128 0x2
 9559 2cbd 7D       		.byte	0x7d
 9560 2cbe 00       		.sleb128 0
 9561 2cbf 01       		.uleb128 0x1
 9562 2cc0 30       		.byte	0x30
 9563 2cc1 00       		.byte	0
 9564 2cc2 31       		.uleb128 0x31
 9565 2cc3 76000000 		.4byte	.LVL212
 9566 2cc7 AD340000 		.4byte	0x34ad
 9567 2ccb DD2C0000 		.4byte	0x2cdd
 9568 2ccf 29       		.uleb128 0x29
 9569 2cd0 01       		.uleb128 0x1
 9570 2cd1 50       		.byte	0x50
 9571 2cd2 04       		.uleb128 0x4
 9572 2cd3 91       		.byte	0x91
 9573 2cd4 60       		.sleb128 -32
 9574 2cd5 94       		.byte	0x94
 9575 2cd6 01       		.byte	0x1
 9576 2cd7 29       		.uleb128 0x29
 9577 2cd8 01       		.uleb128 0x1
 9578 2cd9 51       		.byte	0x51
 9579 2cda 01       		.uleb128 0x1
 9580 2cdb 36       		.byte	0x36
 9581 2cdc 00       		.byte	0
 9582 2cdd 34       		.uleb128 0x34
 9583 2cde 84000000 		.4byte	.LVL213
 9584 2ce2 29       		.uleb128 0x29
 9585 2ce3 01       		.uleb128 0x1
 9586 2ce4 50       		.byte	0x50
 9587 2ce5 04       		.uleb128 0x4
 9588 2ce6 91       		.byte	0x91
 9589 2ce7 60       		.sleb128 -32
 9590 2ce8 94       		.byte	0x94
 9591 2ce9 01       		.byte	0x1
 9592 2cea 00       		.byte	0
 9593 2ceb 00       		.byte	0
 9594 2cec 23       		.uleb128 0x23
 9595 2ced 42010000 		.4byte	.LASF491
 9596 2cf1 01       		.byte	0x1
 9597 2cf2 B602     		.2byte	0x2b6
 9598 2cf4 AD1B0000 		.4byte	0x1bad
 9599 2cf8 00000000 		.4byte	.LFB45
 9600 2cfc 38010000 		.4byte	.LFE45-.LFB45
 9601 2d00 01       		.uleb128 0x1
 9602 2d01 9C       		.byte	0x9c
 9603 2d02 712E0000 		.4byte	0x2e71
 9604 2d06 20       		.uleb128 0x20
ARM GAS  e:\temp\ccP12Hvn.s 			page 209


 9605 2d07 62160000 		.4byte	.LASF438
 9606 2d0b 01       		.byte	0x1
 9607 2d0c B602     		.2byte	0x2b6
 9608 2d0e 8C000000 		.4byte	0x8c
 9609 2d12 3F0D0000 		.4byte	.LLST83
 9610 2d16 24       		.uleb128 0x24
 9611 2d17 880B0000 		.4byte	.LASF485
 9612 2d1b 01       		.byte	0x1
 9613 2d1c B802     		.2byte	0x2b8
 9614 2d1e 8C000000 		.4byte	0x8c
 9615 2d22 600D0000 		.4byte	.LLST84
 9616 2d26 24       		.uleb128 0x24
 9617 2d27 CE070000 		.4byte	.LASF489
 9618 2d2b 01       		.byte	0x1
 9619 2d2c B902     		.2byte	0x2b9
 9620 2d2e E81C0000 		.4byte	0x1ce8
 9621 2d32 8A0D0000 		.4byte	.LLST85
 9622 2d36 24       		.uleb128 0x24
 9623 2d37 191D0000 		.4byte	.LASF462
 9624 2d3b 01       		.byte	0x1
 9625 2d3c BA02     		.2byte	0x2ba
 9626 2d3e AD1B0000 		.4byte	0x1bad
 9627 2d42 A90D0000 		.4byte	.LLST86
 9628 2d46 24       		.uleb128 0x24
 9629 2d47 C10D0000 		.4byte	.LASF490
 9630 2d4b 01       		.byte	0x1
 9631 2d4c BB02     		.2byte	0x2bb
 9632 2d4e 4E1D0000 		.4byte	0x1d4e
 9633 2d52 F90D0000 		.4byte	.LLST87
 9634 2d56 24       		.uleb128 0x24
 9635 2d57 46070000 		.4byte	.LASF475
 9636 2d5b 01       		.byte	0x1
 9637 2d5c BC02     		.2byte	0x2bc
 9638 2d5e 28210000 		.4byte	0x2128
 9639 2d62 5D0E0000 		.4byte	.LLST88
 9640 2d66 24       		.uleb128 0x24
 9641 2d67 A7060000 		.4byte	.LASF492
 9642 2d6b 01       		.byte	0x1
 9643 2d6c BD02     		.2byte	0x2bd
 9644 2d6e A2000000 		.4byte	0xa2
 9645 2d72 9D0E0000 		.4byte	.LLST89
 9646 2d76 24       		.uleb128 0x24
 9647 2d77 74120000 		.4byte	.LASF439
 9648 2d7b 01       		.byte	0x1
 9649 2d7c BE02     		.2byte	0x2be
 9650 2d7e 3E210000 		.4byte	0x213e
 9651 2d82 D20E0000 		.4byte	.LLST90
 9652 2d86 31       		.uleb128 0x31
 9653 2d87 3E000000 		.4byte	.LVL222
 9654 2d8b 5C2B0000 		.4byte	0x2b5c
 9655 2d8f A22D0000 		.4byte	0x2da2
 9656 2d93 29       		.uleb128 0x29
 9657 2d94 01       		.uleb128 0x1
 9658 2d95 50       		.byte	0x50
 9659 2d96 04       		.uleb128 0x4
 9660 2d97 91       		.byte	0x91
 9661 2d98 58       		.sleb128 -40
ARM GAS  e:\temp\ccP12Hvn.s 			page 210


 9662 2d99 94       		.byte	0x94
 9663 2d9a 01       		.byte	0x1
 9664 2d9b 29       		.uleb128 0x29
 9665 2d9c 01       		.uleb128 0x1
 9666 2d9d 51       		.byte	0x51
 9667 2d9e 02       		.uleb128 0x2
 9668 2d9f 74       		.byte	0x74
 9669 2da0 00       		.sleb128 0
 9670 2da1 00       		.byte	0
 9671 2da2 31       		.uleb128 0x31
 9672 2da3 5E000000 		.4byte	.LVL228
 9673 2da7 C9220000 		.4byte	0x22c9
 9674 2dab BE2D0000 		.4byte	0x2dbe
 9675 2daf 29       		.uleb128 0x29
 9676 2db0 01       		.uleb128 0x1
 9677 2db1 50       		.byte	0x50
 9678 2db2 04       		.uleb128 0x4
 9679 2db3 91       		.byte	0x91
 9680 2db4 58       		.sleb128 -40
 9681 2db5 94       		.byte	0x94
 9682 2db6 01       		.byte	0x1
 9683 2db7 29       		.uleb128 0x29
 9684 2db8 01       		.uleb128 0x1
 9685 2db9 51       		.byte	0x51
 9686 2dba 02       		.uleb128 0x2
 9687 2dbb 75       		.byte	0x75
 9688 2dbc 00       		.sleb128 0
 9689 2dbd 00       		.byte	0
 9690 2dbe 35       		.uleb128 0x35
 9691 2dbf 6A000000 		.4byte	.LVL229
 9692 2dc3 D02D0000 		.4byte	0x2dd0
 9693 2dc7 29       		.uleb128 0x29
 9694 2dc8 01       		.uleb128 0x1
 9695 2dc9 50       		.byte	0x50
 9696 2dca 04       		.uleb128 0x4
 9697 2dcb 91       		.byte	0x91
 9698 2dcc 58       		.sleb128 -40
 9699 2dcd 94       		.byte	0x94
 9700 2dce 01       		.byte	0x1
 9701 2dcf 00       		.byte	0
 9702 2dd0 31       		.uleb128 0x31
 9703 2dd1 82000000 		.4byte	.LVL230
 9704 2dd5 95340000 		.4byte	0x3495
 9705 2dd9 E62D0000 		.4byte	0x2de6
 9706 2ddd 29       		.uleb128 0x29
 9707 2dde 01       		.uleb128 0x1
 9708 2ddf 50       		.byte	0x50
 9709 2de0 04       		.uleb128 0x4
 9710 2de1 91       		.byte	0x91
 9711 2de2 58       		.sleb128 -40
 9712 2de3 94       		.byte	0x94
 9713 2de4 01       		.byte	0x1
 9714 2de5 00       		.byte	0
 9715 2de6 31       		.uleb128 0x31
 9716 2de7 D2000000 		.4byte	.LVL240
 9717 2deb A1260000 		.4byte	0x26a1
 9718 2def 072E0000 		.4byte	0x2e07
ARM GAS  e:\temp\ccP12Hvn.s 			page 211


 9719 2df3 29       		.uleb128 0x29
 9720 2df4 01       		.uleb128 0x1
 9721 2df5 50       		.byte	0x50
 9722 2df6 02       		.uleb128 0x2
 9723 2df7 75       		.byte	0x75
 9724 2df8 00       		.sleb128 0
 9725 2df9 29       		.uleb128 0x29
 9726 2dfa 01       		.uleb128 0x1
 9727 2dfb 53       		.byte	0x53
 9728 2dfc 02       		.uleb128 0x2
 9729 2dfd 79       		.byte	0x79
 9730 2dfe 00       		.sleb128 0
 9731 2dff 29       		.uleb128 0x29
 9732 2e00 02       		.uleb128 0x2
 9733 2e01 7D       		.byte	0x7d
 9734 2e02 00       		.sleb128 0
 9735 2e03 02       		.uleb128 0x2
 9736 2e04 7A       		.byte	0x7a
 9737 2e05 00       		.sleb128 0
 9738 2e06 00       		.byte	0
 9739 2e07 31       		.uleb128 0x31
 9740 2e08 DC000000 		.4byte	.LVL241
 9741 2e0c AD340000 		.4byte	0x34ad
 9742 2e10 202E0000 		.4byte	0x2e20
 9743 2e14 29       		.uleb128 0x29
 9744 2e15 01       		.uleb128 0x1
 9745 2e16 50       		.byte	0x50
 9746 2e17 02       		.uleb128 0x2
 9747 2e18 75       		.byte	0x75
 9748 2e19 00       		.sleb128 0
 9749 2e1a 29       		.uleb128 0x29
 9750 2e1b 01       		.uleb128 0x1
 9751 2e1c 51       		.byte	0x51
 9752 2e1d 01       		.uleb128 0x1
 9753 2e1e 36       		.byte	0x36
 9754 2e1f 00       		.byte	0
 9755 2e20 31       		.uleb128 0x31
 9756 2e21 EE000000 		.4byte	.LVL243
 9757 2e25 40230000 		.4byte	0x2340
 9758 2e29 412E0000 		.4byte	0x2e41
 9759 2e2d 29       		.uleb128 0x29
 9760 2e2e 01       		.uleb128 0x1
 9761 2e2f 50       		.byte	0x50
 9762 2e30 04       		.uleb128 0x4
 9763 2e31 91       		.byte	0x91
 9764 2e32 58       		.sleb128 -40
 9765 2e33 94       		.byte	0x94
 9766 2e34 01       		.byte	0x1
 9767 2e35 29       		.uleb128 0x29
 9768 2e36 01       		.uleb128 0x1
 9769 2e37 51       		.byte	0x51
 9770 2e38 02       		.uleb128 0x2
 9771 2e39 75       		.byte	0x75
 9772 2e3a 00       		.sleb128 0
 9773 2e3b 29       		.uleb128 0x29
 9774 2e3c 01       		.uleb128 0x1
 9775 2e3d 52       		.byte	0x52
ARM GAS  e:\temp\ccP12Hvn.s 			page 212


 9776 2e3e 01       		.uleb128 0x1
 9777 2e3f 32       		.byte	0x32
 9778 2e40 00       		.byte	0
 9779 2e41 31       		.uleb128 0x31
 9780 2e42 04010000 		.4byte	.LVL245
 9781 2e46 40230000 		.4byte	0x2340
 9782 2e4a 622E0000 		.4byte	0x2e62
 9783 2e4e 29       		.uleb128 0x29
 9784 2e4f 01       		.uleb128 0x1
 9785 2e50 50       		.byte	0x50
 9786 2e51 04       		.uleb128 0x4
 9787 2e52 91       		.byte	0x91
 9788 2e53 58       		.sleb128 -40
 9789 2e54 94       		.byte	0x94
 9790 2e55 01       		.byte	0x1
 9791 2e56 29       		.uleb128 0x29
 9792 2e57 01       		.uleb128 0x1
 9793 2e58 51       		.byte	0x51
 9794 2e59 02       		.uleb128 0x2
 9795 2e5a 75       		.byte	0x75
 9796 2e5b 00       		.sleb128 0
 9797 2e5c 29       		.uleb128 0x29
 9798 2e5d 01       		.uleb128 0x1
 9799 2e5e 52       		.byte	0x52
 9800 2e5f 01       		.uleb128 0x1
 9801 2e60 30       		.byte	0x30
 9802 2e61 00       		.byte	0
 9803 2e62 34       		.uleb128 0x34
 9804 2e63 10010000 		.4byte	.LVL247
 9805 2e67 29       		.uleb128 0x29
 9806 2e68 01       		.uleb128 0x1
 9807 2e69 50       		.byte	0x50
 9808 2e6a 04       		.uleb128 0x4
 9809 2e6b 91       		.byte	0x91
 9810 2e6c 58       		.sleb128 -40
 9811 2e6d 94       		.byte	0x94
 9812 2e6e 01       		.byte	0x1
 9813 2e6f 00       		.byte	0
 9814 2e70 00       		.byte	0
 9815 2e71 23       		.uleb128 0x23
 9816 2e72 7B020000 		.4byte	.LASF493
 9817 2e76 01       		.byte	0x1
 9818 2e77 2202     		.2byte	0x222
 9819 2e79 AD1B0000 		.4byte	0x1bad
 9820 2e7d 00000000 		.4byte	.LFB44
 9821 2e81 68010000 		.4byte	.LFE44-.LFB44
 9822 2e85 01       		.uleb128 0x1
 9823 2e86 9C       		.byte	0x9c
 9824 2e87 D92F0000 		.4byte	0x2fd9
 9825 2e8b 20       		.uleb128 0x20
 9826 2e8c 62160000 		.4byte	.LASF438
 9827 2e90 01       		.byte	0x1
 9828 2e91 2202     		.2byte	0x222
 9829 2e93 8C000000 		.4byte	0x8c
 9830 2e97 E50E0000 		.4byte	.LLST91
 9831 2e9b 24       		.uleb128 0x24
 9832 2e9c 880B0000 		.4byte	.LASF485
ARM GAS  e:\temp\ccP12Hvn.s 			page 213


 9833 2ea0 01       		.byte	0x1
 9834 2ea1 2402     		.2byte	0x224
 9835 2ea3 8C000000 		.4byte	0x8c
 9836 2ea7 060F0000 		.4byte	.LLST92
 9837 2eab 24       		.uleb128 0x24
 9838 2eac CE070000 		.4byte	.LASF489
 9839 2eb0 01       		.byte	0x1
 9840 2eb1 2502     		.2byte	0x225
 9841 2eb3 E81C0000 		.4byte	0x1ce8
 9842 2eb7 300F0000 		.4byte	.LLST93
 9843 2ebb 36       		.uleb128 0x36
 9844 2ebc 191D0000 		.4byte	.LASF462
 9845 2ec0 01       		.byte	0x1
 9846 2ec1 2602     		.2byte	0x226
 9847 2ec3 AD1B0000 		.4byte	0x1bad
 9848 2ec7 07       		.byte	0x7
 9849 2ec8 24       		.uleb128 0x24
 9850 2ec9 BF160000 		.4byte	.LASF407
 9851 2ecd 01       		.byte	0x1
 9852 2ece 2702     		.2byte	0x227
 9853 2ed0 7C010000 		.4byte	0x17c
 9854 2ed4 8B0F0000 		.4byte	.LLST94
 9855 2ed8 24       		.uleb128 0x24
 9856 2ed9 46070000 		.4byte	.LASF475
 9857 2edd 01       		.byte	0x1
 9858 2ede 2802     		.2byte	0x228
 9859 2ee0 28210000 		.4byte	0x2128
 9860 2ee4 A90F0000 		.4byte	.LLST95
 9861 2ee8 31       		.uleb128 0x31
 9862 2ee9 28000000 		.4byte	.LVL257
 9863 2eed 5C2B0000 		.4byte	0x2b5c
 9864 2ef1 022F0000 		.4byte	0x2f02
 9865 2ef5 29       		.uleb128 0x29
 9866 2ef6 01       		.uleb128 0x1
 9867 2ef7 50       		.byte	0x50
 9868 2ef8 02       		.uleb128 0x2
 9869 2ef9 76       		.byte	0x76
 9870 2efa 00       		.sleb128 0
 9871 2efb 29       		.uleb128 0x29
 9872 2efc 01       		.uleb128 0x1
 9873 2efd 51       		.byte	0x51
 9874 2efe 02       		.uleb128 0x2
 9875 2eff 75       		.byte	0x75
 9876 2f00 00       		.sleb128 0
 9877 2f01 00       		.byte	0
 9878 2f02 31       		.uleb128 0x31
 9879 2f03 4A000000 		.4byte	.LVL262
 9880 2f07 95340000 		.4byte	0x3495
 9881 2f0b 162F0000 		.4byte	0x2f16
 9882 2f0f 29       		.uleb128 0x29
 9883 2f10 01       		.uleb128 0x1
 9884 2f11 50       		.byte	0x50
 9885 2f12 02       		.uleb128 0x2
 9886 2f13 76       		.byte	0x76
 9887 2f14 00       		.sleb128 0
 9888 2f15 00       		.byte	0
 9889 2f16 31       		.uleb128 0x31
ARM GAS  e:\temp\ccP12Hvn.s 			page 214


 9890 2f17 9E000000 		.4byte	.LVL264
 9891 2f1b D0340000 		.4byte	0x34d0
 9892 2f1f 342F0000 		.4byte	0x2f34
 9893 2f23 29       		.uleb128 0x29
 9894 2f24 01       		.uleb128 0x1
 9895 2f25 50       		.byte	0x50
 9896 2f26 02       		.uleb128 0x2
 9897 2f27 76       		.byte	0x76
 9898 2f28 00       		.sleb128 0
 9899 2f29 29       		.uleb128 0x29
 9900 2f2a 01       		.uleb128 0x1
 9901 2f2b 51       		.byte	0x51
 9902 2f2c 01       		.uleb128 0x1
 9903 2f2d 30       		.byte	0x30
 9904 2f2e 29       		.uleb128 0x29
 9905 2f2f 01       		.uleb128 0x1
 9906 2f30 52       		.byte	0x52
 9907 2f31 01       		.uleb128 0x1
 9908 2f32 30       		.byte	0x30
 9909 2f33 00       		.byte	0
 9910 2f34 31       		.uleb128 0x31
 9911 2f35 BA000000 		.4byte	.LVL265
 9912 2f39 40230000 		.4byte	0x2340
 9913 2f3d 542F0000 		.4byte	0x2f54
 9914 2f41 29       		.uleb128 0x29
 9915 2f42 01       		.uleb128 0x1
 9916 2f43 50       		.byte	0x50
 9917 2f44 02       		.uleb128 0x2
 9918 2f45 76       		.byte	0x76
 9919 2f46 00       		.sleb128 0
 9920 2f47 29       		.uleb128 0x29
 9921 2f48 01       		.uleb128 0x1
 9922 2f49 51       		.byte	0x51
 9923 2f4a 02       		.uleb128 0x2
 9924 2f4b 74       		.byte	0x74
 9925 2f4c 00       		.sleb128 0
 9926 2f4d 29       		.uleb128 0x29
 9927 2f4e 01       		.uleb128 0x1
 9928 2f4f 52       		.byte	0x52
 9929 2f50 02       		.uleb128 0x2
 9930 2f51 77       		.byte	0x77
 9931 2f52 00       		.sleb128 0
 9932 2f53 00       		.byte	0
 9933 2f54 31       		.uleb128 0x31
 9934 2f55 F4000000 		.4byte	.LVL269
 9935 2f59 95340000 		.4byte	0x3495
 9936 2f5d 682F0000 		.4byte	0x2f68
 9937 2f61 29       		.uleb128 0x29
 9938 2f62 01       		.uleb128 0x1
 9939 2f63 50       		.byte	0x50
 9940 2f64 02       		.uleb128 0x2
 9941 2f65 76       		.byte	0x76
 9942 2f66 00       		.sleb128 0
 9943 2f67 00       		.byte	0
 9944 2f68 31       		.uleb128 0x31
 9945 2f69 02010000 		.4byte	.LVL270
 9946 2f6d D0340000 		.4byte	0x34d0
ARM GAS  e:\temp\ccP12Hvn.s 			page 215


 9947 2f71 862F0000 		.4byte	0x2f86
 9948 2f75 29       		.uleb128 0x29
 9949 2f76 01       		.uleb128 0x1
 9950 2f77 50       		.byte	0x50
 9951 2f78 02       		.uleb128 0x2
 9952 2f79 76       		.byte	0x76
 9953 2f7a 00       		.sleb128 0
 9954 2f7b 29       		.uleb128 0x29
 9955 2f7c 01       		.uleb128 0x1
 9956 2f7d 51       		.byte	0x51
 9957 2f7e 01       		.uleb128 0x1
 9958 2f7f 32       		.byte	0x32
 9959 2f80 29       		.uleb128 0x29
 9960 2f81 01       		.uleb128 0x1
 9961 2f82 52       		.byte	0x52
 9962 2f83 01       		.uleb128 0x1
 9963 2f84 30       		.byte	0x30
 9964 2f85 00       		.byte	0
 9965 2f86 31       		.uleb128 0x31
 9966 2f87 08010000 		.4byte	.LVL271
 9967 2f8b 94210000 		.4byte	0x2194
 9968 2f8f 9A2F0000 		.4byte	0x2f9a
 9969 2f93 29       		.uleb128 0x29
 9970 2f94 01       		.uleb128 0x1
 9971 2f95 50       		.byte	0x50
 9972 2f96 02       		.uleb128 0x2
 9973 2f97 76       		.byte	0x76
 9974 2f98 00       		.sleb128 0
 9975 2f99 00       		.byte	0
 9976 2f9a 31       		.uleb128 0x31
 9977 2f9b 22010000 		.4byte	.LVL275
 9978 2f9f A1260000 		.4byte	0x26a1
 9979 2fa3 B32F0000 		.4byte	0x2fb3
 9980 2fa7 29       		.uleb128 0x29
 9981 2fa8 01       		.uleb128 0x1
 9982 2fa9 50       		.byte	0x50
 9983 2faa 02       		.uleb128 0x2
 9984 2fab 76       		.byte	0x76
 9985 2fac 00       		.sleb128 0
 9986 2fad 29       		.uleb128 0x29
 9987 2fae 01       		.uleb128 0x1
 9988 2faf 53       		.byte	0x53
 9989 2fb0 01       		.uleb128 0x1
 9990 2fb1 3C       		.byte	0x3c
 9991 2fb2 00       		.byte	0
 9992 2fb3 31       		.uleb128 0x31
 9993 2fb4 2C010000 		.4byte	.LVL276
 9994 2fb8 AD340000 		.4byte	0x34ad
 9995 2fbc CC2F0000 		.4byte	0x2fcc
 9996 2fc0 29       		.uleb128 0x29
 9997 2fc1 01       		.uleb128 0x1
 9998 2fc2 50       		.byte	0x50
 9999 2fc3 02       		.uleb128 0x2
 10000 2fc4 76       		.byte	0x76
 10001 2fc5 00       		.sleb128 0
 10002 2fc6 29       		.uleb128 0x29
 10003 2fc7 01       		.uleb128 0x1
ARM GAS  e:\temp\ccP12Hvn.s 			page 216


 10004 2fc8 51       		.byte	0x51
 10005 2fc9 01       		.uleb128 0x1
 10006 2fca 36       		.byte	0x36
 10007 2fcb 00       		.byte	0
 10008 2fcc 34       		.uleb128 0x34
 10009 2fcd 3A010000 		.4byte	.LVL279
 10010 2fd1 29       		.uleb128 0x29
 10011 2fd2 01       		.uleb128 0x1
 10012 2fd3 50       		.byte	0x50
 10013 2fd4 02       		.uleb128 0x2
 10014 2fd5 76       		.byte	0x76
 10015 2fd6 00       		.sleb128 0
 10016 2fd7 00       		.byte	0
 10017 2fd8 00       		.byte	0
 10018 2fd9 23       		.uleb128 0x23
 10019 2fda 49000000 		.4byte	.LASF494
 10020 2fde 01       		.byte	0x1
 10021 2fdf EE03     		.2byte	0x3ee
 10022 2fe1 AD1B0000 		.4byte	0x1bad
 10023 2fe5 00000000 		.4byte	.LFB51
 10024 2fe9 64000000 		.4byte	.LFE51-.LFB51
 10025 2fed 01       		.uleb128 0x1
 10026 2fee 9C       		.byte	0x9c
 10027 2fef 72300000 		.4byte	0x3072
 10028 2ff3 20       		.uleb128 0x20
 10029 2ff4 62160000 		.4byte	.LASF438
 10030 2ff8 01       		.byte	0x1
 10031 2ff9 EE03     		.2byte	0x3ee
 10032 2ffb 8C000000 		.4byte	0x8c
 10033 2fff 20100000 		.4byte	.LLST96
 10034 3003 24       		.uleb128 0x24
 10035 3004 880B0000 		.4byte	.LASF485
 10036 3008 01       		.byte	0x1
 10037 3009 F003     		.2byte	0x3f0
 10038 300b 8C000000 		.4byte	0x8c
 10039 300f 41100000 		.4byte	.LLST97
 10040 3013 24       		.uleb128 0x24
 10041 3014 46070000 		.4byte	.LASF475
 10042 3018 01       		.byte	0x1
 10043 3019 F103     		.2byte	0x3f1
 10044 301b 28210000 		.4byte	0x2128
 10045 301f 6B100000 		.4byte	.LLST98
 10046 3023 31       		.uleb128 0x31
 10047 3024 10000000 		.4byte	.LVL288
 10048 3028 5C2B0000 		.4byte	0x2b5c
 10049 302c 3D300000 		.4byte	0x303d
 10050 3030 29       		.uleb128 0x29
 10051 3031 01       		.uleb128 0x1
 10052 3032 50       		.byte	0x50
 10053 3033 02       		.uleb128 0x2
 10054 3034 76       		.byte	0x76
 10055 3035 00       		.sleb128 0
 10056 3036 29       		.uleb128 0x29
 10057 3037 01       		.uleb128 0x1
 10058 3038 51       		.byte	0x51
 10059 3039 02       		.uleb128 0x2
 10060 303a 75       		.byte	0x75
ARM GAS  e:\temp\ccP12Hvn.s 			page 217


 10061 303b 00       		.sleb128 0
 10062 303c 00       		.byte	0
 10063 303d 35       		.uleb128 0x35
 10064 303e 38000000 		.4byte	.LVL291
 10065 3042 4D300000 		.4byte	0x304d
 10066 3046 29       		.uleb128 0x29
 10067 3047 01       		.uleb128 0x1
 10068 3048 50       		.byte	0x50
 10069 3049 02       		.uleb128 0x2
 10070 304a 76       		.byte	0x76
 10071 304b 00       		.sleb128 0
 10072 304c 00       		.byte	0
 10073 304d 31       		.uleb128 0x31
 10074 304e 3E000000 		.4byte	.LVL292
 10075 3052 33260000 		.4byte	0x2633
 10076 3056 61300000 		.4byte	0x3061
 10077 305a 29       		.uleb128 0x29
 10078 305b 01       		.uleb128 0x1
 10079 305c 50       		.byte	0x50
 10080 305d 02       		.uleb128 0x2
 10081 305e 74       		.byte	0x74
 10082 305f 00       		.sleb128 0
 10083 3060 00       		.byte	0
 10084 3061 28       		.uleb128 0x28
 10085 3062 58000000 		.4byte	.LVL295
 10086 3066 AB230000 		.4byte	0x23ab
 10087 306a 29       		.uleb128 0x29
 10088 306b 01       		.uleb128 0x1
 10089 306c 50       		.byte	0x50
 10090 306d 02       		.uleb128 0x2
 10091 306e 76       		.byte	0x76
 10092 306f 00       		.sleb128 0
 10093 3070 00       		.byte	0
 10094 3071 00       		.byte	0
 10095 3072 2D       		.uleb128 0x2d
 10096 3073 92110000 		.4byte	.LASF495
 10097 3077 01       		.byte	0x1
 10098 3078 BD04     		.2byte	0x4bd
 10099 307a 00000000 		.4byte	.LFB59
 10100 307e 5C000000 		.4byte	.LFE59-.LFB59
 10101 3082 01       		.uleb128 0x1
 10102 3083 9C       		.byte	0x9c
 10103 3084 DF300000 		.4byte	0x30df
 10104 3088 20       		.uleb128 0x20
 10105 3089 62160000 		.4byte	.LASF438
 10106 308d 01       		.byte	0x1
 10107 308e BD04     		.2byte	0x4bd
 10108 3090 8C000000 		.4byte	0x8c
 10109 3094 95100000 		.4byte	.LLST99
 10110 3098 24       		.uleb128 0x24
 10111 3099 880B0000 		.4byte	.LASF485
 10112 309d 01       		.byte	0x1
 10113 309e C004     		.2byte	0x4c0
 10114 30a0 8C000000 		.4byte	0x8c
 10115 30a4 B6100000 		.4byte	.LLST100
 10116 30a8 24       		.uleb128 0x24
 10117 30a9 46070000 		.4byte	.LASF475
ARM GAS  e:\temp\ccP12Hvn.s 			page 218


 10118 30ad 01       		.byte	0x1
 10119 30ae C104     		.2byte	0x4c1
 10120 30b0 28210000 		.4byte	0x2128
 10121 30b4 D4100000 		.4byte	.LLST101
 10122 30b8 31       		.uleb128 0x31
 10123 30b9 2A000000 		.4byte	.LVL300
 10124 30bd 5C2B0000 		.4byte	0x2b5c
 10125 30c1 D2300000 		.4byte	0x30d2
 10126 30c5 29       		.uleb128 0x29
 10127 30c6 01       		.uleb128 0x1
 10128 30c7 50       		.byte	0x50
 10129 30c8 02       		.uleb128 0x2
 10130 30c9 74       		.byte	0x74
 10131 30ca 00       		.sleb128 0
 10132 30cb 29       		.uleb128 0x29
 10133 30cc 01       		.uleb128 0x1
 10134 30cd 51       		.byte	0x51
 10135 30ce 02       		.uleb128 0x2
 10136 30cf 75       		.byte	0x75
 10137 30d0 00       		.sleb128 0
 10138 30d1 00       		.byte	0
 10139 30d2 34       		.uleb128 0x34
 10140 30d3 3C000000 		.4byte	.LVL302
 10141 30d7 29       		.uleb128 0x29
 10142 30d8 01       		.uleb128 0x1
 10143 30d9 50       		.byte	0x50
 10144 30da 02       		.uleb128 0x2
 10145 30db 74       		.byte	0x74
 10146 30dc 00       		.sleb128 0
 10147 30dd 00       		.byte	0
 10148 30de 00       		.byte	0
 10149 30df 2F       		.uleb128 0x2f
 10150 30e0 50070000 		.4byte	.LASF496
 10151 30e4 01       		.byte	0x1
 10152 30e5 DE04     		.2byte	0x4de
 10153 30e7 631B0000 		.4byte	0x1b63
 10154 30eb 00000000 		.4byte	.LFB60
 10155 30ef 74010000 		.4byte	.LFE60-.LFB60
 10156 30f3 01       		.uleb128 0x1
 10157 30f4 9C       		.byte	0x9c
 10158 30f5 DA310000 		.4byte	0x31da
 10159 30f9 20       		.uleb128 0x20
 10160 30fa 62160000 		.4byte	.LASF438
 10161 30fe 01       		.byte	0x1
 10162 30ff DE04     		.2byte	0x4de
 10163 3101 8C000000 		.4byte	0x8c
 10164 3105 F3100000 		.4byte	.LLST102
 10165 3109 21       		.uleb128 0x21
 10166 310a 636D6400 		.ascii	"cmd\000"
 10167 310e 01       		.byte	0x1
 10168 310f DE04     		.2byte	0x4de
 10169 3111 CB1A0000 		.4byte	0x1acb
 10170 3115 14110000 		.4byte	.LLST103
 10171 3119 20       		.uleb128 0x20
 10172 311a 01170000 		.4byte	.LASF468
 10173 311e 01       		.byte	0x1
 10174 311f DE04     		.2byte	0x4de
ARM GAS  e:\temp\ccP12Hvn.s 			page 219


 10175 3121 CB1A0000 		.4byte	0x1acb
 10176 3125 35110000 		.4byte	.LLST104
 10177 3129 24       		.uleb128 0x24
 10178 312a 1E1D0000 		.4byte	.LASF497
 10179 312e 01       		.byte	0x1
 10180 312f E004     		.2byte	0x4e0
 10181 3131 321E0000 		.4byte	0x1e32
 10182 3135 56110000 		.4byte	.LLST105
 10183 3139 24       		.uleb128 0x24
 10184 313a D4100000 		.4byte	.LASF498
 10185 313e 01       		.byte	0x1
 10186 313f E004     		.2byte	0x4e0
 10187 3141 321E0000 		.4byte	0x1e32
 10188 3145 8A110000 		.4byte	.LLST106
 10189 3149 24       		.uleb128 0x24
 10190 314a 46070000 		.4byte	.LASF475
 10191 314e 01       		.byte	0x1
 10192 314f E104     		.2byte	0x4e1
 10193 3151 28210000 		.4byte	0x2128
 10194 3155 B3110000 		.4byte	.LLST107
 10195 3159 24       		.uleb128 0x24
 10196 315a 880B0000 		.4byte	.LASF485
 10197 315e 01       		.byte	0x1
 10198 315f E204     		.2byte	0x4e2
 10199 3161 8C000000 		.4byte	0x8c
 10200 3165 09120000 		.4byte	.LLST108
 10201 3169 24       		.uleb128 0x24
 10202 316a 2E0F0000 		.4byte	.LASF499
 10203 316e 01       		.byte	0x1
 10204 316f E304     		.2byte	0x4e3
 10205 3171 631B0000 		.4byte	0x1b63
 10206 3175 33120000 		.4byte	.LLST109
 10207 3179 31       		.uleb128 0x31
 10208 317a 52000000 		.4byte	.LVL315
 10209 317e 5C2B0000 		.4byte	0x2b5c
 10210 3182 93310000 		.4byte	0x3193
 10211 3186 29       		.uleb128 0x29
 10212 3187 01       		.uleb128 0x1
 10213 3188 50       		.byte	0x50
 10214 3189 02       		.uleb128 0x2
 10215 318a 74       		.byte	0x74
 10216 318b 00       		.sleb128 0
 10217 318c 29       		.uleb128 0x29
 10218 318d 01       		.uleb128 0x1
 10219 318e 51       		.byte	0x51
 10220 318f 02       		.uleb128 0x2
 10221 3190 75       		.byte	0x75
 10222 3191 00       		.sleb128 0
 10223 3192 00       		.byte	0
 10224 3193 31       		.uleb128 0x31
 10225 3194 A0000000 		.4byte	.LVL320
 10226 3198 95340000 		.4byte	0x3495
 10227 319c A7310000 		.4byte	0x31a7
 10228 31a0 29       		.uleb128 0x29
 10229 31a1 01       		.uleb128 0x1
 10230 31a2 50       		.byte	0x50
 10231 31a3 02       		.uleb128 0x2
ARM GAS  e:\temp\ccP12Hvn.s 			page 220


 10232 31a4 74       		.byte	0x74
 10233 31a5 00       		.sleb128 0
 10234 31a6 00       		.byte	0
 10235 31a7 35       		.uleb128 0x35
 10236 31a8 EA000000 		.4byte	.LVL324
 10237 31ac B7310000 		.4byte	0x31b7
 10238 31b0 29       		.uleb128 0x29
 10239 31b1 01       		.uleb128 0x1
 10240 31b2 50       		.byte	0x50
 10241 31b3 02       		.uleb128 0x2
 10242 31b4 76       		.byte	0x76
 10243 31b5 00       		.sleb128 0
 10244 31b6 00       		.byte	0
 10245 31b7 35       		.uleb128 0x35
 10246 31b8 22010000 		.4byte	.LVL329
 10247 31bc CD310000 		.4byte	0x31cd
 10248 31c0 29       		.uleb128 0x29
 10249 31c1 01       		.uleb128 0x1
 10250 31c2 50       		.byte	0x50
 10251 31c3 02       		.uleb128 0x2
 10252 31c4 76       		.byte	0x76
 10253 31c5 00       		.sleb128 0
 10254 31c6 29       		.uleb128 0x29
 10255 31c7 01       		.uleb128 0x1
 10256 31c8 51       		.byte	0x51
 10257 31c9 02       		.uleb128 0x2
 10258 31ca 78       		.byte	0x78
 10259 31cb 00       		.sleb128 0
 10260 31cc 00       		.byte	0
 10261 31cd 34       		.uleb128 0x34
 10262 31ce 3C010000 		.4byte	.LVL332
 10263 31d2 29       		.uleb128 0x29
 10264 31d3 01       		.uleb128 0x1
 10265 31d4 50       		.byte	0x50
 10266 31d5 02       		.uleb128 0x2
 10267 31d6 76       		.byte	0x76
 10268 31d7 00       		.sleb128 0
 10269 31d8 00       		.byte	0
 10270 31d9 00       		.byte	0
 10271 31da 2F       		.uleb128 0x2f
 10272 31db 26160000 		.4byte	.LASF500
 10273 31df 01       		.byte	0x1
 10274 31e0 1E06     		.2byte	0x61e
 10275 31e2 631B0000 		.4byte	0x1b63
 10276 31e6 00000000 		.4byte	.LFB63
 10277 31ea 88010000 		.4byte	.LFE63-.LFB63
 10278 31ee 01       		.uleb128 0x1
 10279 31ef 9C       		.byte	0x9c
 10280 31f0 DE320000 		.4byte	0x32de
 10281 31f4 20       		.uleb128 0x20
 10282 31f5 62160000 		.4byte	.LASF438
 10283 31f9 01       		.byte	0x1
 10284 31fa 1E06     		.2byte	0x61e
 10285 31fc 8C000000 		.4byte	0x8c
 10286 3200 52120000 		.4byte	.LLST110
 10287 3204 21       		.uleb128 0x21
 10288 3205 76646D00 		.ascii	"vdm\000"
ARM GAS  e:\temp\ccP12Hvn.s 			page 221


 10289 3209 01       		.byte	0x1
 10290 320a 1E06     		.2byte	0x61e
 10291 320c 411B0000 		.4byte	0x1b41
 10292 3210 73120000 		.4byte	.LLST111
 10293 3214 27       		.uleb128 0x27
 10294 3215 69647800 		.ascii	"idx\000"
 10295 3219 01       		.byte	0x1
 10296 321a 2006     		.2byte	0x620
 10297 321c 8C000000 		.4byte	0x8c
 10298 3220 9F120000 		.4byte	.LLST112
 10299 3224 24       		.uleb128 0x24
 10300 3225 46070000 		.4byte	.LASF475
 10301 3229 01       		.byte	0x1
 10302 322a 2606     		.2byte	0x626
 10303 322c 28210000 		.4byte	0x2128
 10304 3230 C8120000 		.4byte	.LLST113
 10305 3234 24       		.uleb128 0x24
 10306 3235 8D000000 		.4byte	.LASF350
 10307 3239 01       		.byte	0x1
 10308 323a 2706     		.2byte	0x627
 10309 323c ED190000 		.4byte	0x19ed
 10310 3240 2A130000 		.4byte	.LLST114
 10311 3244 24       		.uleb128 0x24
 10312 3245 50020000 		.4byte	.LASF501
 10313 3249 01       		.byte	0x1
 10314 324a 2806     		.2byte	0x628
 10315 324c 4C1B0000 		.4byte	0x1b4c
 10316 3250 53130000 		.4byte	.LLST115
 10317 3254 31       		.uleb128 0x31
 10318 3255 16000000 		.4byte	.LVL343
 10319 3259 95340000 		.4byte	0x3495
 10320 325d 68320000 		.4byte	0x3268
 10321 3261 29       		.uleb128 0x29
 10322 3262 01       		.uleb128 0x1
 10323 3263 50       		.byte	0x50
 10324 3264 02       		.uleb128 0x2
 10325 3265 77       		.byte	0x77
 10326 3266 00       		.sleb128 0
 10327 3267 00       		.byte	0
 10328 3268 31       		.uleb128 0x31
 10329 3269 38000000 		.4byte	.LVL346
 10330 326d 80240000 		.4byte	0x2480
 10331 3271 7C320000 		.4byte	0x327c
 10332 3275 29       		.uleb128 0x29
 10333 3276 01       		.uleb128 0x1
 10334 3277 50       		.byte	0x50
 10335 3278 02       		.uleb128 0x2
 10336 3279 77       		.byte	0x77
 10337 327a 00       		.sleb128 0
 10338 327b 00       		.byte	0
 10339 327c 31       		.uleb128 0x31
 10340 327d 50000000 		.4byte	.LVL348
 10341 3281 5C2B0000 		.4byte	0x2b5c
 10342 3285 96320000 		.4byte	0x3296
 10343 3289 29       		.uleb128 0x29
 10344 328a 01       		.uleb128 0x1
 10345 328b 50       		.byte	0x50
ARM GAS  e:\temp\ccP12Hvn.s 			page 222


 10346 328c 02       		.uleb128 0x2
 10347 328d 77       		.byte	0x77
 10348 328e 00       		.sleb128 0
 10349 328f 29       		.uleb128 0x29
 10350 3290 01       		.uleb128 0x1
 10351 3291 51       		.byte	0x51
 10352 3292 02       		.uleb128 0x2
 10353 3293 74       		.byte	0x74
 10354 3294 00       		.sleb128 0
 10355 3295 00       		.byte	0
 10356 3296 31       		.uleb128 0x31
 10357 3297 D2000000 		.4byte	.LVL353
 10358 329b 6D340000 		.4byte	0x346d
 10359 329f AA320000 		.4byte	0x32aa
 10360 32a3 29       		.uleb128 0x29
 10361 32a4 01       		.uleb128 0x1
 10362 32a5 51       		.byte	0x51
 10363 32a6 02       		.uleb128 0x2
 10364 32a7 79       		.byte	0x79
 10365 32a8 0C       		.sleb128 12
 10366 32a9 00       		.byte	0
 10367 32aa 35       		.uleb128 0x35
 10368 32ab DC000000 		.4byte	.LVL354
 10369 32af BA320000 		.4byte	0x32ba
 10370 32b3 29       		.uleb128 0x29
 10371 32b4 01       		.uleb128 0x1
 10372 32b5 50       		.byte	0x50
 10373 32b6 02       		.uleb128 0x2
 10374 32b7 77       		.byte	0x77
 10375 32b8 00       		.sleb128 0
 10376 32b9 00       		.byte	0
 10377 32ba 31       		.uleb128 0x31
 10378 32bb 0C010000 		.4byte	.LVL355
 10379 32bf 6D340000 		.4byte	0x346d
 10380 32c3 D1320000 		.4byte	0x32d1
 10381 32c7 29       		.uleb128 0x29
 10382 32c8 01       		.uleb128 0x1
 10383 32c9 50       		.byte	0x50
 10384 32ca 05       		.uleb128 0x5
 10385 32cb 91       		.byte	0x91
 10386 32cc 5C       		.sleb128 -36
 10387 32cd 06       		.byte	0x6
 10388 32ce 23       		.byte	0x23
 10389 32cf 14       		.uleb128 0x14
 10390 32d0 00       		.byte	0
 10391 32d1 34       		.uleb128 0x34
 10392 32d2 40010000 		.4byte	.LVL358
 10393 32d6 29       		.uleb128 0x29
 10394 32d7 01       		.uleb128 0x1
 10395 32d8 50       		.byte	0x50
 10396 32d9 02       		.uleb128 0x2
 10397 32da 77       		.byte	0x77
 10398 32db 00       		.sleb128 0
 10399 32dc 00       		.byte	0
 10400 32dd 00       		.byte	0
 10401 32de 2F       		.uleb128 0x2f
 10402 32df AB160000 		.4byte	.LASF502
ARM GAS  e:\temp\ccP12Hvn.s 			page 223


 10403 32e3 01       		.byte	0x1
 10404 32e4 1E07     		.2byte	0x71e
 10405 32e6 8C000000 		.4byte	0x8c
 10406 32ea 00000000 		.4byte	.LFB64
 10407 32ee 80000000 		.4byte	.LFE64-.LFB64
 10408 32f2 01       		.uleb128 0x1
 10409 32f3 9C       		.byte	0x9c
 10410 32f4 4F330000 		.4byte	0x334f
 10411 32f8 20       		.uleb128 0x20
 10412 32f9 62160000 		.4byte	.LASF438
 10413 32fd 01       		.byte	0x1
 10414 32fe 1E07     		.2byte	0x71e
 10415 3300 8C000000 		.4byte	0x8c
 10416 3304 95130000 		.4byte	.LLST116
 10417 3308 27       		.uleb128 0x27
 10418 3309 72657400 		.ascii	"ret\000"
 10419 330d 01       		.byte	0x1
 10420 330e 2007     		.2byte	0x720
 10421 3310 8C000000 		.4byte	0x8c
 10422 3314 CF130000 		.4byte	.LLST117
 10423 3318 24       		.uleb128 0x24
 10424 3319 46070000 		.4byte	.LASF475
 10425 331d 01       		.byte	0x1
 10426 331e 2207     		.2byte	0x722
 10427 3320 28210000 		.4byte	0x2128
 10428 3324 10140000 		.4byte	.LLST118
 10429 3328 24       		.uleb128 0x24
 10430 3329 880B0000 		.4byte	.LASF485
 10431 332d 01       		.byte	0x1
 10432 332e 2307     		.2byte	0x723
 10433 3330 8C000000 		.4byte	0x8c
 10434 3334 3B140000 		.4byte	.LLST119
 10435 3338 28       		.uleb128 0x28
 10436 3339 36000000 		.4byte	.LVL371
 10437 333d 5C2B0000 		.4byte	0x2b5c
 10438 3341 29       		.uleb128 0x29
 10439 3342 01       		.uleb128 0x1
 10440 3343 50       		.byte	0x50
 10441 3344 02       		.uleb128 0x2
 10442 3345 74       		.byte	0x74
 10443 3346 00       		.sleb128 0
 10444 3347 29       		.uleb128 0x29
 10445 3348 01       		.uleb128 0x1
 10446 3349 51       		.byte	0x51
 10447 334a 02       		.uleb128 0x2
 10448 334b 75       		.byte	0x75
 10449 334c 00       		.sleb128 0
 10450 334d 00       		.byte	0
 10451 334e 00       		.byte	0
 10452 334f 10       		.uleb128 0x10
 10453 3350 7A330000 		.4byte	0x337a
 10454 3354 65330000 		.4byte	0x3365
 10455 3358 11       		.uleb128 0x11
 10456 3359 C9000000 		.4byte	0xc9
 10457 335d 01       		.byte	0x1
 10458 335e 11       		.uleb128 0x11
 10459 335f C9000000 		.4byte	0xc9
ARM GAS  e:\temp\ccP12Hvn.s 			page 224


 10460 3363 03       		.byte	0x3
 10461 3364 00       		.byte	0
 10462 3365 13       		.uleb128 0x13
 10463 3366 04       		.byte	0x4
 10464 3367 6B330000 		.4byte	0x336b
 10465 336b 1E       		.uleb128 0x1e
 10466 336c AD1B0000 		.4byte	0x1bad
 10467 3370 7A330000 		.4byte	0x337a
 10468 3374 17       		.uleb128 0x17
 10469 3375 8C000000 		.4byte	0x8c
 10470 3379 00       		.byte	0
 10471 337a 15       		.uleb128 0x15
 10472 337b 65330000 		.4byte	0x3365
 10473 337f 37       		.uleb128 0x37
 10474 3380 A9090000 		.4byte	.LASF503
 10475 3384 01       		.byte	0x1
 10476 3385 8B       		.byte	0x8b
 10477 3386 90330000 		.4byte	0x3390
 10478 338a 05       		.uleb128 0x5
 10479 338b 03       		.byte	0x3
 10480 338c 24000000 		.4byte	alt_mode_ams_table
 10481 3390 15       		.uleb128 0x15
 10482 3391 4F330000 		.4byte	0x334f
 10483 3395 10       		.uleb128 0x10
 10484 3396 15220000 		.4byte	0x2215
 10485 339a AB330000 		.4byte	0x33ab
 10486 339e 11       		.uleb128 0x11
 10487 339f C9000000 		.4byte	0xc9
 10488 33a3 00       		.byte	0
 10489 33a4 11       		.uleb128 0x11
 10490 33a5 C9000000 		.4byte	0xc9
 10491 33a9 00       		.byte	0
 10492 33aa 00       		.byte	0
 10493 33ab 38       		.uleb128 0x38
 10494 33ac 66010000 		.4byte	.LASF504
 10495 33b0 08       		.byte	0x8
 10496 33b1 6A       		.byte	0x6a
 10497 33b2 BC330000 		.4byte	0x33bc
 10498 33b6 05       		.uleb128 0x5
 10499 33b7 03       		.byte	0x3
 10500 33b8 00000000 		.4byte	dfp_compatibility_mode_table
 10501 33bc 15       		.uleb128 0x15
 10502 33bd 95330000 		.4byte	0x3395
 10503 33c1 10       		.uleb128 0x10
 10504 33c2 D1330000 		.4byte	0x33d1
 10505 33c6 D1330000 		.4byte	0x33d1
 10506 33ca 11       		.uleb128 0x11
 10507 33cb C9000000 		.4byte	0xc9
 10508 33cf 00       		.byte	0
 10509 33d0 00       		.byte	0
 10510 33d1 15       		.uleb128 0x15
 10511 33d2 97000000 		.4byte	0x97
 10512 33d6 38       		.uleb128 0x38
 10513 33d7 D7060000 		.4byte	.LASF505
 10514 33db 08       		.byte	0x8
 10515 33dc 99       		.byte	0x99
 10516 33dd E7330000 		.4byte	0x33e7
ARM GAS  e:\temp\ccP12Hvn.s 			page 225


 10517 33e1 05       		.uleb128 0x5
 10518 33e2 03       		.byte	0x3
 10519 33e3 00000000 		.4byte	supp_svid_tbl
 10520 33e7 15       		.uleb128 0x15
 10521 33e8 C1330000 		.4byte	0x33c1
 10522 33ec 10       		.uleb128 0x10
 10523 33ed 16340000 		.4byte	0x3416
 10524 33f1 FC330000 		.4byte	0x33fc
 10525 33f5 11       		.uleb128 0x11
 10526 33f6 C9000000 		.4byte	0xc9
 10527 33fa 00       		.byte	0
 10528 33fb 00       		.byte	0
 10529 33fc 13       		.uleb128 0x13
 10530 33fd 04       		.byte	0x4
 10531 33fe 02340000 		.4byte	0x3402
 10532 3402 1E       		.uleb128 0x1e
 10533 3403 28210000 		.4byte	0x2128
 10534 3407 16340000 		.4byte	0x3416
 10535 340b 17       		.uleb128 0x17
 10536 340c 8C000000 		.4byte	0x8c
 10537 3410 17       		.uleb128 0x17
 10538 3411 7F280000 		.4byte	0x287f
 10539 3415 00       		.byte	0
 10540 3416 15       		.uleb128 0x15
 10541 3417 FC330000 		.4byte	0x33fc
 10542 341b 38       		.uleb128 0x38
 10543 341c BA070000 		.4byte	.LASF506
 10544 3420 08       		.byte	0x8
 10545 3421 A5       		.byte	0xa5
 10546 3422 2C340000 		.4byte	0x342c
 10547 3426 05       		.uleb128 0x5
 10548 3427 03       		.byte	0x3
 10549 3428 00000000 		.4byte	is_alt_mode_allowed
 10550 342c 15       		.uleb128 0x15
 10551 342d EC330000 		.4byte	0x33ec
 10552 3431 10       		.uleb128 0x10
 10553 3432 A8010000 		.4byte	0x1a8
 10554 3436 41340000 		.4byte	0x3441
 10555 343a 11       		.uleb128 0x11
 10556 343b C9000000 		.4byte	0xc9
 10557 343f 01       		.byte	0x1
 10558 3440 00       		.byte	0
 10559 3441 39       		.uleb128 0x39
 10560 3442 66100000 		.4byte	.LASF507
 10561 3446 09       		.byte	0x9
 10562 3447 3B       		.byte	0x3b
 10563 3448 31340000 		.4byte	0x3431
 10564 344c 10       		.uleb128 0x10
 10565 344d 44210000 		.4byte	0x2144
 10566 3451 5C340000 		.4byte	0x345c
 10567 3455 11       		.uleb128 0x11
 10568 3456 C9000000 		.4byte	0xc9
 10569 345a 01       		.byte	0x1
 10570 345b 00       		.byte	0
 10571 345c 38       		.uleb128 0x38
 10572 345d 83140000 		.4byte	.LASF388
 10573 3461 01       		.byte	0x1
ARM GAS  e:\temp\ccP12Hvn.s 			page 226


 10574 3462 5C       		.byte	0x5c
 10575 3463 4C340000 		.4byte	0x344c
 10576 3467 05       		.uleb128 0x5
 10577 3468 03       		.byte	0x3
 10578 3469 00000000 		.4byte	alt_mode
 10579 346d 3A       		.uleb128 0x3a
 10580 346e 14040000 		.4byte	.LASF508
 10581 3472 14040000 		.4byte	.LASF508
 10582 3476 3A       		.uleb128 0x3a
 10583 3477 440F0000 		.4byte	.LASF509
 10584 347b 440F0000 		.4byte	.LASF509
 10585 347f 3B       		.uleb128 0x3b
 10586 3480 C9020000 		.4byte	.LASF510
 10587 3484 C9020000 		.4byte	.LASF510
 10588 3488 07       		.byte	0x7
 10589 3489 E8       		.byte	0xe8
 10590 348a 3B       		.uleb128 0x3b
 10591 348b 3C090000 		.4byte	.LASF511
 10592 348f 3C090000 		.4byte	.LASF511
 10593 3493 07       		.byte	0x7
 10594 3494 EF       		.byte	0xef
 10595 3495 3C       		.uleb128 0x3c
 10596 3496 50170000 		.4byte	.LASF512
 10597 349a 50170000 		.4byte	.LASF512
 10598 349e 0A       		.byte	0xa
 10599 349f DA01     		.2byte	0x1da
 10600 34a1 3C       		.uleb128 0x3c
 10601 34a2 49130000 		.4byte	.LASF513
 10602 34a6 49130000 		.4byte	.LASF513
 10603 34aa 04       		.byte	0x4
 10604 34ab 430B     		.2byte	0xb43
 10605 34ad 3C       		.uleb128 0x3c
 10606 34ae 0B110000 		.4byte	.LASF514
 10607 34b2 0B110000 		.4byte	.LASF514
 10608 34b6 0A       		.byte	0xa
 10609 34b7 B501     		.2byte	0x1b5
 10610 34b9 3C       		.uleb128 0x3c
 10611 34ba 331A0000 		.4byte	.LASF515
 10612 34be 331A0000 		.4byte	.LASF515
 10613 34c2 0B       		.byte	0xb
 10614 34c3 0D01     		.2byte	0x10d
 10615 34c5 3B       		.uleb128 0x3b
 10616 34c6 4E0B0000 		.4byte	.LASF516
 10617 34ca 4E0B0000 		.4byte	.LASF516
 10618 34ce 07       		.byte	0x7
 10619 34cf E1       		.byte	0xe1
 10620 34d0 3B       		.uleb128 0x3b
 10621 34d1 F9160000 		.4byte	.LASF517
 10622 34d5 F9160000 		.4byte	.LASF517
 10623 34d9 07       		.byte	0x7
 10624 34da CF       		.byte	0xcf
 10625 34db 00       		.byte	0
 10626              		.section	.debug_abbrev,"",%progbits
 10627              	.Ldebug_abbrev0:
 10628 0000 01       		.uleb128 0x1
 10629 0001 11       		.uleb128 0x11
 10630 0002 01       		.byte	0x1
ARM GAS  e:\temp\ccP12Hvn.s 			page 227


 10631 0003 25       		.uleb128 0x25
 10632 0004 0E       		.uleb128 0xe
 10633 0005 13       		.uleb128 0x13
 10634 0006 0B       		.uleb128 0xb
 10635 0007 03       		.uleb128 0x3
 10636 0008 0E       		.uleb128 0xe
 10637 0009 1B       		.uleb128 0x1b
 10638 000a 0E       		.uleb128 0xe
 10639 000b 55       		.uleb128 0x55
 10640 000c 17       		.uleb128 0x17
 10641 000d 11       		.uleb128 0x11
 10642 000e 01       		.uleb128 0x1
 10643 000f 10       		.uleb128 0x10
 10644 0010 17       		.uleb128 0x17
 10645 0011 00       		.byte	0
 10646 0012 00       		.byte	0
 10647 0013 02       		.uleb128 0x2
 10648 0014 24       		.uleb128 0x24
 10649 0015 00       		.byte	0
 10650 0016 0B       		.uleb128 0xb
 10651 0017 0B       		.uleb128 0xb
 10652 0018 3E       		.uleb128 0x3e
 10653 0019 0B       		.uleb128 0xb
 10654 001a 03       		.uleb128 0x3
 10655 001b 0E       		.uleb128 0xe
 10656 001c 00       		.byte	0
 10657 001d 00       		.byte	0
 10658 001e 03       		.uleb128 0x3
 10659 001f 16       		.uleb128 0x16
 10660 0020 00       		.byte	0
 10661 0021 03       		.uleb128 0x3
 10662 0022 0E       		.uleb128 0xe
 10663 0023 3A       		.uleb128 0x3a
 10664 0024 0B       		.uleb128 0xb
 10665 0025 3B       		.uleb128 0x3b
 10666 0026 0B       		.uleb128 0xb
 10667 0027 49       		.uleb128 0x49
 10668 0028 13       		.uleb128 0x13
 10669 0029 00       		.byte	0
 10670 002a 00       		.byte	0
 10671 002b 04       		.uleb128 0x4
 10672 002c 24       		.uleb128 0x24
 10673 002d 00       		.byte	0
 10674 002e 0B       		.uleb128 0xb
 10675 002f 0B       		.uleb128 0xb
 10676 0030 3E       		.uleb128 0x3e
 10677 0031 0B       		.uleb128 0xb
 10678 0032 03       		.uleb128 0x3
 10679 0033 08       		.uleb128 0x8
 10680 0034 00       		.byte	0
 10681 0035 00       		.byte	0
 10682 0036 05       		.uleb128 0x5
 10683 0037 04       		.uleb128 0x4
 10684 0038 01       		.byte	0x1
 10685 0039 0B       		.uleb128 0xb
 10686 003a 0B       		.uleb128 0xb
 10687 003b 49       		.uleb128 0x49
ARM GAS  e:\temp\ccP12Hvn.s 			page 228


 10688 003c 13       		.uleb128 0x13
 10689 003d 3A       		.uleb128 0x3a
 10690 003e 0B       		.uleb128 0xb
 10691 003f 3B       		.uleb128 0x3b
 10692 0040 05       		.uleb128 0x5
 10693 0041 01       		.uleb128 0x1
 10694 0042 13       		.uleb128 0x13
 10695 0043 00       		.byte	0
 10696 0044 00       		.byte	0
 10697 0045 06       		.uleb128 0x6
 10698 0046 28       		.uleb128 0x28
 10699 0047 00       		.byte	0
 10700 0048 03       		.uleb128 0x3
 10701 0049 0E       		.uleb128 0xe
 10702 004a 1C       		.uleb128 0x1c
 10703 004b 0B       		.uleb128 0xb
 10704 004c 00       		.byte	0
 10705 004d 00       		.byte	0
 10706 004e 07       		.uleb128 0x7
 10707 004f 16       		.uleb128 0x16
 10708 0050 00       		.byte	0
 10709 0051 03       		.uleb128 0x3
 10710 0052 0E       		.uleb128 0xe
 10711 0053 3A       		.uleb128 0x3a
 10712 0054 0B       		.uleb128 0xb
 10713 0055 3B       		.uleb128 0x3b
 10714 0056 05       		.uleb128 0x5
 10715 0057 49       		.uleb128 0x49
 10716 0058 13       		.uleb128 0x13
 10717 0059 00       		.byte	0
 10718 005a 00       		.byte	0
 10719 005b 08       		.uleb128 0x8
 10720 005c 28       		.uleb128 0x28
 10721 005d 00       		.byte	0
 10722 005e 03       		.uleb128 0x3
 10723 005f 08       		.uleb128 0x8
 10724 0060 1C       		.uleb128 0x1c
 10725 0061 0B       		.uleb128 0xb
 10726 0062 00       		.byte	0
 10727 0063 00       		.byte	0
 10728 0064 09       		.uleb128 0x9
 10729 0065 13       		.uleb128 0x13
 10730 0066 01       		.byte	0x1
 10731 0067 03       		.uleb128 0x3
 10732 0068 0E       		.uleb128 0xe
 10733 0069 0B       		.uleb128 0xb
 10734 006a 0B       		.uleb128 0xb
 10735 006b 3A       		.uleb128 0x3a
 10736 006c 0B       		.uleb128 0xb
 10737 006d 3B       		.uleb128 0x3b
 10738 006e 05       		.uleb128 0x5
 10739 006f 01       		.uleb128 0x1
 10740 0070 13       		.uleb128 0x13
 10741 0071 00       		.byte	0
 10742 0072 00       		.byte	0
 10743 0073 0A       		.uleb128 0xa
 10744 0074 0D       		.uleb128 0xd
ARM GAS  e:\temp\ccP12Hvn.s 			page 229


 10745 0075 00       		.byte	0
 10746 0076 03       		.uleb128 0x3
 10747 0077 0E       		.uleb128 0xe
 10748 0078 3A       		.uleb128 0x3a
 10749 0079 0B       		.uleb128 0xb
 10750 007a 3B       		.uleb128 0x3b
 10751 007b 05       		.uleb128 0x5
 10752 007c 49       		.uleb128 0x49
 10753 007d 13       		.uleb128 0x13
 10754 007e 0B       		.uleb128 0xb
 10755 007f 0B       		.uleb128 0xb
 10756 0080 0D       		.uleb128 0xd
 10757 0081 0B       		.uleb128 0xb
 10758 0082 0C       		.uleb128 0xc
 10759 0083 0B       		.uleb128 0xb
 10760 0084 38       		.uleb128 0x38
 10761 0085 0B       		.uleb128 0xb
 10762 0086 00       		.byte	0
 10763 0087 00       		.byte	0
 10764 0088 0B       		.uleb128 0xb
 10765 0089 0D       		.uleb128 0xd
 10766 008a 00       		.byte	0
 10767 008b 03       		.uleb128 0x3
 10768 008c 08       		.uleb128 0x8
 10769 008d 3A       		.uleb128 0x3a
 10770 008e 0B       		.uleb128 0xb
 10771 008f 3B       		.uleb128 0x3b
 10772 0090 05       		.uleb128 0x5
 10773 0091 49       		.uleb128 0x49
 10774 0092 13       		.uleb128 0x13
 10775 0093 0B       		.uleb128 0xb
 10776 0094 0B       		.uleb128 0xb
 10777 0095 0D       		.uleb128 0xd
 10778 0096 0B       		.uleb128 0xb
 10779 0097 0C       		.uleb128 0xc
 10780 0098 0B       		.uleb128 0xb
 10781 0099 38       		.uleb128 0x38
 10782 009a 0B       		.uleb128 0xb
 10783 009b 00       		.byte	0
 10784 009c 00       		.byte	0
 10785 009d 0C       		.uleb128 0xc
 10786 009e 17       		.uleb128 0x17
 10787 009f 01       		.byte	0x1
 10788 00a0 0B       		.uleb128 0xb
 10789 00a1 0B       		.uleb128 0xb
 10790 00a2 3A       		.uleb128 0x3a
 10791 00a3 0B       		.uleb128 0xb
 10792 00a4 3B       		.uleb128 0x3b
 10793 00a5 05       		.uleb128 0x5
 10794 00a6 01       		.uleb128 0x1
 10795 00a7 13       		.uleb128 0x13
 10796 00a8 00       		.byte	0
 10797 00a9 00       		.byte	0
 10798 00aa 0D       		.uleb128 0xd
 10799 00ab 0D       		.uleb128 0xd
 10800 00ac 00       		.byte	0
 10801 00ad 03       		.uleb128 0x3
ARM GAS  e:\temp\ccP12Hvn.s 			page 230


 10802 00ae 08       		.uleb128 0x8
 10803 00af 3A       		.uleb128 0x3a
 10804 00b0 0B       		.uleb128 0xb
 10805 00b1 3B       		.uleb128 0x3b
 10806 00b2 05       		.uleb128 0x5
 10807 00b3 49       		.uleb128 0x49
 10808 00b4 13       		.uleb128 0x13
 10809 00b5 00       		.byte	0
 10810 00b6 00       		.byte	0
 10811 00b7 0E       		.uleb128 0xe
 10812 00b8 13       		.uleb128 0x13
 10813 00b9 01       		.byte	0x1
 10814 00ba 0B       		.uleb128 0xb
 10815 00bb 0B       		.uleb128 0xb
 10816 00bc 3A       		.uleb128 0x3a
 10817 00bd 0B       		.uleb128 0xb
 10818 00be 3B       		.uleb128 0x3b
 10819 00bf 05       		.uleb128 0x5
 10820 00c0 01       		.uleb128 0x1
 10821 00c1 13       		.uleb128 0x13
 10822 00c2 00       		.byte	0
 10823 00c3 00       		.byte	0
 10824 00c4 0F       		.uleb128 0xf
 10825 00c5 0D       		.uleb128 0xd
 10826 00c6 00       		.byte	0
 10827 00c7 03       		.uleb128 0x3
 10828 00c8 0E       		.uleb128 0xe
 10829 00c9 3A       		.uleb128 0x3a
 10830 00ca 0B       		.uleb128 0xb
 10831 00cb 3B       		.uleb128 0x3b
 10832 00cc 05       		.uleb128 0x5
 10833 00cd 49       		.uleb128 0x49
 10834 00ce 13       		.uleb128 0x13
 10835 00cf 00       		.byte	0
 10836 00d0 00       		.byte	0
 10837 00d1 10       		.uleb128 0x10
 10838 00d2 01       		.uleb128 0x1
 10839 00d3 01       		.byte	0x1
 10840 00d4 49       		.uleb128 0x49
 10841 00d5 13       		.uleb128 0x13
 10842 00d6 01       		.uleb128 0x1
 10843 00d7 13       		.uleb128 0x13
 10844 00d8 00       		.byte	0
 10845 00d9 00       		.byte	0
 10846 00da 11       		.uleb128 0x11
 10847 00db 21       		.uleb128 0x21
 10848 00dc 00       		.byte	0
 10849 00dd 49       		.uleb128 0x49
 10850 00de 13       		.uleb128 0x13
 10851 00df 2F       		.uleb128 0x2f
 10852 00e0 0B       		.uleb128 0xb
 10853 00e1 00       		.byte	0
 10854 00e2 00       		.byte	0
 10855 00e3 12       		.uleb128 0x12
 10856 00e4 0D       		.uleb128 0xd
 10857 00e5 00       		.byte	0
 10858 00e6 03       		.uleb128 0x3
ARM GAS  e:\temp\ccP12Hvn.s 			page 231


 10859 00e7 0E       		.uleb128 0xe
 10860 00e8 3A       		.uleb128 0x3a
 10861 00e9 0B       		.uleb128 0xb
 10862 00ea 3B       		.uleb128 0x3b
 10863 00eb 05       		.uleb128 0x5
 10864 00ec 49       		.uleb128 0x49
 10865 00ed 13       		.uleb128 0x13
 10866 00ee 38       		.uleb128 0x38
 10867 00ef 0B       		.uleb128 0xb
 10868 00f0 00       		.byte	0
 10869 00f1 00       		.byte	0
 10870 00f2 13       		.uleb128 0x13
 10871 00f3 0F       		.uleb128 0xf
 10872 00f4 00       		.byte	0
 10873 00f5 0B       		.uleb128 0xb
 10874 00f6 0B       		.uleb128 0xb
 10875 00f7 49       		.uleb128 0x49
 10876 00f8 13       		.uleb128 0x13
 10877 00f9 00       		.byte	0
 10878 00fa 00       		.byte	0
 10879 00fb 14       		.uleb128 0x14
 10880 00fc 0D       		.uleb128 0xd
 10881 00fd 00       		.byte	0
 10882 00fe 03       		.uleb128 0x3
 10883 00ff 08       		.uleb128 0x8
 10884 0100 3A       		.uleb128 0x3a
 10885 0101 0B       		.uleb128 0xb
 10886 0102 3B       		.uleb128 0x3b
 10887 0103 05       		.uleb128 0x5
 10888 0104 49       		.uleb128 0x49
 10889 0105 13       		.uleb128 0x13
 10890 0106 38       		.uleb128 0x38
 10891 0107 0B       		.uleb128 0xb
 10892 0108 00       		.byte	0
 10893 0109 00       		.byte	0
 10894 010a 15       		.uleb128 0x15
 10895 010b 26       		.uleb128 0x26
 10896 010c 00       		.byte	0
 10897 010d 49       		.uleb128 0x49
 10898 010e 13       		.uleb128 0x13
 10899 010f 00       		.byte	0
 10900 0110 00       		.byte	0
 10901 0111 16       		.uleb128 0x16
 10902 0112 15       		.uleb128 0x15
 10903 0113 01       		.byte	0x1
 10904 0114 27       		.uleb128 0x27
 10905 0115 19       		.uleb128 0x19
 10906 0116 01       		.uleb128 0x1
 10907 0117 13       		.uleb128 0x13
 10908 0118 00       		.byte	0
 10909 0119 00       		.byte	0
 10910 011a 17       		.uleb128 0x17
 10911 011b 05       		.uleb128 0x5
 10912 011c 00       		.byte	0
 10913 011d 49       		.uleb128 0x49
 10914 011e 13       		.uleb128 0x13
 10915 011f 00       		.byte	0
ARM GAS  e:\temp\ccP12Hvn.s 			page 232


 10916 0120 00       		.byte	0
 10917 0121 18       		.uleb128 0x18
 10918 0122 04       		.uleb128 0x4
 10919 0123 01       		.byte	0x1
 10920 0124 0B       		.uleb128 0xb
 10921 0125 0B       		.uleb128 0xb
 10922 0126 49       		.uleb128 0x49
 10923 0127 13       		.uleb128 0x13
 10924 0128 3A       		.uleb128 0x3a
 10925 0129 0B       		.uleb128 0xb
 10926 012a 3B       		.uleb128 0x3b
 10927 012b 0B       		.uleb128 0xb
 10928 012c 01       		.uleb128 0x1
 10929 012d 13       		.uleb128 0x13
 10930 012e 00       		.byte	0
 10931 012f 00       		.byte	0
 10932 0130 19       		.uleb128 0x19
 10933 0131 13       		.uleb128 0x13
 10934 0132 01       		.byte	0x1
 10935 0133 0B       		.uleb128 0xb
 10936 0134 0B       		.uleb128 0xb
 10937 0135 3A       		.uleb128 0x3a
 10938 0136 0B       		.uleb128 0xb
 10939 0137 3B       		.uleb128 0x3b
 10940 0138 0B       		.uleb128 0xb
 10941 0139 01       		.uleb128 0x1
 10942 013a 13       		.uleb128 0x13
 10943 013b 00       		.byte	0
 10944 013c 00       		.byte	0
 10945 013d 1A       		.uleb128 0x1a
 10946 013e 0D       		.uleb128 0xd
 10947 013f 00       		.byte	0
 10948 0140 03       		.uleb128 0x3
 10949 0141 0E       		.uleb128 0xe
 10950 0142 3A       		.uleb128 0x3a
 10951 0143 0B       		.uleb128 0xb
 10952 0144 3B       		.uleb128 0x3b
 10953 0145 0B       		.uleb128 0xb
 10954 0146 49       		.uleb128 0x49
 10955 0147 13       		.uleb128 0x13
 10956 0148 38       		.uleb128 0x38
 10957 0149 0B       		.uleb128 0xb
 10958 014a 00       		.byte	0
 10959 014b 00       		.byte	0
 10960 014c 1B       		.uleb128 0x1b
 10961 014d 0D       		.uleb128 0xd
 10962 014e 00       		.byte	0
 10963 014f 03       		.uleb128 0x3
 10964 0150 08       		.uleb128 0x8
 10965 0151 3A       		.uleb128 0x3a
 10966 0152 0B       		.uleb128 0xb
 10967 0153 3B       		.uleb128 0x3b
 10968 0154 0B       		.uleb128 0xb
 10969 0155 49       		.uleb128 0x49
 10970 0156 13       		.uleb128 0x13
 10971 0157 38       		.uleb128 0x38
 10972 0158 0B       		.uleb128 0xb
ARM GAS  e:\temp\ccP12Hvn.s 			page 233


 10973 0159 00       		.byte	0
 10974 015a 00       		.byte	0
 10975 015b 1C       		.uleb128 0x1c
 10976 015c 17       		.uleb128 0x17
 10977 015d 01       		.byte	0x1
 10978 015e 0B       		.uleb128 0xb
 10979 015f 0B       		.uleb128 0xb
 10980 0160 3A       		.uleb128 0x3a
 10981 0161 0B       		.uleb128 0xb
 10982 0162 3B       		.uleb128 0x3b
 10983 0163 0B       		.uleb128 0xb
 10984 0164 01       		.uleb128 0x1
 10985 0165 13       		.uleb128 0x13
 10986 0166 00       		.byte	0
 10987 0167 00       		.byte	0
 10988 0168 1D       		.uleb128 0x1d
 10989 0169 0D       		.uleb128 0xd
 10990 016a 00       		.byte	0
 10991 016b 03       		.uleb128 0x3
 10992 016c 08       		.uleb128 0x8
 10993 016d 3A       		.uleb128 0x3a
 10994 016e 0B       		.uleb128 0xb
 10995 016f 3B       		.uleb128 0x3b
 10996 0170 0B       		.uleb128 0xb
 10997 0171 49       		.uleb128 0x49
 10998 0172 13       		.uleb128 0x13
 10999 0173 00       		.byte	0
 11000 0174 00       		.byte	0
 11001 0175 1E       		.uleb128 0x1e
 11002 0176 15       		.uleb128 0x15
 11003 0177 01       		.byte	0x1
 11004 0178 27       		.uleb128 0x27
 11005 0179 19       		.uleb128 0x19
 11006 017a 49       		.uleb128 0x49
 11007 017b 13       		.uleb128 0x13
 11008 017c 01       		.uleb128 0x1
 11009 017d 13       		.uleb128 0x13
 11010 017e 00       		.byte	0
 11011 017f 00       		.byte	0
 11012 0180 1F       		.uleb128 0x1f
 11013 0181 2E       		.uleb128 0x2e
 11014 0182 01       		.byte	0x1
 11015 0183 03       		.uleb128 0x3
 11016 0184 0E       		.uleb128 0xe
 11017 0185 3A       		.uleb128 0x3a
 11018 0186 0B       		.uleb128 0xb
 11019 0187 3B       		.uleb128 0x3b
 11020 0188 05       		.uleb128 0x5
 11021 0189 27       		.uleb128 0x27
 11022 018a 19       		.uleb128 0x19
 11023 018b 11       		.uleb128 0x11
 11024 018c 01       		.uleb128 0x1
 11025 018d 12       		.uleb128 0x12
 11026 018e 06       		.uleb128 0x6
 11027 018f 40       		.uleb128 0x40
 11028 0190 18       		.uleb128 0x18
 11029 0191 9742     		.uleb128 0x2117
ARM GAS  e:\temp\ccP12Hvn.s 			page 234


 11030 0193 19       		.uleb128 0x19
 11031 0194 01       		.uleb128 0x1
 11032 0195 13       		.uleb128 0x13
 11033 0196 00       		.byte	0
 11034 0197 00       		.byte	0
 11035 0198 20       		.uleb128 0x20
 11036 0199 05       		.uleb128 0x5
 11037 019a 00       		.byte	0
 11038 019b 03       		.uleb128 0x3
 11039 019c 0E       		.uleb128 0xe
 11040 019d 3A       		.uleb128 0x3a
 11041 019e 0B       		.uleb128 0xb
 11042 019f 3B       		.uleb128 0x3b
 11043 01a0 05       		.uleb128 0x5
 11044 01a1 49       		.uleb128 0x49
 11045 01a2 13       		.uleb128 0x13
 11046 01a3 02       		.uleb128 0x2
 11047 01a4 17       		.uleb128 0x17
 11048 01a5 00       		.byte	0
 11049 01a6 00       		.byte	0
 11050 01a7 21       		.uleb128 0x21
 11051 01a8 05       		.uleb128 0x5
 11052 01a9 00       		.byte	0
 11053 01aa 03       		.uleb128 0x3
 11054 01ab 08       		.uleb128 0x8
 11055 01ac 3A       		.uleb128 0x3a
 11056 01ad 0B       		.uleb128 0xb
 11057 01ae 3B       		.uleb128 0x3b
 11058 01af 05       		.uleb128 0x5
 11059 01b0 49       		.uleb128 0x49
 11060 01b1 13       		.uleb128 0x13
 11061 01b2 02       		.uleb128 0x2
 11062 01b3 17       		.uleb128 0x17
 11063 01b4 00       		.byte	0
 11064 01b5 00       		.byte	0
 11065 01b6 22       		.uleb128 0x22
 11066 01b7 34       		.uleb128 0x34
 11067 01b8 00       		.byte	0
 11068 01b9 03       		.uleb128 0x3
 11069 01ba 0E       		.uleb128 0xe
 11070 01bb 3A       		.uleb128 0x3a
 11071 01bc 0B       		.uleb128 0xb
 11072 01bd 3B       		.uleb128 0x3b
 11073 01be 05       		.uleb128 0x5
 11074 01bf 49       		.uleb128 0x49
 11075 01c0 13       		.uleb128 0x13
 11076 01c1 02       		.uleb128 0x2
 11077 01c2 18       		.uleb128 0x18
 11078 01c3 00       		.byte	0
 11079 01c4 00       		.byte	0
 11080 01c5 23       		.uleb128 0x23
 11081 01c6 2E       		.uleb128 0x2e
 11082 01c7 01       		.byte	0x1
 11083 01c8 03       		.uleb128 0x3
 11084 01c9 0E       		.uleb128 0xe
 11085 01ca 3A       		.uleb128 0x3a
 11086 01cb 0B       		.uleb128 0xb
ARM GAS  e:\temp\ccP12Hvn.s 			page 235


 11087 01cc 3B       		.uleb128 0x3b
 11088 01cd 05       		.uleb128 0x5
 11089 01ce 27       		.uleb128 0x27
 11090 01cf 19       		.uleb128 0x19
 11091 01d0 49       		.uleb128 0x49
 11092 01d1 13       		.uleb128 0x13
 11093 01d2 11       		.uleb128 0x11
 11094 01d3 01       		.uleb128 0x1
 11095 01d4 12       		.uleb128 0x12
 11096 01d5 06       		.uleb128 0x6
 11097 01d6 40       		.uleb128 0x40
 11098 01d7 18       		.uleb128 0x18
 11099 01d8 9742     		.uleb128 0x2117
 11100 01da 19       		.uleb128 0x19
 11101 01db 01       		.uleb128 0x1
 11102 01dc 13       		.uleb128 0x13
 11103 01dd 00       		.byte	0
 11104 01de 00       		.byte	0
 11105 01df 24       		.uleb128 0x24
 11106 01e0 34       		.uleb128 0x34
 11107 01e1 00       		.byte	0
 11108 01e2 03       		.uleb128 0x3
 11109 01e3 0E       		.uleb128 0xe
 11110 01e4 3A       		.uleb128 0x3a
 11111 01e5 0B       		.uleb128 0xb
 11112 01e6 3B       		.uleb128 0x3b
 11113 01e7 05       		.uleb128 0x5
 11114 01e8 49       		.uleb128 0x49
 11115 01e9 13       		.uleb128 0x13
 11116 01ea 02       		.uleb128 0x2
 11117 01eb 17       		.uleb128 0x17
 11118 01ec 00       		.byte	0
 11119 01ed 00       		.byte	0
 11120 01ee 25       		.uleb128 0x25
 11121 01ef 05       		.uleb128 0x5
 11122 01f0 00       		.byte	0
 11123 01f1 03       		.uleb128 0x3
 11124 01f2 0E       		.uleb128 0xe
 11125 01f3 3A       		.uleb128 0x3a
 11126 01f4 0B       		.uleb128 0xb
 11127 01f5 3B       		.uleb128 0x3b
 11128 01f6 05       		.uleb128 0x5
 11129 01f7 49       		.uleb128 0x49
 11130 01f8 13       		.uleb128 0x13
 11131 01f9 02       		.uleb128 0x2
 11132 01fa 18       		.uleb128 0x18
 11133 01fb 00       		.byte	0
 11134 01fc 00       		.byte	0
 11135 01fd 26       		.uleb128 0x26
 11136 01fe 05       		.uleb128 0x5
 11137 01ff 00       		.byte	0
 11138 0200 03       		.uleb128 0x3
 11139 0201 08       		.uleb128 0x8
 11140 0202 3A       		.uleb128 0x3a
 11141 0203 0B       		.uleb128 0xb
 11142 0204 3B       		.uleb128 0x3b
 11143 0205 05       		.uleb128 0x5
ARM GAS  e:\temp\ccP12Hvn.s 			page 236


 11144 0206 49       		.uleb128 0x49
 11145 0207 13       		.uleb128 0x13
 11146 0208 02       		.uleb128 0x2
 11147 0209 18       		.uleb128 0x18
 11148 020a 00       		.byte	0
 11149 020b 00       		.byte	0
 11150 020c 27       		.uleb128 0x27
 11151 020d 34       		.uleb128 0x34
 11152 020e 00       		.byte	0
 11153 020f 03       		.uleb128 0x3
 11154 0210 08       		.uleb128 0x8
 11155 0211 3A       		.uleb128 0x3a
 11156 0212 0B       		.uleb128 0xb
 11157 0213 3B       		.uleb128 0x3b
 11158 0214 05       		.uleb128 0x5
 11159 0215 49       		.uleb128 0x49
 11160 0216 13       		.uleb128 0x13
 11161 0217 02       		.uleb128 0x2
 11162 0218 17       		.uleb128 0x17
 11163 0219 00       		.byte	0
 11164 021a 00       		.byte	0
 11165 021b 28       		.uleb128 0x28
 11166 021c 898201   		.uleb128 0x4109
 11167 021f 01       		.byte	0x1
 11168 0220 11       		.uleb128 0x11
 11169 0221 01       		.uleb128 0x1
 11170 0222 31       		.uleb128 0x31
 11171 0223 13       		.uleb128 0x13
 11172 0224 00       		.byte	0
 11173 0225 00       		.byte	0
 11174 0226 29       		.uleb128 0x29
 11175 0227 8A8201   		.uleb128 0x410a
 11176 022a 00       		.byte	0
 11177 022b 02       		.uleb128 0x2
 11178 022c 18       		.uleb128 0x18
 11179 022d 9142     		.uleb128 0x2111
 11180 022f 18       		.uleb128 0x18
 11181 0230 00       		.byte	0
 11182 0231 00       		.byte	0
 11183 0232 2A       		.uleb128 0x2a
 11184 0233 2E       		.uleb128 0x2e
 11185 0234 01       		.byte	0x1
 11186 0235 3F       		.uleb128 0x3f
 11187 0236 19       		.uleb128 0x19
 11188 0237 03       		.uleb128 0x3
 11189 0238 0E       		.uleb128 0xe
 11190 0239 3A       		.uleb128 0x3a
 11191 023a 0B       		.uleb128 0xb
 11192 023b 3B       		.uleb128 0x3b
 11193 023c 0B       		.uleb128 0xb
 11194 023d 27       		.uleb128 0x27
 11195 023e 19       		.uleb128 0x19
 11196 023f 11       		.uleb128 0x11
 11197 0240 01       		.uleb128 0x1
 11198 0241 12       		.uleb128 0x12
 11199 0242 06       		.uleb128 0x6
 11200 0243 40       		.uleb128 0x40
ARM GAS  e:\temp\ccP12Hvn.s 			page 237


 11201 0244 18       		.uleb128 0x18
 11202 0245 9742     		.uleb128 0x2117
 11203 0247 19       		.uleb128 0x19
 11204 0248 01       		.uleb128 0x1
 11205 0249 13       		.uleb128 0x13
 11206 024a 00       		.byte	0
 11207 024b 00       		.byte	0
 11208 024c 2B       		.uleb128 0x2b
 11209 024d 05       		.uleb128 0x5
 11210 024e 00       		.byte	0
 11211 024f 03       		.uleb128 0x3
 11212 0250 0E       		.uleb128 0xe
 11213 0251 3A       		.uleb128 0x3a
 11214 0252 0B       		.uleb128 0xb
 11215 0253 3B       		.uleb128 0x3b
 11216 0254 0B       		.uleb128 0xb
 11217 0255 49       		.uleb128 0x49
 11218 0256 13       		.uleb128 0x13
 11219 0257 02       		.uleb128 0x2
 11220 0258 17       		.uleb128 0x17
 11221 0259 00       		.byte	0
 11222 025a 00       		.byte	0
 11223 025b 2C       		.uleb128 0x2c
 11224 025c 898201   		.uleb128 0x4109
 11225 025f 00       		.byte	0
 11226 0260 11       		.uleb128 0x11
 11227 0261 01       		.uleb128 0x1
 11228 0262 31       		.uleb128 0x31
 11229 0263 13       		.uleb128 0x13
 11230 0264 00       		.byte	0
 11231 0265 00       		.byte	0
 11232 0266 2D       		.uleb128 0x2d
 11233 0267 2E       		.uleb128 0x2e
 11234 0268 01       		.byte	0x1
 11235 0269 3F       		.uleb128 0x3f
 11236 026a 19       		.uleb128 0x19
 11237 026b 03       		.uleb128 0x3
 11238 026c 0E       		.uleb128 0xe
 11239 026d 3A       		.uleb128 0x3a
 11240 026e 0B       		.uleb128 0xb
 11241 026f 3B       		.uleb128 0x3b
 11242 0270 05       		.uleb128 0x5
 11243 0271 27       		.uleb128 0x27
 11244 0272 19       		.uleb128 0x19
 11245 0273 11       		.uleb128 0x11
 11246 0274 01       		.uleb128 0x1
 11247 0275 12       		.uleb128 0x12
 11248 0276 06       		.uleb128 0x6
 11249 0277 40       		.uleb128 0x40
 11250 0278 18       		.uleb128 0x18
 11251 0279 9742     		.uleb128 0x2117
 11252 027b 19       		.uleb128 0x19
 11253 027c 01       		.uleb128 0x1
 11254 027d 13       		.uleb128 0x13
 11255 027e 00       		.byte	0
 11256 027f 00       		.byte	0
 11257 0280 2E       		.uleb128 0x2e
ARM GAS  e:\temp\ccP12Hvn.s 			page 238


 11258 0281 2E       		.uleb128 0x2e
 11259 0282 01       		.byte	0x1
 11260 0283 3F       		.uleb128 0x3f
 11261 0284 19       		.uleb128 0x19
 11262 0285 03       		.uleb128 0x3
 11263 0286 0E       		.uleb128 0xe
 11264 0287 3A       		.uleb128 0x3a
 11265 0288 0B       		.uleb128 0xb
 11266 0289 3B       		.uleb128 0x3b
 11267 028a 05       		.uleb128 0x5
 11268 028b 27       		.uleb128 0x27
 11269 028c 19       		.uleb128 0x19
 11270 028d 49       		.uleb128 0x49
 11271 028e 13       		.uleb128 0x13
 11272 028f 11       		.uleb128 0x11
 11273 0290 01       		.uleb128 0x1
 11274 0291 12       		.uleb128 0x12
 11275 0292 06       		.uleb128 0x6
 11276 0293 40       		.uleb128 0x40
 11277 0294 18       		.uleb128 0x18
 11278 0295 9642     		.uleb128 0x2116
 11279 0297 19       		.uleb128 0x19
 11280 0298 01       		.uleb128 0x1
 11281 0299 13       		.uleb128 0x13
 11282 029a 00       		.byte	0
 11283 029b 00       		.byte	0
 11284 029c 2F       		.uleb128 0x2f
 11285 029d 2E       		.uleb128 0x2e
 11286 029e 01       		.byte	0x1
 11287 029f 3F       		.uleb128 0x3f
 11288 02a0 19       		.uleb128 0x19
 11289 02a1 03       		.uleb128 0x3
 11290 02a2 0E       		.uleb128 0xe
 11291 02a3 3A       		.uleb128 0x3a
 11292 02a4 0B       		.uleb128 0xb
 11293 02a5 3B       		.uleb128 0x3b
 11294 02a6 05       		.uleb128 0x5
 11295 02a7 27       		.uleb128 0x27
 11296 02a8 19       		.uleb128 0x19
 11297 02a9 49       		.uleb128 0x49
 11298 02aa 13       		.uleb128 0x13
 11299 02ab 11       		.uleb128 0x11
 11300 02ac 01       		.uleb128 0x1
 11301 02ad 12       		.uleb128 0x12
 11302 02ae 06       		.uleb128 0x6
 11303 02af 40       		.uleb128 0x40
 11304 02b0 18       		.uleb128 0x18
 11305 02b1 9742     		.uleb128 0x2117
 11306 02b3 19       		.uleb128 0x19
 11307 02b4 01       		.uleb128 0x1
 11308 02b5 13       		.uleb128 0x13
 11309 02b6 00       		.byte	0
 11310 02b7 00       		.byte	0
 11311 02b8 30       		.uleb128 0x30
 11312 02b9 2E       		.uleb128 0x2e
 11313 02ba 01       		.byte	0x1
 11314 02bb 3F       		.uleb128 0x3f
ARM GAS  e:\temp\ccP12Hvn.s 			page 239


 11315 02bc 19       		.uleb128 0x19
 11316 02bd 03       		.uleb128 0x3
 11317 02be 0E       		.uleb128 0xe
 11318 02bf 3A       		.uleb128 0x3a
 11319 02c0 0B       		.uleb128 0xb
 11320 02c1 3B       		.uleb128 0x3b
 11321 02c2 0B       		.uleb128 0xb
 11322 02c3 27       		.uleb128 0x27
 11323 02c4 19       		.uleb128 0x19
 11324 02c5 49       		.uleb128 0x49
 11325 02c6 13       		.uleb128 0x13
 11326 02c7 11       		.uleb128 0x11
 11327 02c8 01       		.uleb128 0x1
 11328 02c9 12       		.uleb128 0x12
 11329 02ca 06       		.uleb128 0x6
 11330 02cb 40       		.uleb128 0x40
 11331 02cc 18       		.uleb128 0x18
 11332 02cd 9742     		.uleb128 0x2117
 11333 02cf 19       		.uleb128 0x19
 11334 02d0 01       		.uleb128 0x1
 11335 02d1 13       		.uleb128 0x13
 11336 02d2 00       		.byte	0
 11337 02d3 00       		.byte	0
 11338 02d4 31       		.uleb128 0x31
 11339 02d5 898201   		.uleb128 0x4109
 11340 02d8 01       		.byte	0x1
 11341 02d9 11       		.uleb128 0x11
 11342 02da 01       		.uleb128 0x1
 11343 02db 31       		.uleb128 0x31
 11344 02dc 13       		.uleb128 0x13
 11345 02dd 01       		.uleb128 0x1
 11346 02de 13       		.uleb128 0x13
 11347 02df 00       		.byte	0
 11348 02e0 00       		.byte	0
 11349 02e1 32       		.uleb128 0x32
 11350 02e2 34       		.uleb128 0x34
 11351 02e3 00       		.byte	0
 11352 02e4 03       		.uleb128 0x3
 11353 02e5 0E       		.uleb128 0xe
 11354 02e6 3A       		.uleb128 0x3a
 11355 02e7 0B       		.uleb128 0xb
 11356 02e8 3B       		.uleb128 0x3b
 11357 02e9 05       		.uleb128 0x5
 11358 02ea 49       		.uleb128 0x49
 11359 02eb 13       		.uleb128 0x13
 11360 02ec 00       		.byte	0
 11361 02ed 00       		.byte	0
 11362 02ee 33       		.uleb128 0x33
 11363 02ef 34       		.uleb128 0x34
 11364 02f0 00       		.byte	0
 11365 02f1 03       		.uleb128 0x3
 11366 02f2 0E       		.uleb128 0xe
 11367 02f3 3A       		.uleb128 0x3a
 11368 02f4 0B       		.uleb128 0xb
 11369 02f5 3B       		.uleb128 0x3b
 11370 02f6 0B       		.uleb128 0xb
 11371 02f7 49       		.uleb128 0x49
ARM GAS  e:\temp\ccP12Hvn.s 			page 240


 11372 02f8 13       		.uleb128 0x13
 11373 02f9 02       		.uleb128 0x2
 11374 02fa 17       		.uleb128 0x17
 11375 02fb 00       		.byte	0
 11376 02fc 00       		.byte	0
 11377 02fd 34       		.uleb128 0x34
 11378 02fe 898201   		.uleb128 0x4109
 11379 0301 01       		.byte	0x1
 11380 0302 11       		.uleb128 0x11
 11381 0303 01       		.uleb128 0x1
 11382 0304 00       		.byte	0
 11383 0305 00       		.byte	0
 11384 0306 35       		.uleb128 0x35
 11385 0307 898201   		.uleb128 0x4109
 11386 030a 01       		.byte	0x1
 11387 030b 11       		.uleb128 0x11
 11388 030c 01       		.uleb128 0x1
 11389 030d 01       		.uleb128 0x1
 11390 030e 13       		.uleb128 0x13
 11391 030f 00       		.byte	0
 11392 0310 00       		.byte	0
 11393 0311 36       		.uleb128 0x36
 11394 0312 34       		.uleb128 0x34
 11395 0313 00       		.byte	0
 11396 0314 03       		.uleb128 0x3
 11397 0315 0E       		.uleb128 0xe
 11398 0316 3A       		.uleb128 0x3a
 11399 0317 0B       		.uleb128 0xb
 11400 0318 3B       		.uleb128 0x3b
 11401 0319 05       		.uleb128 0x5
 11402 031a 49       		.uleb128 0x49
 11403 031b 13       		.uleb128 0x13
 11404 031c 1C       		.uleb128 0x1c
 11405 031d 0B       		.uleb128 0xb
 11406 031e 00       		.byte	0
 11407 031f 00       		.byte	0
 11408 0320 37       		.uleb128 0x37
 11409 0321 34       		.uleb128 0x34
 11410 0322 00       		.byte	0
 11411 0323 03       		.uleb128 0x3
 11412 0324 0E       		.uleb128 0xe
 11413 0325 3A       		.uleb128 0x3a
 11414 0326 0B       		.uleb128 0xb
 11415 0327 3B       		.uleb128 0x3b
 11416 0328 0B       		.uleb128 0xb
 11417 0329 49       		.uleb128 0x49
 11418 032a 13       		.uleb128 0x13
 11419 032b 02       		.uleb128 0x2
 11420 032c 18       		.uleb128 0x18
 11421 032d 00       		.byte	0
 11422 032e 00       		.byte	0
 11423 032f 38       		.uleb128 0x38
 11424 0330 34       		.uleb128 0x34
 11425 0331 00       		.byte	0
 11426 0332 03       		.uleb128 0x3
 11427 0333 0E       		.uleb128 0xe
 11428 0334 3A       		.uleb128 0x3a
ARM GAS  e:\temp\ccP12Hvn.s 			page 241


 11429 0335 0B       		.uleb128 0xb
 11430 0336 3B       		.uleb128 0x3b
 11431 0337 0B       		.uleb128 0xb
 11432 0338 49       		.uleb128 0x49
 11433 0339 13       		.uleb128 0x13
 11434 033a 3F       		.uleb128 0x3f
 11435 033b 19       		.uleb128 0x19
 11436 033c 02       		.uleb128 0x2
 11437 033d 18       		.uleb128 0x18
 11438 033e 00       		.byte	0
 11439 033f 00       		.byte	0
 11440 0340 39       		.uleb128 0x39
 11441 0341 34       		.uleb128 0x34
 11442 0342 00       		.byte	0
 11443 0343 03       		.uleb128 0x3
 11444 0344 0E       		.uleb128 0xe
 11445 0345 3A       		.uleb128 0x3a
 11446 0346 0B       		.uleb128 0xb
 11447 0347 3B       		.uleb128 0x3b
 11448 0348 0B       		.uleb128 0xb
 11449 0349 49       		.uleb128 0x49
 11450 034a 13       		.uleb128 0x13
 11451 034b 3F       		.uleb128 0x3f
 11452 034c 19       		.uleb128 0x19
 11453 034d 3C       		.uleb128 0x3c
 11454 034e 19       		.uleb128 0x19
 11455 034f 00       		.byte	0
 11456 0350 00       		.byte	0
 11457 0351 3A       		.uleb128 0x3a
 11458 0352 2E       		.uleb128 0x2e
 11459 0353 00       		.byte	0
 11460 0354 3F       		.uleb128 0x3f
 11461 0355 19       		.uleb128 0x19
 11462 0356 3C       		.uleb128 0x3c
 11463 0357 19       		.uleb128 0x19
 11464 0358 6E       		.uleb128 0x6e
 11465 0359 0E       		.uleb128 0xe
 11466 035a 03       		.uleb128 0x3
 11467 035b 0E       		.uleb128 0xe
 11468 035c 00       		.byte	0
 11469 035d 00       		.byte	0
 11470 035e 3B       		.uleb128 0x3b
 11471 035f 2E       		.uleb128 0x2e
 11472 0360 00       		.byte	0
 11473 0361 3F       		.uleb128 0x3f
 11474 0362 19       		.uleb128 0x19
 11475 0363 3C       		.uleb128 0x3c
 11476 0364 19       		.uleb128 0x19
 11477 0365 6E       		.uleb128 0x6e
 11478 0366 0E       		.uleb128 0xe
 11479 0367 03       		.uleb128 0x3
 11480 0368 0E       		.uleb128 0xe
 11481 0369 3A       		.uleb128 0x3a
 11482 036a 0B       		.uleb128 0xb
 11483 036b 3B       		.uleb128 0x3b
 11484 036c 0B       		.uleb128 0xb
 11485 036d 00       		.byte	0
ARM GAS  e:\temp\ccP12Hvn.s 			page 242


 11486 036e 00       		.byte	0
 11487 036f 3C       		.uleb128 0x3c
 11488 0370 2E       		.uleb128 0x2e
 11489 0371 00       		.byte	0
 11490 0372 3F       		.uleb128 0x3f
 11491 0373 19       		.uleb128 0x19
 11492 0374 3C       		.uleb128 0x3c
 11493 0375 19       		.uleb128 0x19
 11494 0376 6E       		.uleb128 0x6e
 11495 0377 0E       		.uleb128 0xe
 11496 0378 03       		.uleb128 0x3
 11497 0379 0E       		.uleb128 0xe
 11498 037a 3A       		.uleb128 0x3a
 11499 037b 0B       		.uleb128 0xb
 11500 037c 3B       		.uleb128 0x3b
 11501 037d 05       		.uleb128 0x5
 11502 037e 00       		.byte	0
 11503 037f 00       		.byte	0
 11504 0380 00       		.byte	0
 11505              		.section	.debug_loc,"",%progbits
 11506              	.Ldebug_loc0:
 11507              	.LLST0:
 11508 0000 00000000 		.4byte	.LVL0
 11509 0004 06000000 		.4byte	.LVL1
 11510 0008 0100     		.2byte	0x1
 11511 000a 50       		.byte	0x50
 11512 000b 06000000 		.4byte	.LVL1
 11513 000f 44000000 		.4byte	.LFE37
 11514 0013 0400     		.2byte	0x4
 11515 0015 F3       		.byte	0xf3
 11516 0016 01       		.uleb128 0x1
 11517 0017 50       		.byte	0x50
 11518 0018 9F       		.byte	0x9f
 11519 0019 00000000 		.4byte	0
 11520 001d 00000000 		.4byte	0
 11521              	.LLST1:
 11522 0021 00000000 		.4byte	.LVL0
 11523 0025 34000000 		.4byte	.LVL3
 11524 0029 0100     		.2byte	0x1
 11525 002b 51       		.byte	0x51
 11526 002c 34000000 		.4byte	.LVL3
 11527 0030 44000000 		.4byte	.LFE37
 11528 0034 0200     		.2byte	0x2
 11529 0036 73       		.byte	0x73
 11530 0037 04       		.sleb128 4
 11531 0038 00000000 		.4byte	0
 11532 003c 00000000 		.4byte	0
 11533              	.LLST2:
 11534 0040 00000000 		.4byte	.LVL4
 11535 0044 52000000 		.4byte	.LVL17
 11536 0048 0100     		.2byte	0x1
 11537 004a 50       		.byte	0x50
 11538 004b 52000000 		.4byte	.LVL17
 11539 004f 54000000 		.4byte	.LVL18
 11540 0053 0400     		.2byte	0x4
 11541 0055 F3       		.byte	0xf3
 11542 0056 01       		.uleb128 0x1
ARM GAS  e:\temp\ccP12Hvn.s 			page 243


 11543 0057 50       		.byte	0x50
 11544 0058 9F       		.byte	0x9f
 11545 0059 54000000 		.4byte	.LVL18
 11546 005d 5C000000 		.4byte	.LVL20
 11547 0061 0100     		.2byte	0x1
 11548 0063 50       		.byte	0x50
 11549 0064 5C000000 		.4byte	.LVL20
 11550 0068 68000000 		.4byte	.LFE48
 11551 006c 0400     		.2byte	0x4
 11552 006e F3       		.byte	0xf3
 11553 006f 01       		.uleb128 0x1
 11554 0070 50       		.byte	0x50
 11555 0071 9F       		.byte	0x9f
 11556 0072 00000000 		.4byte	0
 11557 0076 00000000 		.4byte	0
 11558              	.LLST3:
 11559 007a 1A000000 		.4byte	.LVL7
 11560 007e 1E000000 		.4byte	.LVL8
 11561 0082 0200     		.2byte	0x2
 11562 0084 30       		.byte	0x30
 11563 0085 9F       		.byte	0x9f
 11564 0086 1E000000 		.4byte	.LVL8
 11565 008a 68000000 		.4byte	.LFE48
 11566 008e 0100     		.2byte	0x1
 11567 0090 53       		.byte	0x53
 11568 0091 00000000 		.4byte	0
 11569 0095 00000000 		.4byte	0
 11570              	.LLST4:
 11571 0099 28000000 		.4byte	.LVL9
 11572 009d 4A000000 		.4byte	.LVL15
 11573 00a1 0100     		.2byte	0x1
 11574 00a3 52       		.byte	0x52
 11575 00a4 4C000000 		.4byte	.LVL16
 11576 00a8 54000000 		.4byte	.LVL18
 11577 00ac 0100     		.2byte	0x1
 11578 00ae 52       		.byte	0x52
 11579 00af 00000000 		.4byte	0
 11580 00b3 00000000 		.4byte	0
 11581              	.LLST5:
 11582 00b7 10000000 		.4byte	.LVL5
 11583 00bb 5C000000 		.4byte	.LVL21
 11584 00bf 0100     		.2byte	0x1
 11585 00c1 54       		.byte	0x54
 11586 00c2 00000000 		.4byte	0
 11587 00c6 00000000 		.4byte	0
 11588              	.LLST6:
 11589 00ca 16000000 		.4byte	.LVL6
 11590 00ce 28000000 		.4byte	.LVL9
 11591 00d2 0100     		.2byte	0x1
 11592 00d4 51       		.byte	0x51
 11593 00d5 28000000 		.4byte	.LVL9
 11594 00d9 3A000000 		.4byte	.LVL10
 11595 00dd 1B00     		.2byte	0x1b
 11596 00df 70       		.byte	0x70
 11597 00e0 00       		.sleb128 0
 11598 00e1 08       		.byte	0x8
 11599 00e2 74       		.byte	0x74
ARM GAS  e:\temp\ccP12Hvn.s 			page 244


 11600 00e3 1E       		.byte	0x1e
 11601 00e4 03       		.byte	0x3
 11602 00e5 18000000 		.4byte	alt_mode+24
 11603 00e9 22       		.byte	0x22
 11604 00ea 06       		.byte	0x6
 11605 00eb 20       		.byte	0x20
 11606 00ec 70       		.byte	0x70
 11607 00ed 00       		.sleb128 0
 11608 00ee 08       		.byte	0x8
 11609 00ef 74       		.byte	0x74
 11610 00f0 1E       		.byte	0x1e
 11611 00f1 03       		.byte	0x3
 11612 00f2 14000000 		.4byte	alt_mode+20
 11613 00f6 22       		.byte	0x22
 11614 00f7 06       		.byte	0x6
 11615 00f8 1A       		.byte	0x1a
 11616 00f9 9F       		.byte	0x9f
 11617 00fa 3A000000 		.4byte	.LVL10
 11618 00fe 3C000000 		.4byte	.LVL11
 11619 0102 1B00     		.2byte	0x1b
 11620 0104 71       		.byte	0x71
 11621 0105 00       		.sleb128 0
 11622 0106 70       		.byte	0x70
 11623 0107 00       		.sleb128 0
 11624 0108 1E       		.byte	0x1e
 11625 0109 03       		.byte	0x3
 11626 010a 18000000 		.4byte	alt_mode+24
 11627 010e 22       		.byte	0x22
 11628 010f 06       		.byte	0x6
 11629 0110 20       		.byte	0x20
 11630 0111 71       		.byte	0x71
 11631 0112 00       		.sleb128 0
 11632 0113 70       		.byte	0x70
 11633 0114 00       		.sleb128 0
 11634 0115 1E       		.byte	0x1e
 11635 0116 03       		.byte	0x3
 11636 0117 14000000 		.4byte	alt_mode+20
 11637 011b 22       		.byte	0x22
 11638 011c 06       		.byte	0x6
 11639 011d 1A       		.byte	0x1a
 11640 011e 9F       		.byte	0x9f
 11641 011f 3C000000 		.4byte	.LVL11
 11642 0123 3E000000 		.4byte	.LVL12
 11643 0127 1B00     		.2byte	0x1b
 11644 0129 70       		.byte	0x70
 11645 012a 00       		.sleb128 0
 11646 012b 08       		.byte	0x8
 11647 012c 74       		.byte	0x74
 11648 012d 1E       		.byte	0x1e
 11649 012e 03       		.byte	0x3
 11650 012f 18000000 		.4byte	alt_mode+24
 11651 0133 22       		.byte	0x22
 11652 0134 06       		.byte	0x6
 11653 0135 20       		.byte	0x20
 11654 0136 70       		.byte	0x70
 11655 0137 00       		.sleb128 0
 11656 0138 08       		.byte	0x8
ARM GAS  e:\temp\ccP12Hvn.s 			page 245


 11657 0139 74       		.byte	0x74
 11658 013a 1E       		.byte	0x1e
 11659 013b 03       		.byte	0x3
 11660 013c 14000000 		.4byte	alt_mode+20
 11661 0140 22       		.byte	0x22
 11662 0141 06       		.byte	0x6
 11663 0142 1A       		.byte	0x1a
 11664 0143 9F       		.byte	0x9f
 11665 0144 3E000000 		.4byte	.LVL12
 11666 0148 42000000 		.4byte	.LVL13
 11667 014c 1900     		.2byte	0x19
 11668 014e 70       		.byte	0x70
 11669 014f 00       		.sleb128 0
 11670 0150 08       		.byte	0x8
 11671 0151 74       		.byte	0x74
 11672 0152 1E       		.byte	0x1e
 11673 0153 76       		.byte	0x76
 11674 0154 00       		.sleb128 0
 11675 0155 22       		.byte	0x22
 11676 0156 23       		.byte	0x23
 11677 0157 18       		.uleb128 0x18
 11678 0158 06       		.byte	0x6
 11679 0159 20       		.byte	0x20
 11680 015a 70       		.byte	0x70
 11681 015b 00       		.sleb128 0
 11682 015c 08       		.byte	0x8
 11683 015d 74       		.byte	0x74
 11684 015e 1E       		.byte	0x1e
 11685 015f 76       		.byte	0x76
 11686 0160 00       		.sleb128 0
 11687 0161 22       		.byte	0x22
 11688 0162 23       		.byte	0x23
 11689 0163 14       		.uleb128 0x14
 11690 0164 06       		.byte	0x6
 11691 0165 1A       		.byte	0x1a
 11692 0166 9F       		.byte	0x9f
 11693 0167 42000000 		.4byte	.LVL13
 11694 016b 4A000000 		.4byte	.LVL15
 11695 016f 1B00     		.2byte	0x1b
 11696 0171 70       		.byte	0x70
 11697 0172 00       		.sleb128 0
 11698 0173 08       		.byte	0x8
 11699 0174 74       		.byte	0x74
 11700 0175 1E       		.byte	0x1e
 11701 0176 03       		.byte	0x3
 11702 0177 18000000 		.4byte	alt_mode+24
 11703 017b 22       		.byte	0x22
 11704 017c 06       		.byte	0x6
 11705 017d 20       		.byte	0x20
 11706 017e 70       		.byte	0x70
 11707 017f 00       		.sleb128 0
 11708 0180 08       		.byte	0x8
 11709 0181 74       		.byte	0x74
 11710 0182 1E       		.byte	0x1e
 11711 0183 03       		.byte	0x3
 11712 0184 14000000 		.4byte	alt_mode+20
 11713 0188 22       		.byte	0x22
ARM GAS  e:\temp\ccP12Hvn.s 			page 246


 11714 0189 06       		.byte	0x6
 11715 018a 1A       		.byte	0x1a
 11716 018b 9F       		.byte	0x9f
 11717 018c 4A000000 		.4byte	.LVL15
 11718 0190 4C000000 		.4byte	.LVL16
 11719 0194 0100     		.2byte	0x1
 11720 0196 51       		.byte	0x51
 11721 0197 4C000000 		.4byte	.LVL16
 11722 019b 52000000 		.4byte	.LVL17
 11723 019f 1B00     		.2byte	0x1b
 11724 01a1 70       		.byte	0x70
 11725 01a2 00       		.sleb128 0
 11726 01a3 08       		.byte	0x8
 11727 01a4 74       		.byte	0x74
 11728 01a5 1E       		.byte	0x1e
 11729 01a6 03       		.byte	0x3
 11730 01a7 18000000 		.4byte	alt_mode+24
 11731 01ab 22       		.byte	0x22
 11732 01ac 06       		.byte	0x6
 11733 01ad 20       		.byte	0x20
 11734 01ae 70       		.byte	0x70
 11735 01af 00       		.sleb128 0
 11736 01b0 08       		.byte	0x8
 11737 01b1 74       		.byte	0x74
 11738 01b2 1E       		.byte	0x1e
 11739 01b3 03       		.byte	0x3
 11740 01b4 14000000 		.4byte	alt_mode+20
 11741 01b8 22       		.byte	0x22
 11742 01b9 06       		.byte	0x6
 11743 01ba 1A       		.byte	0x1a
 11744 01bb 9F       		.byte	0x9f
 11745 01bc 54000000 		.4byte	.LVL18
 11746 01c0 5C000000 		.4byte	.LVL20
 11747 01c4 0100     		.2byte	0x1
 11748 01c6 51       		.byte	0x51
 11749 01c7 00000000 		.4byte	0
 11750 01cb 00000000 		.4byte	0
 11751              	.LLST7:
 11752 01cf 16000000 		.4byte	.LVL6
 11753 01d3 28000000 		.4byte	.LVL9
 11754 01d7 0200     		.2byte	0x2
 11755 01d9 30       		.byte	0x30
 11756 01da 9F       		.byte	0x9f
 11757 01db 28000000 		.4byte	.LVL9
 11758 01df 48000000 		.4byte	.LVL14
 11759 01e3 0E00     		.2byte	0xe
 11760 01e5 73       		.byte	0x73
 11761 01e6 00       		.sleb128 0
 11762 01e7 72       		.byte	0x72
 11763 01e8 00       		.sleb128 0
 11764 01e9 22       		.byte	0x22
 11765 01ea 32       		.byte	0x32
 11766 01eb 24       		.byte	0x24
 11767 01ec 03       		.byte	0x3
 11768 01ed 00000000 		.4byte	dfp_compatibility_mode_table
 11769 01f1 22       		.byte	0x22
 11770 01f2 9F       		.byte	0x9f
ARM GAS  e:\temp\ccP12Hvn.s 			page 247


 11771 01f3 48000000 		.4byte	.LVL14
 11772 01f7 4A000000 		.4byte	.LVL15
 11773 01fb 1000     		.2byte	0x10
 11774 01fd 72       		.byte	0x72
 11775 01fe 00       		.sleb128 0
 11776 01ff 73       		.byte	0x73
 11777 0200 00       		.sleb128 0
 11778 0201 22       		.byte	0x22
 11779 0202 31       		.byte	0x31
 11780 0203 1C       		.byte	0x1c
 11781 0204 32       		.byte	0x32
 11782 0205 24       		.byte	0x24
 11783 0206 03       		.byte	0x3
 11784 0207 00000000 		.4byte	dfp_compatibility_mode_table
 11785 020b 22       		.byte	0x22
 11786 020c 9F       		.byte	0x9f
 11787 020d 4A000000 		.4byte	.LVL15
 11788 0211 4C000000 		.4byte	.LVL16
 11789 0215 0200     		.2byte	0x2
 11790 0217 30       		.byte	0x30
 11791 0218 9F       		.byte	0x9f
 11792 0219 54000000 		.4byte	.LVL18
 11793 021d 5C000000 		.4byte	.LVL20
 11794 0221 0200     		.2byte	0x2
 11795 0223 30       		.byte	0x30
 11796 0224 9F       		.byte	0x9f
 11797 0225 00000000 		.4byte	0
 11798 0229 00000000 		.4byte	0
 11799              	.LLST8:
 11800 022d 00000000 		.4byte	.LVL22
 11801 0231 0A000000 		.4byte	.LVL24
 11802 0235 0100     		.2byte	0x1
 11803 0237 50       		.byte	0x50
 11804 0238 0A000000 		.4byte	.LVL24
 11805 023c 50000000 		.4byte	.LFE54
 11806 0240 0400     		.2byte	0x4
 11807 0242 F3       		.byte	0xf3
 11808 0243 01       		.uleb128 0x1
 11809 0244 50       		.byte	0x50
 11810 0245 9F       		.byte	0x9f
 11811 0246 00000000 		.4byte	0
 11812 024a 00000000 		.4byte	0
 11813              	.LLST9:
 11814 024e 04000000 		.4byte	.LVL23
 11815 0252 0A000000 		.4byte	.LVL24
 11816 0256 0200     		.2byte	0x2
 11817 0258 30       		.byte	0x30
 11818 0259 9F       		.byte	0x9f
 11819 025a 0A000000 		.4byte	.LVL24
 11820 025e 2A000000 		.4byte	.LVL27
 11821 0262 0100     		.2byte	0x1
 11822 0264 54       		.byte	0x54
 11823 0265 2C000000 		.4byte	.LVL28
 11824 0269 42000000 		.4byte	.LVL29
 11825 026d 0100     		.2byte	0x1
 11826 026f 54       		.byte	0x54
 11827 0270 00000000 		.4byte	0
ARM GAS  e:\temp\ccP12Hvn.s 			page 248


 11828 0274 00000000 		.4byte	0
 11829              	.LLST10:
 11830 0278 04000000 		.4byte	.LVL23
 11831 027c 0A000000 		.4byte	.LVL24
 11832 0280 0200     		.2byte	0x2
 11833 0282 30       		.byte	0x30
 11834 0283 9F       		.byte	0x9f
 11835 0284 0A000000 		.4byte	.LVL24
 11836 0288 16000000 		.4byte	.LVL25
 11837 028c 0100     		.2byte	0x1
 11838 028e 55       		.byte	0x55
 11839 028f 18000000 		.4byte	.LVL26
 11840 0293 42000000 		.4byte	.LVL30
 11841 0297 0100     		.2byte	0x1
 11842 0299 55       		.byte	0x55
 11843 029a 00000000 		.4byte	0
 11844 029e 00000000 		.4byte	0
 11845              	.LLST11:
 11846 02a2 00000000 		.4byte	.LVL31
 11847 02a6 22000000 		.4byte	.LVL36
 11848 02aa 0100     		.2byte	0x1
 11849 02ac 50       		.byte	0x50
 11850 02ad 22000000 		.4byte	.LVL36
 11851 02b1 24000000 		.4byte	.LVL37
 11852 02b5 0400     		.2byte	0x4
 11853 02b7 F3       		.byte	0xf3
 11854 02b8 01       		.uleb128 0x1
 11855 02b9 50       		.byte	0x50
 11856 02ba 9F       		.byte	0x9f
 11857 02bb 24000000 		.4byte	.LVL37
 11858 02bf 26000000 		.4byte	.LVL38
 11859 02c3 0100     		.2byte	0x1
 11860 02c5 50       		.byte	0x50
 11861 02c6 26000000 		.4byte	.LVL38
 11862 02ca 30000000 		.4byte	.LFE55
 11863 02ce 0400     		.2byte	0x4
 11864 02d0 F3       		.byte	0xf3
 11865 02d1 01       		.uleb128 0x1
 11866 02d2 50       		.byte	0x50
 11867 02d3 9F       		.byte	0x9f
 11868 02d4 00000000 		.4byte	0
 11869 02d8 00000000 		.4byte	0
 11870              	.LLST12:
 11871 02dc 02000000 		.4byte	.LVL32
 11872 02e0 06000000 		.4byte	.LVL33
 11873 02e4 0200     		.2byte	0x2
 11874 02e6 30       		.byte	0x30
 11875 02e7 9F       		.byte	0x9f
 11876 02e8 06000000 		.4byte	.LVL33
 11877 02ec 0E000000 		.4byte	.LVL34
 11878 02f0 0100     		.2byte	0x1
 11879 02f2 52       		.byte	0x52
 11880 02f3 10000000 		.4byte	.LVL35
 11881 02f7 30000000 		.4byte	.LFE55
 11882 02fb 0100     		.2byte	0x1
 11883 02fd 52       		.byte	0x52
 11884 02fe 00000000 		.4byte	0
ARM GAS  e:\temp\ccP12Hvn.s 			page 249


 11885 0302 00000000 		.4byte	0
 11886              	.LLST13:
 11887 0306 00000000 		.4byte	.LVL39
 11888 030a 06000000 		.4byte	.LVL40
 11889 030e 0100     		.2byte	0x1
 11890 0310 50       		.byte	0x50
 11891 0311 06000000 		.4byte	.LVL40
 11892 0315 54000000 		.4byte	.LFE50
 11893 0319 0400     		.2byte	0x4
 11894 031b F3       		.byte	0xf3
 11895 031c 01       		.uleb128 0x1
 11896 031d 50       		.byte	0x50
 11897 031e 9F       		.byte	0x9f
 11898 031f 00000000 		.4byte	0
 11899 0323 00000000 		.4byte	0
 11900              	.LLST14:
 11901 0327 00000000 		.4byte	.LVL39
 11902 032b 40000000 		.4byte	.LVL46
 11903 032f 0100     		.2byte	0x1
 11904 0331 51       		.byte	0x51
 11905 0332 40000000 		.4byte	.LVL46
 11906 0336 54000000 		.4byte	.LFE50
 11907 033a 0400     		.2byte	0x4
 11908 033c F3       		.byte	0xf3
 11909 033d 01       		.uleb128 0x1
 11910 033e 51       		.byte	0x51
 11911 033f 9F       		.byte	0x9f
 11912 0340 00000000 		.4byte	0
 11913 0344 00000000 		.4byte	0
 11914              	.LLST15:
 11915 0348 00000000 		.4byte	.LVL39
 11916 034c 3C000000 		.4byte	.LVL44
 11917 0350 0100     		.2byte	0x1
 11918 0352 52       		.byte	0x52
 11919 0353 3C000000 		.4byte	.LVL44
 11920 0357 54000000 		.4byte	.LFE50
 11921 035b 0400     		.2byte	0x4
 11922 035d F3       		.byte	0xf3
 11923 035e 01       		.uleb128 0x1
 11924 035f 52       		.byte	0x52
 11925 0360 9F       		.byte	0x9f
 11926 0361 00000000 		.4byte	0
 11927 0365 00000000 		.4byte	0
 11928              	.LLST16:
 11929 0369 0C000000 		.4byte	.LVL41
 11930 036d 4C000000 		.4byte	.LVL48
 11931 0371 0100     		.2byte	0x1
 11932 0373 54       		.byte	0x54
 11933 0374 00000000 		.4byte	0
 11934 0378 00000000 		.4byte	0
 11935              	.LLST17:
 11936 037c 1E000000 		.4byte	.LVL42
 11937 0380 36000000 		.4byte	.LVL43
 11938 0384 0100     		.2byte	0x1
 11939 0386 50       		.byte	0x50
 11940 0387 36000000 		.4byte	.LVL43
 11941 038b 3C000000 		.4byte	.LVL44
ARM GAS  e:\temp\ccP12Hvn.s 			page 250


 11942 038f 0700     		.2byte	0x7
 11943 0391 71       		.byte	0x71
 11944 0392 00       		.sleb128 0
 11945 0393 72       		.byte	0x72
 11946 0394 00       		.sleb128 0
 11947 0395 22       		.byte	0x22
 11948 0396 23       		.byte	0x23
 11949 0397 18       		.uleb128 0x18
 11950 0398 3C000000 		.4byte	.LVL44
 11951 039c 3E000000 		.4byte	.LVL45
 11952 03a0 0700     		.2byte	0x7
 11953 03a2 71       		.byte	0x71
 11954 03a3 00       		.sleb128 0
 11955 03a4 72       		.byte	0x72
 11956 03a5 00       		.sleb128 0
 11957 03a6 22       		.byte	0x22
 11958 03a7 23       		.byte	0x23
 11959 03a8 16       		.uleb128 0x16
 11960 03a9 00000000 		.4byte	0
 11961 03ad 00000000 		.4byte	0
 11962              	.LLST18:
 11963 03b1 00000000 		.4byte	.LVL49
 11964 03b5 0A000000 		.4byte	.LVL50
 11965 03b9 0100     		.2byte	0x1
 11966 03bb 50       		.byte	0x50
 11967 03bc 0A000000 		.4byte	.LVL50
 11968 03c0 A4000000 		.4byte	.LFE49
 11969 03c4 0400     		.2byte	0x4
 11970 03c6 F3       		.byte	0xf3
 11971 03c7 01       		.uleb128 0x1
 11972 03c8 50       		.byte	0x50
 11973 03c9 9F       		.byte	0x9f
 11974 03ca 00000000 		.4byte	0
 11975 03ce 00000000 		.4byte	0
 11976              	.LLST19:
 11977 03d2 00000000 		.4byte	.LVL49
 11978 03d6 3C000000 		.4byte	.LVL52
 11979 03da 0100     		.2byte	0x1
 11980 03dc 51       		.byte	0x51
 11981 03dd 3C000000 		.4byte	.LVL52
 11982 03e1 9E000000 		.4byte	.LVL56
 11983 03e5 0100     		.2byte	0x1
 11984 03e7 55       		.byte	0x55
 11985 03e8 9E000000 		.4byte	.LVL56
 11986 03ec A4000000 		.4byte	.LFE49
 11987 03f0 0400     		.2byte	0x4
 11988 03f2 F3       		.byte	0xf3
 11989 03f3 01       		.uleb128 0x1
 11990 03f4 51       		.byte	0x51
 11991 03f5 9F       		.byte	0x9f
 11992 03f6 00000000 		.4byte	0
 11993 03fa 00000000 		.4byte	0
 11994              	.LLST20:
 11995 03fe 00000000 		.4byte	.LVL49
 11996 0402 40000000 		.4byte	.LVL53
 11997 0406 0100     		.2byte	0x1
 11998 0408 52       		.byte	0x52
ARM GAS  e:\temp\ccP12Hvn.s 			page 251


 11999 0409 40000000 		.4byte	.LVL53
 12000 040d 45000000 		.4byte	.LVL54-1
 12001 0411 0200     		.2byte	0x2
 12002 0413 74       		.byte	0x74
 12003 0414 04       		.sleb128 4
 12004 0415 45000000 		.4byte	.LVL54-1
 12005 0419 A4000000 		.4byte	.LFE49
 12006 041d 0400     		.2byte	0x4
 12007 041f F3       		.byte	0xf3
 12008 0420 01       		.uleb128 0x1
 12009 0421 52       		.byte	0x52
 12010 0422 9F       		.byte	0x9f
 12011 0423 00000000 		.4byte	0
 12012 0427 00000000 		.4byte	0
 12013              	.LLST21:
 12014 042b 10000000 		.4byte	.LVL51
 12015 042f 9E000000 		.4byte	.LVL55
 12016 0433 0100     		.2byte	0x1
 12017 0435 54       		.byte	0x54
 12018 0436 00000000 		.4byte	0
 12019 043a 00000000 		.4byte	0
 12020              	.LLST22:
 12021 043e 00000000 		.4byte	.LVL57
 12022 0442 06000000 		.4byte	.LVL58
 12023 0446 0100     		.2byte	0x1
 12024 0448 50       		.byte	0x50
 12025 0449 06000000 		.4byte	.LVL58
 12026 044d 18000000 		.4byte	.LFE57
 12027 0451 0400     		.2byte	0x4
 12028 0453 F3       		.byte	0xf3
 12029 0454 01       		.uleb128 0x1
 12030 0455 50       		.byte	0x50
 12031 0456 9F       		.byte	0x9f
 12032 0457 00000000 		.4byte	0
 12033 045b 00000000 		.4byte	0
 12034              	.LLST23:
 12035 045f 00000000 		.4byte	.LVL60
 12036 0463 05000000 		.4byte	.LVL61-1
 12037 0467 0100     		.2byte	0x1
 12038 0469 50       		.byte	0x50
 12039 046a 05000000 		.4byte	.LVL61-1
 12040 046e 08000000 		.4byte	.LFE34
 12041 0472 0400     		.2byte	0x4
 12042 0474 F3       		.byte	0xf3
 12043 0475 01       		.uleb128 0x1
 12044 0476 50       		.byte	0x50
 12045 0477 9F       		.byte	0x9f
 12046 0478 00000000 		.4byte	0
 12047 047c 00000000 		.4byte	0
 12048              	.LLST24:
 12049 0480 00000000 		.4byte	.LVL62
 12050 0484 05000000 		.4byte	.LVL63-1
 12051 0488 0100     		.2byte	0x1
 12052 048a 50       		.byte	0x50
 12053 048b 05000000 		.4byte	.LVL63-1
 12054 048f 08000000 		.4byte	.LFE35
 12055 0493 0400     		.2byte	0x4
ARM GAS  e:\temp\ccP12Hvn.s 			page 252


 12056 0495 F3       		.byte	0xf3
 12057 0496 01       		.uleb128 0x1
 12058 0497 50       		.byte	0x50
 12059 0498 9F       		.byte	0x9f
 12060 0499 00000000 		.4byte	0
 12061 049d 00000000 		.4byte	0
 12062              	.LLST25:
 12063 04a1 00000000 		.4byte	.LVL64
 12064 04a5 1B000000 		.4byte	.LVL66-1
 12065 04a9 0100     		.2byte	0x1
 12066 04ab 50       		.byte	0x50
 12067 04ac 1B000000 		.4byte	.LVL66-1
 12068 04b0 28000000 		.4byte	.LFE36
 12069 04b4 0400     		.2byte	0x4
 12070 04b6 F3       		.byte	0xf3
 12071 04b7 01       		.uleb128 0x1
 12072 04b8 50       		.byte	0x50
 12073 04b9 9F       		.byte	0x9f
 12074 04ba 00000000 		.4byte	0
 12075 04be 00000000 		.4byte	0
 12076              	.LLST26:
 12077 04c2 00000000 		.4byte	.LVL64
 12078 04c6 12000000 		.4byte	.LVL65
 12079 04ca 0100     		.2byte	0x1
 12080 04cc 51       		.byte	0x51
 12081 04cd 12000000 		.4byte	.LVL65
 12082 04d1 28000000 		.4byte	.LFE36
 12083 04d5 0400     		.2byte	0x4
 12084 04d7 F3       		.byte	0xf3
 12085 04d8 01       		.uleb128 0x1
 12086 04d9 51       		.byte	0x51
 12087 04da 9F       		.byte	0x9f
 12088 04db 00000000 		.4byte	0
 12089 04df 00000000 		.4byte	0
 12090              	.LLST27:
 12091 04e3 00000000 		.4byte	.LVL67
 12092 04e7 0A000000 		.4byte	.LVL68
 12093 04eb 0100     		.2byte	0x1
 12094 04ed 50       		.byte	0x50
 12095 04ee 0A000000 		.4byte	.LVL68
 12096 04f2 0C000000 		.4byte	.LVL69
 12097 04f6 0400     		.2byte	0x4
 12098 04f8 F3       		.byte	0xf3
 12099 04f9 01       		.uleb128 0x1
 12100 04fa 50       		.byte	0x50
 12101 04fb 9F       		.byte	0x9f
 12102 04fc 0C000000 		.4byte	.LVL69
 12103 0500 0E000000 		.4byte	.LVL70
 12104 0504 0100     		.2byte	0x1
 12105 0506 50       		.byte	0x50
 12106 0507 0E000000 		.4byte	.LVL70
 12107 050b 14000000 		.4byte	.LFE52
 12108 050f 0400     		.2byte	0x4
 12109 0511 F3       		.byte	0xf3
 12110 0512 01       		.uleb128 0x1
 12111 0513 50       		.byte	0x50
 12112 0514 9F       		.byte	0x9f
ARM GAS  e:\temp\ccP12Hvn.s 			page 253


 12113 0515 00000000 		.4byte	0
 12114 0519 00000000 		.4byte	0
 12115              	.LLST28:
 12116 051d 00000000 		.4byte	.LVL67
 12117 0521 0E000000 		.4byte	.LVL70
 12118 0525 0200     		.2byte	0x2
 12119 0527 30       		.byte	0x30
 12120 0528 9F       		.byte	0x9f
 12121 0529 0E000000 		.4byte	.LVL70
 12122 052d 14000000 		.4byte	.LFE52
 12123 0531 0100     		.2byte	0x1
 12124 0533 50       		.byte	0x50
 12125 0534 00000000 		.4byte	0
 12126 0538 00000000 		.4byte	0
 12127              	.LLST29:
 12128 053c 00000000 		.4byte	.LVL71
 12129 0540 0B000000 		.4byte	.LVL72-1
 12130 0544 0100     		.2byte	0x1
 12131 0546 50       		.byte	0x50
 12132 0547 0B000000 		.4byte	.LVL72-1
 12133 054b 90000000 		.4byte	.LFE32
 12134 054f 0400     		.2byte	0x4
 12135 0551 F3       		.byte	0xf3
 12136 0552 01       		.uleb128 0x1
 12137 0553 50       		.byte	0x50
 12138 0554 9F       		.byte	0x9f
 12139 0555 00000000 		.4byte	0
 12140 0559 00000000 		.4byte	0
 12141              	.LLST30:
 12142 055d 00000000 		.4byte	.LVL71
 12143 0561 0B000000 		.4byte	.LVL72-1
 12144 0565 0100     		.2byte	0x1
 12145 0567 51       		.byte	0x51
 12146 0568 0B000000 		.4byte	.LVL72-1
 12147 056c 50000000 		.4byte	.LVL75
 12148 0570 0100     		.2byte	0x1
 12149 0572 55       		.byte	0x55
 12150 0573 50000000 		.4byte	.LVL75
 12151 0577 62000000 		.4byte	.LVL77
 12152 057b 0400     		.2byte	0x4
 12153 057d F3       		.byte	0xf3
 12154 057e 01       		.uleb128 0x1
 12155 057f 51       		.byte	0x51
 12156 0580 9F       		.byte	0x9f
 12157 0581 62000000 		.4byte	.LVL77
 12158 0585 84000000 		.4byte	.LVL78
 12159 0589 0100     		.2byte	0x1
 12160 058b 55       		.byte	0x55
 12161 058c 84000000 		.4byte	.LVL78
 12162 0590 90000000 		.4byte	.LFE32
 12163 0594 0400     		.2byte	0x4
 12164 0596 F3       		.byte	0xf3
 12165 0597 01       		.uleb128 0x1
 12166 0598 51       		.byte	0x51
 12167 0599 9F       		.byte	0x9f
 12168 059a 00000000 		.4byte	0
 12169 059e 00000000 		.4byte	0
ARM GAS  e:\temp\ccP12Hvn.s 			page 254


 12170              	.LLST31:
 12171 05a2 00000000 		.4byte	.LVL71
 12172 05a6 0B000000 		.4byte	.LVL72-1
 12173 05aa 0100     		.2byte	0x1
 12174 05ac 52       		.byte	0x52
 12175 05ad 0B000000 		.4byte	.LVL72-1
 12176 05b1 84000000 		.4byte	.LVL79
 12177 05b5 0100     		.2byte	0x1
 12178 05b7 56       		.byte	0x56
 12179 05b8 84000000 		.4byte	.LVL79
 12180 05bc 90000000 		.4byte	.LFE32
 12181 05c0 0400     		.2byte	0x4
 12182 05c2 F3       		.byte	0xf3
 12183 05c3 01       		.uleb128 0x1
 12184 05c4 52       		.byte	0x52
 12185 05c5 9F       		.byte	0x9f
 12186 05c6 00000000 		.4byte	0
 12187 05ca 00000000 		.4byte	0
 12188              	.LLST32:
 12189 05ce 00000000 		.4byte	.LVL80
 12190 05d2 06000000 		.4byte	.LVL82
 12191 05d6 0100     		.2byte	0x1
 12192 05d8 50       		.byte	0x50
 12193 05d9 06000000 		.4byte	.LVL82
 12194 05dd 2C000000 		.4byte	.LFE47
 12195 05e1 0400     		.2byte	0x4
 12196 05e3 F3       		.byte	0xf3
 12197 05e4 01       		.uleb128 0x1
 12198 05e5 50       		.byte	0x50
 12199 05e6 9F       		.byte	0x9f
 12200 05e7 00000000 		.4byte	0
 12201 05eb 00000000 		.4byte	0
 12202              	.LLST33:
 12203 05ef 00000000 		.4byte	.LVL80
 12204 05f3 09000000 		.4byte	.LVL83-1
 12205 05f7 0100     		.2byte	0x1
 12206 05f9 51       		.byte	0x51
 12207 05fa 09000000 		.4byte	.LVL83-1
 12208 05fe 2C000000 		.4byte	.LFE47
 12209 0602 0400     		.2byte	0x4
 12210 0604 F3       		.byte	0xf3
 12211 0605 01       		.uleb128 0x1
 12212 0606 51       		.byte	0x51
 12213 0607 9F       		.byte	0x9f
 12214 0608 00000000 		.4byte	0
 12215 060c 00000000 		.4byte	0
 12216              	.LLST34:
 12217 0610 0A000000 		.4byte	.LVL83
 12218 0614 0E000000 		.4byte	.LVL84
 12219 0618 0200     		.2byte	0x2
 12220 061a 30       		.byte	0x30
 12221 061b 9F       		.byte	0x9f
 12222 061c 0E000000 		.4byte	.LVL84
 12223 0620 1A000000 		.4byte	.LVL85
 12224 0624 0100     		.2byte	0x1
 12225 0626 53       		.byte	0x53
 12226 0627 1C000000 		.4byte	.LVL86
ARM GAS  e:\temp\ccP12Hvn.s 			page 255


 12227 062b 2C000000 		.4byte	.LFE47
 12228 062f 0100     		.2byte	0x1
 12229 0631 53       		.byte	0x53
 12230 0632 00000000 		.4byte	0
 12231 0636 00000000 		.4byte	0
 12232              	.LLST35:
 12233 063a 0A000000 		.4byte	.LVL83
 12234 063e 22000000 		.4byte	.LVL87
 12235 0642 0100     		.2byte	0x1
 12236 0644 50       		.byte	0x50
 12237 0645 24000000 		.4byte	.LVL88
 12238 0649 26000000 		.4byte	.LVL89
 12239 064d 0100     		.2byte	0x1
 12240 064f 50       		.byte	0x50
 12241 0650 00000000 		.4byte	0
 12242 0654 00000000 		.4byte	0
 12243              	.LLST36:
 12244 0658 04000000 		.4byte	.LVL81
 12245 065c 0E000000 		.4byte	.LVL84
 12246 0660 0200     		.2byte	0x2
 12247 0662 30       		.byte	0x30
 12248 0663 9F       		.byte	0x9f
 12249 0664 0E000000 		.4byte	.LVL84
 12250 0668 1A000000 		.4byte	.LVL85
 12251 066c 0B00     		.2byte	0xb
 12252 066e 73       		.byte	0x73
 12253 066f 00       		.sleb128 0
 12254 0670 33       		.byte	0x33
 12255 0671 24       		.byte	0x24
 12256 0672 03       		.byte	0x3
 12257 0673 00000000 		.4byte	dfp_compatibility_mode_table
 12258 0677 22       		.byte	0x22
 12259 0678 9F       		.byte	0x9f
 12260 0679 1A000000 		.4byte	.LVL85
 12261 067d 1C000000 		.4byte	.LVL86
 12262 0681 0B00     		.2byte	0xb
 12263 0683 73       		.byte	0x73
 12264 0684 7F       		.sleb128 -1
 12265 0685 33       		.byte	0x33
 12266 0686 24       		.byte	0x24
 12267 0687 03       		.byte	0x3
 12268 0688 00000000 		.4byte	dfp_compatibility_mode_table
 12269 068c 22       		.byte	0x22
 12270 068d 9F       		.byte	0x9f
 12271 068e 24000000 		.4byte	.LVL88
 12272 0692 26000000 		.4byte	.LVL89
 12273 0696 0B00     		.2byte	0xb
 12274 0698 73       		.byte	0x73
 12275 0699 00       		.sleb128 0
 12276 069a 33       		.byte	0x33
 12277 069b 24       		.byte	0x24
 12278 069c 03       		.byte	0x3
 12279 069d 00000000 		.4byte	dfp_compatibility_mode_table
 12280 06a1 22       		.byte	0x22
 12281 06a2 9F       		.byte	0x9f
 12282 06a3 00000000 		.4byte	0
 12283 06a7 00000000 		.4byte	0
ARM GAS  e:\temp\ccP12Hvn.s 			page 256


 12284              	.LLST37:
 12285 06ab 00000000 		.4byte	.LVL90
 12286 06af 28000000 		.4byte	.LVL96
 12287 06b3 0100     		.2byte	0x1
 12288 06b5 50       		.byte	0x50
 12289 06b6 28000000 		.4byte	.LVL96
 12290 06ba 38000000 		.4byte	.LVL98
 12291 06be 0400     		.2byte	0x4
 12292 06c0 F3       		.byte	0xf3
 12293 06c1 01       		.uleb128 0x1
 12294 06c2 50       		.byte	0x50
 12295 06c3 9F       		.byte	0x9f
 12296 06c4 38000000 		.4byte	.LVL98
 12297 06c8 4E000000 		.4byte	.LVL101
 12298 06cc 0100     		.2byte	0x1
 12299 06ce 50       		.byte	0x50
 12300 06cf 4E000000 		.4byte	.LVL101
 12301 06d3 50000000 		.4byte	.LVL102
 12302 06d7 0400     		.2byte	0x4
 12303 06d9 F3       		.byte	0xf3
 12304 06da 01       		.uleb128 0x1
 12305 06db 50       		.byte	0x50
 12306 06dc 9F       		.byte	0x9f
 12307 06dd 50000000 		.4byte	.LVL102
 12308 06e1 52000000 		.4byte	.LVL103
 12309 06e5 0100     		.2byte	0x1
 12310 06e7 50       		.byte	0x50
 12311 06e8 52000000 		.4byte	.LVL103
 12312 06ec 60000000 		.4byte	.LFE53
 12313 06f0 0400     		.2byte	0x4
 12314 06f2 F3       		.byte	0xf3
 12315 06f3 01       		.uleb128 0x1
 12316 06f4 50       		.byte	0x50
 12317 06f5 9F       		.byte	0x9f
 12318 06f6 00000000 		.4byte	0
 12319 06fa 00000000 		.4byte	0
 12320              	.LLST38:
 12321 06fe 02000000 		.4byte	.LVL91
 12322 0702 52000000 		.4byte	.LVL103
 12323 0706 0200     		.2byte	0x2
 12324 0708 30       		.byte	0x30
 12325 0709 9F       		.byte	0x9f
 12326 070a 52000000 		.4byte	.LVL103
 12327 070e 60000000 		.4byte	.LFE53
 12328 0712 0100     		.2byte	0x1
 12329 0714 50       		.byte	0x50
 12330 0715 00000000 		.4byte	0
 12331 0719 00000000 		.4byte	0
 12332              	.LLST39:
 12333 071d 06000000 		.4byte	.LVL92
 12334 0721 0C000000 		.4byte	.LVL93
 12335 0725 0200     		.2byte	0x2
 12336 0727 30       		.byte	0x30
 12337 0728 9F       		.byte	0x9f
 12338 0729 0C000000 		.4byte	.LVL93
 12339 072d 32000000 		.4byte	.LVL97
 12340 0731 0100     		.2byte	0x1
ARM GAS  e:\temp\ccP12Hvn.s 			page 257


 12341 0733 52       		.byte	0x52
 12342 0734 38000000 		.4byte	.LVL98
 12343 0738 3A000000 		.4byte	.LVL99
 12344 073c 0100     		.2byte	0x1
 12345 073e 52       		.byte	0x52
 12346 073f 3C000000 		.4byte	.LVL100
 12347 0743 52000000 		.4byte	.LVL103
 12348 0747 0100     		.2byte	0x1
 12349 0749 52       		.byte	0x52
 12350 074a 00000000 		.4byte	0
 12351 074e 00000000 		.4byte	0
 12352              	.LLST40:
 12353 0752 02000000 		.4byte	.LVL91
 12354 0756 0C000000 		.4byte	.LVL93
 12355 075a 0200     		.2byte	0x2
 12356 075c 30       		.byte	0x30
 12357 075d 9F       		.byte	0x9f
 12358 075e 0C000000 		.4byte	.LVL93
 12359 0762 14000000 		.4byte	.LVL94
 12360 0766 0100     		.2byte	0x1
 12361 0768 51       		.byte	0x51
 12362 0769 16000000 		.4byte	.LVL95
 12363 076d 60000000 		.4byte	.LFE53
 12364 0771 0100     		.2byte	0x1
 12365 0773 51       		.byte	0x51
 12366 0774 00000000 		.4byte	0
 12367 0778 00000000 		.4byte	0
 12368              	.LLST41:
 12369 077c 06000000 		.4byte	.LVL92
 12370 0780 52000000 		.4byte	.LVL104
 12371 0784 0100     		.2byte	0x1
 12372 0786 55       		.byte	0x55
 12373 0787 00000000 		.4byte	0
 12374 078b 00000000 		.4byte	0
 12375              	.LLST42:
 12376 078f 00000000 		.4byte	.LVL105
 12377 0793 09000000 		.4byte	.LVL106-1
 12378 0797 0100     		.2byte	0x1
 12379 0799 50       		.byte	0x50
 12380 079a 09000000 		.4byte	.LVL106-1
 12381 079e 0C000000 		.4byte	.LFE56
 12382 07a2 0400     		.2byte	0x4
 12383 07a4 F3       		.byte	0xf3
 12384 07a5 01       		.uleb128 0x1
 12385 07a6 50       		.byte	0x50
 12386 07a7 9F       		.byte	0x9f
 12387 07a8 00000000 		.4byte	0
 12388 07ac 00000000 		.4byte	0
 12389              	.LLST43:
 12390 07b0 00000000 		.4byte	.LVL107
 12391 07b4 04000000 		.4byte	.LVL108
 12392 07b8 0100     		.2byte	0x1
 12393 07ba 50       		.byte	0x50
 12394 07bb 04000000 		.4byte	.LVL108
 12395 07bf 14000000 		.4byte	.LFE58
 12396 07c3 0400     		.2byte	0x4
 12397 07c5 F3       		.byte	0xf3
ARM GAS  e:\temp\ccP12Hvn.s 			page 258


 12398 07c6 01       		.uleb128 0x1
 12399 07c7 50       		.byte	0x50
 12400 07c8 9F       		.byte	0x9f
 12401 07c9 00000000 		.4byte	0
 12402 07cd 00000000 		.4byte	0
 12403              	.LLST44:
 12404 07d1 00000000 		.4byte	.LVL109
 12405 07d5 3E000000 		.4byte	.LVL118
 12406 07d9 0100     		.2byte	0x1
 12407 07db 50       		.byte	0x50
 12408 07dc 3E000000 		.4byte	.LVL118
 12409 07e0 50000000 		.4byte	.LFE61
 12410 07e4 0400     		.2byte	0x4
 12411 07e6 F3       		.byte	0xf3
 12412 07e7 01       		.uleb128 0x1
 12413 07e8 50       		.byte	0x50
 12414 07e9 9F       		.byte	0x9f
 12415 07ea 00000000 		.4byte	0
 12416 07ee 00000000 		.4byte	0
 12417              	.LLST45:
 12418 07f2 00000000 		.4byte	.LVL109
 12419 07f6 06000000 		.4byte	.LVL111
 12420 07fa 0100     		.2byte	0x1
 12421 07fc 51       		.byte	0x51
 12422 07fd 06000000 		.4byte	.LVL111
 12423 0801 50000000 		.4byte	.LFE61
 12424 0805 0400     		.2byte	0x4
 12425 0807 F3       		.byte	0xf3
 12426 0808 01       		.uleb128 0x1
 12427 0809 51       		.byte	0x51
 12428 080a 9F       		.byte	0x9f
 12429 080b 00000000 		.4byte	0
 12430 080f 00000000 		.4byte	0
 12431              	.LLST46:
 12432 0813 00000000 		.4byte	.LVL109
 12433 0817 04000000 		.4byte	.LVL110
 12434 081b 0100     		.2byte	0x1
 12435 081d 52       		.byte	0x52
 12436 081e 04000000 		.4byte	.LVL110
 12437 0822 50000000 		.4byte	.LFE61
 12438 0826 0400     		.2byte	0x4
 12439 0828 F3       		.byte	0xf3
 12440 0829 01       		.uleb128 0x1
 12441 082a 52       		.byte	0x52
 12442 082b 9F       		.byte	0x9f
 12443 082c 00000000 		.4byte	0
 12444 0830 00000000 		.4byte	0
 12445              	.LLST47:
 12446 0834 00000000 		.4byte	.LVL109
 12447 0838 0A000000 		.4byte	.LVL112
 12448 083c 0100     		.2byte	0x1
 12449 083e 53       		.byte	0x53
 12450 083f 0A000000 		.4byte	.LVL112
 12451 0843 50000000 		.4byte	.LFE61
 12452 0847 0400     		.2byte	0x4
 12453 0849 F3       		.byte	0xf3
 12454 084a 01       		.uleb128 0x1
ARM GAS  e:\temp\ccP12Hvn.s 			page 259


 12455 084b 53       		.byte	0x53
 12456 084c 9F       		.byte	0x9f
 12457 084d 00000000 		.4byte	0
 12458 0851 00000000 		.4byte	0
 12459              	.LLST48:
 12460 0855 1A000000 		.4byte	.LVL114
 12461 0859 1C000000 		.4byte	.LVL115
 12462 085d 0100     		.2byte	0x1
 12463 085f 53       		.byte	0x53
 12464 0860 24000000 		.4byte	.LVL116
 12465 0864 28000000 		.4byte	.LVL117
 12466 0868 0100     		.2byte	0x1
 12467 086a 53       		.byte	0x53
 12468 086b 00000000 		.4byte	0
 12469 086f 00000000 		.4byte	0
 12470              	.LLST49:
 12471 0873 00000000 		.4byte	.LVL119
 12472 0877 12000000 		.4byte	.LVL120
 12473 087b 0100     		.2byte	0x1
 12474 087d 50       		.byte	0x50
 12475 087e 12000000 		.4byte	.LVL120
 12476 0882 44000000 		.4byte	.LFE39
 12477 0886 0400     		.2byte	0x4
 12478 0888 F3       		.byte	0xf3
 12479 0889 01       		.uleb128 0x1
 12480 088a 50       		.byte	0x50
 12481 088b 9F       		.byte	0x9f
 12482 088c 00000000 		.4byte	0
 12483 0890 00000000 		.4byte	0
 12484              	.LLST50:
 12485 0894 00000000 		.4byte	.LVL119
 12486 0898 2A000000 		.4byte	.LVL121
 12487 089c 0100     		.2byte	0x1
 12488 089e 51       		.byte	0x51
 12489 089f 2A000000 		.4byte	.LVL121
 12490 08a3 2F000000 		.4byte	.LVL122-1
 12491 08a7 0200     		.2byte	0x2
 12492 08a9 7D       		.byte	0x7d
 12493 08aa 00       		.sleb128 0
 12494 08ab 2F000000 		.4byte	.LVL122-1
 12495 08af 44000000 		.4byte	.LFE39
 12496 08b3 0400     		.2byte	0x4
 12497 08b5 F3       		.byte	0xf3
 12498 08b6 01       		.uleb128 0x1
 12499 08b7 51       		.byte	0x51
 12500 08b8 9F       		.byte	0x9f
 12501 08b9 00000000 		.4byte	0
 12502 08bd 00000000 		.4byte	0
 12503              	.LLST51:
 12504 08c1 00000000 		.4byte	.LVL124
 12505 08c5 23000000 		.4byte	.LVL128-1
 12506 08c9 0100     		.2byte	0x1
 12507 08cb 50       		.byte	0x50
 12508 08cc 23000000 		.4byte	.LVL128-1
 12509 08d0 E4000000 		.4byte	.LFE41
 12510 08d4 0400     		.2byte	0x4
 12511 08d6 F3       		.byte	0xf3
ARM GAS  e:\temp\ccP12Hvn.s 			page 260


 12512 08d7 01       		.uleb128 0x1
 12513 08d8 50       		.byte	0x50
 12514 08d9 9F       		.byte	0x9f
 12515 08da 00000000 		.4byte	0
 12516 08de 00000000 		.4byte	0
 12517              	.LLST52:
 12518 08e2 00000000 		.4byte	.LVL124
 12519 08e6 20000000 		.4byte	.LVL127
 12520 08ea 0100     		.2byte	0x1
 12521 08ec 51       		.byte	0x51
 12522 08ed 20000000 		.4byte	.LVL127
 12523 08f1 E4000000 		.4byte	.LFE41
 12524 08f5 0400     		.2byte	0x4
 12525 08f7 F3       		.byte	0xf3
 12526 08f8 01       		.uleb128 0x1
 12527 08f9 51       		.byte	0x51
 12528 08fa 9F       		.byte	0x9f
 12529 08fb 00000000 		.4byte	0
 12530 08ff 00000000 		.4byte	0
 12531              	.LLST53:
 12532 0903 6E000000 		.4byte	.LVL133
 12533 0907 9C000000 		.4byte	.LVL134
 12534 090b 0100     		.2byte	0x1
 12535 090d 50       		.byte	0x50
 12536 090e 00000000 		.4byte	0
 12537 0912 00000000 		.4byte	0
 12538              	.LLST54:
 12539 0916 2A000000 		.4byte	.LVL129
 12540 091a 2E000000 		.4byte	.LVL130
 12541 091e 0200     		.2byte	0x2
 12542 0920 30       		.byte	0x30
 12543 0921 9F       		.byte	0x9f
 12544 0922 2E000000 		.4byte	.LVL130
 12545 0926 CC000000 		.4byte	.LVL137
 12546 092a 0100     		.2byte	0x1
 12547 092c 56       		.byte	0x56
 12548 092d CE000000 		.4byte	.LVL138
 12549 0931 DA000000 		.4byte	.LVL140
 12550 0935 0100     		.2byte	0x1
 12551 0937 56       		.byte	0x56
 12552 0938 00000000 		.4byte	0
 12553 093c 00000000 		.4byte	0
 12554              	.LLST55:
 12555 0940 58000000 		.4byte	.LVL131
 12556 0944 6A000000 		.4byte	.LVL132
 12557 0948 0100     		.2byte	0x1
 12558 094a 50       		.byte	0x50
 12559 094b 9C000000 		.4byte	.LVL134
 12560 094f A4000000 		.4byte	.LVL135
 12561 0953 0100     		.2byte	0x1
 12562 0955 50       		.byte	0x50
 12563 0956 00000000 		.4byte	0
 12564 095a 00000000 		.4byte	0
 12565              	.LLST56:
 12566 095e 1C000000 		.4byte	.LVL125
 12567 0962 DA000000 		.4byte	.LVL139
 12568 0966 0100     		.2byte	0x1
ARM GAS  e:\temp\ccP12Hvn.s 			page 261


 12569 0968 54       		.byte	0x54
 12570 0969 00000000 		.4byte	0
 12571 096d 00000000 		.4byte	0
 12572              	.LLST57:
 12573 0971 1E000000 		.4byte	.LVL126
 12574 0975 23000000 		.4byte	.LVL128-1
 12575 0979 0100     		.2byte	0x1
 12576 097b 53       		.byte	0x53
 12577 097c 23000000 		.4byte	.LVL128-1
 12578 0980 E4000000 		.4byte	.LFE41
 12579 0984 0200     		.2byte	0x2
 12580 0986 91       		.byte	0x91
 12581 0987 64       		.sleb128 -28
 12582 0988 00000000 		.4byte	0
 12583 098c 00000000 		.4byte	0
 12584              	.LLST58:
 12585 0990 00000000 		.4byte	.LVL141
 12586 0994 19000000 		.4byte	.LVL142-1
 12587 0998 0100     		.2byte	0x1
 12588 099a 50       		.byte	0x50
 12589 099b 19000000 		.4byte	.LVL142-1
 12590 099f 34000000 		.4byte	.LFE43
 12591 09a3 0400     		.2byte	0x4
 12592 09a5 F3       		.byte	0xf3
 12593 09a6 01       		.uleb128 0x1
 12594 09a7 50       		.byte	0x50
 12595 09a8 9F       		.byte	0x9f
 12596 09a9 00000000 		.4byte	0
 12597 09ad 00000000 		.4byte	0
 12598              	.LLST59:
 12599 09b1 00000000 		.4byte	.LVL143
 12600 09b5 25000000 		.4byte	.LVL147-1
 12601 09b9 0100     		.2byte	0x1
 12602 09bb 50       		.byte	0x50
 12603 09bc 25000000 		.4byte	.LVL147-1
 12604 09c0 0C010000 		.4byte	.LVL163
 12605 09c4 0400     		.2byte	0x4
 12606 09c6 F3       		.byte	0xf3
 12607 09c7 01       		.uleb128 0x1
 12608 09c8 50       		.byte	0x50
 12609 09c9 9F       		.byte	0x9f
 12610 09ca 0C010000 		.4byte	.LVL163
 12611 09ce 12010000 		.4byte	.LVL164
 12612 09d2 0100     		.2byte	0x1
 12613 09d4 50       		.byte	0x50
 12614 09d5 12010000 		.4byte	.LVL164
 12615 09d9 50010000 		.4byte	.LFE42
 12616 09dd 0400     		.2byte	0x4
 12617 09df F3       		.byte	0xf3
 12618 09e0 01       		.uleb128 0x1
 12619 09e1 50       		.byte	0x50
 12620 09e2 9F       		.byte	0x9f
 12621 09e3 00000000 		.4byte	0
 12622 09e7 00000000 		.4byte	0
 12623              	.LLST60:
 12624 09eb 36000000 		.4byte	.LVL148
 12625 09ef 3A000000 		.4byte	.LVL149
ARM GAS  e:\temp\ccP12Hvn.s 			page 262


 12626 09f3 0200     		.2byte	0x2
 12627 09f5 30       		.byte	0x30
 12628 09f6 9F       		.byte	0x9f
 12629 09f7 3A000000 		.4byte	.LVL149
 12630 09fb EA000000 		.4byte	.LVL160
 12631 09ff 0100     		.2byte	0x1
 12632 0a01 55       		.byte	0x55
 12633 0a02 EC000000 		.4byte	.LVL161
 12634 0a06 0C010000 		.4byte	.LVL163
 12635 0a0a 0100     		.2byte	0x1
 12636 0a0c 55       		.byte	0x55
 12637 0a0d 00000000 		.4byte	0
 12638 0a11 00000000 		.4byte	0
 12639              	.LLST61:
 12640 0a15 26000000 		.4byte	.LVL147
 12641 0a19 3A000000 		.4byte	.LVL149
 12642 0a1d 0100     		.2byte	0x1
 12643 0a1f 50       		.byte	0x50
 12644 0a20 00000000 		.4byte	0
 12645 0a24 00000000 		.4byte	0
 12646              	.LLST62:
 12647 0a28 BE000000 		.4byte	.LVL158
 12648 0a2c E8000000 		.4byte	.LVL159
 12649 0a30 0100     		.2byte	0x1
 12650 0a32 50       		.byte	0x50
 12651 0a33 00000000 		.4byte	0
 12652 0a37 00000000 		.4byte	0
 12653              	.LLST63:
 12654 0a3b 54000000 		.4byte	.LVL151
 12655 0a3f 6C000000 		.4byte	.LVL152
 12656 0a43 0100     		.2byte	0x1
 12657 0a45 50       		.byte	0x50
 12658 0a46 6C000000 		.4byte	.LVL152
 12659 0a4a 82000000 		.4byte	.LVL154
 12660 0a4e 0100     		.2byte	0x1
 12661 0a50 59       		.byte	0x59
 12662 0a51 82000000 		.4byte	.LVL154
 12663 0a55 84000000 		.4byte	.LVL155
 12664 0a59 0100     		.2byte	0x1
 12665 0a5b 53       		.byte	0x53
 12666 0a5c 84000000 		.4byte	.LVL155
 12667 0a60 9C000000 		.4byte	.LVL156
 12668 0a64 0100     		.2byte	0x1
 12669 0a66 59       		.byte	0x59
 12670 0a67 9C000000 		.4byte	.LVL156
 12671 0a6b A3000000 		.4byte	.LVL157-1
 12672 0a6f 0100     		.2byte	0x1
 12673 0a71 52       		.byte	0x52
 12674 0a72 A3000000 		.4byte	.LVL157-1
 12675 0a76 EC000000 		.4byte	.LVL161
 12676 0a7a 0100     		.2byte	0x1
 12677 0a7c 59       		.byte	0x59
 12678 0a7d 00000000 		.4byte	0
 12679 0a81 00000000 		.4byte	0
 12680              	.LLST64:
 12681 0a85 18000000 		.4byte	.LVL144
 12682 0a89 46010000 		.4byte	.LVL167
ARM GAS  e:\temp\ccP12Hvn.s 			page 263


 12683 0a8d 0100     		.2byte	0x1
 12684 0a8f 57       		.byte	0x57
 12685 0a90 00000000 		.4byte	0
 12686 0a94 00000000 		.4byte	0
 12687              	.LLST65:
 12688 0a98 1A000000 		.4byte	.LVL145
 12689 0a9c 1C000000 		.4byte	.LVL146
 12690 0aa0 0100     		.2byte	0x1
 12691 0aa2 53       		.byte	0x53
 12692 0aa3 1C000000 		.4byte	.LVL146
 12693 0aa7 50010000 		.4byte	.LFE42
 12694 0aab 0200     		.2byte	0x2
 12695 0aad 91       		.byte	0x91
 12696 0aae 64       		.sleb128 -28
 12697 0aaf 00000000 		.4byte	0
 12698 0ab3 00000000 		.4byte	0
 12699              	.LLST66:
 12700 0ab7 00000000 		.4byte	.LVL168
 12701 0abb 08000000 		.4byte	.LVL169
 12702 0abf 0100     		.2byte	0x1
 12703 0ac1 50       		.byte	0x50
 12704 0ac2 08000000 		.4byte	.LVL169
 12705 0ac6 1E000000 		.4byte	.LFE38
 12706 0aca 0400     		.2byte	0x4
 12707 0acc F3       		.byte	0xf3
 12708 0acd 01       		.uleb128 0x1
 12709 0ace 50       		.byte	0x50
 12710 0acf 9F       		.byte	0x9f
 12711 0ad0 00000000 		.4byte	0
 12712 0ad4 00000000 		.4byte	0
 12713              	.LLST67:
 12714 0ad8 00000000 		.4byte	.LVL168
 12715 0adc 0F000000 		.4byte	.LVL170-1
 12716 0ae0 0100     		.2byte	0x1
 12717 0ae2 51       		.byte	0x51
 12718 0ae3 0F000000 		.4byte	.LVL170-1
 12719 0ae7 1E000000 		.4byte	.LFE38
 12720 0aeb 0400     		.2byte	0x4
 12721 0aed F3       		.byte	0xf3
 12722 0aee 01       		.uleb128 0x1
 12723 0aef 51       		.byte	0x51
 12724 0af0 9F       		.byte	0x9f
 12725 0af1 00000000 		.4byte	0
 12726 0af5 00000000 		.4byte	0
 12727              	.LLST68:
 12728 0af9 00000000 		.4byte	.LVL168
 12729 0afd 0F000000 		.4byte	.LVL170-1
 12730 0b01 0100     		.2byte	0x1
 12731 0b03 52       		.byte	0x52
 12732 0b04 0F000000 		.4byte	.LVL170-1
 12733 0b08 1E000000 		.4byte	.LFE38
 12734 0b0c 0400     		.2byte	0x4
 12735 0b0e F3       		.byte	0xf3
 12736 0b0f 01       		.uleb128 0x1
 12737 0b10 52       		.byte	0x52
 12738 0b11 9F       		.byte	0x9f
 12739 0b12 00000000 		.4byte	0
ARM GAS  e:\temp\ccP12Hvn.s 			page 264


 12740 0b16 00000000 		.4byte	0
 12741              	.LLST69:
 12742 0b1a 00000000 		.4byte	.LVL168
 12743 0b1e 0F000000 		.4byte	.LVL170-1
 12744 0b22 0100     		.2byte	0x1
 12745 0b24 53       		.byte	0x53
 12746 0b25 0F000000 		.4byte	.LVL170-1
 12747 0b29 1E000000 		.4byte	.LFE38
 12748 0b2d 0400     		.2byte	0x4
 12749 0b2f F3       		.byte	0xf3
 12750 0b30 01       		.uleb128 0x1
 12751 0b31 53       		.byte	0x53
 12752 0b32 9F       		.byte	0x9f
 12753 0b33 00000000 		.4byte	0
 12754 0b37 00000000 		.4byte	0
 12755              	.LLST70:
 12756 0b3b 00000000 		.4byte	.LVL172
 12757 0b3f 14000000 		.4byte	.LVL173
 12758 0b43 0100     		.2byte	0x1
 12759 0b45 50       		.byte	0x50
 12760 0b46 14000000 		.4byte	.LVL173
 12761 0b4a 9C000000 		.4byte	.LFE40
 12762 0b4e 0400     		.2byte	0x4
 12763 0b50 F3       		.byte	0xf3
 12764 0b51 01       		.uleb128 0x1
 12765 0b52 50       		.byte	0x50
 12766 0b53 9F       		.byte	0x9f
 12767 0b54 00000000 		.4byte	0
 12768 0b58 00000000 		.4byte	0
 12769              	.LLST71:
 12770 0b5c 14000000 		.4byte	.LVL173
 12771 0b60 46000000 		.4byte	.LVL177
 12772 0b64 0100     		.2byte	0x1
 12773 0b66 57       		.byte	0x57
 12774 0b67 5C000000 		.4byte	.LVL178
 12775 0b6b 96000000 		.4byte	.LVL181
 12776 0b6f 0100     		.2byte	0x1
 12777 0b71 57       		.byte	0x57
 12778 0b72 00000000 		.4byte	0
 12779 0b76 00000000 		.4byte	0
 12780              	.LLST72:
 12781 0b7a 00000000 		.4byte	.LVL182
 12782 0b7e 08000000 		.4byte	.LVL183
 12783 0b82 0100     		.2byte	0x1
 12784 0b84 50       		.byte	0x50
 12785 0b85 08000000 		.4byte	.LVL183
 12786 0b89 18000000 		.4byte	.LFE62
 12787 0b8d 0400     		.2byte	0x4
 12788 0b8f F3       		.byte	0xf3
 12789 0b90 01       		.uleb128 0x1
 12790 0b91 50       		.byte	0x50
 12791 0b92 9F       		.byte	0x9f
 12792 0b93 00000000 		.4byte	0
 12793 0b97 00000000 		.4byte	0
 12794              	.LLST73:
 12795 0b9b 00000000 		.4byte	.LVL182
 12796 0b9f 0A000000 		.4byte	.LVL184
ARM GAS  e:\temp\ccP12Hvn.s 			page 265


 12797 0ba3 0100     		.2byte	0x1
 12798 0ba5 51       		.byte	0x51
 12799 0ba6 0A000000 		.4byte	.LVL184
 12800 0baa 18000000 		.4byte	.LFE62
 12801 0bae 0400     		.2byte	0x4
 12802 0bb0 F3       		.byte	0xf3
 12803 0bb1 01       		.uleb128 0x1
 12804 0bb2 51       		.byte	0x51
 12805 0bb3 9F       		.byte	0x9f
 12806 0bb4 00000000 		.4byte	0
 12807 0bb8 00000000 		.4byte	0
 12808              	.LLST74:
 12809 0bbc 00000000 		.4byte	.LVL185
 12810 0bc0 19000000 		.4byte	.LVL187-1
 12811 0bc4 0100     		.2byte	0x1
 12812 0bc6 50       		.byte	0x50
 12813 0bc7 19000000 		.4byte	.LVL187-1
 12814 0bcb 6C000000 		.4byte	.LVL197
 12815 0bcf 0400     		.2byte	0x4
 12816 0bd1 F3       		.byte	0xf3
 12817 0bd2 01       		.uleb128 0x1
 12818 0bd3 50       		.byte	0x50
 12819 0bd4 9F       		.byte	0x9f
 12820 0bd5 6C000000 		.4byte	.LVL197
 12821 0bd9 6E000000 		.4byte	.LVL198
 12822 0bdd 0100     		.2byte	0x1
 12823 0bdf 50       		.byte	0x50
 12824 0be0 6E000000 		.4byte	.LVL198
 12825 0be4 74000000 		.4byte	.LFE33
 12826 0be8 0400     		.2byte	0x4
 12827 0bea F3       		.byte	0xf3
 12828 0beb 01       		.uleb128 0x1
 12829 0bec 50       		.byte	0x50
 12830 0bed 9F       		.byte	0x9f
 12831 0bee 00000000 		.4byte	0
 12832 0bf2 00000000 		.4byte	0
 12833              	.LLST75:
 12834 0bf6 04000000 		.4byte	.LVL186
 12835 0bfa 20000000 		.4byte	.LVL188
 12836 0bfe 0200     		.2byte	0x2
 12837 0c00 31       		.byte	0x31
 12838 0c01 9F       		.byte	0x9f
 12839 0c02 20000000 		.4byte	.LVL188
 12840 0c06 4A000000 		.4byte	.LVL190
 12841 0c0a 0100     		.2byte	0x1
 12842 0c0c 57       		.byte	0x57
 12843 0c0d 4C000000 		.4byte	.LVL191
 12844 0c11 54000000 		.4byte	.LVL195
 12845 0c15 0100     		.2byte	0x1
 12846 0c17 57       		.byte	0x57
 12847 0c18 54000000 		.4byte	.LVL195
 12848 0c1c 58000000 		.4byte	.LVL196
 12849 0c20 0200     		.2byte	0x2
 12850 0c22 31       		.byte	0x31
 12851 0c23 9F       		.byte	0x9f
 12852 0c24 58000000 		.4byte	.LVL196
 12853 0c28 6C000000 		.4byte	.LVL197
ARM GAS  e:\temp\ccP12Hvn.s 			page 266


 12854 0c2c 0100     		.2byte	0x1
 12855 0c2e 57       		.byte	0x57
 12856 0c2f 6C000000 		.4byte	.LVL197
 12857 0c33 6E000000 		.4byte	.LVL198
 12858 0c37 0200     		.2byte	0x2
 12859 0c39 31       		.byte	0x31
 12860 0c3a 9F       		.byte	0x9f
 12861 0c3b 00000000 		.4byte	0
 12862 0c3f 00000000 		.4byte	0
 12863              	.LLST76:
 12864 0c43 20000000 		.4byte	.LVL188
 12865 0c47 50000000 		.4byte	.LVL193
 12866 0c4b 0100     		.2byte	0x1
 12867 0c4d 55       		.byte	0x55
 12868 0c4e 52000000 		.4byte	.LVL194
 12869 0c52 54000000 		.4byte	.LVL195
 12870 0c56 0100     		.2byte	0x1
 12871 0c58 55       		.byte	0x55
 12872 0c59 58000000 		.4byte	.LVL196
 12873 0c5d 6C000000 		.4byte	.LVL197
 12874 0c61 0100     		.2byte	0x1
 12875 0c63 55       		.byte	0x55
 12876 0c64 00000000 		.4byte	0
 12877 0c68 00000000 		.4byte	0
 12878              	.LLST77:
 12879 0c6c 00000000 		.4byte	.LVL199
 12880 0c70 1A000000 		.4byte	.LVL202
 12881 0c74 0100     		.2byte	0x1
 12882 0c76 50       		.byte	0x50
 12883 0c77 1A000000 		.4byte	.LVL202
 12884 0c7b A4000000 		.4byte	.LFE46
 12885 0c7f 0400     		.2byte	0x4
 12886 0c81 F3       		.byte	0xf3
 12887 0c82 01       		.uleb128 0x1
 12888 0c83 50       		.byte	0x50
 12889 0c84 9F       		.byte	0x9f
 12890 0c85 00000000 		.4byte	0
 12891 0c89 00000000 		.4byte	0
 12892              	.LLST78:
 12893 0c8d 12000000 		.4byte	.LVL201
 12894 0c91 1A000000 		.4byte	.LVL202
 12895 0c95 0200     		.2byte	0x2
 12896 0c97 30       		.byte	0x30
 12897 0c98 9F       		.byte	0x9f
 12898 0c99 1A000000 		.4byte	.LVL202
 12899 0c9d 86000000 		.4byte	.LVL214
 12900 0ca1 0100     		.2byte	0x1
 12901 0ca3 56       		.byte	0x56
 12902 0ca4 88000000 		.4byte	.LVL215
 12903 0ca8 9C000000 		.4byte	.LVL217
 12904 0cac 0100     		.2byte	0x1
 12905 0cae 56       		.byte	0x56
 12906 0caf 00000000 		.4byte	0
 12907 0cb3 00000000 		.4byte	0
 12908              	.LLST79:
 12909 0cb7 36000000 		.4byte	.LVL205
 12910 0cbb 3C000000 		.4byte	.LVL206
ARM GAS  e:\temp\ccP12Hvn.s 			page 267


 12911 0cbf 0100     		.2byte	0x1
 12912 0cc1 53       		.byte	0x53
 12913 0cc2 3C000000 		.4byte	.LVL206
 12914 0cc6 42000000 		.4byte	.LVL207
 12915 0cca 0200     		.2byte	0x2
 12916 0ccc 70       		.byte	0x70
 12917 0ccd 00       		.sleb128 0
 12918 0cce 00000000 		.4byte	0
 12919 0cd2 00000000 		.4byte	0
 12920              	.LLST80:
 12921 0cd6 06000000 		.4byte	.LVL200
 12922 0cda 1A000000 		.4byte	.LVL202
 12923 0cde 0200     		.2byte	0x2
 12924 0ce0 39       		.byte	0x39
 12925 0ce1 9F       		.byte	0x9f
 12926 0ce2 1A000000 		.4byte	.LVL202
 12927 0ce6 52000000 		.4byte	.LVL208
 12928 0cea 0200     		.2byte	0x2
 12929 0cec 91       		.byte	0x91
 12930 0ced 64       		.sleb128 -28
 12931 0cee 5C000000 		.4byte	.LVL209
 12932 0cf2 A4000000 		.4byte	.LFE46
 12933 0cf6 0200     		.2byte	0x2
 12934 0cf8 91       		.byte	0x91
 12935 0cf9 64       		.sleb128 -28
 12936 0cfa 00000000 		.4byte	0
 12937 0cfe 00000000 		.4byte	0
 12938              	.LLST81:
 12939 0d02 06000000 		.4byte	.LVL200
 12940 0d06 1A000000 		.4byte	.LVL202
 12941 0d0a 0200     		.2byte	0x2
 12942 0d0c 30       		.byte	0x30
 12943 0d0d 9F       		.byte	0x9f
 12944 0d0e 34000000 		.4byte	.LVL204
 12945 0d12 68000000 		.4byte	.LVL210
 12946 0d16 0100     		.2byte	0x1
 12947 0d18 50       		.byte	0x50
 12948 0d19 68000000 		.4byte	.LVL210
 12949 0d1d 84000000 		.4byte	.LVL213
 12950 0d21 0100     		.2byte	0x1
 12951 0d23 54       		.byte	0x54
 12952 0d24 00000000 		.4byte	0
 12953 0d28 00000000 		.4byte	0
 12954              	.LLST82:
 12955 0d2c 12000000 		.4byte	.LVL201
 12956 0d30 9C000000 		.4byte	.LVL216
 12957 0d34 0100     		.2byte	0x1
 12958 0d36 55       		.byte	0x55
 12959 0d37 00000000 		.4byte	0
 12960 0d3b 00000000 		.4byte	0
 12961              	.LLST83:
 12962 0d3f 00000000 		.4byte	.LVL218
 12963 0d43 26000000 		.4byte	.LVL221
 12964 0d47 0100     		.2byte	0x1
 12965 0d49 50       		.byte	0x50
 12966 0d4a 26000000 		.4byte	.LVL221
 12967 0d4e 38010000 		.4byte	.LFE45
ARM GAS  e:\temp\ccP12Hvn.s 			page 268


 12968 0d52 0400     		.2byte	0x4
 12969 0d54 F3       		.byte	0xf3
 12970 0d55 01       		.uleb128 0x1
 12971 0d56 50       		.byte	0x50
 12972 0d57 9F       		.byte	0x9f
 12973 0d58 00000000 		.4byte	0
 12974 0d5c 00000000 		.4byte	0
 12975              	.LLST84:
 12976 0d60 18000000 		.4byte	.LVL220
 12977 0d64 26000000 		.4byte	.LVL221
 12978 0d68 0200     		.2byte	0x2
 12979 0d6a 30       		.byte	0x30
 12980 0d6b 9F       		.byte	0x9f
 12981 0d6c 26000000 		.4byte	.LVL221
 12982 0d70 12010000 		.4byte	.LVL248
 12983 0d74 0100     		.2byte	0x1
 12984 0d76 54       		.byte	0x54
 12985 0d77 14010000 		.4byte	.LVL249
 12986 0d7b 2A010000 		.4byte	.LVL250
 12987 0d7f 0100     		.2byte	0x1
 12988 0d81 54       		.byte	0x54
 12989 0d82 00000000 		.4byte	0
 12990 0d86 00000000 		.4byte	0
 12991              	.LLST85:
 12992 0d8a 48000000 		.4byte	.LVL224
 12993 0d8e 4E000000 		.4byte	.LVL225
 12994 0d92 0100     		.2byte	0x1
 12995 0d94 53       		.byte	0x53
 12996 0d95 4E000000 		.4byte	.LVL225
 12997 0d99 54000000 		.4byte	.LVL226
 12998 0d9d 0200     		.2byte	0x2
 12999 0d9f 70       		.byte	0x70
 13000 0da0 00       		.sleb128 0
 13001 0da1 00000000 		.4byte	0
 13002 0da5 00000000 		.4byte	0
 13003              	.LLST86:
 13004 0da9 0C000000 		.4byte	.LVL219
 13005 0dad 26000000 		.4byte	.LVL221
 13006 0db1 0200     		.2byte	0x2
 13007 0db3 37       		.byte	0x37
 13008 0db4 9F       		.byte	0x9f
 13009 0db5 26000000 		.4byte	.LVL221
 13010 0db9 EE000000 		.4byte	.LVL243
 13011 0dbd 0200     		.2byte	0x2
 13012 0dbf 91       		.byte	0x91
 13013 0dc0 5C       		.sleb128 -36
 13014 0dc1 EE000000 		.4byte	.LVL243
 13015 0dc5 F4000000 		.4byte	.LVL244
 13016 0dc9 0200     		.2byte	0x2
 13017 0dcb 36       		.byte	0x36
 13018 0dcc 9F       		.byte	0x9f
 13019 0dcd F4000000 		.4byte	.LVL244
 13020 0dd1 04010000 		.4byte	.LVL245
 13021 0dd5 0200     		.2byte	0x2
 13022 0dd7 91       		.byte	0x91
 13023 0dd8 5C       		.sleb128 -36
 13024 0dd9 04010000 		.4byte	.LVL245
ARM GAS  e:\temp\ccP12Hvn.s 			page 269


 13025 0ddd 0A010000 		.4byte	.LVL246
 13026 0de1 0200     		.2byte	0x2
 13027 0de3 36       		.byte	0x36
 13028 0de4 9F       		.byte	0x9f
 13029 0de5 0A010000 		.4byte	.LVL246
 13030 0de9 38010000 		.4byte	.LFE45
 13031 0ded 0200     		.2byte	0x2
 13032 0def 91       		.byte	0x91
 13033 0df0 5C       		.sleb128 -36
 13034 0df1 00000000 		.4byte	0
 13035 0df5 00000000 		.4byte	0
 13036              	.LLST87:
 13037 0df9 0C000000 		.4byte	.LVL219
 13038 0dfd 26000000 		.4byte	.LVL221
 13039 0e01 0200     		.2byte	0x2
 13040 0e03 30       		.byte	0x30
 13041 0e04 9F       		.byte	0x9f
 13042 0e05 26000000 		.4byte	.LVL221
 13043 0e09 8C000000 		.4byte	.LVL231
 13044 0e0d 0100     		.2byte	0x1
 13045 0e0f 59       		.byte	0x59
 13046 0e10 8C000000 		.4byte	.LVL231
 13047 0e14 90000000 		.4byte	.LVL232
 13048 0e18 0200     		.2byte	0x2
 13049 0e1a 32       		.byte	0x32
 13050 0e1b 9F       		.byte	0x9f
 13051 0e1c 90000000 		.4byte	.LVL232
 13052 0e20 A0000000 		.4byte	.LVL233
 13053 0e24 0100     		.2byte	0x1
 13054 0e26 59       		.byte	0x59
 13055 0e27 A0000000 		.4byte	.LVL233
 13056 0e2b A4000000 		.4byte	.LVL234
 13057 0e2f 0200     		.2byte	0x2
 13058 0e31 33       		.byte	0x33
 13059 0e32 9F       		.byte	0x9f
 13060 0e33 A4000000 		.4byte	.LVL234
 13061 0e37 AC000000 		.4byte	.LVL235
 13062 0e3b 0100     		.2byte	0x1
 13063 0e3d 59       		.byte	0x59
 13064 0e3e AC000000 		.4byte	.LVL235
 13065 0e42 BA000000 		.4byte	.LVL238
 13066 0e46 0200     		.2byte	0x2
 13067 0e48 3C       		.byte	0x3c
 13068 0e49 9F       		.byte	0x9f
 13069 0e4a BA000000 		.4byte	.LVL238
 13070 0e4e 2A010000 		.4byte	.LVL252
 13071 0e52 0100     		.2byte	0x1
 13072 0e54 59       		.byte	0x59
 13073 0e55 00000000 		.4byte	0
 13074 0e59 00000000 		.4byte	0
 13075              	.LLST88:
 13076 0e5d 0C000000 		.4byte	.LVL219
 13077 0e61 26000000 		.4byte	.LVL221
 13078 0e65 0200     		.2byte	0x2
 13079 0e67 30       		.byte	0x30
 13080 0e68 9F       		.byte	0x9f
 13081 0e69 40000000 		.4byte	.LVL223
ARM GAS  e:\temp\ccP12Hvn.s 			page 270


 13082 0e6d 5A000000 		.4byte	.LVL227
 13083 0e71 0100     		.2byte	0x1
 13084 0e73 50       		.byte	0x50
 13085 0e74 5A000000 		.4byte	.LVL227
 13086 0e78 5D000000 		.4byte	.LVL228-1
 13087 0e7c 0100     		.2byte	0x1
 13088 0e7e 51       		.byte	0x51
 13089 0e7f 5D000000 		.4byte	.LVL228-1
 13090 0e83 CC000000 		.4byte	.LVL239
 13091 0e87 0100     		.2byte	0x1
 13092 0e89 55       		.byte	0x55
 13093 0e8a DE000000 		.4byte	.LVL242
 13094 0e8e 10010000 		.4byte	.LVL247
 13095 0e92 0100     		.2byte	0x1
 13096 0e94 55       		.byte	0x55
 13097 0e95 00000000 		.4byte	0
 13098 0e99 00000000 		.4byte	0
 13099              	.LLST89:
 13100 0e9d 0C000000 		.4byte	.LVL219
 13101 0ea1 26000000 		.4byte	.LVL221
 13102 0ea5 0200     		.2byte	0x2
 13103 0ea7 30       		.byte	0x30
 13104 0ea8 9F       		.byte	0x9f
 13105 0ea9 26000000 		.4byte	.LVL221
 13106 0ead B0000000 		.4byte	.LVL236
 13107 0eb1 0100     		.2byte	0x1
 13108 0eb3 5A       		.byte	0x5a
 13109 0eb4 B0000000 		.4byte	.LVL236
 13110 0eb8 B4000000 		.4byte	.LVL237
 13111 0ebc 0100     		.2byte	0x1
 13112 0ebe 53       		.byte	0x53
 13113 0ebf B4000000 		.4byte	.LVL237
 13114 0ec3 2A010000 		.4byte	.LVL253
 13115 0ec7 0100     		.2byte	0x1
 13116 0ec9 5A       		.byte	0x5a
 13117 0eca 00000000 		.4byte	0
 13118 0ece 00000000 		.4byte	0
 13119              	.LLST90:
 13120 0ed2 18000000 		.4byte	.LVL220
 13121 0ed6 2A010000 		.4byte	.LVL251
 13122 0eda 0100     		.2byte	0x1
 13123 0edc 56       		.byte	0x56
 13124 0edd 00000000 		.4byte	0
 13125 0ee1 00000000 		.4byte	0
 13126              	.LLST91:
 13127 0ee5 00000000 		.4byte	.LVL254
 13128 0ee9 0A000000 		.4byte	.LVL256
 13129 0eed 0100     		.2byte	0x1
 13130 0eef 50       		.byte	0x50
 13131 0ef0 0A000000 		.4byte	.LVL256
 13132 0ef4 68010000 		.4byte	.LFE44
 13133 0ef8 0400     		.2byte	0x4
 13134 0efa F3       		.byte	0xf3
 13135 0efb 01       		.uleb128 0x1
 13136 0efc 50       		.byte	0x50
 13137 0efd 9F       		.byte	0x9f
 13138 0efe 00000000 		.4byte	0
ARM GAS  e:\temp\ccP12Hvn.s 			page 271


 13139 0f02 00000000 		.4byte	0
 13140              	.LLST92:
 13141 0f06 06000000 		.4byte	.LVL255
 13142 0f0a 0A000000 		.4byte	.LVL256
 13143 0f0e 0200     		.2byte	0x2
 13144 0f10 30       		.byte	0x30
 13145 0f11 9F       		.byte	0x9f
 13146 0f12 0A000000 		.4byte	.LVL256
 13147 0f16 3C010000 		.4byte	.LVL280
 13148 0f1a 0100     		.2byte	0x1
 13149 0f1c 55       		.byte	0x55
 13150 0f1d 3E010000 		.4byte	.LVL281
 13151 0f21 5A010000 		.4byte	.LVL284
 13152 0f25 0100     		.2byte	0x1
 13153 0f27 55       		.byte	0x55
 13154 0f28 00000000 		.4byte	0
 13155 0f2c 00000000 		.4byte	0
 13156              	.LLST93:
 13157 0f30 2C000000 		.4byte	.LVL259
 13158 0f34 34000000 		.4byte	.LVL260
 13159 0f38 0100     		.2byte	0x1
 13160 0f3a 53       		.byte	0x53
 13161 0f3b 34000000 		.4byte	.LVL260
 13162 0f3f 46000000 		.4byte	.LVL261
 13163 0f43 0200     		.2byte	0x2
 13164 0f45 70       		.byte	0x70
 13165 0f46 00       		.sleb128 0
 13166 0f47 46000000 		.4byte	.LVL261
 13167 0f4b 49000000 		.4byte	.LVL262-1
 13168 0f4f 0200     		.2byte	0x2
 13169 0f51 74       		.byte	0x74
 13170 0f52 00       		.sleb128 0
 13171 0f53 C2000000 		.4byte	.LVL266
 13172 0f57 DE000000 		.4byte	.LVL267
 13173 0f5b 0200     		.2byte	0x2
 13174 0f5d 70       		.byte	0x70
 13175 0f5e 00       		.sleb128 0
 13176 0f5f 0A010000 		.4byte	.LVL272
 13177 0f63 1A010000 		.4byte	.LVL273
 13178 0f67 0200     		.2byte	0x2
 13179 0f69 70       		.byte	0x70
 13180 0f6a 00       		.sleb128 0
 13181 0f6b 34010000 		.4byte	.LVL277
 13182 0f6f 38010000 		.4byte	.LVL278
 13183 0f73 0200     		.2byte	0x2
 13184 0f75 70       		.byte	0x70
 13185 0f76 00       		.sleb128 0
 13186 0f77 38010000 		.4byte	.LVL278
 13187 0f7b 39010000 		.4byte	.LVL279-1
 13188 0f7f 0200     		.2byte	0x2
 13189 0f81 74       		.byte	0x74
 13190 0f82 00       		.sleb128 0
 13191 0f83 00000000 		.4byte	0
 13192 0f87 00000000 		.4byte	0
 13193              	.LLST94:
 13194 0f8b 6A000000 		.4byte	.LVL263
 13195 0f8f C2000000 		.4byte	.LVL266
ARM GAS  e:\temp\ccP12Hvn.s 			page 272


 13196 0f93 0100     		.2byte	0x1
 13197 0f95 57       		.byte	0x57
 13198 0f96 56010000 		.4byte	.LVL282
 13199 0f9a 58010000 		.4byte	.LVL283
 13200 0f9e 0100     		.2byte	0x1
 13201 0fa0 57       		.byte	0x57
 13202 0fa1 00000000 		.4byte	0
 13203 0fa5 00000000 		.4byte	0
 13204              	.LLST95:
 13205 0fa9 06000000 		.4byte	.LVL255
 13206 0fad 0A000000 		.4byte	.LVL256
 13207 0fb1 0200     		.2byte	0x2
 13208 0fb3 30       		.byte	0x30
 13209 0fb4 9F       		.byte	0x9f
 13210 0fb5 2A000000 		.4byte	.LVL258
 13211 0fb9 46000000 		.4byte	.LVL261
 13212 0fbd 0100     		.2byte	0x1
 13213 0fbf 50       		.byte	0x50
 13214 0fc0 46000000 		.4byte	.LVL261
 13215 0fc4 C2000000 		.4byte	.LVL266
 13216 0fc8 0100     		.2byte	0x1
 13217 0fca 54       		.byte	0x54
 13218 0fcb C2000000 		.4byte	.LVL266
 13219 0fcf F0000000 		.4byte	.LVL268
 13220 0fd3 0100     		.2byte	0x1
 13221 0fd5 50       		.byte	0x50
 13222 0fd6 F0000000 		.4byte	.LVL268
 13223 0fda 0A010000 		.4byte	.LVL272
 13224 0fde 0100     		.2byte	0x1
 13225 0fe0 54       		.byte	0x54
 13226 0fe1 0A010000 		.4byte	.LVL272
 13227 0fe5 1E010000 		.4byte	.LVL274
 13228 0fe9 0100     		.2byte	0x1
 13229 0feb 50       		.byte	0x50
 13230 0fec 1E010000 		.4byte	.LVL274
 13231 0ff0 34010000 		.4byte	.LVL277
 13232 0ff4 0100     		.2byte	0x1
 13233 0ff6 54       		.byte	0x54
 13234 0ff7 34010000 		.4byte	.LVL277
 13235 0ffb 38010000 		.4byte	.LVL278
 13236 0fff 0100     		.2byte	0x1
 13237 1001 50       		.byte	0x50
 13238 1002 38010000 		.4byte	.LVL278
 13239 1006 3A010000 		.4byte	.LVL279
 13240 100a 0100     		.2byte	0x1
 13241 100c 54       		.byte	0x54
 13242 100d 56010000 		.4byte	.LVL282
 13243 1011 58010000 		.4byte	.LVL283
 13244 1015 0100     		.2byte	0x1
 13245 1017 54       		.byte	0x54
 13246 1018 00000000 		.4byte	0
 13247 101c 00000000 		.4byte	0
 13248              	.LLST96:
 13249 1020 00000000 		.4byte	.LVL285
 13250 1024 08000000 		.4byte	.LVL287
 13251 1028 0100     		.2byte	0x1
 13252 102a 50       		.byte	0x50
ARM GAS  e:\temp\ccP12Hvn.s 			page 273


 13253 102b 08000000 		.4byte	.LVL287
 13254 102f 64000000 		.4byte	.LFE51
 13255 1033 0400     		.2byte	0x4
 13256 1035 F3       		.byte	0xf3
 13257 1036 01       		.uleb128 0x1
 13258 1037 50       		.byte	0x50
 13259 1038 9F       		.byte	0x9f
 13260 1039 00000000 		.4byte	0
 13261 103d 00000000 		.4byte	0
 13262              	.LLST97:
 13263 1041 04000000 		.4byte	.LVL286
 13264 1045 08000000 		.4byte	.LVL287
 13265 1049 0200     		.2byte	0x2
 13266 104b 30       		.byte	0x30
 13267 104c 9F       		.byte	0x9f
 13268 104d 08000000 		.4byte	.LVL287
 13269 1051 40000000 		.4byte	.LVL293
 13270 1055 0100     		.2byte	0x1
 13271 1057 55       		.byte	0x55
 13272 1058 42000000 		.4byte	.LVL294
 13273 105c 5A000000 		.4byte	.LVL296
 13274 1060 0100     		.2byte	0x1
 13275 1062 55       		.byte	0x55
 13276 1063 00000000 		.4byte	0
 13277 1067 00000000 		.4byte	0
 13278              	.LLST98:
 13279 106b 04000000 		.4byte	.LVL286
 13280 106f 08000000 		.4byte	.LVL287
 13281 1073 0200     		.2byte	0x2
 13282 1075 30       		.byte	0x30
 13283 1076 9F       		.byte	0x9f
 13284 1077 12000000 		.4byte	.LVL289
 13285 107b 34000000 		.4byte	.LVL290
 13286 107f 0100     		.2byte	0x1
 13287 1081 50       		.byte	0x50
 13288 1082 34000000 		.4byte	.LVL290
 13289 1086 42000000 		.4byte	.LVL294
 13290 108a 0100     		.2byte	0x1
 13291 108c 54       		.byte	0x54
 13292 108d 00000000 		.4byte	0
 13293 1091 00000000 		.4byte	0
 13294              	.LLST99:
 13295 1095 00000000 		.4byte	.LVL297
 13296 1099 12000000 		.4byte	.LVL299
 13297 109d 0100     		.2byte	0x1
 13298 109f 50       		.byte	0x50
 13299 10a0 12000000 		.4byte	.LVL299
 13300 10a4 5C000000 		.4byte	.LFE59
 13301 10a8 0400     		.2byte	0x4
 13302 10aa F3       		.byte	0xf3
 13303 10ab 01       		.uleb128 0x1
 13304 10ac 50       		.byte	0x50
 13305 10ad 9F       		.byte	0x9f
 13306 10ae 00000000 		.4byte	0
 13307 10b2 00000000 		.4byte	0
 13308              	.LLST100:
 13309 10b6 12000000 		.4byte	.LVL299
ARM GAS  e:\temp\ccP12Hvn.s 			page 274


 13310 10ba 3E000000 		.4byte	.LVL303
 13311 10be 0100     		.2byte	0x1
 13312 10c0 55       		.byte	0x55
 13313 10c1 40000000 		.4byte	.LVL304
 13314 10c5 50000000 		.4byte	.LVL305
 13315 10c9 0100     		.2byte	0x1
 13316 10cb 55       		.byte	0x55
 13317 10cc 00000000 		.4byte	0
 13318 10d0 00000000 		.4byte	0
 13319              	.LLST101:
 13320 10d4 04000000 		.4byte	.LVL298
 13321 10d8 12000000 		.4byte	.LVL299
 13322 10dc 0200     		.2byte	0x2
 13323 10de 30       		.byte	0x30
 13324 10df 9F       		.byte	0x9f
 13325 10e0 2A000000 		.4byte	.LVL300
 13326 10e4 3A000000 		.4byte	.LVL301
 13327 10e8 0100     		.2byte	0x1
 13328 10ea 50       		.byte	0x50
 13329 10eb 00000000 		.4byte	0
 13330 10ef 00000000 		.4byte	0
 13331              	.LLST102:
 13332 10f3 00000000 		.4byte	.LVL306
 13333 10f7 38000000 		.4byte	.LVL312
 13334 10fb 0100     		.2byte	0x1
 13335 10fd 50       		.byte	0x50
 13336 10fe 38000000 		.4byte	.LVL312
 13337 1102 74010000 		.4byte	.LFE60
 13338 1106 0400     		.2byte	0x4
 13339 1108 F3       		.byte	0xf3
 13340 1109 01       		.uleb128 0x1
 13341 110a 50       		.byte	0x50
 13342 110b 9F       		.byte	0x9f
 13343 110c 00000000 		.4byte	0
 13344 1110 00000000 		.4byte	0
 13345              	.LLST103:
 13346 1114 00000000 		.4byte	.LVL306
 13347 1118 22000000 		.4byte	.LVL309
 13348 111c 0100     		.2byte	0x1
 13349 111e 51       		.byte	0x51
 13350 111f 22000000 		.4byte	.LVL309
 13351 1123 74010000 		.4byte	.LFE60
 13352 1127 0400     		.2byte	0x4
 13353 1129 F3       		.byte	0xf3
 13354 112a 01       		.uleb128 0x1
 13355 112b 51       		.byte	0x51
 13356 112c 9F       		.byte	0x9f
 13357 112d 00000000 		.4byte	0
 13358 1131 00000000 		.4byte	0
 13359              	.LLST104:
 13360 1135 00000000 		.4byte	.LVL306
 13361 1139 30000000 		.4byte	.LVL310
 13362 113d 0100     		.2byte	0x1
 13363 113f 52       		.byte	0x52
 13364 1140 30000000 		.4byte	.LVL310
 13365 1144 74010000 		.4byte	.LFE60
 13366 1148 0400     		.2byte	0x4
ARM GAS  e:\temp\ccP12Hvn.s 			page 275


 13367 114a F3       		.byte	0xf3
 13368 114b 01       		.uleb128 0x1
 13369 114c 52       		.byte	0x52
 13370 114d 9F       		.byte	0x9f
 13371 114e 00000000 		.4byte	0
 13372 1152 00000000 		.4byte	0
 13373              	.LLST105:
 13374 1156 3A000000 		.4byte	.LVL313
 13375 115a C8000000 		.4byte	.LVL322
 13376 115e 0100     		.2byte	0x1
 13377 1160 57       		.byte	0x57
 13378 1161 F2000000 		.4byte	.LVL325
 13379 1165 14010000 		.4byte	.LVL326
 13380 1169 0100     		.2byte	0x1
 13381 116b 57       		.byte	0x57
 13382 116c 3E010000 		.4byte	.LVL333
 13383 1170 56010000 		.4byte	.LVL334
 13384 1174 0100     		.2byte	0x1
 13385 1176 57       		.byte	0x57
 13386 1177 60010000 		.4byte	.LVL335
 13387 117b 62010000 		.4byte	.LVL337
 13388 117f 0100     		.2byte	0x1
 13389 1181 57       		.byte	0x57
 13390 1182 00000000 		.4byte	0
 13391 1186 00000000 		.4byte	0
 13392              	.LLST106:
 13393 118a A0000000 		.4byte	.LVL320
 13394 118e AE000000 		.4byte	.LVL321
 13395 1192 0100     		.2byte	0x1
 13396 1194 58       		.byte	0x58
 13397 1195 1C010000 		.4byte	.LVL327
 13398 1199 26010000 		.4byte	.LVL330
 13399 119d 0100     		.2byte	0x1
 13400 119f 58       		.byte	0x58
 13401 11a0 60010000 		.4byte	.LVL335
 13402 11a4 62010000 		.4byte	.LVL338
 13403 11a8 0100     		.2byte	0x1
 13404 11aa 58       		.byte	0x58
 13405 11ab 00000000 		.4byte	0
 13406 11af 00000000 		.4byte	0
 13407              	.LLST107:
 13408 11b3 0A000000 		.4byte	.LVL307
 13409 11b7 3A000000 		.4byte	.LVL313
 13410 11bb 0200     		.2byte	0x2
 13411 11bd 30       		.byte	0x30
 13412 11be 9F       		.byte	0x9f
 13413 11bf 3A000000 		.4byte	.LVL313
 13414 11c3 4E000000 		.4byte	.LVL314
 13415 11c7 0100     		.2byte	0x1
 13416 11c9 50       		.byte	0x50
 13417 11ca 52000000 		.4byte	.LVL315
 13418 11ce 9C000000 		.4byte	.LVL319
 13419 11d2 0100     		.2byte	0x1
 13420 11d4 50       		.byte	0x50
 13421 11d5 AE000000 		.4byte	.LVL321
 13422 11d9 E8000000 		.4byte	.LVL323
 13423 11dd 0100     		.2byte	0x1
ARM GAS  e:\temp\ccP12Hvn.s 			page 276


 13424 11df 50       		.byte	0x50
 13425 11e0 F2000000 		.4byte	.LVL325
 13426 11e4 20010000 		.4byte	.LVL328
 13427 11e8 0100     		.2byte	0x1
 13428 11ea 50       		.byte	0x50
 13429 11eb 26010000 		.4byte	.LVL330
 13430 11ef 3A010000 		.4byte	.LVL331
 13431 11f3 0100     		.2byte	0x1
 13432 11f5 50       		.byte	0x50
 13433 11f6 3E010000 		.4byte	.LVL333
 13434 11fa 60010000 		.4byte	.LVL335
 13435 11fe 0100     		.2byte	0x1
 13436 1200 50       		.byte	0x50
 13437 1201 00000000 		.4byte	0
 13438 1205 00000000 		.4byte	0
 13439              	.LLST108:
 13440 1209 34000000 		.4byte	.LVL311
 13441 120d 3A000000 		.4byte	.LVL313
 13442 1211 0200     		.2byte	0x2
 13443 1213 30       		.byte	0x30
 13444 1214 9F       		.byte	0x9f
 13445 1215 3A000000 		.4byte	.LVL313
 13446 1219 66000000 		.4byte	.LVL316
 13447 121d 0100     		.2byte	0x1
 13448 121f 55       		.byte	0x55
 13449 1220 68000000 		.4byte	.LVL317
 13450 1224 62010000 		.4byte	.LVL336
 13451 1228 0100     		.2byte	0x1
 13452 122a 55       		.byte	0x55
 13453 122b 00000000 		.4byte	0
 13454 122f 00000000 		.4byte	0
 13455              	.LLST109:
 13456 1233 0A000000 		.4byte	.LVL307
 13457 1237 84000000 		.4byte	.LVL318
 13458 123b 0200     		.2byte	0x2
 13459 123d 30       		.byte	0x30
 13460 123e 9F       		.byte	0x9f
 13461 123f 84000000 		.4byte	.LVL318
 13462 1243 62010000 		.4byte	.LVL339
 13463 1247 0100     		.2byte	0x1
 13464 1249 59       		.byte	0x59
 13465 124a 00000000 		.4byte	0
 13466 124e 00000000 		.4byte	0
 13467              	.LLST110:
 13468 1252 00000000 		.4byte	.LVL340
 13469 1256 15000000 		.4byte	.LVL343-1
 13470 125a 0100     		.2byte	0x1
 13471 125c 50       		.byte	0x50
 13472 125d 15000000 		.4byte	.LVL343-1
 13473 1261 88010000 		.4byte	.LFE63
 13474 1265 0400     		.2byte	0x4
 13475 1267 F3       		.byte	0xf3
 13476 1268 01       		.uleb128 0x1
 13477 1269 50       		.byte	0x50
 13478 126a 9F       		.byte	0x9f
 13479 126b 00000000 		.4byte	0
 13480 126f 00000000 		.4byte	0
ARM GAS  e:\temp\ccP12Hvn.s 			page 277


 13481              	.LLST111:
 13482 1273 00000000 		.4byte	.LVL340
 13483 1277 15000000 		.4byte	.LVL343-1
 13484 127b 0100     		.2byte	0x1
 13485 127d 51       		.byte	0x51
 13486 127e 15000000 		.4byte	.LVL343-1
 13487 1282 6C010000 		.4byte	.LVL366
 13488 1286 0100     		.2byte	0x1
 13489 1288 59       		.byte	0x59
 13490 1289 6C010000 		.4byte	.LVL366
 13491 128d 88010000 		.4byte	.LFE63
 13492 1291 0400     		.2byte	0x4
 13493 1293 F3       		.byte	0xf3
 13494 1294 01       		.uleb128 0x1
 13495 1295 51       		.byte	0x51
 13496 1296 9F       		.byte	0x9f
 13497 1297 00000000 		.4byte	0
 13498 129b 00000000 		.4byte	0
 13499              	.LLST112:
 13500 129f 48000000 		.4byte	.LVL347
 13501 12a3 44010000 		.4byte	.LVL360
 13502 12a7 0100     		.2byte	0x1
 13503 12a9 54       		.byte	0x54
 13504 12aa 46010000 		.4byte	.LVL361
 13505 12ae 5E010000 		.4byte	.LVL362
 13506 12b2 0100     		.2byte	0x1
 13507 12b4 54       		.byte	0x54
 13508 12b5 64010000 		.4byte	.LVL363
 13509 12b9 68010000 		.4byte	.LVL364
 13510 12bd 0100     		.2byte	0x1
 13511 12bf 54       		.byte	0x54
 13512 12c0 00000000 		.4byte	0
 13513 12c4 00000000 		.4byte	0
 13514              	.LLST113:
 13515 12c8 10000000 		.4byte	.LVL341
 13516 12cc 48000000 		.4byte	.LVL347
 13517 12d0 0200     		.2byte	0x2
 13518 12d2 30       		.byte	0x30
 13519 12d3 9F       		.byte	0x9f
 13520 12d4 52000000 		.4byte	.LVL349
 13521 12d8 CE000000 		.4byte	.LVL352
 13522 12dc 0100     		.2byte	0x1
 13523 12de 50       		.byte	0x50
 13524 12df CE000000 		.4byte	.LVL352
 13525 12e3 0E010000 		.4byte	.LVL356
 13526 12e7 0100     		.2byte	0x1
 13527 12e9 55       		.byte	0x55
 13528 12ea 0E010000 		.4byte	.LVL356
 13529 12ee 3E010000 		.4byte	.LVL357
 13530 12f2 0100     		.2byte	0x1
 13531 12f4 50       		.byte	0x50
 13532 12f5 3E010000 		.4byte	.LVL357
 13533 12f9 42010000 		.4byte	.LVL359
 13534 12fd 0100     		.2byte	0x1
 13535 12ff 55       		.byte	0x55
 13536 1300 42010000 		.4byte	.LVL359
 13537 1304 46010000 		.4byte	.LVL361
ARM GAS  e:\temp\ccP12Hvn.s 			page 278


 13538 1308 0100     		.2byte	0x1
 13539 130a 50       		.byte	0x50
 13540 130b 5E010000 		.4byte	.LVL362
 13541 130f 64010000 		.4byte	.LVL363
 13542 1313 0200     		.2byte	0x2
 13543 1315 30       		.byte	0x30
 13544 1316 9F       		.byte	0x9f
 13545 1317 64010000 		.4byte	.LVL363
 13546 131b 68010000 		.4byte	.LVL364
 13547 131f 0100     		.2byte	0x1
 13548 1321 55       		.byte	0x55
 13549 1322 00000000 		.4byte	0
 13550 1326 00000000 		.4byte	0
 13551              	.LLST114:
 13552 132a 18000000 		.4byte	.LVL344
 13553 132e 94000000 		.4byte	.LVL350
 13554 1332 0100     		.2byte	0x1
 13555 1334 56       		.byte	0x56
 13556 1335 0E010000 		.4byte	.LVL356
 13557 1339 64010000 		.4byte	.LVL363
 13558 133d 0100     		.2byte	0x1
 13559 133f 56       		.byte	0x56
 13560 1340 68010000 		.4byte	.LVL364
 13561 1344 6C010000 		.4byte	.LVL365
 13562 1348 0100     		.2byte	0x1
 13563 134a 56       		.byte	0x56
 13564 134b 00000000 		.4byte	0
 13565 134f 00000000 		.4byte	0
 13566              	.LLST115:
 13567 1353 18000000 		.4byte	.LVL344
 13568 1357 34000000 		.4byte	.LVL345
 13569 135b 0300     		.2byte	0x3
 13570 135d 70       		.byte	0x70
 13571 135e 10       		.sleb128 16
 13572 135f 9F       		.byte	0x9f
 13573 1360 34000000 		.4byte	.LVL345
 13574 1364 B0000000 		.4byte	.LVL351
 13575 1368 0600     		.2byte	0x6
 13576 136a 91       		.byte	0x91
 13577 136b 5C       		.sleb128 -36
 13578 136c 06       		.byte	0x6
 13579 136d 23       		.byte	0x23
 13580 136e 10       		.uleb128 0x10
 13581 136f 9F       		.byte	0x9f
 13582 1370 0E010000 		.4byte	.LVL356
 13583 1374 5E010000 		.4byte	.LVL362
 13584 1378 0600     		.2byte	0x6
 13585 137a 91       		.byte	0x91
 13586 137b 5C       		.sleb128 -36
 13587 137c 06       		.byte	0x6
 13588 137d 23       		.byte	0x23
 13589 137e 10       		.uleb128 0x10
 13590 137f 9F       		.byte	0x9f
 13591 1380 5E010000 		.4byte	.LVL362
 13592 1384 64010000 		.4byte	.LVL363
 13593 1388 0300     		.2byte	0x3
 13594 138a 70       		.byte	0x70
ARM GAS  e:\temp\ccP12Hvn.s 			page 279


 13595 138b 10       		.sleb128 16
 13596 138c 9F       		.byte	0x9f
 13597 138d 00000000 		.4byte	0
 13598 1391 00000000 		.4byte	0
 13599              	.LLST116:
 13600 1395 00000000 		.4byte	.LVL367
 13601 1399 1C000000 		.4byte	.LVL369
 13602 139d 0100     		.2byte	0x1
 13603 139f 50       		.byte	0x50
 13604 13a0 1C000000 		.4byte	.LVL369
 13605 13a4 54000000 		.4byte	.LVL376
 13606 13a8 0400     		.2byte	0x4
 13607 13aa F3       		.byte	0xf3
 13608 13ab 01       		.uleb128 0x1
 13609 13ac 50       		.byte	0x50
 13610 13ad 9F       		.byte	0x9f
 13611 13ae 54000000 		.4byte	.LVL376
 13612 13b2 5A000000 		.4byte	.LVL377
 13613 13b6 0100     		.2byte	0x1
 13614 13b8 50       		.byte	0x50
 13615 13b9 5A000000 		.4byte	.LVL377
 13616 13bd 80000000 		.4byte	.LFE64
 13617 13c1 0400     		.2byte	0x4
 13618 13c3 F3       		.byte	0xf3
 13619 13c4 01       		.uleb128 0x1
 13620 13c5 50       		.byte	0x50
 13621 13c6 9F       		.byte	0x9f
 13622 13c7 00000000 		.4byte	0
 13623 13cb 00000000 		.4byte	0
 13624              	.LLST117:
 13625 13cf 08000000 		.4byte	.LVL368
 13626 13d3 1E000000 		.4byte	.LVL370
 13627 13d7 0200     		.2byte	0x2
 13628 13d9 30       		.byte	0x30
 13629 13da 9F       		.byte	0x9f
 13630 13db 1E000000 		.4byte	.LVL370
 13631 13df 54000000 		.4byte	.LVL376
 13632 13e3 0100     		.2byte	0x1
 13633 13e5 58       		.byte	0x58
 13634 13e6 54000000 		.4byte	.LVL376
 13635 13ea 5A000000 		.4byte	.LVL377
 13636 13ee 0200     		.2byte	0x2
 13637 13f0 30       		.byte	0x30
 13638 13f1 9F       		.byte	0x9f
 13639 13f2 5A000000 		.4byte	.LVL377
 13640 13f6 74000000 		.4byte	.LVL378
 13641 13fa 0100     		.2byte	0x1
 13642 13fc 58       		.byte	0x58
 13643 13fd 74000000 		.4byte	.LVL378
 13644 1401 80000000 		.4byte	.LFE64
 13645 1405 0100     		.2byte	0x1
 13646 1407 50       		.byte	0x50
 13647 1408 00000000 		.4byte	0
 13648 140c 00000000 		.4byte	0
 13649              	.LLST118:
 13650 1410 08000000 		.4byte	.LVL368
 13651 1414 1E000000 		.4byte	.LVL370
ARM GAS  e:\temp\ccP12Hvn.s 			page 280


 13652 1418 0200     		.2byte	0x2
 13653 141a 30       		.byte	0x30
 13654 141b 9F       		.byte	0x9f
 13655 141c 36000000 		.4byte	.LVL371
 13656 1420 44000000 		.4byte	.LVL372
 13657 1424 0100     		.2byte	0x1
 13658 1426 50       		.byte	0x50
 13659 1427 54000000 		.4byte	.LVL376
 13660 142b 5A000000 		.4byte	.LVL377
 13661 142f 0200     		.2byte	0x2
 13662 1431 30       		.byte	0x30
 13663 1432 9F       		.byte	0x9f
 13664 1433 00000000 		.4byte	0
 13665 1437 00000000 		.4byte	0
 13666              	.LLST119:
 13667 143b 1E000000 		.4byte	.LVL370
 13668 143f 50000000 		.4byte	.LVL374
 13669 1443 0100     		.2byte	0x1
 13670 1445 55       		.byte	0x55
 13671 1446 52000000 		.4byte	.LVL375
 13672 144a 54000000 		.4byte	.LVL376
 13673 144e 0100     		.2byte	0x1
 13674 1450 55       		.byte	0x55
 13675 1451 5A000000 		.4byte	.LVL377
 13676 1455 74000000 		.4byte	.LVL378
 13677 1459 0100     		.2byte	0x1
 13678 145b 55       		.byte	0x55
 13679 145c 00000000 		.4byte	0
 13680 1460 00000000 		.4byte	0
 13681              		.section	.debug_aranges,"",%progbits
 13682 0000 1C010000 		.4byte	0x11c
 13683 0004 0200     		.2byte	0x2
 13684 0006 00000000 		.4byte	.Ldebug_info0
 13685 000a 04       		.byte	0x4
 13686 000b 00       		.byte	0
 13687 000c 0000     		.2byte	0
 13688 000e 0000     		.2byte	0
 13689 0010 00000000 		.4byte	.LFB37
 13690 0014 44000000 		.4byte	.LFE37-.LFB37
 13691 0018 00000000 		.4byte	.LFB48
 13692 001c 68000000 		.4byte	.LFE48-.LFB48
 13693 0020 00000000 		.4byte	.LFB54
 13694 0024 50000000 		.4byte	.LFE54-.LFB54
 13695 0028 00000000 		.4byte	.LFB55
 13696 002c 30000000 		.4byte	.LFE55-.LFB55
 13697 0030 00000000 		.4byte	.LFB50
 13698 0034 54000000 		.4byte	.LFE50-.LFB50
 13699 0038 00000000 		.4byte	.LFB49
 13700 003c A4000000 		.4byte	.LFE49-.LFB49
 13701 0040 00000000 		.4byte	.LFB57
 13702 0044 18000000 		.4byte	.LFE57-.LFB57
 13703 0048 00000000 		.4byte	.LFB34
 13704 004c 08000000 		.4byte	.LFE34-.LFB34
 13705 0050 00000000 		.4byte	.LFB35
 13706 0054 08000000 		.4byte	.LFE35-.LFB35
 13707 0058 00000000 		.4byte	.LFB36
 13708 005c 28000000 		.4byte	.LFE36-.LFB36
ARM GAS  e:\temp\ccP12Hvn.s 			page 281


 13709 0060 00000000 		.4byte	.LFB52
 13710 0064 14000000 		.4byte	.LFE52-.LFB52
 13711 0068 00000000 		.4byte	.LFB32
 13712 006c 90000000 		.4byte	.LFE32-.LFB32
 13713 0070 00000000 		.4byte	.LFB47
 13714 0074 2C000000 		.4byte	.LFE47-.LFB47
 13715 0078 00000000 		.4byte	.LFB53
 13716 007c 60000000 		.4byte	.LFE53-.LFB53
 13717 0080 00000000 		.4byte	.LFB56
 13718 0084 0C000000 		.4byte	.LFE56-.LFB56
 13719 0088 00000000 		.4byte	.LFB58
 13720 008c 14000000 		.4byte	.LFE58-.LFB58
 13721 0090 00000000 		.4byte	.LFB61
 13722 0094 50000000 		.4byte	.LFE61-.LFB61
 13723 0098 00000000 		.4byte	.LFB39
 13724 009c 44000000 		.4byte	.LFE39-.LFB39
 13725 00a0 00000000 		.4byte	.LFB41
 13726 00a4 E4000000 		.4byte	.LFE41-.LFB41
 13727 00a8 00000000 		.4byte	.LFB43
 13728 00ac 34000000 		.4byte	.LFE43-.LFB43
 13729 00b0 00000000 		.4byte	.LFB42
 13730 00b4 50010000 		.4byte	.LFE42-.LFB42
 13731 00b8 00000000 		.4byte	.LFB38
 13732 00bc 1E000000 		.4byte	.LFE38-.LFB38
 13733 00c0 00000000 		.4byte	.LFB40
 13734 00c4 9C000000 		.4byte	.LFE40-.LFB40
 13735 00c8 00000000 		.4byte	.LFB62
 13736 00cc 18000000 		.4byte	.LFE62-.LFB62
 13737 00d0 00000000 		.4byte	.LFB33
 13738 00d4 74000000 		.4byte	.LFE33-.LFB33
 13739 00d8 00000000 		.4byte	.LFB46
 13740 00dc A4000000 		.4byte	.LFE46-.LFB46
 13741 00e0 00000000 		.4byte	.LFB45
 13742 00e4 38010000 		.4byte	.LFE45-.LFB45
 13743 00e8 00000000 		.4byte	.LFB44
 13744 00ec 68010000 		.4byte	.LFE44-.LFB44
 13745 00f0 00000000 		.4byte	.LFB51
 13746 00f4 64000000 		.4byte	.LFE51-.LFB51
 13747 00f8 00000000 		.4byte	.LFB59
 13748 00fc 5C000000 		.4byte	.LFE59-.LFB59
 13749 0100 00000000 		.4byte	.LFB60
 13750 0104 74010000 		.4byte	.LFE60-.LFB60
 13751 0108 00000000 		.4byte	.LFB63
 13752 010c 88010000 		.4byte	.LFE63-.LFB63
 13753 0110 00000000 		.4byte	.LFB64
 13754 0114 80000000 		.4byte	.LFE64-.LFB64
 13755 0118 00000000 		.4byte	0
 13756 011c 00000000 		.4byte	0
 13757              		.section	.debug_ranges,"",%progbits
 13758              	.Ldebug_ranges0:
 13759 0000 00000000 		.4byte	.LFB37
 13760 0004 44000000 		.4byte	.LFE37
 13761 0008 00000000 		.4byte	.LFB48
 13762 000c 68000000 		.4byte	.LFE48
 13763 0010 00000000 		.4byte	.LFB54
 13764 0014 50000000 		.4byte	.LFE54
 13765 0018 00000000 		.4byte	.LFB55
ARM GAS  e:\temp\ccP12Hvn.s 			page 282


 13766 001c 30000000 		.4byte	.LFE55
 13767 0020 00000000 		.4byte	.LFB50
 13768 0024 54000000 		.4byte	.LFE50
 13769 0028 00000000 		.4byte	.LFB49
 13770 002c A4000000 		.4byte	.LFE49
 13771 0030 00000000 		.4byte	.LFB57
 13772 0034 18000000 		.4byte	.LFE57
 13773 0038 00000000 		.4byte	.LFB34
 13774 003c 08000000 		.4byte	.LFE34
 13775 0040 00000000 		.4byte	.LFB35
 13776 0044 08000000 		.4byte	.LFE35
 13777 0048 00000000 		.4byte	.LFB36
 13778 004c 28000000 		.4byte	.LFE36
 13779 0050 00000000 		.4byte	.LFB52
 13780 0054 14000000 		.4byte	.LFE52
 13781 0058 00000000 		.4byte	.LFB32
 13782 005c 90000000 		.4byte	.LFE32
 13783 0060 00000000 		.4byte	.LFB47
 13784 0064 2C000000 		.4byte	.LFE47
 13785 0068 00000000 		.4byte	.LFB53
 13786 006c 60000000 		.4byte	.LFE53
 13787 0070 00000000 		.4byte	.LFB56
 13788 0074 0C000000 		.4byte	.LFE56
 13789 0078 00000000 		.4byte	.LFB58
 13790 007c 14000000 		.4byte	.LFE58
 13791 0080 00000000 		.4byte	.LFB61
 13792 0084 50000000 		.4byte	.LFE61
 13793 0088 00000000 		.4byte	.LFB39
 13794 008c 44000000 		.4byte	.LFE39
 13795 0090 00000000 		.4byte	.LFB41
 13796 0094 E4000000 		.4byte	.LFE41
 13797 0098 00000000 		.4byte	.LFB43
 13798 009c 34000000 		.4byte	.LFE43
 13799 00a0 00000000 		.4byte	.LFB42
 13800 00a4 50010000 		.4byte	.LFE42
 13801 00a8 00000000 		.4byte	.LFB38
 13802 00ac 1E000000 		.4byte	.LFE38
 13803 00b0 00000000 		.4byte	.LFB40
 13804 00b4 9C000000 		.4byte	.LFE40
 13805 00b8 00000000 		.4byte	.LFB62
 13806 00bc 18000000 		.4byte	.LFE62
 13807 00c0 00000000 		.4byte	.LFB33
 13808 00c4 74000000 		.4byte	.LFE33
 13809 00c8 00000000 		.4byte	.LFB46
 13810 00cc A4000000 		.4byte	.LFE46
 13811 00d0 00000000 		.4byte	.LFB45
 13812 00d4 38010000 		.4byte	.LFE45
 13813 00d8 00000000 		.4byte	.LFB44
 13814 00dc 68010000 		.4byte	.LFE44
 13815 00e0 00000000 		.4byte	.LFB51
 13816 00e4 64000000 		.4byte	.LFE51
 13817 00e8 00000000 		.4byte	.LFB59
 13818 00ec 5C000000 		.4byte	.LFE59
 13819 00f0 00000000 		.4byte	.LFB60
 13820 00f4 74010000 		.4byte	.LFE60
 13821 00f8 00000000 		.4byte	.LFB63
 13822 00fc 88010000 		.4byte	.LFE63
ARM GAS  e:\temp\ccP12Hvn.s 			page 283


 13823 0100 00000000 		.4byte	.LFB64
 13824 0104 80000000 		.4byte	.LFE64
 13825 0108 00000000 		.4byte	0
 13826 010c 00000000 		.4byte	0
 13827              		.section	.debug_line,"",%progbits
 13828              	.Ldebug_line0:
 13829 0000 64070000 		.section	.debug_str,"MS",%progbits,1
 13829      0200AA01 
 13829      00000201 
 13829      FB0E0D00 
 13829      01010101 
 13830              	.LASF216:
 13831 0000 76636F6E 		.ascii	"vcon_req\000"
 13831      5F726571 
 13831      00
 13832              	.LASF458:
 13833 0009 7265675F 		.ascii	"reg_alt_mode_mngr\000"
 13833      616C745F 
 13833      6D6F6465 
 13833      5F6D6E67 
 13833      7200
 13834              	.LASF22:
 13835 001b 45585444 		.ascii	"EXTD_MSG_GET_BAT_CAP\000"
 13835      5F4D5347 
 13835      5F474554 
 13835      5F424154 
 13835      5F434150 
 13836              	.LASF124:
 13837 0030 72657365 		.ascii	"reserved\000"
 13837      72766564 
 13837      00
 13838              	.LASF424:
 13839 0039 4D55585F 		.ascii	"MUX_CONFIG_INIT\000"
 13839      434F4E46 
 13839      49475F49 
 13839      4E495400 
 13840              	.LASF494:
 13841 0049 616C745F 		.ascii	"alt_mode_mngr_deinit\000"
 13841      6D6F6465 
 13841      5F6D6E67 
 13841      725F6465 
 13841      696E6974 
 13842              	.LASF442:
 13843 005e 616D5F6E 		.ascii	"am_numb\000"
 13843      756D6200 
 13844              	.LASF96:
 13845 0066 4150505F 		.ascii	"APP_EVT_SRC_CAP_TRIED_WITH_NO_RESPONSE\000"
 13845      4556545F 
 13845      5352435F 
 13845      4341505F 
 13845      54524945 
 13846              	.LASF350:
 13847 008d 76646D5F 		.ascii	"vdm_header\000"
 13847      68656164 
 13847      657200
 13848              	.LASF197:
 13849 0098 76627573 		.ascii	"vbus_thru_cbl\000"
ARM GAS  e:\temp\ccP12Hvn.s 			page 284


 13849      5F746872 
 13849      755F6362 
 13849      6C00
 13850              	.LASF61:
 13851 00a6 4150505F 		.ascii	"APP_EVT_EMCA_DETECTED\000"
 13851      4556545F 
 13851      454D4341 
 13851      5F444554 
 13851      45435445 
 13852              	.LASF205:
 13853 00bc 74797065 		.ascii	"typec_plug\000"
 13853      635F706C 
 13853      756700
 13854              	.LASF73:
 13855 00c7 4150505F 		.ascii	"APP_EVT_SENDER_RESPONSE_TIMEOUT\000"
 13855      4556545F 
 13855      53454E44 
 13855      45525F52 
 13855      4553504F 
 13856              	.LASF420:
 13857 00e7 4D55585F 		.ascii	"MUX_CONFIG_SS_ONLY\000"
 13857      434F4E46 
 13857      49475F53 
 13857      535F4F4E 
 13857      4C5900
 13858              	.LASF302:
 13859 00fa 7374645F 		.ascii	"std_ama_vdo\000"
 13859      616D615F 
 13859      76646F00 
 13860              	.LASF242:
 13861 0106 7369676E 		.ascii	"sign\000"
 13861      00
 13862              	.LASF301:
 13863 010b 6163745F 		.ascii	"act_cbl_vdo\000"
 13863      63626C5F 
 13863      76646F00 
 13864              	.LASF334:
 13865 0117 56444D5F 		.ascii	"VDM_TASK_REG_ATCH_TGT_INFO\000"
 13865      5441534B 
 13865      5F524547 
 13865      5F415443 
 13865      485F5447 
 13866              	.LASF3:
 13867 0132 5F5F7569 		.ascii	"__uint8_t\000"
 13867      6E74385F 
 13867      7400
 13868              	.LASF329:
 13869 013c 5F426F6F 		.ascii	"_Bool\000"
 13869      6C00
 13870              	.LASF491:
 13871 0142 6576616C 		.ascii	"eval_alt_modes\000"
 13871      5F616C74 
 13871      5F6D6F64 
 13871      657300
 13872              	.LASF317:
 13873 0151 646F5F63 		.ascii	"do_count\000"
 13873      6F756E74 
ARM GAS  e:\temp\ccP12Hvn.s 			page 285


 13873      00
 13874              	.LASF289:
 13875 015a 72646F5F 		.ascii	"rdo_bat_gvb\000"
 13875      6261745F 
 13875      67766200 
 13876              	.LASF504:
 13877 0166 6466705F 		.ascii	"dfp_compatibility_mode_table\000"
 13877      636F6D70 
 13877      61746962 
 13877      696C6974 
 13877      795F6D6F 
 13878              	.LASF203:
 13879 0183 63626C5F 		.ascii	"cbl_term\000"
 13879      7465726D 
 13879      00
 13880              	.LASF488:
 13881 018c 6661696C 		.ascii	"fail_alt_modes\000"
 13881      5F616C74 
 13881      5F6D6F64 
 13881      657300
 13882              	.LASF287:
 13883 019b 72646F5F 		.ascii	"rdo_fix_var_gvb\000"
 13883      6669785F 
 13883      7661725F 
 13883      67766200 
 13884              	.LASF210:
 13885 01ab 6D61785F 		.ascii	"max_vbus_volt\000"
 13885      76627573 
 13885      5F766F6C 
 13885      7400
 13886              	.LASF324:
 13887 01b9 6461745F 		.ascii	"dat_ptr\000"
 13887      70747200 
 13888              	.LASF341:
 13889 01c1 56444D5F 		.ascii	"VDM_EVT_FAIL\000"
 13889      4556545F 
 13889      4641494C 
 13889      00
 13890              	.LASF32:
 13891 01ce 45585444 		.ascii	"EXTD_MSG_COUNTRY_INFO\000"
 13891      5F4D5347 
 13891      5F434F55 
 13891      4E545259 
 13891      5F494E46 
 13892              	.LASF348:
 13893 01e4 63626C5F 		.ascii	"cbl_svid\000"
 13893      73766964 
 13893      00
 13894              	.LASF316:
 13895 01ed 72657370 		.ascii	"resp_buf\000"
 13895      5F627566 
 13895      00
 13896              	.LASF53:
 13897 01f6 56444D5F 		.ascii	"VDM_CMD_EXIT_MODE\000"
 13897      434D445F 
 13897      45584954 
 13897      5F4D4F44 
ARM GAS  e:\temp\ccP12Hvn.s 			page 286


 13897      4500
 13898              	.LASF13:
 13899 0208 75696E74 		.ascii	"uint16_t\000"
 13899      31365F74 
 13899      00
 13900              	.LASF473:
 13901 0211 74626C5F 		.ascii	"tbl_alt_mode_idx\000"
 13901      616C745F 
 13901      6D6F6465 
 13901      5F696478 
 13901      00
 13902              	.LASF123:
 13903 0222 706B5F63 		.ascii	"pk_current\000"
 13903      75727265 
 13903      6E7400
 13904              	.LASF362:
 13905 022d 414C545F 		.ascii	"ALT_MODE_STATE_FAIL\000"
 13905      4D4F4445 
 13905      5F535441 
 13905      54455F46 
 13905      41494C00 
 13906              	.LASF156:
 13907 0241 6D696E5F 		.ascii	"min_op_current\000"
 13907      6F705F63 
 13907      75727265 
 13907      6E7400
 13908              	.LASF501:
 13909 0250 76646D5F 		.ascii	"vdm_response\000"
 13909      72657370 
 13909      6F6E7365 
 13909      00
 13910              	.LASF38:
 13911 025d 534F505F 		.ascii	"SOP_DP_DEBUG\000"
 13911      44505F44 
 13911      45425547 
 13911      00
 13912              	.LASF332:
 13913 026a 56444D5F 		.ascii	"VDM_TASK_DISC_ID\000"
 13913      5441534B 
 13913      5F444953 
 13913      435F4944 
 13913      00
 13914              	.LASF493:
 13915 027b 6D6F6E69 		.ascii	"monitor_alt_modes\000"
 13915      746F725F 
 13915      616C745F 
 13915      6D6F6465 
 13915      7300
 13916              	.LASF328:
 13917 028d 70645F70 		.ascii	"pd_packet_t\000"
 13917      61636B65 
 13917      745F7400 
 13918              	.LASF437:
 13919 0299 616C745F 		.ascii	"alt_mode_mngr_status_t\000"
 13919      6D6F6465 
 13919      5F6D6E67 
 13919      725F7374 
ARM GAS  e:\temp\ccP12Hvn.s 			page 287


 13919      61747573 
 13920              	.LASF226:
 13921 02b0 7369676E 		.ascii	"signal\000"
 13921      616C00
 13922              	.LASF169:
 13923 02b7 76646D5F 		.ascii	"vdm_type\000"
 13923      74797065 
 13923      00
 13924              	.LASF105:
 13925 02c0 73706563 		.ascii	"spec_rev\000"
 13925      5F726576 
 13925      00
 13926              	.LASF510:
 13927 02c9 616C745F 		.ascii	"alt_mode_hw_sleep\000"
 13927      6D6F6465 
 13927      5F68775F 
 13927      736C6565 
 13927      7000
 13928              	.LASF233:
 13929 02db 6466705F 		.ascii	"dfp_ufp_conn\000"
 13929      7566705F 
 13929      636F6E6E 
 13929      00
 13930              	.LASF423:
 13931 02e8 4D55585F 		.ascii	"MUX_CONFIG_RIDGE_CUSTOM\000"
 13931      434F4E46 
 13931      49475F52 
 13931      49444745 
 13931      5F435553 
 13932              	.LASF414:
 13933 0300 6170705F 		.ascii	"app_evt_needed\000"
 13933      6576745F 
 13933      6E656564 
 13933      656400
 13934              	.LASF93:
 13935 030f 4150505F 		.ascii	"APP_EVT_CC_OVP\000"
 13935      4556545F 
 13935      43435F4F 
 13935      565000
 13936              	.LASF99:
 13937 031e 56444D5F 		.ascii	"VDM_AMS_RESP_NOT_REQ\000"
 13937      414D535F 
 13937      52455350 
 13937      5F4E4F54 
 13937      5F524551 
 13938              	.LASF425:
 13939 0333 4D55585F 		.ascii	"MUX_CONFIG_DEINIT\000"
 13939      434F4E46 
 13939      49475F44 
 13939      45494E49 
 13939      5400
 13940              	.LASF338:
 13941 0345 76646D5F 		.ascii	"vdm_task_t\000"
 13941      7461736B 
 13941      5F7400
 13942              	.LASF217:
 13943 0350 76636F6E 		.ascii	"vcon_pwr\000"
ARM GAS  e:\temp\ccP12Hvn.s 			page 288


 13943      5F707772 
 13943      00
 13944              	.LASF257:
 13945 0359 41444F5F 		.ascii	"ADO_ALERT\000"
 13945      414C4552 
 13945      5400
 13946              	.LASF265:
 13947 0363 63626C5F 		.ascii	"cbl_speed\000"
 13947      73706565 
 13947      6400
 13948              	.LASF107:
 13949 036d 6D73675F 		.ascii	"msg_id\000"
 13949      696400
 13950              	.LASF109:
 13951 0374 64617461 		.ascii	"data_size\000"
 13951      5F73697A 
 13951      6500
 13952              	.LASF392:
 13953 037e 616C745F 		.ascii	"alt_mode_event\000"
 13953      6D6F6465 
 13953      5F657665 
 13953      6E7400
 13954              	.LASF405:
 13955 038d 616C745F 		.ascii	"alt_mode_reg_info_t\000"
 13955      6D6F6465 
 13955      5F726567 
 13955      5F696E66 
 13955      6F5F7400 
 13956              	.LASF57:
 13957 03a1 4150505F 		.ascii	"APP_EVT_UNEXPECTED_VOLTAGE_ON_VBUS\000"
 13957      4556545F 
 13957      554E4558 
 13957      50454354 
 13957      45445F56 
 13958              	.LASF330:
 13959 03c4 56444D5F 		.ascii	"VDM_TASK_WAIT\000"
 13959      5441534B 
 13959      5F574149 
 13959      5400
 13960              	.LASF376:
 13961 03d2 414D5F45 		.ascii	"AM_EVT_CBL_NOT_SUPP_ALT_MODE\000"
 13961      56545F43 
 13961      424C5F4E 
 13961      4F545F53 
 13961      5550505F 
 13962              	.LASF114:
 13963 03ef 70645F68 		.ascii	"pd_hdr_t\000"
 13963      64725F74 
 13963      00
 13964              	.LASF145:
 13965 03f8 4241545F 		.ascii	"BAT_SNK\000"
 13965      534E4B00 
 13966              	.LASF127:
 13967 0400 7573625F 		.ascii	"usb_comm_cap\000"
 13967      636F6D6D 
 13967      5F636170 
 13967      00
ARM GAS  e:\temp\ccP12Hvn.s 			page 289


 13968              	.LASF223:
 13969 040d 73766964 		.ascii	"svid_n\000"
 13969      5F6E00
 13970              	.LASF508:
 13971 0414 6D656D63 		.ascii	"memcpy\000"
 13971      707900
 13972              	.LASF152:
 13973 041b 67697665 		.ascii	"give_back_flag\000"
 13973      5F626163 
 13973      6B5F666C 
 13973      616700
 13974              	.LASF482:
 13975 042a 72756E5F 		.ascii	"run_disc_mode\000"
 13975      64697363 
 13975      5F6D6F64 
 13975      6500
 13976              	.LASF212:
 13977 0438 76646F5F 		.ascii	"vdo_version\000"
 13977      76657273 
 13977      696F6E00 
 13978              	.LASF125:
 13979 0444 756E6368 		.ascii	"unchunk_sup\000"
 13979      756E6B5F 
 13979      73757000 
 13980              	.LASF427:
 13981 0450 616D5F73 		.ascii	"am_supported_modes\000"
 13981      7570706F 
 13981      72746564 
 13981      5F6D6F64 
 13981      657300
 13982              	.LASF453:
 13983 0463 616C745F 		.ascii	"alt_mode_mngr_sleep\000"
 13983      6D6F6465 
 13983      5F6D6E67 
 13983      725F736C 
 13983      65657000 
 13984              	.LASF62:
 13985 0477 4150505F 		.ascii	"APP_EVT_EMCA_NOT_DETECTED\000"
 13985      4556545F 
 13985      454D4341 
 13985      5F4E4F54 
 13985      5F444554 
 13986              	.LASF239:
 13987 0491 6870645F 		.ascii	"hpd_irq\000"
 13987      69727100 
 13988              	.LASF415:
 13989 0499 6170705F 		.ascii	"app_evt_data\000"
 13989      6576745F 
 13989      64617461 
 13989      00
 13990              	.LASF229:
 13991 04a6 6466705F 		.ascii	"dfp_d_pin\000"
 13991      645F7069 
 13991      6E00
 13992              	.LASF69:
 13993 04b0 4150505F 		.ascii	"APP_EVT_PKT_RCVD\000"
 13993      4556545F 
ARM GAS  e:\temp\ccP12Hvn.s 			page 290


 13993      504B545F 
 13993      52435644 
 13993      00
 13994              	.LASF186:
 13995 04c1 70726F64 		.ascii	"prod_type\000"
 13995      5F747970 
 13995      6500
 13996              	.LASF410:
 13997 04cb 69735F61 		.ascii	"is_active\000"
 13997      63746976 
 13997      6500
 13998              	.LASF377:
 13999 04d5 414D5F45 		.ascii	"AM_EVT_NOT_SUPP_PARTNER_CAP\000"
 13999      56545F4E 
 13999      4F545F53 
 13999      5550505F 
 13999      50415254 
 14000              	.LASF83:
 14001 04f1 4150505F 		.ascii	"APP_EVT_VBUS_PORT_DISABLE\000"
 14001      4556545F 
 14001      56425553 
 14001      5F504F52 
 14001      545F4449 
 14002              	.LASF352:
 14003 050b 76646F5F 		.ascii	"vdo_numb\000"
 14003      6E756D62 
 14003      00
 14004              	.LASF518:
 14005 0514 474E5520 		.ascii	"GNU C11 5.4.1 20160609 (release) [ARM/embedded-5-br"
 14005      43313120 
 14005      352E342E 
 14005      31203230 
 14005      31363036 
 14006 0547 616E6368 		.ascii	"anch revision 237715] -mcpu=cortex-m0 -mthumb -g -O"
 14006      20726576 
 14006      6973696F 
 14006      6E203233 
 14006      37373135 
 14007 057a 67202D66 		.ascii	"g -ffunction-sections -ffat-lto-objects -finline-fu"
 14007      66756E63 
 14007      74696F6E 
 14007      2D736563 
 14007      74696F6E 
 14008 05ad 6E637469 		.ascii	"nctions -fno-strict-aliasing\000"
 14008      6F6E7320 
 14008      2D666E6F 
 14008      2D737472 
 14008      6963742D 
 14009              	.LASF408:
 14010 05ca 76646F5F 		.ascii	"vdo_max_numb\000"
 14010      6D61785F 
 14010      6E756D62 
 14010      00
 14011              	.LASF320:
 14012 05d7 636D645F 		.ascii	"cmd_sop\000"
 14012      736F7000 
 14013              	.LASF87:
ARM GAS  e:\temp\ccP12Hvn.s 			page 291


 14014 05df 4150505F 		.ascii	"APP_EVT_HANDLE_EXTENDED_MSG\000"
 14014      4556545F 
 14014      48414E44 
 14014      4C455F45 
 14014      5854454E 
 14015              	.LASF398:
 14016 05fb 636F6D70 		.ascii	"comp_tbl_t\000"
 14016      5F74626C 
 14016      5F7400
 14017              	.LASF395:
 14018 0606 616C745F 		.ascii	"alt_mode_cbk_t\000"
 14018      6D6F6465 
 14018      5F63626B 
 14018      5F7400
 14019              	.LASF478:
 14020 0615 74626C5F 		.ascii	"tbl_svid_idx\000"
 14020      73766964 
 14020      5F696478 
 14020      00
 14021              	.LASF192:
 14022 0622 6263645F 		.ascii	"bcd_dev\000"
 14022      64657600 
 14023              	.LASF225:
 14024 062a 706F7274 		.ascii	"port_cap\000"
 14024      5F636170 
 14024      00
 14025              	.LASF88:
 14026 0633 4150505F 		.ascii	"APP_EVT_VBUS_UVP_FAULT\000"
 14026      4556545F 
 14026      56425553 
 14026      5F555650 
 14026      5F464155 
 14027              	.LASF116:
 14028 064a 50445F48 		.ascii	"PD_HDR\000"
 14028      445200
 14029              	.LASF432:
 14030 0651 76646D5F 		.ascii	"vdm_buf\000"
 14030      62756600 
 14031              	.LASF135:
 14032 0659 4241545F 		.ascii	"BAT_SRC\000"
 14032      53524300 
 14033              	.LASF481:
 14034 0661 65767479 		.ascii	"evtype\000"
 14034      706500
 14035              	.LASF288:
 14036 0668 72646F5F 		.ascii	"rdo_bat\000"
 14036      62617400 
 14037              	.LASF312:
 14038 0670 7462745F 		.ascii	"tbt_vdo\000"
 14038      76646F00 
 14039              	.LASF266:
 14040 0678 63626C5F 		.ascii	"cbl_gen\000"
 14040      67656E00 
 14041              	.LASF251:
 14042 0680 5050535F 		.ascii	"PPS_SNK\000"
 14042      534E4B00 
 14043              	.LASF163:
ARM GAS  e:\temp\ccP12Hvn.s 			page 292


 14044 0688 6F705F70 		.ascii	"op_power_cur\000"
 14044      6F776572 
 14044      5F637572 
 14044      00
 14045              	.LASF457:
 14046 0695 6765745F 		.ascii	"get_alt_mode_numb\000"
 14046      616C745F 
 14046      6D6F6465 
 14046      5F6E756D 
 14046      6200
 14047              	.LASF492:
 14048 06a7 61707065 		.ascii	"appevt_data\000"
 14048      76745F64 
 14048      61746100 
 14049              	.LASF72:
 14050 06b3 4150505F 		.ascii	"APP_EVT_VCONN_SWAP_COMPLETE\000"
 14050      4556545F 
 14050      56434F4E 
 14050      4E5F5357 
 14050      41505F43 
 14051              	.LASF222:
 14052 06cf 73766964 		.ascii	"svid_n1\000"
 14052      5F6E3100 
 14053              	.LASF505:
 14054 06d7 73757070 		.ascii	"supp_svid_tbl\000"
 14054      5F737669 
 14054      645F7462 
 14054      6C00
 14055              	.LASF41:
 14056 06e5 534F505F 		.ascii	"SOP_INVALID\000"
 14056      494E5641 
 14056      4C494400 
 14057              	.LASF4:
 14058 06f1 5F5F7569 		.ascii	"__uint16_t\000"
 14058      6E743136 
 14058      5F7400
 14059              	.LASF474:
 14060 06fc 76646F5F 		.ascii	"vdo_idx\000"
 14060      69647800 
 14061              	.LASF193:
 14062 0704 7573625F 		.ascii	"usb_pid\000"
 14062      70696400 
 14063              	.LASF86:
 14064 070c 4150505F 		.ascii	"APP_EVT_TEMPERATURE_FAULT\000"
 14064      4556545F 
 14064      54454D50 
 14064      45524154 
 14064      5552455F 
 14065              	.LASF235:
 14066 0726 6D756C74 		.ascii	"mult_fun\000"
 14066      5F66756E 
 14066      00
 14067              	.LASF469:
 14068 072f 74656D70 		.ascii	"temp\000"
 14068      00
 14069              	.LASF298:
 14070 0734 7374645F 		.ascii	"std_prod_vdo\000"
ARM GAS  e:\temp\ccP12Hvn.s 			page 293


 14070      70726F64 
 14070      5F76646F 
 14070      00
 14071              	.LASF119:
 14072 0741 6D6F6465 		.ascii	"mode\000"
 14072      00
 14073              	.LASF475:
 14074 0746 616D5F69 		.ascii	"am_info_p\000"
 14074      6E666F5F 
 14074      7000
 14075              	.LASF496:
 14076 0750 6576616C 		.ascii	"eval_app_alt_mode_cmd\000"
 14076      5F617070 
 14076      5F616C74 
 14076      5F6D6F64 
 14076      655F636D 
 14077              	.LASF450:
 14078 0766 696E666F 		.ascii	"info\000"
 14078      00
 14079              	.LASF412:
 14080 076b 7576646D 		.ascii	"uvdm_supp\000"
 14080      5F737570 
 14080      7000
 14081              	.LASF443:
 14082 0775 6176616C 		.ascii	"aval_modes\000"
 14082      5F6D6F64 
 14082      657300
 14083              	.LASF354:
 14084 0780 414C545F 		.ascii	"ALT_MODE_MNGR_STATE_DISC_MODE\000"
 14084      4D4F4445 
 14084      5F4D4E47 
 14084      525F5354 
 14084      4154455F 
 14085              	.LASF431:
 14086 079e 616C745F 		.ascii	"alt_modes_numb\000"
 14086      6D6F6465 
 14086      735F6E75 
 14086      6D6200
 14087              	.LASF416:
 14088 07ad 6576616C 		.ascii	"eval_app_cmd\000"
 14088      5F617070 
 14088      5F636D64 
 14088      00
 14089              	.LASF506:
 14090 07ba 69735F61 		.ascii	"is_alt_mode_allowed\000"
 14090      6C745F6D 
 14090      6F64655F 
 14090      616C6C6F 
 14090      77656400 
 14091              	.LASF489:
 14092 07ce 616C745F 		.ascii	"alt_mode_state\000"
 14092      6D6F6465 
 14092      5F737461 
 14092      746500
 14093              	.LASF1:
 14094 07dd 756E7369 		.ascii	"unsigned char\000"
 14094      676E6564 
ARM GAS  e:\temp\ccP12Hvn.s 			page 294


 14094      20636861 
 14094      7200
 14095              	.LASF34:
 14096 07eb 65787464 		.ascii	"extd_msg_t\000"
 14096      5F6D7367 
 14096      5F7400
 14097              	.LASF92:
 14098 07f6 4150505F 		.ascii	"APP_EVT_TYPEC_ATTACH\000"
 14098      4556545F 
 14098      54595045 
 14098      435F4154 
 14098      54414348 
 14099              	.LASF353:
 14100 080b 76646D5F 		.ascii	"vdm_msg_info_t\000"
 14100      6D73675F 
 14100      696E666F 
 14100      5F7400
 14101              	.LASF370:
 14102 081a 414D5F45 		.ascii	"AM_EVT_DISC_FINISHED\000"
 14102      56545F44 
 14102      4953435F 
 14102      46494E49 
 14102      53484544 
 14103              	.LASF159:
 14104 082f 52444F5F 		.ascii	"RDO_BAT_GIVEBACK\000"
 14104      4241545F 
 14104      47495645 
 14104      4241434B 
 14104      00
 14105              	.LASF15:
 14106 0840 666C6F61 		.ascii	"float\000"
 14106      7400
 14107              	.LASF234:
 14108 0846 7077725F 		.ascii	"pwr_low\000"
 14108      6C6F7700 
 14109              	.LASF293:
 14110 084e 75737464 		.ascii	"ustd_vdm_hdr\000"
 14110      5F76646D 
 14110      5F686472 
 14110      00
 14111              	.LASF243:
 14112 085b 6466705F 		.ascii	"dfp_asgmnt\000"
 14112      6173676D 
 14112      6E7400
 14113              	.LASF307:
 14114 0866 64705F63 		.ascii	"dp_cfg_vdo\000"
 14114      66675F76 
 14114      646F00
 14115              	.LASF256:
 14116 0871 6F75745F 		.ascii	"out_volt\000"
 14116      766F6C74 
 14116      00
 14117              	.LASF245:
 14118 087a 5050535F 		.ascii	"PPS_SRC\000"
 14118      53524300 
 14119              	.LASF366:
 14120 0882 414D5F4E 		.ascii	"AM_NO_EVT\000"
ARM GAS  e:\temp\ccP12Hvn.s 			page 295


 14120      4F5F4556 
 14120      5400
 14121              	.LASF310:
 14122 088c 72646F5F 		.ascii	"rdo_pps\000"
 14122      70707300 
 14123              	.LASF367:
 14124 0894 414D5F45 		.ascii	"AM_EVT_SVID_NOT_FOUND\000"
 14124      56545F53 
 14124      5649445F 
 14124      4E4F545F 
 14124      464F554E 
 14125              	.LASF221:
 14126 08aa 5354445F 		.ascii	"STD_SVID_RESP_VDO\000"
 14126      53564944 
 14126      5F524553 
 14126      505F5644 
 14126      4F00
 14127              	.LASF42:
 14128 08bc 736F705F 		.ascii	"sop_t\000"
 14128      7400
 14129              	.LASF56:
 14130 08c2 56444D5F 		.ascii	"VDM_CMD_DP_CONFIGURE\000"
 14130      434D445F 
 14130      44505F43 
 14130      4F4E4649 
 14130      47555245 
 14131              	.LASF325:
 14132 08d7 74696D65 		.ascii	"timeout\000"
 14132      6F757400 
 14133              	.LASF343:
 14134 08df 76646D5F 		.ascii	"vdm_evt_t\000"
 14134      6576745F 
 14134      7400
 14135              	.LASF130:
 14136 08e9 6475616C 		.ascii	"dual_role_power\000"
 14136      5F726F6C 
 14136      655F706F 
 14136      77657200 
 14137              	.LASF264:
 14138 08f9 696E7465 		.ascii	"intel_mode\000"
 14138      6C5F6D6F 
 14138      646500
 14139              	.LASF422:
 14140 0904 4D55585F 		.ascii	"MUX_CONFIG_DP_4_LANE\000"
 14140      434F4E46 
 14140      49475F44 
 14140      505F345F 
 14140      4C414E45 
 14141              	.LASF64:
 14142 0919 4150505F 		.ascii	"APP_EVT_APP_HW\000"
 14142      4556545F 
 14142      4150505F 
 14142      485700
 14143              	.LASF31:
 14144 0928 45585444 		.ascii	"EXTD_MSG_PPS_STATUS\000"
 14144      5F4D5347 
 14144      5F505053 
ARM GAS  e:\temp\ccP12Hvn.s 			page 296


 14144      5F535441 
 14144      54555300 
 14145              	.LASF511:
 14146 093c 616C745F 		.ascii	"alt_mode_hw_wakeup\000"
 14146      6D6F6465 
 14146      5F68775F 
 14146      77616B65 
 14146      757000
 14147              	.LASF67:
 14148 094f 4150505F 		.ascii	"APP_EVT_HARD_RESET_RCVD\000"
 14148      4556545F 
 14148      48415244 
 14148      5F524553 
 14148      45545F52 
 14149              	.LASF278:
 14150 0967 62697374 		.ascii	"bist_do\000"
 14150      5F646F00 
 14151              	.LASF464:
 14152 096f 72657365 		.ascii	"reset_alt_mode_info\000"
 14152      745F616C 
 14152      745F6D6F 
 14152      64655F69 
 14152      6E666F00 
 14153              	.LASF387:
 14154 0983 616C745F 		.ascii	"alt_mode_evt\000"
 14154      6D6F6465 
 14154      5F657674 
 14154      00
 14155              	.LASF294:
 14156 0990 75737464 		.ascii	"ustd_qc_4_0_hdr\000"
 14156      5F71635F 
 14156      345F305F 
 14156      68647200 
 14157              	.LASF103:
 14158 09a0 6D73675F 		.ascii	"msg_type\000"
 14158      74797065 
 14158      00
 14159              	.LASF503:
 14160 09a9 616C745F 		.ascii	"alt_mode_ams_table\000"
 14160      6D6F6465 
 14160      5F616D73 
 14160      5F746162 
 14160      6C6500
 14161              	.LASF21:
 14162 09bc 45585444 		.ascii	"EXTD_MSG_STATUS\000"
 14162      5F4D5347 
 14162      5F535441 
 14162      54555300 
 14163              	.LASF166:
 14164 09cc 5354445F 		.ascii	"STD_VDM_HDR\000"
 14164      56444D5F 
 14164      48445200 
 14165              	.LASF162:
 14166 09d8 6D696E5F 		.ascii	"min_max_power_cur\000"
 14166      6D61785F 
 14166      706F7765 
 14166      725F6375 
ARM GAS  e:\temp\ccP12Hvn.s 			page 297


 14166      7200
 14167              	.LASF43:
 14168 09ea 5052545F 		.ascii	"PRT_TYPE_UFP\000"
 14168      54595045 
 14168      5F554650 
 14168      00
 14169              	.LASF60:
 14170 09f7 4150505F 		.ascii	"APP_EVT_DISCONNECT\000"
 14170      4556545F 
 14170      44495343 
 14170      4F4E4E45 
 14170      435400
 14171              	.LASF164:
 14172 0a0a 52444F5F 		.ascii	"RDO_GEN_GVB\000"
 14172      47454E5F 
 14172      47564200 
 14173              	.LASF252:
 14174 0a16 6F705F63 		.ascii	"op_cur\000"
 14174      757200
 14175              	.LASF326:
 14176 0a1d 636D645F 		.ascii	"cmd_do\000"
 14176      646F00
 14177              	.LASF170:
 14178 0a24 73766964 		.ascii	"svid\000"
 14178      00
 14179              	.LASF393:
 14180 0a29 616C745F 		.ascii	"alt_mode_event_data\000"
 14180      6D6F6465 
 14180      5F657665 
 14180      6E745F64 
 14180      61746100 
 14181              	.LASF394:
 14182 0a3d 616C745F 		.ascii	"alt_mode_evt_t\000"
 14182      6D6F6465 
 14182      5F657674 
 14182      5F7400
 14183              	.LASF384:
 14184 0a4c 414D5F43 		.ascii	"AM_CMD_SPEC\000"
 14184      4D445F53 
 14184      50454300 
 14185              	.LASF336:
 14186 0a58 56444D5F 		.ascii	"VDM_TASK_SEND_MSG\000"
 14186      5441534B 
 14186      5F53454E 
 14186      445F4D53 
 14186      4700
 14187              	.LASF82:
 14188 0a6a 4150505F 		.ascii	"APP_EVT_VCONN_OCP_FAULT\000"
 14188      4556545F 
 14188      56434F4E 
 14188      4E5F4F43 
 14188      505F4641 
 14189              	.LASF237:
 14190 0a82 65786974 		.ascii	"exit\000"
 14190      00
 14191              	.LASF483:
 14192 0a87 6375725F 		.ascii	"cur_svid\000"
ARM GAS  e:\temp\ccP12Hvn.s 			page 298


 14192      73766964 
 14192      00
 14193              	.LASF148:
 14194 0a90 6D61785F 		.ascii	"max_op_current\000"
 14194      6F705F63 
 14194      75727265 
 14194      6E7400
 14195              	.LASF230:
 14196 0a9f 7566705F 		.ascii	"ufp_d_pin\000"
 14196      645F7069 
 14196      6E00
 14197              	.LASF404:
 14198 0aa9 6170705F 		.ascii	"app_evt\000"
 14198      65767400 
 14199              	.LASF219:
 14200 0ab1 616D615F 		.ascii	"ama_hw_ver\000"
 14200      68775F76 
 14200      657200
 14201              	.LASF158:
 14202 0abc 6D61785F 		.ascii	"max_op_power\000"
 14202      6F705F70 
 14202      6F776572 
 14202      00
 14203              	.LASF446:
 14204 0ac9 6765745F 		.ascii	"get_alt_mode_tbl_idx\000"
 14204      616C745F 
 14204      6D6F6465 
 14204      5F74626C 
 14204      5F696478 
 14205              	.LASF25:
 14206 0ade 45585444 		.ascii	"EXTD_MSG_GET_MANU_INFO\000"
 14206      5F4D5347 
 14206      5F474554 
 14206      5F4D414E 
 14206      555F494E 
 14207              	.LASF149:
 14208 0af5 72737276 		.ascii	"rsrvd1\000"
 14208      643100
 14209              	.LASF154:
 14210 0afc 72737276 		.ascii	"rsrvd2\000"
 14210      643200
 14211              	.LASF12:
 14212 0b03 75696E74 		.ascii	"uint8_t\000"
 14212      385F7400 
 14213              	.LASF282:
 14214 0b0b 7372635F 		.ascii	"src_gen\000"
 14214      67656E00 
 14215              	.LASF208:
 14216 0b13 63626C5F 		.ascii	"cbl_hw_ver\000"
 14216      68775F76 
 14216      657200
 14217              	.LASF100:
 14218 0b1e 56444D5F 		.ascii	"VDM_AMS_RESP_FROM_EC\000"
 14218      414D535F 
 14218      52455350 
 14218      5F46524F 
 14218      4D5F4543 
ARM GAS  e:\temp\ccP12Hvn.s 			page 299


 14219              	.LASF228:
 14220 0b33 75736232 		.ascii	"usb2_0\000"
 14220      5F3000
 14221              	.LASF277:
 14222 0b3a 64617461 		.ascii	"data_cnt\000"
 14222      5F636E74 
 14222      00
 14223              	.LASF244:
 14224 0b43 7566705F 		.ascii	"ufp_asgmnt\000"
 14224      6173676D 
 14224      6E7400
 14225              	.LASF516:
 14226 0b4e 616C745F 		.ascii	"alt_mode_hw_is_idle\000"
 14226      6D6F6465 
 14226      5F68775F 
 14226      69735F69 
 14226      646C6500 
 14227              	.LASF258:
 14228 0b62 686F745F 		.ascii	"hot_swap_bats\000"
 14228      73776170 
 14228      5F626174 
 14228      7300
 14229              	.LASF35:
 14230 0b70 534F505F 		.ascii	"SOP_PRIME\000"
 14230      5052494D 
 14230      4500
 14231              	.LASF115:
 14232 0b7a 70645F65 		.ascii	"pd_extd_hdr_t\000"
 14232      7874645F 
 14232      6864725F 
 14232      7400
 14233              	.LASF485:
 14234 0b88 616C745F 		.ascii	"alt_mode_idx\000"
 14234      6D6F6465 
 14234      5F696478 
 14234      00
 14235              	.LASF339:
 14236 0b95 56444D5F 		.ascii	"VDM_EVT_RUN\000"
 14236      4556545F 
 14236      52554E00 
 14237              	.LASF207:
 14238 0ba1 63626C5F 		.ascii	"cbl_fw_ver\000"
 14238      66775F76 
 14238      657200
 14239              	.LASF160:
 14240 0bac 6D696E5F 		.ascii	"min_op_power\000"
 14240      6F705F70 
 14240      6F776572 
 14240      00
 14241              	.LASF375:
 14242 0bb9 414D5F45 		.ascii	"AM_EVT_CBL_RESP_FAILED\000"
 14242      56545F43 
 14242      424C5F52 
 14242      4553505F 
 14242      4641494C 
 14243              	.LASF36:
 14244 0bd0 534F505F 		.ascii	"SOP_DPRIME\000"
ARM GAS  e:\temp\ccP12Hvn.s 			page 300


 14244      44505249 
 14244      4D4500
 14245              	.LASF315:
 14246 0bdb 70645F64 		.ascii	"pd_do_t\000"
 14246      6F5F7400 
 14247              	.LASF454:
 14248 0be3 616C745F 		.ascii	"alt_mode_mngr_wakeup\000"
 14248      6D6F6465 
 14248      5F6D6E67 
 14248      725F7761 
 14248      6B657570 
 14249              	.LASF79:
 14250 0bf8 4150505F 		.ascii	"APP_EVT_PD_CONTRACT_NEGOTIATION_COMPLETE\000"
 14250      4556545F 
 14250      50445F43 
 14250      4F4E5452 
 14250      4143545F 
 14251              	.LASF381:
 14252 0c21 414D5F53 		.ascii	"AM_SET_TRIGGER_MASK\000"
 14252      45545F54 
 14252      52494747 
 14252      45525F4D 
 14252      41534B00 
 14253              	.LASF260:
 14254 0c35 6261745F 		.ascii	"bat_status_change\000"
 14254      73746174 
 14254      75735F63 
 14254      68616E67 
 14254      6500
 14255              	.LASF374:
 14256 0c47 414D5F45 		.ascii	"AM_EVT_SOP_RESP_FAILED\000"
 14256      56545F53 
 14256      4F505F52 
 14256      4553505F 
 14256      4641494C 
 14257              	.LASF81:
 14258 0c5e 4150505F 		.ascii	"APP_EVT_VBUS_OCP_FAULT\000"
 14258      4556545F 
 14258      56425553 
 14258      5F4F4350 
 14258      5F464155 
 14259              	.LASF471:
 14260 0c75 68616E64 		.ascii	"handle_cbl_disc_mode\000"
 14260      6C655F63 
 14260      626C5F64 
 14260      6973635F 
 14260      6D6F6465 
 14261              	.LASF188:
 14262 0c8a 7573625F 		.ascii	"usb_host\000"
 14262      686F7374 
 14262      00
 14263              	.LASF477:
 14264 0c93 6576616C 		.ascii	"eval_disc_mode\000"
 14264      5F646973 
 14264      635F6D6F 
 14264      646500
 14265              	.LASF383:
ARM GAS  e:\temp\ccP12Hvn.s 			page 301


 14266 0ca2 414D5F43 		.ascii	"AM_CMD_EXIT\000"
 14266      4D445F45 
 14266      58495400 
 14267              	.LASF272:
 14268 0cae 6D6F6475 		.ascii	"module_type\000"
 14268      6C655F74 
 14268      79706500 
 14269              	.LASF89:
 14270 0cba 4150505F 		.ascii	"APP_EVT_VBUS_SCP_FAULT\000"
 14270      4556545F 
 14270      56425553 
 14270      5F534350 
 14270      5F464155 
 14271              	.LASF111:
 14272 0cd1 72657175 		.ascii	"request\000"
 14272      65737400 
 14273              	.LASF403:
 14274 0cd9 61746368 		.ascii	"atch_tgt_info\000"
 14274      5F746774 
 14274      5F696E66 
 14274      6F00
 14275              	.LASF195:
 14276 0ce7 7573625F 		.ascii	"usb_ss_sup\000"
 14276      73735F73 
 14276      757000
 14277              	.LASF304:
 14278 0cf2 7374645F 		.ascii	"std_svid_res\000"
 14278      73766964 
 14278      5F726573 
 14278      00
 14279              	.LASF47:
 14280 0cff 56444D5F 		.ascii	"VDM_TYPE_UNSTRUCTURED\000"
 14280      54595045 
 14280      5F554E53 
 14280      54525543 
 14280      54555245 
 14281              	.LASF126:
 14282 0d15 64725F73 		.ascii	"dr_swap\000"
 14282      77617000 
 14283              	.LASF113:
 14284 0d1d 6368756E 		.ascii	"chunked\000"
 14284      6B656400 
 14285              	.LASF182:
 14286 0d25 5354445F 		.ascii	"STD_VDM_ID_HDR\000"
 14286      56444D5F 
 14286      49445F48 
 14286      445200
 14287              	.LASF465:
 14288 0d34 6765745F 		.ascii	"get_vdm_buff\000"
 14288      76646D5F 
 14288      62756666 
 14288      00
 14289              	.LASF487:
 14290 0d41 69735F69 		.ascii	"is_idle\000"
 14290      646C6500 
 14291              	.LASF402:
 14292 0d49 73766964 		.ascii	"svid_vdo\000"
ARM GAS  e:\temp\ccP12Hvn.s 			page 302


 14292      5F76646F 
 14292      00
 14293              	.LASF311:
 14294 0d52 61646F5F 		.ascii	"ado_alert\000"
 14294      616C6572 
 14294      7400
 14295              	.LASF129:
 14296 0d5c 7573625F 		.ascii	"usb_suspend_sup\000"
 14296      73757370 
 14296      656E645F 
 14296      73757000 
 14297              	.LASF445:
 14298 0d6c 6765745F 		.ascii	"get_next_alt_mode\000"
 14298      6E657874 
 14298      5F616C74 
 14298      5F6D6F64 
 14298      6500
 14299              	.LASF74:
 14300 0d7e 4150505F 		.ascii	"APP_EVT_VENDOR_RESPONSE_TIMEOUT\000"
 14300      4556545F 
 14300      56454E44 
 14300      4F525F52 
 14300      4553504F 
 14301              	.LASF470:
 14302 0d9e 73656E64 		.ascii	"send_sln_app_evt\000"
 14302      5F736C6E 
 14302      5F617070 
 14302      5F657674 
 14302      00
 14303              	.LASF66:
 14304 0daf 4150505F 		.ascii	"APP_EVT_RP_CHANGE\000"
 14304      4556545F 
 14304      52505F43 
 14304      48414E47 
 14304      4500
 14305              	.LASF490:
 14306 0dc1 61707065 		.ascii	"appevt_type\000"
 14306      76745F74 
 14306      79706500 
 14307              	.LASF385:
 14308 0dcd 414D5F43 		.ascii	"AM_CMD_RUN_UFP_DISC\000"
 14308      4D445F52 
 14308      554E5F55 
 14308      46505F44 
 14308      49534300 
 14309              	.LASF286:
 14310 0de1 72646F5F 		.ascii	"rdo_fix_var\000"
 14310      6669785F 
 14310      76617200 
 14311              	.LASF194:
 14312 0ded 5354445F 		.ascii	"STD_CBL_VDO\000"
 14312      43424C5F 
 14312      56444F00 
 14313              	.LASF333:
 14314 0df9 56444D5F 		.ascii	"VDM_TASK_DISC_SVID\000"
 14314      5441534B 
 14314      5F444953 
ARM GAS  e:\temp\ccP12Hvn.s 			page 303


 14314      435F5356 
 14314      494400
 14315              	.LASF309:
 14316 0e0c 7070735F 		.ascii	"pps_snk\000"
 14316      736E6B00 
 14317              	.LASF141:
 14318 0e14 72737276 		.ascii	"rsrvd\000"
 14318      6400
 14319              	.LASF447:
 14320 0e1a 6765745F 		.ascii	"get_alt_mode_svid_idx\000"
 14320      616C745F 
 14320      6D6F6465 
 14320      5F737669 
 14320      645F6964 
 14321              	.LASF16:
 14322 0e30 646F7562 		.ascii	"double\000"
 14322      6C6500
 14323              	.LASF466:
 14324 0e37 666F726D 		.ascii	"form_alt_mode_event\000"
 14324      5F616C74 
 14324      5F6D6F64 
 14324      655F6576 
 14324      656E7400 
 14325              	.LASF449:
 14326 0e4b 6765745F 		.ascii	"get_vdm_info_vdo\000"
 14326      76646D5F 
 14326      696E666F 
 14326      5F76646F 
 14326      00
 14327              	.LASF340:
 14328 0e5c 56444D5F 		.ascii	"VDM_EVT_EVAL\000"
 14328      4556545F 
 14328      4556414C 
 14328      00
 14329              	.LASF355:
 14330 0e69 414C545F 		.ascii	"ALT_MODE_MNGR_STATE_PROCESS\000"
 14330      4D4F4445 
 14330      5F4D4E47 
 14330      525F5354 
 14330      4154455F 
 14331              	.LASF300:
 14332 0e85 7061735F 		.ascii	"pas_cbl_vdo\000"
 14332      63626C5F 
 14332      76646F00 
 14333              	.LASF520:
 14334 0e91 433A5C55 		.ascii	"C:\\Users\\Admin\\Desktop\\_FIRMWARE\\DBARLite\\CYP"
 14334      73657273 
 14334      5C41646D 
 14334      696E5C44 
 14334      65736B74 
 14335 0ebe 44353232 		.ascii	"D5225\\CYPD5225-96BZXI_notebook\\CYPD5225-96BZXI_no"
 14335      355C4359 
 14335      50443532 
 14335      32352D39 
 14335      36425A58 
 14336 0eef 7465626F 		.ascii	"tebook.cydsn\\noboot.cydsn\000"
 14336      6F6B2E63 
ARM GAS  e:\temp\ccP12Hvn.s 			page 304


 14336      7964736E 
 14336      5C6E6F62 
 14336      6F6F742E 
 14337              	.LASF430:
 14338 0f09 616C745F 		.ascii	"alt_mode_info\000"
 14338      6D6F6465 
 14338      5F696E66 
 14338      6F00
 14339              	.LASF146:
 14340 0f17 6F705F70 		.ascii	"op_power\000"
 14340      6F776572 
 14340      00
 14341              	.LASF165:
 14342 0f20 6D61785F 		.ascii	"max_power_cur\000"
 14342      706F7765 
 14342      725F6375 
 14342      7200
 14343              	.LASF499:
 14344 0f2e 666F756E 		.ascii	"found\000"
 14344      6400
 14345              	.LASF161:
 14346 0f34 52444F5F 		.ascii	"RDO_GEN\000"
 14346      47454E00 
 14347              	.LASF455:
 14348 0f3c 76646D5F 		.ascii	"vdm_evt\000"
 14348      65767400 
 14349              	.LASF509:
 14350 0f44 6D656D73 		.ascii	"memset\000"
 14350      657400
 14351              	.LASF452:
 14352 0f4b 72657365 		.ascii	"reset_mngr_info\000"
 14352      745F6D6E 
 14352      67725F69 
 14352      6E666F00 
 14353              	.LASF108:
 14354 0f5b 65787464 		.ascii	"extd\000"
 14354      00
 14355              	.LASF76:
 14356 0f60 4150505F 		.ascii	"APP_EVT_SOFT_RESET_SENT\000"
 14356      4556545F 
 14356      534F4654 
 14356      5F524553 
 14356      45545F53 
 14357              	.LASF435:
 14358 0f78 73766964 		.ascii	"svid_idx\000"
 14358      5F696478 
 14358      00
 14359              	.LASF303:
 14360 0f81 7374645F 		.ascii	"std_ama_vdo_pd3\000"
 14360      616D615F 
 14360      76646F5F 
 14360      70643300 
 14361              	.LASF274:
 14362 0f91 616D5F61 		.ascii	"am_addr\000"
 14362      64647200 
 14363              	.LASF198:
 14364 0f99 76627573 		.ascii	"vbus_cur\000"
ARM GAS  e:\temp\ccP12Hvn.s 			page 305


 14364      5F637572 
 14364      00
 14365              	.LASF308:
 14366 0fa2 7070735F 		.ascii	"pps_src\000"
 14366      73726300 
 14367              	.LASF168:
 14368 0faa 73745F76 		.ascii	"st_ver\000"
 14368      657200
 14369              	.LASF268:
 14370 0fb1 6C696E6B 		.ascii	"link_training\000"
 14370      5F747261 
 14370      696E696E 
 14370      6700
 14371              	.LASF27:
 14372 0fbf 45585444 		.ascii	"EXTD_MSG_SECURITY_REQ\000"
 14372      5F4D5347 
 14372      5F534543 
 14372      55524954 
 14372      595F5245 
 14373              	.LASF167:
 14374 0fd5 636D645F 		.ascii	"cmd_type\000"
 14374      74797065 
 14374      00
 14375              	.LASF240:
 14376 0fde 44505F43 		.ascii	"DP_CONFIG_VDO\000"
 14376      4F4E4649 
 14376      475F5644 
 14376      4F00
 14377              	.LASF479:
 14378 0fec 73656E64 		.ascii	"send_sln_event_nodata\000"
 14378      5F736C6E 
 14378      5F657665 
 14378      6E745F6E 
 14378      6F646174 
 14379              	.LASF19:
 14380 1002 73697A65 		.ascii	"sizetype\000"
 14380      74797065 
 14380      00
 14381              	.LASF155:
 14382 100b 52444F5F 		.ascii	"RDO_FIXED_VAR_GIVEBACK\000"
 14382      46495845 
 14382      445F5641 
 14382      525F4749 
 14382      56454241 
 14383              	.LASF382:
 14384 1022 414D5F43 		.ascii	"AM_CMD_ENTER\000"
 14384      4D445F45 
 14384      4E544552 
 14384      00
 14385              	.LASF110:
 14386 102f 72737664 		.ascii	"rsvd1\000"
 14386      3100
 14387              	.LASF118:
 14388 1035 72737664 		.ascii	"rsvd2\000"
 14388      3200
 14389              	.LASF211:
 14390 103b 72737664 		.ascii	"rsvd3\000"
ARM GAS  e:\temp\ccP12Hvn.s 			page 306


 14390      3300
 14391              	.LASF254:
 14392 1041 72737664 		.ascii	"rsvd4\000"
 14392      3400
 14393              	.LASF5:
 14394 1047 73686F72 		.ascii	"short unsigned int\000"
 14394      7420756E 
 14394      7369676E 
 14394      65642069 
 14394      6E7400
 14395              	.LASF0:
 14396 105a 7369676E 		.ascii	"signed char\000"
 14396      65642063 
 14396      68617200 
 14397              	.LASF507:
 14398 1066 676C5F64 		.ascii	"gl_dpm_port_type\000"
 14398      706D5F70 
 14398      6F72745F 
 14398      74797065 
 14398      00
 14399              	.LASF177:
 14400 1077 51435F34 		.ascii	"QC_4_0_DATA_VDO\000"
 14400      5F305F44 
 14400      4154415F 
 14400      56444F00 
 14401              	.LASF255:
 14402 1087 52444F5F 		.ascii	"RDO_PPS\000"
 14402      50505300 
 14403              	.LASF440:
 14404 108f 69647831 		.ascii	"idx1\000"
 14404      00
 14405              	.LASF441:
 14406 1094 69647832 		.ascii	"idx2\000"
 14406      00
 14407              	.LASF396:
 14408 1099 616C745F 		.ascii	"alt_mode_app_cbk_t\000"
 14408      6D6F6465 
 14408      5F617070 
 14408      5F63626B 
 14408      5F7400
 14409              	.LASF91:
 14410 10ac 4150505F 		.ascii	"APP_EVT_TYPEC_ATTACH_WAIT_TO_UNATTACHED\000"
 14410      4556545F 
 14410      54595045 
 14410      435F4154 
 14410      54414348 
 14411              	.LASF498:
 14412 10d4 636D645F 		.ascii	"cmd_data\000"
 14412      64617461 
 14412      00
 14413              	.LASF369:
 14414 10dd 414D5F45 		.ascii	"AM_EVT_ALT_MODE_EXITED\000"
 14414      56545F41 
 14414      4C545F4D 
 14414      4F44455F 
 14414      45584954 
 14415              	.LASF461:
ARM GAS  e:\temp\ccP12Hvn.s 			page 307


 14416 10f4 69735F61 		.ascii	"is_alt_modes_available\000"
 14416      6C745F6D 
 14416      6F646573 
 14416      5F617661 
 14416      696C6162 
 14417              	.LASF514:
 14418 110b 736C6E5F 		.ascii	"sln_pd_event_handler\000"
 14418      70645F65 
 14418      76656E74 
 14418      5F68616E 
 14418      646C6572 
 14419              	.LASF413:
 14420 1120 7365745F 		.ascii	"set_mux_isolate\000"
 14420      6D75785F 
 14420      69736F6C 
 14420      61746500 
 14421              	.LASF434:
 14422 1130 76646D5F 		.ascii	"vdm_info\000"
 14422      696E666F 
 14422      00
 14423              	.LASF323:
 14424 1139 6E6F5F6F 		.ascii	"no_of_cmd_do\000"
 14424      665F636D 
 14424      645F646F 
 14424      00
 14425              	.LASF147:
 14426 1146 52444F5F 		.ascii	"RDO_FIXED_VAR\000"
 14426      46495845 
 14426      445F5641 
 14426      5200
 14427              	.LASF347:
 14428 1154 7467745F 		.ascii	"tgt_svid\000"
 14428      73766964 
 14428      00
 14429              	.LASF232:
 14430 115d 44505F53 		.ascii	"DP_STATUS_VDO\000"
 14430      54415455 
 14430      535F5644 
 14430      4F00
 14431              	.LASF433:
 14432 116b 73746174 		.ascii	"state\000"
 14432      6500
 14433              	.LASF451:
 14434 1171 6D6F7665 		.ascii	"move_to_vdm_info\000"
 14434      5F746F5F 
 14434      76646D5F 
 14434      696E666F 
 14434      00
 14435              	.LASF295:
 14436 1182 71635F34 		.ascii	"qc_4_0_data_vdo\000"
 14436      5F305F64 
 14436      6174615F 
 14436      76646F00 
 14437              	.LASF495:
 14438 1192 616C745F 		.ascii	"alt_mode_mngr_exit_all\000"
 14438      6D6F6465 
 14438      5F6D6E67 
ARM GAS  e:\temp\ccP12Hvn.s 			page 308


 14438      725F6578 
 14438      69745F61 
 14439              	.LASF178:
 14440 11a9 64617461 		.ascii	"data_0\000"
 14440      5F3000
 14441              	.LASF179:
 14442 11b0 64617461 		.ascii	"data_1\000"
 14442      5F3100
 14443              	.LASF180:
 14444 11b7 64617461 		.ascii	"data_2\000"
 14444      5F3200
 14445              	.LASF181:
 14446 11be 64617461 		.ascii	"data_3\000"
 14446      5F3300
 14447              	.LASF397:
 14448 11c5 616C745F 		.ascii	"alt_mode_id\000"
 14448      6D6F6465 
 14448      5F696400 
 14449              	.LASF102:
 14450 11d1 76646D5F 		.ascii	"vdm_ams_t\000"
 14450      616D735F 
 14450      7400
 14451              	.LASF101:
 14452 11db 56444D5F 		.ascii	"VDM_AMS_RESP_NOT_SUPP\000"
 14452      414D535F 
 14452      52455350 
 14452      5F4E4F54 
 14452      5F535550 
 14453              	.LASF292:
 14454 11f1 7374645F 		.ascii	"std_vdm_hdr\000"
 14454      76646D5F 
 14454      68647200 
 14455              	.LASF419:
 14456 11fd 4D55585F 		.ascii	"MUX_CONFIG_2_0\000"
 14456      434F4E46 
 14456      49475F32 
 14456      5F3000
 14457              	.LASF313:
 14458 120c 736C6963 		.ascii	"slice_vdo\000"
 14458      655F7664 
 14458      6F00
 14459              	.LASF37:
 14460 1216 534F505F 		.ascii	"SOP_P_DEBUG\000"
 14460      505F4445 
 14460      42554700 
 14461              	.LASF291:
 14462 1222 72646F5F 		.ascii	"rdo_gen_gvb\000"
 14462      67656E5F 
 14462      67766200 
 14463              	.LASF429:
 14464 122e 616D5F61 		.ascii	"am_active_modes\000"
 14464      63746976 
 14464      655F6D6F 
 14464      64657300 
 14465              	.LASF153:
 14466 123e 6F626A5F 		.ascii	"obj_pos\000"
 14466      706F7300 
ARM GAS  e:\temp\ccP12Hvn.s 			page 309


 14467              	.LASF63:
 14468 1246 4150505F 		.ascii	"APP_EVT_ALT_MODE\000"
 14468      4556545F 
 14468      414C545F 
 14468      4D4F4445 
 14468      00
 14469              	.LASF6:
 14470 1257 6C6F6E67 		.ascii	"long int\000"
 14470      20696E74 
 14470      00
 14471              	.LASF406:
 14472 1260 6D6F6465 		.ascii	"mode_state\000"
 14472      5F737461 
 14472      746500
 14473              	.LASF241:
 14474 126b 73656C5F 		.ascii	"sel_conf\000"
 14474      636F6E66 
 14474      00
 14475              	.LASF439:
 14476 1274 76646D5F 		.ascii	"vdm_p\000"
 14476      7000
 14477              	.LASF428:
 14478 127a 616D5F65 		.ascii	"am_exited_modes\000"
 14478      78697465 
 14478      645F6D6F 
 14478      64657300 
 14479              	.LASF174:
 14480 128a 55535444 		.ascii	"USTD_QC_4_0_HDR\000"
 14480      5F51435F 
 14480      345F305F 
 14480      48445200 
 14481              	.LASF373:
 14482 129a 414D5F45 		.ascii	"AM_EVT_ALT_MODE_SUPP\000"
 14482      56545F41 
 14482      4C545F4D 
 14482      4F44455F 
 14482      53555050 
 14483              	.LASF378:
 14484 12af 414D5F45 		.ascii	"AM_EVT_DATA_EVT\000"
 14484      56545F44 
 14484      4154415F 
 14484      45565400 
 14485              	.LASF331:
 14486 12bf 56444D5F 		.ascii	"VDM_TASK_INIT\000"
 14486      5441534B 
 14486      5F494E49 
 14486      5400
 14487              	.LASF184:
 14488 12cd 70726F64 		.ascii	"prod_type_dfp\000"
 14488      5F747970 
 14488      655F6466 
 14488      7000
 14489              	.LASF337:
 14490 12db 56444D5F 		.ascii	"VDM_TASK_ALT_MODE\000"
 14490      5441534B 
 14490      5F414C54 
 14490      5F4D4F44 
ARM GAS  e:\temp\ccP12Hvn.s 			page 310


 14490      4500
 14491              	.LASF418:
 14492 12ed 4D55585F 		.ascii	"MUX_CONFIG_ISOLATE\000"
 14492      434F4E46 
 14492      49475F49 
 14492      534F4C41 
 14492      544500
 14493              	.LASF417:
 14494 1300 616C745F 		.ascii	"alt_mode_info_t\000"
 14494      6D6F6465 
 14494      5F696E66 
 14494      6F5F7400 
 14495              	.LASF78:
 14496 1310 4150505F 		.ascii	"APP_EVT_PE_DISABLED\000"
 14496      4556545F 
 14496      50455F44 
 14496      49534142 
 14496      4C454400 
 14497              	.LASF144:
 14498 1324 5641525F 		.ascii	"VAR_SNK\000"
 14498      534E4B00 
 14499              	.LASF346:
 14500 132c 63626C5F 		.ascii	"cbl_vdo\000"
 14500      76646F00 
 14501              	.LASF121:
 14502 1334 6D61785F 		.ascii	"max_current\000"
 14502      63757272 
 14502      656E7400 
 14503              	.LASF14:
 14504 1340 75696E74 		.ascii	"uint32_t\000"
 14504      33325F74 
 14504      00
 14505              	.LASF513:
 14506 1349 6765745F 		.ascii	"get_pd_port_config\000"
 14506      70645F70 
 14506      6F72745F 
 14506      636F6E66 
 14506      696700
 14507              	.LASF224:
 14508 135c 5354445F 		.ascii	"STD_DP_VDO\000"
 14508      44505F56 
 14508      444F00
 14509              	.LASF305:
 14510 1367 7374645F 		.ascii	"std_dp_vdo\000"
 14510      64705F76 
 14510      646F00
 14511              	.LASF400:
 14512 1372 63626C5F 		.ascii	"cbl_sop_flag\000"
 14512      736F705F 
 14512      666C6167 
 14512      00
 14513              	.LASF97:
 14514 137f 4150505F 		.ascii	"APP_EVT_PD_SINK_DEVICE_CONNECTED\000"
 14514      4556545F 
 14514      50445F53 
 14514      494E4B5F 
 14514      44455649 
ARM GAS  e:\temp\ccP12Hvn.s 			page 311


 14515              	.LASF112:
 14516 13a0 6368756E 		.ascii	"chunk_no\000"
 14516      6B5F6E6F 
 14516      00
 14517              	.LASF18:
 14518 13a9 6C6F6E67 		.ascii	"long double\000"
 14518      20646F75 
 14518      626C6500 
 14519              	.LASF44:
 14520 13b5 5052545F 		.ascii	"PRT_TYPE_DFP\000"
 14520      54595045 
 14520      5F444650 
 14520      00
 14521              	.LASF283:
 14522 13c2 66697865 		.ascii	"fixed_snk\000"
 14522      645F736E 
 14522      6B00
 14523              	.LASF8:
 14524 13cc 6C6F6E67 		.ascii	"long unsigned int\000"
 14524      20756E73 
 14524      69676E65 
 14524      6420696E 
 14524      7400
 14525              	.LASF269:
 14526 13de 6C65675F 		.ascii	"leg_adpt\000"
 14526      61647074 
 14526      00
 14527              	.LASF51:
 14528 13e7 56444D5F 		.ascii	"VDM_CMD_DSC_MODES\000"
 14528      434D445F 
 14528      4453435F 
 14528      4D4F4445 
 14528      5300
 14529              	.LASF48:
 14530 13f9 56444D5F 		.ascii	"VDM_TYPE_STRUCTURED\000"
 14530      54595045 
 14530      5F535452 
 14530      55435455 
 14530      52454400 
 14531              	.LASF259:
 14532 140d 66697865 		.ascii	"fixed_bats\000"
 14532      645F6261 
 14532      747300
 14533              	.LASF318:
 14534 1418 6E6F5F72 		.ascii	"no_resp\000"
 14534      65737000 
 14535              	.LASF365:
 14536 1420 616C745F 		.ascii	"alt_mode_state_t\000"
 14536      6D6F6465 
 14536      5F737461 
 14536      74655F74 
 14536      00
 14537              	.LASF262:
 14538 1431 7372635F 		.ascii	"src_input_change\000"
 14538      696E7075 
 14538      745F6368 
 14538      616E6765 
ARM GAS  e:\temp\ccP12Hvn.s 			page 312


 14538      00
 14539              	.LASF55:
 14540 1442 56444D5F 		.ascii	"VDM_CMD_DP_STATUS_UPDT\000"
 14540      434D445F 
 14540      44505F53 
 14540      54415455 
 14540      535F5550 
 14541              	.LASF409:
 14542 1459 63626C5F 		.ascii	"cbl_obj_pos\000"
 14542      6F626A5F 
 14542      706F7300 
 14543              	.LASF17:
 14544 1465 63686172 		.ascii	"char\000"
 14544      00
 14545              	.LASF273:
 14546 146a 534C4943 		.ascii	"SLICE_SUBHDR\000"
 14546      455F5355 
 14546      42484452 
 14546      00
 14547              	.LASF175:
 14548 1477 636D645F 		.ascii	"cmd_0\000"
 14548      3000
 14549              	.LASF176:
 14550 147d 636D645F 		.ascii	"cmd_1\000"
 14550      3100
 14551              	.LASF388:
 14552 1483 616C745F 		.ascii	"alt_mode\000"
 14552      6D6F6465 
 14552      00
 14553              	.LASF463:
 14554 148c 706F7274 		.ascii	"port_type\000"
 14554      5F747970 
 14554      6500
 14555              	.LASF401:
 14556 1496 73766964 		.ascii	"svid_emca_vdo\000"
 14556      5F656D63 
 14556      615F7664 
 14556      6F00
 14557              	.LASF204:
 14558 14a4 63626C5F 		.ascii	"cbl_latency\000"
 14558      6C617465 
 14558      6E637900 
 14559              	.LASF379:
 14560 14b0 616C745F 		.ascii	"alt_mode_app_evt_t\000"
 14560      6D6F6465 
 14560      5F617070 
 14560      5F657674 
 14560      5F7400
 14561              	.LASF297:
 14562 14c3 7374645F 		.ascii	"std_cert_vdo\000"
 14562      63657274 
 14562      5F76646F 
 14562      00
 14563              	.LASF132:
 14564 14d0 5641525F 		.ascii	"VAR_SRC\000"
 14564      53524300 
 14565              	.LASF117:
ARM GAS  e:\temp\ccP12Hvn.s 			page 313


 14566 14d8 42495354 		.ascii	"BIST_DO\000"
 14566      5F444F00 
 14567              	.LASF261:
 14568 14e0 6F705F63 		.ascii	"op_cond_change\000"
 14568      6F6E645F 
 14568      6368616E 
 14568      676500
 14569              	.LASF215:
 14570 14ef 76627573 		.ascii	"vbus_req\000"
 14570      5F726571 
 14570      00
 14571              	.LASF80:
 14572 14f8 4150505F 		.ascii	"APP_EVT_VBUS_OVP_FAULT\000"
 14572      4556545F 
 14572      56425553 
 14572      5F4F5650 
 14572      5F464155 
 14573              	.LASF368:
 14574 150f 414D5F45 		.ascii	"AM_EVT_ALT_MODE_ENTERED\000"
 14574      56545F41 
 14574      4C545F4D 
 14574      4F44455F 
 14574      454E5445 
 14575              	.LASF94:
 14576 1527 4150505F 		.ascii	"APP_EVT_SBU_OVP\000"
 14576      4556545F 
 14576      5342555F 
 14576      4F565000 
 14577              	.LASF29:
 14578 1537 45585444 		.ascii	"EXTD_MSG_FW_UPDATE_REQ\000"
 14578      5F4D5347 
 14578      5F46575F 
 14578      55504441 
 14578      54455F52 
 14579              	.LASF279:
 14580 154e 66697865 		.ascii	"fixed_src\000"
 14580      645F7372 
 14580      6300
 14581              	.LASF85:
 14582 1558 4150505F 		.ascii	"APP_EVT_FR_SWAP_COMPLETE\000"
 14582      4556545F 
 14582      46525F53 
 14582      5741505F 
 14582      434F4D50 
 14583              	.LASF52:
 14584 1571 56444D5F 		.ascii	"VDM_CMD_ENTER_MODE\000"
 14584      434D445F 
 14584      454E5445 
 14584      525F4D4F 
 14584      444500
 14585              	.LASF214:
 14586 1584 5354445F 		.ascii	"STD_AMA_VDO\000"
 14586      414D415F 
 14586      56444F00 
 14587              	.LASF213:
 14588 1590 4143545F 		.ascii	"ACT_CBL_VDO\000"
 14588      43424C5F 
ARM GAS  e:\temp\ccP12Hvn.s 			page 314


 14588      56444F00 
 14589              	.LASF476:
 14590 159c 64697363 		.ascii	"disc_mode_fail\000"
 14590      5F6D6F64 
 14590      655F6661 
 14590      696C00
 14591              	.LASF290:
 14592 15ab 72646F5F 		.ascii	"rdo_gen\000"
 14592      67656E00 
 14593              	.LASF209:
 14594 15b3 5041535F 		.ascii	"PAS_CBL_VDO\000"
 14594      43424C5F 
 14594      56444F00 
 14595              	.LASF299:
 14596 15bf 7374645F 		.ascii	"std_cbl_vdo\000"
 14596      63626C5F 
 14596      76646F00 
 14597              	.LASF480:
 14598 15cb 616D5F69 		.ascii	"am_id\000"
 14598      6400
 14599              	.LASF58:
 14600 15d1 4150505F 		.ascii	"APP_EVT_TYPE_C_ERROR_RECOVERY\000"
 14600      4556545F 
 14600      54595045 
 14600      5F435F45 
 14600      52524F52 
 14601              	.LASF344:
 14602 15ef 7467745F 		.ascii	"tgt_id_header\000"
 14602      69645F68 
 14602      65616465 
 14602      7200
 14603              	.LASF231:
 14604 15fd 72737664 		.ascii	"rsvd\000"
 14604      00
 14605              	.LASF271:
 14606 1602 736C6963 		.ascii	"slice_mode\000"
 14606      655F6D6F 
 14606      646500
 14607              	.LASF351:
 14608 160d 736F705F 		.ascii	"sop_type\000"
 14608      74797065 
 14608      00
 14609              	.LASF59:
 14610 1616 4150505F 		.ascii	"APP_EVT_CONNECT\000"
 14610      4556545F 
 14610      434F4E4E 
 14610      45435400 
 14611              	.LASF500:
 14612 1626 6576616C 		.ascii	"eval_rec_vdm\000"
 14612      5F726563 
 14612      5F76646D 
 14612      00
 14613              	.LASF321:
 14614 1633 65787464 		.ascii	"extd_type\000"
 14614      5F747970 
 14614      6500
 14615              	.LASF519:
ARM GAS  e:\temp\ccP12Hvn.s 			page 315


 14616 163d 2E2E5C73 		.ascii	"..\\src\\app\\alt_mode\\alt_modes_mngr.c\000"
 14616      72635C61 
 14616      70705C61 
 14616      6C745F6D 
 14616      6F64655C 
 14617              	.LASF438:
 14618 1662 706F7274 		.ascii	"port\000"
 14618      00
 14619              	.LASF361:
 14620 1667 414C545F 		.ascii	"ALT_MODE_STATE_WAIT_FOR_RESP\000"
 14620      4D4F4445 
 14620      5F535441 
 14620      54455F57 
 14620      4149545F 
 14621              	.LASF411:
 14622 1684 63757374 		.ascii	"custom_att_obj_pos\000"
 14622      6F6D5F61 
 14622      74745F6F 
 14622      626A5F70 
 14622      6F7300
 14623              	.LASF359:
 14624 1697 414C545F 		.ascii	"ALT_MODE_STATE_INIT\000"
 14624      4D4F4445 
 14624      5F535441 
 14624      54455F49 
 14624      4E495400 
 14625              	.LASF502:
 14626 16ab 616C745F 		.ascii	"alt_mode_get_status\000"
 14626      6D6F6465 
 14626      5F676574 
 14626      5F737461 
 14626      74757300 
 14627              	.LASF407:
 14628 16bf 736F705F 		.ascii	"sop_state\000"
 14628      73746174 
 14628      6500
 14629              	.LASF71:
 14630 16c9 4150505F 		.ascii	"APP_EVT_DR_SWAP_COMPLETE\000"
 14630      4556545F 
 14630      44525F53 
 14630      5741505F 
 14630      434F4D50 
 14631              	.LASF200:
 14632 16e2 73737278 		.ascii	"ssrx1\000"
 14632      3100
 14633              	.LASF199:
 14634 16e8 73737278 		.ascii	"ssrx2\000"
 14634      3200
 14635              	.LASF7:
 14636 16ee 5F5F7569 		.ascii	"__uint32_t\000"
 14636      6E743332 
 14636      5F7400
 14637              	.LASF517:
 14638 16f9 7365745F 		.ascii	"set_mux\000"
 14638      6D757800 
 14639              	.LASF468:
 14640 1701 64617461 		.ascii	"data\000"
ARM GAS  e:\temp\ccP12Hvn.s 			page 316


 14640      00
 14641              	.LASF356:
 14642 1706 616C745F 		.ascii	"alt_mode_mngr_state_t\000"
 14642      6D6F6465 
 14642      5F6D6E67 
 14642      725F7374 
 14642      6174655F 
 14643              	.LASF270:
 14644 171c 534C4943 		.ascii	"SLICE_VDO\000"
 14644      455F5644 
 14644      4F00
 14645              	.LASF183:
 14646 1726 7573625F 		.ascii	"usb_vid\000"
 14646      76696400 
 14647              	.LASF275:
 14648 172e 76646F5F 		.ascii	"vdo_cnt\000"
 14648      636E7400 
 14649              	.LASF171:
 14650 1736 55535444 		.ascii	"USTD_VDM_HDR\000"
 14650      5F56444D 
 14650      5F484452 
 14650      00
 14651              	.LASF342:
 14652 1743 56444D5F 		.ascii	"VDM_EVT_EXIT\000"
 14652      4556545F 
 14652      45584954 
 14652      00
 14653              	.LASF512:
 14654 1750 6170705F 		.ascii	"app_get_status\000"
 14654      6765745F 
 14654      73746174 
 14654      757300
 14655              	.LASF65:
 14656 175f 4150505F 		.ascii	"APP_EVT_BB\000"
 14656      4556545F 
 14656      424200
 14657              	.LASF106:
 14658 176a 7077725F 		.ascii	"pwr_role\000"
 14658      726F6C65 
 14658      00
 14659              	.LASF444:
 14660 1773 74626C5F 		.ascii	"tbl_addr\000"
 14660      61646472 
 14660      00
 14661              	.LASF360:
 14662 177c 414C545F 		.ascii	"ALT_MODE_STATE_SEND\000"
 14662      4D4F4445 
 14662      5F535441 
 14662      54455F53 
 14662      454E4400 
 14663              	.LASF77:
 14664 1790 4150505F 		.ascii	"APP_EVT_CBL_RESET_SENT\000"
 14664      4556545F 
 14664      43424C5F 
 14664      52455345 
 14664      545F5345 
 14665              	.LASF33:
ARM GAS  e:\temp\ccP12Hvn.s 			page 317


 14666 17a7 45585444 		.ascii	"EXTD_MSG_COUNTRY_CODES\000"
 14666      5F4D5347 
 14666      5F434F55 
 14666      4E545259 
 14666      5F434F44 
 14667              	.LASF151:
 14668 17be 6361705F 		.ascii	"cap_mismatch\000"
 14668      6D69736D 
 14668      61746368 
 14668      00
 14669              	.LASF191:
 14670 17cb 5354445F 		.ascii	"STD_PROD_VDO\000"
 14670      50524F44 
 14670      5F56444F 
 14670      00
 14671              	.LASF68:
 14672 17d8 4150505F 		.ascii	"APP_EVT_HARD_RESET_COMPLETE\000"
 14672      4556545F 
 14672      48415244 
 14672      5F524553 
 14672      45545F43 
 14673              	.LASF364:
 14674 17f4 414C545F 		.ascii	"ALT_MODE_STATE_EXIT\000"
 14674      4D4F4445 
 14674      5F535441 
 14674      54455F45 
 14674      58495400 
 14675              	.LASF50:
 14676 1808 56444D5F 		.ascii	"VDM_CMD_DSC_SVIDS\000"
 14676      434D445F 
 14676      4453435F 
 14676      53564944 
 14676      5300
 14677              	.LASF253:
 14678 181a 6375725F 		.ascii	"cur_fb\000"
 14678      666200
 14679              	.LASF306:
 14680 1821 64705F73 		.ascii	"dp_stat_vdo\000"
 14680      7461745F 
 14680      76646F00 
 14681              	.LASF131:
 14682 182d 73757070 		.ascii	"supply_type\000"
 14682      6C795F74 
 14682      79706500 
 14683              	.LASF75:
 14684 1839 4150505F 		.ascii	"APP_EVT_HARD_RESET_SENT\000"
 14684      4556545F 
 14684      48415244 
 14684      5F524553 
 14684      45545F53 
 14685              	.LASF10:
 14686 1851 6C6F6E67 		.ascii	"long long unsigned int\000"
 14686      206C6F6E 
 14686      6720756E 
 14686      7369676E 
 14686      65642069 
 14687              	.LASF363:
ARM GAS  e:\temp\ccP12Hvn.s 			page 318


 14688 1868 414C545F 		.ascii	"ALT_MODE_STATE_RUN\000"
 14688      4D4F4445 
 14688      5F535441 
 14688      54455F52 
 14688      554E00
 14689              	.LASF189:
 14690 187b 5354445F 		.ascii	"STD_CERT_VDO\000"
 14690      43455254 
 14690      5F56444F 
 14690      00
 14691              	.LASF142:
 14692 1888 66725F73 		.ascii	"fr_swap\000"
 14692      77617000 
 14693              	.LASF139:
 14694 1890 46495845 		.ascii	"FIXED_SNK\000"
 14694      445F534E 
 14694      4B00
 14695              	.LASF45:
 14696 189a 5052545F 		.ascii	"PRT_TYPE_DRP\000"
 14696      54595045 
 14696      5F445250 
 14696      00
 14697              	.LASF358:
 14698 18a7 414C545F 		.ascii	"ALT_MODE_STATE_IDLE\000"
 14698      4D4F4445 
 14698      5F535441 
 14698      54455F49 
 14698      444C4500 
 14699              	.LASF484:
 14700 18bb 6765745F 		.ascii	"get_mode_info\000"
 14700      6D6F6465 
 14700      5F696E66 
 14700      6F00
 14701              	.LASF472:
 14702 18c9 6661696C 		.ascii	"failed\000"
 14702      656400
 14703              	.LASF173:
 14704 18d0 76646D5F 		.ascii	"vdm_ver\000"
 14704      76657200 
 14705              	.LASF319:
 14706 18d8 76646D5F 		.ascii	"vdm_resp_t\000"
 14706      72657370 
 14706      5F7400
 14707              	.LASF357:
 14708 18e3 414C545F 		.ascii	"ALT_MODE_STATE_DISABLE\000"
 14708      4D4F4445 
 14708      5F535441 
 14708      54455F44 
 14708      49534142 
 14709              	.LASF327:
 14710 18fa 64706D5F 		.ascii	"dpm_pd_cmd_buf_t\000"
 14710      70645F63 
 14710      6D645F62 
 14710      75665F74 
 14710      00
 14711              	.LASF128:
 14712 190b 6578745F 		.ascii	"ext_powered\000"
ARM GAS  e:\temp\ccP12Hvn.s 			page 319


 14712      706F7765 
 14712      72656400 
 14713              	.LASF372:
 14714 1917 414D5F45 		.ascii	"AM_EVT_SVID_SUPP\000"
 14714      56545F53 
 14714      5649445F 
 14714      53555050 
 14714      00
 14715              	.LASF247:
 14716 1928 6D696E5F 		.ascii	"min_volt\000"
 14716      766F6C74 
 14716      00
 14717              	.LASF421:
 14718 1931 4D55585F 		.ascii	"MUX_CONFIG_DP_2_LANE\000"
 14718      434F4E46 
 14718      49475F44 
 14718      505F325F 
 14718      4C414E45 
 14719              	.LASF281:
 14720 1946 6261745F 		.ascii	"bat_src\000"
 14720      73726300 
 14721              	.LASF150:
 14722 194e 6E6F5F75 		.ascii	"no_usb_suspend\000"
 14722      73625F73 
 14722      75737065 
 14722      6E6400
 14723              	.LASF391:
 14724 195d 6576745F 		.ascii	"evt_type\000"
 14724      74797065 
 14724      00
 14725              	.LASF460:
 14726 1966 69735F73 		.ascii	"is_svid_supported\000"
 14726      7669645F 
 14726      73757070 
 14726      6F727465 
 14726      6400
 14727              	.LASF220:
 14728 1978 5354445F 		.ascii	"STD_AMA_VDO_PD3\000"
 14728      414D415F 
 14728      56444F5F 
 14728      50443300 
 14729              	.LASF250:
 14730 1988 6170646F 		.ascii	"apdo_type\000"
 14730      5F747970 
 14730      6500
 14731              	.LASF386:
 14732 1992 414C545F 		.ascii	"ALT_MODE_EVT\000"
 14732      4D4F4445 
 14732      5F455654 
 14732      00
 14733              	.LASF284:
 14734 199f 7661725F 		.ascii	"var_snk\000"
 14734      736E6B00 
 14735              	.LASF389:
 14736 19a7 414C545F 		.ascii	"ALT_MODE_EVT_DATA\000"
 14736      4D4F4445 
 14736      5F455654 
ARM GAS  e:\temp\ccP12Hvn.s 			page 320


 14736      5F444154 
 14736      4100
 14737              	.LASF486:
 14738 19b9 69735F61 		.ascii	"is_alt_mode_mngr_idle\000"
 14738      6C745F6D 
 14738      6F64655F 
 14738      6D6E6772 
 14738      5F69646C 
 14739              	.LASF249:
 14740 19cf 7070735F 		.ascii	"pps_pwr_limited\000"
 14740      7077725F 
 14740      6C696D69 
 14740      74656400 
 14741              	.LASF133:
 14742 19df 6D696E5F 		.ascii	"min_voltage\000"
 14742      766F6C74 
 14742      61676500 
 14743              	.LASF122:
 14744 19eb 766F6C74 		.ascii	"voltage\000"
 14744      61676500 
 14745              	.LASF426:
 14746 19f3 7265675F 		.ascii	"reg_info\000"
 14746      696E666F 
 14746      00
 14747              	.LASF436:
 14748 19fc 7064335F 		.ascii	"pd3_ufp\000"
 14748      75667000 
 14749              	.LASF26:
 14750 1a04 45585444 		.ascii	"EXTD_MSG_MANU_INFO\000"
 14750      5F4D5347 
 14750      5F4D414E 
 14750      555F494E 
 14750      464F00
 14751              	.LASF296:
 14752 1a17 7374645F 		.ascii	"std_id_hdr\000"
 14752      69645F68 
 14752      647200
 14753              	.LASF248:
 14754 1a22 6D61785F 		.ascii	"max_volt\000"
 14754      766F6C74 
 14754      00
 14755              	.LASF285:
 14756 1a2b 6261745F 		.ascii	"bat_snk\000"
 14756      736E6B00 
 14757              	.LASF515:
 14758 1a33 7265675F 		.ascii	"reg_dp_modes\000"
 14758      64705F6D 
 14758      6F646573 
 14758      00
 14759              	.LASF84:
 14760 1a40 4150505F 		.ascii	"APP_EVT_TYPEC_STARTED\000"
 14760      4556545F 
 14760      54595045 
 14760      435F5354 
 14760      41525445 
 14761              	.LASF9:
 14762 1a56 6C6F6E67 		.ascii	"long long int\000"
ARM GAS  e:\temp\ccP12Hvn.s 			page 321


 14762      206C6F6E 
 14762      6720696E 
 14762      7400
 14763              	.LASF28:
 14764 1a64 45585444 		.ascii	"EXTD_MSG_SECURITY_RESP\000"
 14764      5F4D5347 
 14764      5F534543 
 14764      55524954 
 14764      595F5245 
 14765              	.LASF140:
 14766 1a7b 6F705F63 		.ascii	"op_current\000"
 14766      75727265 
 14766      6E7400
 14767              	.LASF390:
 14768 1a86 6576745F 		.ascii	"evt_data\000"
 14768      64617461 
 14768      00
 14769              	.LASF322:
 14770 1a8f 65787464 		.ascii	"extd_hdr\000"
 14770      5F686472 
 14770      00
 14771              	.LASF335:
 14772 1a98 56444D5F 		.ascii	"VDM_TASK_EXIT\000"
 14772      5441534B 
 14772      5F455849 
 14772      5400
 14773              	.LASF236:
 14774 1aa6 7573625F 		.ascii	"usb_cfg\000"
 14774      63666700 
 14775              	.LASF20:
 14776 1aae 45585444 		.ascii	"EXTD_MSG_SRC_CAP_EXTD\000"
 14776      5F4D5347 
 14776      5F535243 
 14776      5F434150 
 14776      5F455854 
 14777              	.LASF456:
 14778 1ac4 76646D5F 		.ascii	"vdm_task_mngr_alt_mode_process\000"
 14778      7461736B 
 14778      5F6D6E67 
 14778      725F616C 
 14778      745F6D6F 
 14779              	.LASF196:
 14780 1ae3 736F705F 		.ascii	"sop_dp\000"
 14780      647000
 14781              	.LASF23:
 14782 1aea 45585444 		.ascii	"EXTD_MSG_GET_BAT_STATUS\000"
 14782      5F4D5347 
 14782      5F474554 
 14782      5F424154 
 14782      5F535441 
 14783              	.LASF467:
 14784 1b02 616D5F69 		.ascii	"am_idx\000"
 14784      647800
 14785              	.LASF40:
 14786 1b09 4341424C 		.ascii	"CABLE_RESET\000"
 14786      455F5245 
 14786      53455400 
ARM GAS  e:\temp\ccP12Hvn.s 			page 322


 14787              	.LASF134:
 14788 1b15 6D61785F 		.ascii	"max_voltage\000"
 14788      766F6C74 
 14788      61676500 
 14789              	.LASF345:
 14790 1b21 616D615F 		.ascii	"ama_vdo\000"
 14790      76646F00 
 14791              	.LASF314:
 14792 1b29 736C6963 		.ascii	"slice_subhdr\000"
 14792      655F7375 
 14792      62686472 
 14792      00
 14793              	.LASF120:
 14794 1b36 46495845 		.ascii	"FIXED_SRC\000"
 14794      445F5352 
 14794      4300
 14795              	.LASF371:
 14796 1b40 414D5F45 		.ascii	"AM_EVT_SVID_NOT_SUPP\000"
 14796      56545F53 
 14796      5649445F 
 14796      4E4F545F 
 14796      53555050 
 14797              	.LASF380:
 14798 1b55 414D5F4E 		.ascii	"AM_NO_CMD\000"
 14798      4F5F434D 
 14798      4400
 14799              	.LASF448:
 14800 1b5f 7365745F 		.ascii	"set_disc_mode_params\000"
 14800      64697363 
 14800      5F6D6F64 
 14800      655F7061 
 14800      72616D73 
 14801              	.LASF98:
 14802 1b74 56444D5F 		.ascii	"VDM_AMS_RESP_READY\000"
 14802      414D535F 
 14802      52455350 
 14802      5F524541 
 14802      445900
 14803              	.LASF95:
 14804 1b87 4150505F 		.ascii	"APP_EVT_ALERT_RECEIVED\000"
 14804      4556545F 
 14804      414C4552 
 14804      545F5245 
 14804      43454956 
 14805              	.LASF137:
 14806 1b9e 5352435F 		.ascii	"SRC_GEN\000"
 14806      47454E00 
 14807              	.LASF138:
 14808 1ba6 6D61785F 		.ascii	"max_cur_power\000"
 14808      6375725F 
 14808      706F7765 
 14808      7200
 14809              	.LASF143:
 14810 1bb4 68696768 		.ascii	"high_cap\000"
 14810      5F636170 
 14810      00
 14811              	.LASF218:
ARM GAS  e:\temp\ccP12Hvn.s 			page 323


 14812 1bbd 616D615F 		.ascii	"ama_fw_ver\000"
 14812      66775F76 
 14812      657200
 14813              	.LASF267:
 14814 1bc8 63626C5F 		.ascii	"cbl_type\000"
 14814      74797065 
 14814      00
 14815              	.LASF459:
 14816 1bd1 76646D5F 		.ascii	"vdm_msg_info\000"
 14816      6D73675F 
 14816      696E666F 
 14816      00
 14817              	.LASF157:
 14818 1bde 52444F5F 		.ascii	"RDO_BAT\000"
 14818      42415400 
 14819              	.LASF172:
 14820 1be6 7365715F 		.ascii	"seq_num\000"
 14820      6E756D00 
 14821              	.LASF263:
 14822 1bee 5442545F 		.ascii	"TBT_VDO\000"
 14822      56444F00 
 14823              	.LASF280:
 14824 1bf6 7661725F 		.ascii	"var_src\000"
 14824      73726300 
 14825              	.LASF238:
 14826 1bfe 6870645F 		.ascii	"hpd_state\000"
 14826      73746174 
 14826      6500
 14827              	.LASF185:
 14828 1c08 6D6F645F 		.ascii	"mod_support\000"
 14828      73757070 
 14828      6F727400 
 14829              	.LASF46:
 14830 1c14 706F7274 		.ascii	"port_type_t\000"
 14830      5F747970 
 14830      655F7400 
 14831              	.LASF90:
 14832 1c20 4150505F 		.ascii	"APP_EVT_TYPEC_ATTACH_WAIT\000"
 14832      4556545F 
 14832      54595045 
 14832      435F4154 
 14832      54414348 
 14833              	.LASF349:
 14834 1c3a 61746368 		.ascii	"atch_tgt_info_t\000"
 14834      5F746774 
 14834      5F696E66 
 14834      6F5F7400 
 14835              	.LASF30:
 14836 1c4a 45585444 		.ascii	"EXTD_MSG_FW_UPDATE_RESP\000"
 14836      5F4D5347 
 14836      5F46575F 
 14836      55504441 
 14836      54455F52 
 14837              	.LASF11:
 14838 1c62 756E7369 		.ascii	"unsigned int\000"
 14838      676E6564 
 14838      20696E74 
ARM GAS  e:\temp\ccP12Hvn.s 			page 324


 14838      00
 14839              	.LASF49:
 14840 1c6f 56444D5F 		.ascii	"VDM_CMD_DSC_IDENTITY\000"
 14840      434D445F 
 14840      4453435F 
 14840      4944454E 
 14840      54495459 
 14841              	.LASF39:
 14842 1c84 48415244 		.ascii	"HARD_RESET\000"
 14842      5F524553 
 14842      455400
 14843              	.LASF276:
 14844 1c8f 6D756C74 		.ascii	"multi_part\000"
 14844      695F7061 
 14844      727400
 14845              	.LASF206:
 14846 1c9a 74797065 		.ascii	"typec_abc\000"
 14846      635F6162 
 14846      6300
 14847              	.LASF227:
 14848 1ca4 72656365 		.ascii	"recep\000"
 14848      7000
 14849              	.LASF2:
 14850 1caa 73686F72 		.ascii	"short int\000"
 14850      7420696E 
 14850      7400
 14851              	.LASF246:
 14852 1cb4 6D61785F 		.ascii	"max_cur\000"
 14852      63757200 
 14853              	.LASF202:
 14854 1cbc 73737478 		.ascii	"sstx1\000"
 14854      3100
 14855              	.LASF201:
 14856 1cc2 73737478 		.ascii	"sstx2\000"
 14856      3200
 14857              	.LASF104:
 14858 1cc8 64617461 		.ascii	"data_role\000"
 14858      5F726F6C 
 14858      6500
 14859              	.LASF24:
 14860 1cd2 45585444 		.ascii	"EXTD_MSG_BAT_CAP\000"
 14860      5F4D5347 
 14860      5F424154 
 14860      5F434150 
 14860      00
 14861              	.LASF54:
 14862 1ce3 56444D5F 		.ascii	"VDM_CMD_ATTENTION\000"
 14862      434D445F 
 14862      41545445 
 14862      4E54494F 
 14862      4E00
 14863              	.LASF399:
 14864 1cf5 61746368 		.ascii	"atch_type\000"
 14864      5F747970 
 14864      6500
 14865              	.LASF190:
 14866 1cff 7573625F 		.ascii	"usb_xid\000"
ARM GAS  e:\temp\ccP12Hvn.s 			page 325


 14866      78696400 
 14867              	.LASF136:
 14868 1d07 6D61785F 		.ascii	"max_power\000"
 14868      706F7765 
 14868      7200
 14869              	.LASF187:
 14870 1d11 7573625F 		.ascii	"usb_dev\000"
 14870      64657600 
 14871              	.LASF462:
 14872 1d19 73746174 		.ascii	"stat\000"
 14872      00
 14873              	.LASF497:
 14874 1d1e 636D645F 		.ascii	"cmd_info\000"
 14874      696E666F 
 14874      00
 14875              	.LASF70:
 14876 1d27 4150505F 		.ascii	"APP_EVT_PR_SWAP_COMPLETE\000"
 14876      4556545F 
 14876      50525F53 
 14876      5741505F 
 14876      434F4D50 
 14877              		.ident	"GCC: (GNU Tools for ARM Embedded Processors) 5.4.1 20160609 (release) [ARM/embedded-5-bran
