ARM GAS  e:\temp\ccvz51Lv.s 			page 1


   1              		.syntax unified
   2              		.cpu cortex-m0
   3              		.fpu softvfp
   4              		.eabi_attribute 20, 1
   5              		.eabi_attribute 21, 1
   6              		.eabi_attribute 23, 3
   7              		.eabi_attribute 24, 1
   8              		.eabi_attribute 25, 1
   9              		.eabi_attribute 26, 1
  10              		.eabi_attribute 30, 1
  11              		.eabi_attribute 34, 0
  12              		.eabi_attribute 18, 4
  13              		.thumb
  14              		.syntax unified
  15              		.file	"boot.c"
  16              		.text
  17              	.Ltext0:
  18              		.cfi_sections	.debug_frame
  19              		.section	.text.get_boot_mode_reason,"ax",%progbits
  20              		.align	2
  21              		.global	get_boot_mode_reason
  22              		.code	16
  23              		.thumb_func
  24              		.type	get_boot_mode_reason, %function
  25              	get_boot_mode_reason:
  26              	.LFB32:
  27              		.file 1 "..\\src\\system\\boot.c"
   1:..\src\system/boot.c **** /**
   2:..\src\system/boot.c ****  * @file boot.c
   3:..\src\system/boot.c ****  *
   4:..\src\system/boot.c ****  * @brief @{Bootloader support functions.@}
   5:..\src\system/boot.c ****  */
   6:..\src\system/boot.c **** 
   7:..\src\system/boot.c **** /*
   8:..\src\system/boot.c ****  * Copyright (2014-2018), Cypress Semiconductor Corporation or a subsidiary of
   9:..\src\system/boot.c ****  * Cypress Semiconductor Corporation. All rights reserved.
  10:..\src\system/boot.c ****  *
  11:..\src\system/boot.c ****  * This software, including source code, documentation and related materials
  12:..\src\system/boot.c ****  * (“Software”), is owned by Cypress Semiconductor Corporation or one of its
  13:..\src\system/boot.c ****  * subsidiaries (“Cypress”) and is protected by and subject to worldwide patent
  14:..\src\system/boot.c ****  * protection (United States and foreign), United States copyright laws and
  15:..\src\system/boot.c ****  * international treaty provisions. Therefore, you may use this Software only
  16:..\src\system/boot.c ****  * as provided in the license agreement accompanying the software package from
  17:..\src\system/boot.c ****  * which you obtained this Software (“EULA”).
  18:..\src\system/boot.c ****  *
  19:..\src\system/boot.c ****  * If no EULA applies, Cypress hereby grants you a personal, nonexclusive,
  20:..\src\system/boot.c ****  * non-transferable license to copy, modify, and compile the Software source
  21:..\src\system/boot.c ****  * code solely for use in connection with Cypress’s integrated circuit
  22:..\src\system/boot.c ****  * products. Any reproduction, modification, translation, compilation, or
  23:..\src\system/boot.c ****  * representation of this Software except as specified above is prohibited
  24:..\src\system/boot.c ****  * without the express written permission of Cypress. Disclaimer: THIS SOFTWARE
  25:..\src\system/boot.c ****  * IS PROVIDED AS-IS, WITH NO WARRANTY OF ANY KIND, EXPRESS OR IMPLIED,
  26:..\src\system/boot.c ****  * INCLUDING, BUT NOT LIMITED TO, NONINFRINGEMENT, IMPLIED WARRANTIES OF
  27:..\src\system/boot.c ****  * MERCHANTABILITY AND FITNESS FOR A PARTICULAR PURPOSE. Cypress reserves the
  28:..\src\system/boot.c ****  * right to make changes to the Software without notice. Cypress does not
  29:..\src\system/boot.c ****  * assume any liability arising out of the application or use of the Software
  30:..\src\system/boot.c ****  * or any product or circuit described in the Software. Cypress does not
ARM GAS  e:\temp\ccvz51Lv.s 			page 2


  31:..\src\system/boot.c ****  * authorize its products for use in any products where a malfunction or
  32:..\src\system/boot.c ****  * failure of the Cypress product may reasonably be expected to result in
  33:..\src\system/boot.c ****  * significant property damage, injury or death (“High Risk Product”). By
  34:..\src\system/boot.c ****  * including Cypress’s product in a High Risk Product, the manufacturer of such
  35:..\src\system/boot.c ****  * system or application assumes all risk of such use and in doing so agrees to
  36:..\src\system/boot.c ****  * indemnify Cypress against all liability.
  37:..\src\system/boot.c ****  */
  38:..\src\system/boot.c **** 
  39:..\src\system/boot.c **** #include <stdbool.h>
  40:..\src\system/boot.c **** #include <config.h>
  41:..\src\system/boot.c **** #include <flash_config.h>
  42:..\src\system/boot.c **** #include <app_version.h>
  43:..\src\system/boot.c **** #include <utils.h>
  44:..\src\system/boot.c **** #include <status.h>
  45:..\src\system/boot.c **** #include <system.h>
  46:..\src\system/boot.c **** #include <flash.h>
  47:..\src\system/boot.c **** #include <boot.h>
  48:..\src\system/boot.c **** 
  49:..\src\system/boot.c **** #if (SECURE_FW_UPDATE == 1)
  50:..\src\system/boot.c **** #include <secure_boot.h>
  51:..\src\system/boot.c **** #include <crypto_hal.h>
  52:..\src\system/boot.c **** #endif /* SECURE_FW_UPDATE */
  53:..\src\system/boot.c **** 
  54:..\src\system/boot.c **** /* Structure to hold reason for boot mode. */
  55:..\src\system/boot.c **** fw_img_status_t gl_img_status;
  56:..\src\system/boot.c **** 
  57:..\src\system/boot.c **** #if CCG_DUALAPP_DISABLE
  58:..\src\system/boot.c **** /* If Dual-App bootloading is disabled, provide stub variable to keep the compiler happy. */
  59:..\src\system/boot.c **** volatile uint8_t Bootloader_1_activeApp = 0;
  60:..\src\system/boot.c **** #endif
  61:..\src\system/boot.c **** 
  62:..\src\system/boot.c **** #if (CCG_PSEUDO_METADATA_DISABLE == 0)
  63:..\src\system/boot.c **** 
  64:..\src\system/boot.c **** /* Pointer to Image-1 FW pseudo-metadata table. */
  65:..\src\system/boot.c **** sys_fw_metadata_t *gl_img1_fw_pseudo_metadata;
  66:..\src\system/boot.c **** 
  67:..\src\system/boot.c **** /* Pointer to Image-2 FW pseudo-metadata table. */
  68:..\src\system/boot.c **** sys_fw_metadata_t *gl_img2_fw_pseudo_metadata =
  69:..\src\system/boot.c ****     (sys_fw_metadata_t *)(CCG_IMG2_FW_PSEUDO_METADATA_ADDR);
  70:..\src\system/boot.c **** 
  71:..\src\system/boot.c **** #endif /* CCG_PSEUDO_METADATA_DISABLE */
  72:..\src\system/boot.c **** 
  73:..\src\system/boot.c **** /* Boot-wait duration specified by firmware metadata. */
  74:..\src\system/boot.c **** static volatile uint16_t gl_boot_wait_delay = CCG_BL_WAIT_DEFAULT;
  75:..\src\system/boot.c **** 
  76:..\src\system/boot.c **** /* Pointer to Image-1 FW metadata table. */
  77:..\src\system/boot.c **** sys_fw_metadata_t *gl_img1_fw_metadata = 
  78:..\src\system/boot.c ****         (sys_fw_metadata_t *)(CCG_IMG1_FW_METADATA_ADDR);
  79:..\src\system/boot.c ****         
  80:..\src\system/boot.c **** #if (!CCG_DUALAPP_DISABLE)
  81:..\src\system/boot.c **** /* Pointer to Image-2 FW metadata table. */
  82:..\src\system/boot.c **** sys_fw_metadata_t *gl_img2_fw_metadata = 
  83:..\src\system/boot.c ****         (sys_fw_metadata_t *)(CCG_IMG2_FW_METADATA_ADDR);
  84:..\src\system/boot.c **** #endif /* (!CCG_DUALAPP_DISABLE) */
  85:..\src\system/boot.c **** 
  86:..\src\system/boot.c **** fw_img_status_t get_boot_mode_reason(void)
  87:..\src\system/boot.c **** {
ARM GAS  e:\temp\ccvz51Lv.s 			page 3


  28              		.loc 1 87 0
  29              		.cfi_startproc
  30              		@ args = 0, pretend = 0, frame = 0
  31              		@ frame_needed = 0, uses_anonymous_args = 0
  32              		@ link register save eliminated.
  88:..\src\system/boot.c ****     /* Return the reason for boot mode. */
  89:..\src\system/boot.c ****     return gl_img_status;
  33              		.loc 1 89 0
  34 0000 014B     		ldr	r3, .L2
  35 0002 1878     		ldrb	r0, [r3]
  90:..\src\system/boot.c **** }
  36              		.loc 1 90 0
  37              		@ sp needed
  38 0004 7047     		bx	lr
  39              	.L3:
  40 0006 C046     		.align	2
  41              	.L2:
  42 0008 00000000 		.word	gl_img_status
  43              		.cfi_endproc
  44              	.LFE32:
  45              		.size	get_boot_mode_reason, .-get_boot_mode_reason
  46              		.section	.text.boot_validate_configtable,"ax",%progbits
  47              		.align	2
  48              		.global	boot_validate_configtable
  49              		.code	16
  50              		.thumb_func
  51              		.type	boot_validate_configtable, %function
  52              	boot_validate_configtable:
  53              	.LFB33:
  91:..\src\system/boot.c **** 
  92:..\src\system/boot.c **** /* Check whether configuration table checksum is good. */
  93:..\src\system/boot.c **** ccg_status_t boot_validate_configtable(uint8_t *table_p)
  94:..\src\system/boot.c **** {
  54              		.loc 1 94 0
  55              		.cfi_startproc
  56              		@ args = 0, pretend = 0, frame = 0
  57              		@ frame_needed = 0, uses_anonymous_args = 0
  58              	.LVL0:
  59 0000 10B5     		push	{r4, lr}
  60              		.cfi_def_cfa_offset 8
  61              		.cfi_offset 4, -8
  62              		.cfi_offset 14, -4
  95:..\src\system/boot.c ****     uint16_t size = MAKE_WORD (table_p[CONFIGTABLE_SIZE_OFFSET + 1], table_p[CONFIGTABLE_SIZE_OFFSE
  63              		.loc 1 95 0
  64 0002 C179     		ldrb	r1, [r0, #7]
  65 0004 0902     		lsls	r1, r1, #8
  66 0006 8379     		ldrb	r3, [r0, #6]
  67 0008 1943     		orrs	r1, r3
  68              	.LVL1:
  96:..\src\system/boot.c **** 
  97:..\src\system/boot.c ****     if (((uint32_t)table_p >= CCG_FLASH_SIZE) ||
  69              		.loc 1 97 0
  70 000a 0C4B     		ldr	r3, .L9
  71 000c 9842     		cmp	r0, r3
  72 000e 0FD8     		bhi	.L6
  98:..\src\system/boot.c ****             (MAKE_WORD (table_p[1], table_p[0]) != CONFIGTABLE_SIGNATURE))
  73              		.loc 1 98 0 discriminator 1
ARM GAS  e:\temp\ccvz51Lv.s 			page 4


  74 0010 4378     		ldrb	r3, [r0, #1]
  75 0012 1B02     		lsls	r3, r3, #8
  76 0014 0278     		ldrb	r2, [r0]
  77 0016 1343     		orrs	r3, r2
  97:..\src\system/boot.c ****             (MAKE_WORD (table_p[1], table_p[0]) != CONFIGTABLE_SIGNATURE))
  78              		.loc 1 97 0 discriminator 1
  79 0018 094A     		ldr	r2, .L9+4
  80 001a 9342     		cmp	r3, r2
  81 001c 0AD1     		bne	.L7
  99:..\src\system/boot.c ****     {
 100:..\src\system/boot.c ****         return CCG_STAT_INVALID_FW;
 101:..\src\system/boot.c ****     }
 102:..\src\system/boot.c **** 
 103:..\src\system/boot.c ****     if (table_p[CONFIGTABLE_CHECKSUM_OFFSET] != mem_calculate_byte_checksum (
  82              		.loc 1 103 0
  83 001e 047A     		ldrb	r4, [r0, #8]
 104:..\src\system/boot.c ****                 table_p + CONFIGTABLE_CHECKSUM_START, size - CONFIGTABLE_CHECKSUM_START))
  84              		.loc 1 104 0
  85 0020 0A39     		subs	r1, r1, #10
  86              	.LVL2:
 103:..\src\system/boot.c ****                 table_p + CONFIGTABLE_CHECKSUM_START, size - CONFIGTABLE_CHECKSUM_START))
  87              		.loc 1 103 0
  88 0022 0A30     		adds	r0, r0, #10
  89              	.LVL3:
  90 0024 FFF7FEFF 		bl	mem_calculate_byte_checksum
  91              	.LVL4:
  92 0028 8442     		cmp	r4, r0
  93 002a 05D0     		beq	.L8
 105:..\src\system/boot.c ****     {
 106:..\src\system/boot.c ****         return CCG_STAT_INVALID_FW;
  94              		.loc 1 106 0
  95 002c 0620     		movs	r0, #6
  96 002e 04E0     		b	.L5
  97              	.LVL5:
  98              	.L6:
 100:..\src\system/boot.c ****     }
  99              		.loc 1 100 0
 100 0030 0620     		movs	r0, #6
 101              	.LVL6:
 102 0032 02E0     		b	.L5
 103              	.LVL7:
 104              	.L7:
 105 0034 0620     		movs	r0, #6
 106              	.LVL8:
 107 0036 00E0     		b	.L5
 108              	.LVL9:
 109              	.L8:
 107:..\src\system/boot.c ****     }
 108:..\src\system/boot.c **** 
 109:..\src\system/boot.c ****     return CCG_STAT_SUCCESS;
 110              		.loc 1 109 0
 111 0038 0020     		movs	r0, #0
 112              	.L5:
 110:..\src\system/boot.c **** }
 113              		.loc 1 110 0
 114              		@ sp needed
 115 003a 10BD     		pop	{r4, pc}
ARM GAS  e:\temp\ccvz51Lv.s 			page 5


 116              	.L10:
 117              		.align	2
 118              	.L9:
 119 003c FFFF0100 		.word	131071
 120 0040 59430000 		.word	17241
 121              		.cfi_endproc
 122              	.LFE33:
 123              		.size	boot_validate_configtable, .-boot_validate_configtable
 124              		.section	.text.boot_validate_fw,"ax",%progbits
 125              		.align	2
 126              		.global	boot_validate_fw
 127              		.code	16
 128              		.thumb_func
 129              		.type	boot_validate_fw, %function
 130              	boot_validate_fw:
 131              	.LFB34:
 111:..\src\system/boot.c **** 
 112:..\src\system/boot.c **** ccg_status_t boot_validate_fw(sys_fw_metadata_t *fw_metadata)
 113:..\src\system/boot.c **** {
 132              		.loc 1 113 0
 133              		.cfi_startproc
 134              		@ args = 0, pretend = 0, frame = 0
 135              		@ frame_needed = 0, uses_anonymous_args = 0
 136              	.LVL10:
 137 0000 F8B5     		push	{r3, r4, r5, r6, r7, lr}
 138              		.cfi_def_cfa_offset 24
 139              		.cfi_offset 3, -24
 140              		.cfi_offset 4, -20
 141              		.cfi_offset 5, -16
 142              		.cfi_offset 6, -12
 143              		.cfi_offset 7, -8
 144              		.cfi_offset 14, -4
 145              	.LVL11:
 114:..\src\system/boot.c ****     ccg_status_t status = CCG_STAT_SUCCESS;
 115:..\src\system/boot.c ****     /* Pointer to FW image start address. */
 116:..\src\system/boot.c ****     uint32_t fw_start = 0;
 117:..\src\system/boot.c ****     /* Size of FW image. */
 118:..\src\system/boot.c ****     uint32_t fw_size = 0;
 119:..\src\system/boot.c ****    
 120:..\src\system/boot.c ****     fw_start = ((fw_metadata->boot_last_row << CCG_FLASH_ROW_SHIFT_NUM)
 146              		.loc 1 120 0
 147 0002 4379     		ldrb	r3, [r0, #5]
 148 0004 8579     		ldrb	r5, [r0, #6]
 149 0006 2D02     		lsls	r5, r5, #8
 150 0008 1D43     		orrs	r5, r3
 151 000a 2D02     		lsls	r5, r5, #8
 152 000c 6E1C     		adds	r6, r5, #1
 153 000e FF36     		adds	r6, r6, #255
 154              	.LVL12:
 121:..\src\system/boot.c ****             + CCG_FLASH_ROW_SIZE);
 122:..\src\system/boot.c ****     fw_size = fw_metadata->fw_size;
 155              		.loc 1 122 0
 156 0010 447A     		ldrb	r4, [r0, #9]
 157 0012 837A     		ldrb	r3, [r0, #10]
 158 0014 1B02     		lsls	r3, r3, #8
 159 0016 2343     		orrs	r3, r4
 160 0018 1A00     		movs	r2, r3
ARM GAS  e:\temp\ccvz51Lv.s 			page 6


 161 001a C17A     		ldrb	r1, [r0, #11]
 162 001c 0904     		lsls	r1, r1, #16
 163 001e 0B00     		movs	r3, r1
 164 0020 1343     		orrs	r3, r2
 165 0022 017B     		ldrb	r1, [r0, #12]
 166 0024 0906     		lsls	r1, r1, #24
 167 0026 1943     		orrs	r1, r3
 168              	.LVL13:
 123:..\src\system/boot.c ****     
 124:..\src\system/boot.c ****     /*
 125:..\src\system/boot.c ****      * Validate:
 126:..\src\system/boot.c ****      * 1) FW size.
 127:..\src\system/boot.c ****      * 2) FW checksum.
 128:..\src\system/boot.c ****      * 3) FW entry.
 129:..\src\system/boot.c ****      */
 130:..\src\system/boot.c ****     if (
 169              		.loc 1 130 0
 170 0028 1DD0     		beq	.L13
 131:..\src\system/boot.c ****             (fw_size == 0) ||
 132:..\src\system/boot.c ****             ((fw_start + fw_size) >= CCG_FLASH_SIZE) ||
 171              		.loc 1 132 0
 172 002a 7418     		adds	r4, r6, r1
 131:..\src\system/boot.c ****             (fw_size == 0) ||
 173              		.loc 1 131 0
 174 002c 134B     		ldr	r3, .L18
 175 002e 9C42     		cmp	r4, r3
 176 0030 1BD8     		bhi	.L14
 133:..\src\system/boot.c ****             (fw_metadata->fw_entry < fw_start) ||
 177              		.loc 1 133 0
 178 0032 4778     		ldrb	r7, [r0, #1]
 179 0034 8278     		ldrb	r2, [r0, #2]
 180 0036 1202     		lsls	r2, r2, #8
 181 0038 3A43     		orrs	r2, r7
 182 003a C378     		ldrb	r3, [r0, #3]
 183 003c 1B04     		lsls	r3, r3, #16
 184 003e 1A43     		orrs	r2, r3
 185 0040 0379     		ldrb	r3, [r0, #4]
 186 0042 1B06     		lsls	r3, r3, #24
 187 0044 1343     		orrs	r3, r2
 132:..\src\system/boot.c ****             (fw_metadata->fw_entry < fw_start) ||
 188              		.loc 1 132 0
 189 0046 9E42     		cmp	r6, r3
 190 0048 11D8     		bhi	.L15
 191              		.loc 1 133 0
 192 004a 9C42     		cmp	r4, r3
 193 004c 11D9     		bls	.L16
 134:..\src\system/boot.c ****             (fw_metadata->fw_entry >= (fw_start + fw_size)) ||
 135:..\src\system/boot.c ****             (fw_metadata->fw_checksum != mem_calculate_byte_checksum ((uint8_t *)fw_start, fw_size)
 194              		.loc 1 135 0
 195 004e 0478     		ldrb	r4, [r0]
 196 0050 3000     		movs	r0, r6
 197              	.LVL14:
 198 0052 FFF7FEFF 		bl	mem_calculate_byte_checksum
 199              	.LVL15:
 134:..\src\system/boot.c ****             (fw_metadata->fw_entry >= (fw_start + fw_size)) ||
 200              		.loc 1 134 0
 201 0056 8442     		cmp	r4, r0
ARM GAS  e:\temp\ccvz51Lv.s 			page 7


 202 0058 0DD1     		bne	.L17
 136:..\src\system/boot.c ****        )
 137:..\src\system/boot.c ****     {
 138:..\src\system/boot.c ****         status = CCG_STAT_INVALID_FW;
 139:..\src\system/boot.c ****     }
 140:..\src\system/boot.c ****     else
 141:..\src\system/boot.c ****     {
 142:..\src\system/boot.c ****         status = boot_validate_configtable ((uint8_t *)(fw_start + CCG_FW_CONFTABLE_OFFSET));
 203              		.loc 1 142 0
 204 005a 8023     		movs	r3, #128
 205 005c 9B00     		lsls	r3, r3, #2
 206 005e E818     		adds	r0, r5, r3
 207 0060 FFF7FEFF 		bl	boot_validate_configtable
 208              	.LVL16:
 209 0064 08E0     		b	.L12
 210              	.LVL17:
 211              	.L13:
 138:..\src\system/boot.c ****     }
 212              		.loc 1 138 0
 213 0066 0620     		movs	r0, #6
 214              	.LVL18:
 215 0068 06E0     		b	.L12
 216              	.LVL19:
 217              	.L14:
 218 006a 0620     		movs	r0, #6
 219              	.LVL20:
 220 006c 04E0     		b	.L12
 221              	.LVL21:
 222              	.L15:
 223 006e 0620     		movs	r0, #6
 224              	.LVL22:
 225 0070 02E0     		b	.L12
 226              	.LVL23:
 227              	.L16:
 228 0072 0620     		movs	r0, #6
 229              	.LVL24:
 230 0074 00E0     		b	.L12
 231              	.LVL25:
 232              	.L17:
 233 0076 0620     		movs	r0, #6
 234              	.LVL26:
 235              	.L12:
 143:..\src\system/boot.c ****     }
 144:..\src\system/boot.c **** 
 145:..\src\system/boot.c ****     return status;
 146:..\src\system/boot.c **** }
 236              		.loc 1 146 0
 237              		@ sp needed
 238              	.LVL27:
 239 0078 F8BD     		pop	{r3, r4, r5, r6, r7, pc}
 240              	.L19:
 241 007a C046     		.align	2
 242              	.L18:
 243 007c FFFF0100 		.word	131071
 244              		.cfi_endproc
 245              	.LFE34:
 246              		.size	boot_validate_fw, .-boot_validate_fw
ARM GAS  e:\temp\ccvz51Lv.s 			page 8


 247              		.section	.text.boot_handle_validate_fw_cmd,"ax",%progbits
 248              		.align	2
 249              		.global	boot_handle_validate_fw_cmd
 250              		.code	16
 251              		.thumb_func
 252              		.type	boot_handle_validate_fw_cmd, %function
 253              	boot_handle_validate_fw_cmd:
 254              	.LFB35:
 147:..\src\system/boot.c **** 
 148:..\src\system/boot.c **** ccg_status_t boot_handle_validate_fw_cmd(sys_fw_mode_t fw_mode)
 149:..\src\system/boot.c **** {
 255              		.loc 1 149 0
 256              		.cfi_startproc
 257              		@ args = 0, pretend = 0, frame = 0
 258              		@ frame_needed = 0, uses_anonymous_args = 0
 259              	.LVL28:
 260 0000 10B5     		push	{r4, lr}
 261              		.cfi_def_cfa_offset 8
 262              		.cfi_offset 4, -8
 263              		.cfi_offset 14, -4
 264 0002 0400     		movs	r4, r0
 265              	.LVL29:
 150:..\src\system/boot.c ****     sys_fw_metadata_t *md_p = NULL;
 151:..\src\system/boot.c ****     ccg_status_t code = CCG_STAT_NO_RESPONSE;
 152:..\src\system/boot.c **** 
 153:..\src\system/boot.c **** #if (CCG_BOOT != 0)
 154:..\src\system/boot.c ****     switch (fw_mode)
 155:..\src\system/boot.c ****     {
 156:..\src\system/boot.c ****         case SYS_FW_MODE_FWIMAGE_1:
 157:..\src\system/boot.c ****             md_p = gl_img1_fw_metadata;
 158:..\src\system/boot.c ****             break;
 159:..\src\system/boot.c **** #if (!CCG_DUALAPP_DISABLE)
 160:..\src\system/boot.c ****         case SYS_FW_MODE_FWIMAGE_2:
 161:..\src\system/boot.c ****             md_p = gl_img2_fw_metadata;
 162:..\src\system/boot.c ****             break;
 163:..\src\system/boot.c **** #endif /* (!CCG_DUALAPP_DISABLE) */
 164:..\src\system/boot.c ****         default:
 165:..\src\system/boot.c ****             code = CCG_STAT_INVALID_ARGUMENT;
 166:..\src\system/boot.c ****             break;
 167:..\src\system/boot.c ****     }
 168:..\src\system/boot.c **** #else /* (CCG_BOOT != 0) */
 169:..\src\system/boot.c ****     if (fw_mode == sys_get_device_mode ())
 266              		.loc 1 169 0
 267 0004 FFF7FEFF 		bl	sys_get_device_mode
 268              	.LVL30:
 269 0008 A042     		cmp	r0, r4
 270 000a 0ED0     		beq	.L28
 170:..\src\system/boot.c ****     {
 171:..\src\system/boot.c ****         /* There is no need to validate the currently running image. */
 172:..\src\system/boot.c ****         code = CCG_STAT_SUCCESS;
 173:..\src\system/boot.c ****     }
 174:..\src\system/boot.c ****     else
 175:..\src\system/boot.c ****     {
 176:..\src\system/boot.c ****         switch (fw_mode)
 271              		.loc 1 176 0
 272 000c 012C     		cmp	r4, #1
 273 000e 02D0     		beq	.L22
ARM GAS  e:\temp\ccvz51Lv.s 			page 9


 274 0010 022C     		cmp	r4, #2
 275 0012 05D0     		beq	.L23
 276 0014 0CE0     		b	.L32
 277              	.L22:
 177:..\src\system/boot.c ****         {
 178:..\src\system/boot.c ****             case SYS_FW_MODE_FWIMAGE_1:
 179:..\src\system/boot.c **** #if (CCG_PSEUDO_METADATA_DISABLE == 0)
 180:..\src\system/boot.c ****                 /*
 181:..\src\system/boot.c ****                  * CCG is in FW Image 2 and request is to validate FW image 1. 
 182:..\src\system/boot.c ****                  * There can be following cases:
 183:..\src\system/boot.c ****                  * 1) If Image-1 PMD signature is "CP", use Image-1 PMD for validation.
 184:..\src\system/boot.c ****                  * 2) Otherwise, use Image-1 MD for validation.
 185:..\src\system/boot.c ****                  */
 186:..\src\system/boot.c ****                 if(gl_img1_fw_pseudo_metadata->metadata_valid == 
 187:..\src\system/boot.c ****                     SYS_PSEUDO_METADATA_VALID_SIG)
 188:..\src\system/boot.c ****                 {
 189:..\src\system/boot.c ****                     md_p = gl_img1_fw_pseudo_metadata;
 190:..\src\system/boot.c ****                 }
 191:..\src\system/boot.c ****                 else
 192:..\src\system/boot.c **** #endif /* (CCG_PSEUDO_METADATA_DISABLE == 0) */
 193:..\src\system/boot.c ****                 {
 194:..\src\system/boot.c ****                     md_p = gl_img1_fw_metadata;
 278              		.loc 1 194 0
 279 0016 1F4B     		ldr	r3, .L33
 280 0018 1868     		ldr	r0, [r3]
 281              	.LVL31:
 151:..\src\system/boot.c **** 
 282              		.loc 1 151 0
 283 001a 0223     		movs	r3, #2
 284 001c 5B42     		rsbs	r3, r3, #0
 195:..\src\system/boot.c ****                 }
 196:..\src\system/boot.c ****                 break;
 285              		.loc 1 196 0
 286 001e 09E0     		b	.L21
 287              	.LVL32:
 288              	.L23:
 197:..\src\system/boot.c **** #if (!CCG_DUALAPP_DISABLE)
 198:..\src\system/boot.c ****             case SYS_FW_MODE_FWIMAGE_2:
 199:..\src\system/boot.c **** #if (CCG_PSEUDO_METADATA_DISABLE == 0)
 200:..\src\system/boot.c ****                 /*
 201:..\src\system/boot.c ****                  * CCG is in FW Image 1 and request is to validate FW image 2. 
 202:..\src\system/boot.c ****                  * There can be following cases:
 203:..\src\system/boot.c ****                  * 1) If Image-2 PMD signature is "CP", use Image-2 PMD for validation.
 204:..\src\system/boot.c ****                  * 2) Otherwise, use Image-1 MD for validation.
 205:..\src\system/boot.c ****                  */
 206:..\src\system/boot.c ****                 if(gl_img2_fw_pseudo_metadata->metadata_valid == 
 207:..\src\system/boot.c ****                     SYS_PSEUDO_METADATA_VALID_SIG)
 208:..\src\system/boot.c ****                 {
 209:..\src\system/boot.c ****                     md_p = gl_img2_fw_pseudo_metadata;
 210:..\src\system/boot.c ****                 }
 211:..\src\system/boot.c ****                 else
 212:..\src\system/boot.c **** #endif /* (CCG_PSEUDO_METADATA_DISABLE == 0) */
 213:..\src\system/boot.c ****                 {
 214:..\src\system/boot.c ****                     md_p = gl_img2_fw_metadata;
 289              		.loc 1 214 0
 290 0020 1C4B     		ldr	r3, .L33
 291 0022 5868     		ldr	r0, [r3, #4]
ARM GAS  e:\temp\ccvz51Lv.s 			page 10


 292              	.LVL33:
 151:..\src\system/boot.c **** 
 293              		.loc 1 151 0
 294 0024 0223     		movs	r3, #2
 295 0026 5B42     		rsbs	r3, r3, #0
 215:..\src\system/boot.c ****                 }
 216:..\src\system/boot.c ****                 break;
 296              		.loc 1 216 0
 297 0028 04E0     		b	.L21
 298              	.LVL34:
 299              	.L28:
 172:..\src\system/boot.c ****     }
 300              		.loc 1 172 0
 301 002a 0023     		movs	r3, #0
 150:..\src\system/boot.c ****     ccg_status_t code = CCG_STAT_NO_RESPONSE;
 302              		.loc 1 150 0
 303 002c 0020     		movs	r0, #0
 304 002e 01E0     		b	.L21
 305              	.L32:
 217:..\src\system/boot.c **** #endif /* (!CCG_DUALAPP_DISABLE) */
 218:..\src\system/boot.c ****             default:
 219:..\src\system/boot.c ****                 code = CCG_STAT_INVALID_ARGUMENT;
 306              		.loc 1 219 0
 307 0030 0723     		movs	r3, #7
 150:..\src\system/boot.c ****     ccg_status_t code = CCG_STAT_NO_RESPONSE;
 308              		.loc 1 150 0
 309 0032 0020     		movs	r0, #0
 310              	.LVL35:
 311              	.L21:
 220:..\src\system/boot.c ****                 break;
 221:..\src\system/boot.c ****         }
 222:..\src\system/boot.c ****     }
 223:..\src\system/boot.c **** #endif /* (CCG_BOOT != 0) */
 224:..\src\system/boot.c **** 
 225:..\src\system/boot.c ****     if (md_p != NULL)
 312              		.loc 1 225 0
 313 0034 0028     		cmp	r0, #0
 314 0036 2AD0     		beq	.L24
 226:..\src\system/boot.c ****     {
 227:..\src\system/boot.c ****         if (boot_validate_fw (md_p) == CCG_STAT_SUCCESS)
 315              		.loc 1 227 0
 316 0038 FFF7FEFF 		bl	boot_validate_fw
 317              	.LVL36:
 318 003c 0028     		cmp	r0, #0
 319 003e 11D1     		bne	.L25
 320              	.LVL37:
 228:..\src\system/boot.c ****         {
 229:..\src\system/boot.c ****             code = CCG_STAT_SUCCESS;
 230:..\src\system/boot.c ****             if(fw_mode == SYS_FW_MODE_FWIMAGE_1)
 321              		.loc 1 230 0
 322 0040 012C     		cmp	r4, #1
 323 0042 06D1     		bne	.L26
 231:..\src\system/boot.c ****             {
 232:..\src\system/boot.c ****                 gl_img_status.status.fw1_invalid = 0;
 324              		.loc 1 232 0
 325 0044 144A     		ldr	r2, .L33+4
 326 0046 1378     		ldrb	r3, [r2]
ARM GAS  e:\temp\ccvz51Lv.s 			page 11


 327 0048 0421     		movs	r1, #4
 328 004a 8B43     		bics	r3, r1
 329 004c 1370     		strb	r3, [r2]
 229:..\src\system/boot.c ****             if(fw_mode == SYS_FW_MODE_FWIMAGE_1)
 330              		.loc 1 229 0
 331 004e 0023     		movs	r3, #0
 332 0050 1DE0     		b	.L24
 333              	.L26:
 233:..\src\system/boot.c ****             }
 234:..\src\system/boot.c **** #if (!CCG_DUALAPP_DISABLE)
 235:..\src\system/boot.c ****             else if(fw_mode == SYS_FW_MODE_FWIMAGE_2)
 334              		.loc 1 235 0
 335 0052 022C     		cmp	r4, #2
 336 0054 18D1     		bne	.L30
 236:..\src\system/boot.c ****             {
 237:..\src\system/boot.c ****                 gl_img_status.status.fw2_invalid = 0;
 337              		.loc 1 237 0
 338 0056 104A     		ldr	r2, .L33+4
 339 0058 1378     		ldrb	r3, [r2]
 340 005a 0821     		movs	r1, #8
 341 005c 8B43     		bics	r3, r1
 342 005e 1370     		strb	r3, [r2]
 229:..\src\system/boot.c ****             if(fw_mode == SYS_FW_MODE_FWIMAGE_1)
 343              		.loc 1 229 0
 344 0060 0023     		movs	r3, #0
 345 0062 14E0     		b	.L24
 346              	.LVL38:
 347              	.L25:
 238:..\src\system/boot.c ****             }
 239:..\src\system/boot.c **** #endif /* !CCG_DUALAPP_DISABLE */
 240:..\src\system/boot.c ****         }
 241:..\src\system/boot.c ****         else
 242:..\src\system/boot.c ****         {
 243:..\src\system/boot.c ****             code = CCG_STAT_INVALID_FW;
 244:..\src\system/boot.c ****             if(fw_mode == SYS_FW_MODE_FWIMAGE_1)
 348              		.loc 1 244 0
 349 0064 012C     		cmp	r4, #1
 350 0066 06D1     		bne	.L27
 245:..\src\system/boot.c ****             {
 246:..\src\system/boot.c ****                 gl_img_status.status.fw1_invalid = 1;
 351              		.loc 1 246 0
 352 0068 0B4A     		ldr	r2, .L33+4
 353 006a 1178     		ldrb	r1, [r2]
 354 006c 0423     		movs	r3, #4
 355 006e 0B43     		orrs	r3, r1
 356 0070 1370     		strb	r3, [r2]
 243:..\src\system/boot.c ****             if(fw_mode == SYS_FW_MODE_FWIMAGE_1)
 357              		.loc 1 243 0
 358 0072 0623     		movs	r3, #6
 359 0074 0BE0     		b	.L24
 360              	.L27:
 247:..\src\system/boot.c ****             }
 248:..\src\system/boot.c **** #if (!CCG_DUALAPP_DISABLE)
 249:..\src\system/boot.c ****             else if(fw_mode == SYS_FW_MODE_FWIMAGE_2)
 361              		.loc 1 249 0
 362 0076 022C     		cmp	r4, #2
 363 0078 08D1     		bne	.L31
ARM GAS  e:\temp\ccvz51Lv.s 			page 12


 250:..\src\system/boot.c ****             {
 251:..\src\system/boot.c ****                 gl_img_status.status.fw2_invalid = 1;
 364              		.loc 1 251 0
 365 007a 074A     		ldr	r2, .L33+4
 366 007c 1178     		ldrb	r1, [r2]
 367 007e 0823     		movs	r3, #8
 368 0080 0B43     		orrs	r3, r1
 369 0082 1370     		strb	r3, [r2]
 243:..\src\system/boot.c ****             if(fw_mode == SYS_FW_MODE_FWIMAGE_1)
 370              		.loc 1 243 0
 371 0084 0623     		movs	r3, #6
 372 0086 02E0     		b	.L24
 373              	.LVL39:
 374              	.L30:
 229:..\src\system/boot.c ****             if(fw_mode == SYS_FW_MODE_FWIMAGE_1)
 375              		.loc 1 229 0
 376 0088 0023     		movs	r3, #0
 377 008a 00E0     		b	.L24
 378              	.LVL40:
 379              	.L31:
 243:..\src\system/boot.c ****             if(fw_mode == SYS_FW_MODE_FWIMAGE_1)
 380              		.loc 1 243 0
 381 008c 0623     		movs	r3, #6
 382              	.LVL41:
 383              	.L24:
 252:..\src\system/boot.c ****             }
 253:..\src\system/boot.c **** #endif /* !CCG_DUALAPP_DISABLE */
 254:..\src\system/boot.c ****         }
 255:..\src\system/boot.c ****     }
 256:..\src\system/boot.c ****     return code;
 257:..\src\system/boot.c **** }
 384              		.loc 1 257 0
 385 008e 1800     		movs	r0, r3
 386              		@ sp needed
 387 0090 10BD     		pop	{r4, pc}
 388              	.L34:
 389 0092 C046     		.align	2
 390              	.L33:
 391 0094 00000000 		.word	.LANCHOR0
 392 0098 00000000 		.word	gl_img_status
 393              		.cfi_endproc
 394              	.LFE35:
 395              		.size	boot_handle_validate_fw_cmd, .-boot_handle_validate_fw_cmd
 396              		.section	.text.boot_update_fw_status,"ax",%progbits
 397              		.align	2
 398              		.global	boot_update_fw_status
 399              		.code	16
 400              		.thumb_func
 401              		.type	boot_update_fw_status, %function
 402              	boot_update_fw_status:
 403              	.LFB36:
 258:..\src\system/boot.c **** 
 259:..\src\system/boot.c **** #if (CCG_BOOT != 0)
 260:..\src\system/boot.c **** #if (BOOT_WAIT_WINDOW_DISABLE == 0)
 261:..\src\system/boot.c **** /* Return the boot-wait setting to the user code. */
 262:..\src\system/boot.c **** uint16_t boot_get_wait_time(void)
 263:..\src\system/boot.c **** {
ARM GAS  e:\temp\ccvz51Lv.s 			page 13


 264:..\src\system/boot.c ****     return (gl_boot_wait_delay);
 265:..\src\system/boot.c **** }
 266:..\src\system/boot.c **** 
 267:..\src\system/boot.c **** static void boot_set_wait_timeout(sys_fw_metadata_t *md_p)
 268:..\src\system/boot.c **** {
 269:..\src\system/boot.c ****     /* Check for boot-wait option. */
 270:..\src\system/boot.c ****     if (md_p->boot_app_id == CCG_FWMETA_APPID_WAIT_0)
 271:..\src\system/boot.c ****     {
 272:..\src\system/boot.c ****         gl_boot_wait_delay = 0;
 273:..\src\system/boot.c ****     }
 274:..\src\system/boot.c ****     else
 275:..\src\system/boot.c ****     {
 276:..\src\system/boot.c ****         if (md_p->boot_app_id != CCG_FWMETA_APPID_WAIT_DEF)
 277:..\src\system/boot.c ****         {
 278:..\src\system/boot.c ****             /* Get the boot-wait delay from metadata, applying the MIN and MAX limits. */
 279:..\src\system/boot.c ****             gl_boot_wait_delay = GET_MAX (CCG_BL_WAIT_MAXIMUM, GET_MIN (CCG_BL_WAIT_MINUMUM,
 280:..\src\system/boot.c ****                         md_p->boot_app_id));
 281:..\src\system/boot.c ****         }
 282:..\src\system/boot.c ****     }
 283:..\src\system/boot.c **** }
 284:..\src\system/boot.c **** #endif /* BOOT_WAIT_WINDOW_DISABLE */
 285:..\src\system/boot.c **** 
 286:..\src\system/boot.c **** /*This function schedules recent and valid FW. It sets boot mode reason */
 287:..\src\system/boot.c **** bool boot_start(void)
 288:..\src\system/boot.c **** {
 289:..\src\system/boot.c ****     sys_fw_metadata_t *md_p;
 290:..\src\system/boot.c ****     uint8_t img;
 291:..\src\system/boot.c **** 
 292:..\src\system/boot.c ****     bool boot_fw1 = false;
 293:..\src\system/boot.c ****     bool boot_fw2 = false;
 294:..\src\system/boot.c **** 
 295:..\src\system/boot.c **** #if (CCG_DUALAPP_DISABLE)
 296:..\src\system/boot.c ****     (void)boot_fw1;
 297:..\src\system/boot.c ****     (void)boot_fw2;
 298:..\src\system/boot.c **** #endif /* CCG_DUALAPP_DISABLE */
 299:..\src\system/boot.c **** 
 300:..\src\system/boot.c ****     md_p = NULL;
 301:..\src\system/boot.c ****     gl_img_status.val = 0;
 302:..\src\system/boot.c ****    
 303:..\src\system/boot.c ****     /* Check the two firmware binaries for validity. */
 304:..\src\system/boot.c ****     if (boot_validate_fw ((sys_fw_metadata_t *)CCG_IMG1_FW_METADATA_ADDR) != CCG_STAT_SUCCESS)
 305:..\src\system/boot.c ****     {
 306:..\src\system/boot.c ****         gl_img_status.status.fw1_invalid  = 1;
 307:..\src\system/boot.c ****     }
 308:..\src\system/boot.c **** 
 309:..\src\system/boot.c **** #if (!CCG_DUALAPP_DISABLE)
 310:..\src\system/boot.c ****     if (boot_validate_fw ((sys_fw_metadata_t *)CCG_IMG2_FW_METADATA_ADDR) != CCG_STAT_SUCCESS)
 311:..\src\system/boot.c **** #endif /* CCG_DUALAPP_DISABLE */
 312:..\src\system/boot.c ****     {
 313:..\src\system/boot.c ****         gl_img_status.status.fw2_invalid = 1;
 314:..\src\system/boot.c ****     }
 315:..\src\system/boot.c ****     
 316:..\src\system/boot.c ****     /* Check for the boot mode request. */
 317:..\src\system/boot.c ****     /*
 318:..\src\system/boot.c ****      * NOTE: cyBtldrRunType is Bootloader component provided variable.
 319:..\src\system/boot.c ****      * It is used to store the jump signature. Check the lower two bytes
 320:..\src\system/boot.c ****      * for signature.
ARM GAS  e:\temp\ccvz51Lv.s 			page 14


 321:..\src\system/boot.c ****      */
 322:..\src\system/boot.c ****     if ((cyBtldrRunType & 0xFFFF) == SYS_BOOT_MODE_RQT_SIG)
 323:..\src\system/boot.c ****     {
 324:..\src\system/boot.c ****         /*
 325:..\src\system/boot.c ****          * FW has made a request to stay in boot mode. Return
 326:..\src\system/boot.c ****          * from here after clearing the variable.
 327:..\src\system/boot.c ****          */
 328:..\src\system/boot.c ****         cyBtldrRunType = 0;
 329:..\src\system/boot.c ****         /* Set the reason for boot mode. */
 330:..\src\system/boot.c ****         gl_img_status.status.boot_mode_request = true;
 331:..\src\system/boot.c ****         return false;
 332:..\src\system/boot.c ****     }
 333:..\src\system/boot.c ****     
 334:..\src\system/boot.c ****     /* Check if we have been asked to boot FW1 or FW2 specifically. */
 335:..\src\system/boot.c ****     if ((cyBtldrRunType & 0xFFFF) == CCG_FW1_BOOT_RQT_SIG)
 336:..\src\system/boot.c ****         boot_fw1 = true;
 337:..\src\system/boot.c **** 
 338:..\src\system/boot.c **** #if (!CCG_DUALAPP_DISABLE)
 339:..\src\system/boot.c ****     if ((cyBtldrRunType & 0xFFFF) == CCG_FW2_BOOT_RQT_SIG)
 340:..\src\system/boot.c ****         boot_fw2 = true;
 341:..\src\system/boot.c **** #endif /* CCG_DUALAPP_DISABLE */
 342:..\src\system/boot.c **** 
 343:..\src\system/boot.c **** #if (!CCG_DUALAPP_DISABLE)
 344:..\src\system/boot.c ****     /*
 345:..\src\system/boot.c ****      * If we have been specifically asked to boot FW2, do that.
 346:..\src\system/boot.c ****      * Otherwise, if we have not been specifically asked to boot FW1; choose the binary with
 347:..\src\system/boot.c ****      * greater sequence number.
 348:..\src\system/boot.c ****      */
 349:..\src\system/boot.c ****     if (!gl_img_status.status.fw2_invalid)
 350:..\src\system/boot.c ****     {
 351:..\src\system/boot.c ****         /* 
 352:..\src\system/boot.c ****          * FW2 is valid.
 353:..\src\system/boot.c ****          * We can boot this if:
 354:..\src\system/boot.c ****          * 1. We have been asked to boot FW2.
 355:..\src\system/boot.c ****          * 2. FW1 is not valid.
 356:..\src\system/boot.c ****          * 3. FW2 is newer than FW1, and we have not been asked to boot FW1.
 357:..\src\system/boot.c ****          */
 358:..\src\system/boot.c ****         if ((boot_fw2) || (gl_img_status.status.fw1_invalid) ||
 359:..\src\system/boot.c ****                 ((!boot_fw1) && (sys_get_recent_fw_image() == SYS_FW_MODE_FWIMAGE_2)))
 360:..\src\system/boot.c ****         {
 361:..\src\system/boot.c ****             md_p = gl_img2_fw_metadata;
 362:..\src\system/boot.c ****             img  = Bootloader_1_MD_BTLDB_ACTIVE_1;
 363:..\src\system/boot.c ****         }
 364:..\src\system/boot.c ****         else
 365:..\src\system/boot.c ****         {
 366:..\src\system/boot.c ****             md_p = gl_img1_fw_metadata;
 367:..\src\system/boot.c ****             img  = Bootloader_1_MD_BTLDB_ACTIVE_0;
 368:..\src\system/boot.c ****         }
 369:..\src\system/boot.c ****     }
 370:..\src\system/boot.c ****     else
 371:..\src\system/boot.c **** #endif /* CCG_DUALAPP_DISABLE */
 372:..\src\system/boot.c ****     {
 373:..\src\system/boot.c ****         /* FW2 is invalid. */
 374:..\src\system/boot.c ****         /* Load FW1 if it is valid. */
 375:..\src\system/boot.c ****         if (!gl_img_status.status.fw1_invalid)
 376:..\src\system/boot.c ****         {
 377:..\src\system/boot.c ****             md_p = gl_img1_fw_metadata;
ARM GAS  e:\temp\ccvz51Lv.s 			page 15


 378:..\src\system/boot.c ****             img  = Bootloader_1_MD_BTLDB_ACTIVE_0;
 379:..\src\system/boot.c ****         }
 380:..\src\system/boot.c ****     }
 381:..\src\system/boot.c ****     
 382:..\src\system/boot.c ****     if (md_p != NULL)
 383:..\src\system/boot.c ****     {
 384:..\src\system/boot.c **** #if (BOOT_WAIT_WINDOW_DISABLE == 0)
 385:..\src\system/boot.c ****         /*
 386:..\src\system/boot.c ****          * If we are in the middle of a jump-to-alt-fw command, do not provide
 387:..\src\system/boot.c ****          * the boot wait window.
 388:..\src\system/boot.c ****          */
 389:..\src\system/boot.c ****         if ((boot_fw1) || (boot_fw2))
 390:..\src\system/boot.c ****             gl_boot_wait_delay = 0;
 391:..\src\system/boot.c ****         else
 392:..\src\system/boot.c ****             boot_set_wait_timeout (md_p);
 393:..\src\system/boot.c **** #endif /* BOOT_WAIT_WINDOW_DISABLE */
 394:..\src\system/boot.c **** 
 395:..\src\system/boot.c ****         Bootloader_1_activeApp = img;
 396:..\src\system/boot.c ****         return true;
 397:..\src\system/boot.c ****     }
 398:..\src\system/boot.c **** 
 399:..\src\system/boot.c ****     /* Stay in bootlaoder. */
 400:..\src\system/boot.c ****     return false;
 401:..\src\system/boot.c **** }
 402:..\src\system/boot.c **** 
 403:..\src\system/boot.c **** void boot_jump_to_fw(void)
 404:..\src\system/boot.c **** {
 405:..\src\system/boot.c ****     /* Schedule the FW and undergo a reset. */
 406:..\src\system/boot.c ****     Bootloader_1_SET_RUN_TYPE (Bootloader_1_START_APP);
 407:..\src\system/boot.c ****     CySoftwareReset ();
 408:..\src\system/boot.c **** }
 409:..\src\system/boot.c **** #else /* !CCG_BOOT */
 410:..\src\system/boot.c **** 
 411:..\src\system/boot.c **** void boot_update_fw_status(void)
 412:..\src\system/boot.c **** {
 404              		.loc 1 412 0
 405              		.cfi_startproc
 406              		@ args = 0, pretend = 0, frame = 0
 407              		@ frame_needed = 0, uses_anonymous_args = 0
 408 0000 10B5     		push	{r4, lr}
 409              		.cfi_def_cfa_offset 8
 410              		.cfi_offset 4, -8
 411              		.cfi_offset 14, -4
 413:..\src\system/boot.c **** #if (!CCG_BOOT)
 414:..\src\system/boot.c ****     gl_img_status.val = 0;
 412              		.loc 1 414 0
 413 0002 0022     		movs	r2, #0
 414 0004 0B4B     		ldr	r3, .L38
 415 0006 1A70     		strb	r2, [r3]
 415:..\src\system/boot.c **** 
 416:..\src\system/boot.c ****     /* Check the two firmware binaries for validity. */
 417:..\src\system/boot.c ****     if (boot_handle_validate_fw_cmd (SYS_FW_MODE_FWIMAGE_1) != CCG_STAT_SUCCESS)
 416              		.loc 1 417 0
 417 0008 0120     		movs	r0, #1
 418 000a FFF7FEFF 		bl	boot_handle_validate_fw_cmd
 419              	.LVL42:
 420 000e 0028     		cmp	r0, #0
ARM GAS  e:\temp\ccvz51Lv.s 			page 16


 421 0010 04D0     		beq	.L36
 418:..\src\system/boot.c ****     {
 419:..\src\system/boot.c ****         gl_img_status.status.fw1_invalid = 1;
 422              		.loc 1 419 0
 423 0012 084A     		ldr	r2, .L38
 424 0014 1178     		ldrb	r1, [r2]
 425 0016 0423     		movs	r3, #4
 426 0018 0B43     		orrs	r3, r1
 427 001a 1370     		strb	r3, [r2]
 428              	.L36:
 420:..\src\system/boot.c ****     }
 421:..\src\system/boot.c **** 
 422:..\src\system/boot.c **** #if (!CCG_DUALAPP_DISABLE)
 423:..\src\system/boot.c ****     if (boot_handle_validate_fw_cmd (SYS_FW_MODE_FWIMAGE_2) != CCG_STAT_SUCCESS)
 429              		.loc 1 423 0
 430 001c 0220     		movs	r0, #2
 431 001e FFF7FEFF 		bl	boot_handle_validate_fw_cmd
 432              	.LVL43:
 433 0022 0028     		cmp	r0, #0
 434 0024 04D0     		beq	.L35
 424:..\src\system/boot.c **** #endif /* !CCG_DUALAPP_DISABLE */
 425:..\src\system/boot.c ****     {
 426:..\src\system/boot.c ****         gl_img_status.status.fw2_invalid = 1;
 435              		.loc 1 426 0
 436 0026 034A     		ldr	r2, .L38
 437 0028 1178     		ldrb	r1, [r2]
 438 002a 0823     		movs	r3, #8
 439 002c 0B43     		orrs	r3, r1
 440 002e 1370     		strb	r3, [r2]
 441              	.L35:
 427:..\src\system/boot.c ****     }
 428:..\src\system/boot.c **** 
 429:..\src\system/boot.c **** #if APP_PRIORITY_FEATURE_ENABLE
 430:..\src\system/boot.c ****     /* Update the app-priority field if the feature is enabled. */
 431:..\src\system/boot.c ****     gl_img_status.status.reserved1 = ((*(uint8_t *)(CCG_APP_PRIORITY_ROW_NUM << CCG_FLASH_ROW_SHIFT
 432:..\src\system/boot.c **** #endif /* APP_PRIORITY_FEATURE_ENABLE */
 433:..\src\system/boot.c **** 
 434:..\src\system/boot.c **** #endif /* CCG_BOOT */
 435:..\src\system/boot.c **** }
 442              		.loc 1 435 0
 443              		@ sp needed
 444 0030 10BD     		pop	{r4, pc}
 445              	.L39:
 446 0032 C046     		.align	2
 447              	.L38:
 448 0034 00000000 		.word	gl_img_status
 449              		.cfi_endproc
 450              	.LFE36:
 451              		.size	boot_update_fw_status, .-boot_update_fw_status
 452              		.section	.text.boot_get_boot_seq,"ax",%progbits
 453              		.align	2
 454              		.global	boot_get_boot_seq
 455              		.code	16
 456              		.thumb_func
 457              		.type	boot_get_boot_seq, %function
 458              	boot_get_boot_seq:
 459              	.LFB37:
ARM GAS  e:\temp\ccvz51Lv.s 			page 17


 436:..\src\system/boot.c ****     
 437:..\src\system/boot.c **** #if (CCG_PSEUDO_METADATA_DISABLE == 0)
 438:..\src\system/boot.c **** 
 439:..\src\system/boot.c **** void boot_check_for_valid_fw(void)
 440:..\src\system/boot.c **** {
 441:..\src\system/boot.c ****     /* Temporary data buffer (of size one Flash row) to store contents of pseudo metadata. */
 442:..\src\system/boot.c ****     uint8_t temp_pseudo_metadata_buf[CCG_FLASH_ROW_SIZE] = {0};
 443:..\src\system/boot.c ****     sys_fw_metadata_t *p_md, *alt_p_md, *md, *alt_md;
 444:..\src\system/boot.c ****     uint16_t alt_p_md_row_num, alt_md_row_num, p_md_row_num;
 445:..\src\system/boot.c ****     /* To hold the bit position of alternate image in Image status structure. */
 446:..\src\system/boot.c ****     uint8_t alt_img_bit_pos;
 447:..\src\system/boot.c ****     bool invalidate_md = false;
 448:..\src\system/boot.c **** #if (SECURE_FW_UPDATE == 1)
 449:..\src\system/boot.c ****     /* Buffer to hold FW HASH. */
 450:..\src\system/boot.c ****     uint32_t fw_hash[CRYPTO_SHA_2_HASH_SIZE_WORDS] = {0};
 451:..\src\system/boot.c **** #endif /* SECURE_FW_UPDATE */
 452:..\src\system/boot.c **** 
 453:..\src\system/boot.c ****     /*Pointer to the metadata table's start address  in pseudo metadata row buffer. */
 454:..\src\system/boot.c ****     sys_fw_metadata_t *temp_fw_pmetadata = (sys_fw_metadata_t *)
 455:..\src\system/boot.c ****             (temp_pseudo_metadata_buf + (CCG_FLASH_ROW_SIZE - CCG_METADATA_TABLE_SIZE));
 456:..\src\system/boot.c **** 
 457:..\src\system/boot.c ****     /* Determine the pseudo and actual metadata row details based on FW mode. */
 458:..\src\system/boot.c ****     if (sys_get_device_mode() == SYS_FW_MODE_FWIMAGE_1)
 459:..\src\system/boot.c ****     {
 460:..\src\system/boot.c ****         p_md = gl_img1_fw_pseudo_metadata;
 461:..\src\system/boot.c ****         alt_p_md = gl_img2_fw_pseudo_metadata;
 462:..\src\system/boot.c ****         md = gl_img1_fw_metadata;
 463:..\src\system/boot.c ****         alt_md = gl_img2_fw_metadata;
 464:..\src\system/boot.c ****         p_md_row_num = CCG_IMG1_LAST_FLASH_ROW_NUM;
 465:..\src\system/boot.c ****         alt_p_md_row_num = CCG_IMG2_PSEUDO_METADATA_ROW_NUM;
 466:..\src\system/boot.c ****         alt_md_row_num = CCG_IMG2_METADATA_ROW_NUM;
 467:..\src\system/boot.c ****         alt_img_bit_pos = 3;
 468:..\src\system/boot.c ****     }
 469:..\src\system/boot.c ****     else
 470:..\src\system/boot.c ****     {
 471:..\src\system/boot.c ****         p_md = gl_img2_fw_pseudo_metadata;
 472:..\src\system/boot.c ****         alt_p_md = gl_img1_fw_pseudo_metadata;
 473:..\src\system/boot.c ****         md = gl_img2_fw_metadata;
 474:..\src\system/boot.c ****         alt_md = gl_img1_fw_metadata;
 475:..\src\system/boot.c ****         p_md_row_num = CCG_IMG2_PSEUDO_METADATA_ROW_NUM;
 476:..\src\system/boot.c ****         alt_p_md_row_num = gl_img2_fw_metadata->boot_last_row;
 477:..\src\system/boot.c ****         alt_md_row_num = CCG_IMG1_METADATA_ROW_NUM;
 478:..\src\system/boot.c ****         alt_img_bit_pos = 2;
 479:..\src\system/boot.c ****     }
 480:..\src\system/boot.c ****     
 481:..\src\system/boot.c ****     /* Current FW shall ensure that it's PMD row is cleared if it contains
 482:..\src\system/boot.c ****      * valid signature. This ensures there is no stale PMD information in the flash. */
 483:..\src\system/boot.c ****     if (p_md->metadata_valid == SYS_PSEUDO_METADATA_VALID_SIG)
 484:..\src\system/boot.c ****     {
 485:..\src\system/boot.c ****         flash_row_clear (p_md_row_num);
 486:..\src\system/boot.c ****     }
 487:..\src\system/boot.c ****         
 488:..\src\system/boot.c ****     /*
 489:..\src\system/boot.c ****      * Read pseudo-metadata row of other fw image. If pseudo-metadata has
 490:..\src\system/boot.c ****      * signature "CP", which indicates that other FW Image got updated before
 491:..\src\system/boot.c ****      * re-boot, and FW image is valid then copy this pseudo-metadta in to
 492:..\src\system/boot.c ****      * its actual metadata row after changing its signature and
ARM GAS  e:\temp\ccvz51Lv.s 			page 18


 493:..\src\system/boot.c ****      * increamenting image pointer.
 494:..\src\system/boot.c ****      */
 495:..\src\system/boot.c ****     if (alt_p_md->metadata_valid == SYS_PSEUDO_METADATA_VALID_SIG)
 496:..\src\system/boot.c ****     {
 497:..\src\system/boot.c ****         if(boot_validate_fw (alt_p_md) == CCG_STAT_SUCCESS)
 498:..\src\system/boot.c ****         {
 499:..\src\system/boot.c **** #if (SECURE_FW_UPDATE == 1)
 500:..\src\system/boot.c ****            if(sboot_authenticate_fw(alt_p_md, alt_p_md_row_num, fw_hash) == CCG_STAT_SUCCESS)
 501:..\src\system/boot.c **** #endif /* SECURE_FW_UPDATE */
 502:..\src\system/boot.c ****            {
 503:..\src\system/boot.c ****                 /* Read pesudo metadata in a temp buffer. */
 504:..\src\system/boot.c ****                 MEM_COPY ((uint8_t *)temp_fw_pmetadata, (uint8_t *)alt_p_md,
 505:..\src\system/boot.c ****                     CCG_METADATA_TABLE_SIZE);
 506:..\src\system/boot.c ****                 temp_fw_pmetadata->metadata_valid = SYS_METADATA_VALID_SIG;
 507:..\src\system/boot.c ****                 temp_fw_pmetadata->boot_seq = (md->boot_seq) + 1;
 508:..\src\system/boot.c **** #if (SECURE_FW_UPDATE == 1)
 509:..\src\system/boot.c ****                 /* Copy FW HASH in first 32 bytes of pseudo metadata row. */
 510:..\src\system/boot.c ****                 MEM_COPY (temp_pseudo_metadata_buf, (uint8_t *)fw_hash,
 511:..\src\system/boot.c ****                     CRYPTO_SHA_2_HASH_SIZE_BYTES);
 512:..\src\system/boot.c **** #endif /* SECURE_FW_UPDATE */
 513:..\src\system/boot.c ****                 /* This flash write can always be blocking. */
 514:..\src\system/boot.c ****                 if (CYRET_SUCCESS == CySysFlashWriteRow (alt_md_row_num,
 515:..\src\system/boot.c ****                             temp_pseudo_metadata_buf))
 516:..\src\system/boot.c ****                 {
 517:..\src\system/boot.c ****                     /*Invalidate Pseudo-metadata of FW Image 2.*/
 518:..\src\system/boot.c ****                     flash_row_clear (alt_p_md_row_num);
 519:..\src\system/boot.c ****                     /* Undergo Software Reset. */
 520:..\src\system/boot.c ****                     CySoftwareReset();
 521:..\src\system/boot.c ****                 }
 522:..\src\system/boot.c ****             }
 523:..\src\system/boot.c **** #if (SECURE_FW_UPDATE == 1)
 524:..\src\system/boot.c ****             else
 525:..\src\system/boot.c ****             {
 526:..\src\system/boot.c ****                 invalidate_md = true;
 527:..\src\system/boot.c ****             }
 528:..\src\system/boot.c **** #endif /* SECURE_FW_UPDATE */
 529:..\src\system/boot.c ****         }
 530:..\src\system/boot.c ****         else
 531:..\src\system/boot.c ****         {
 532:..\src\system/boot.c ****             invalidate_md = true;
 533:..\src\system/boot.c ****         }
 534:..\src\system/boot.c ****     }
 535:..\src\system/boot.c ****     else
 536:..\src\system/boot.c ****     {
 537:..\src\system/boot.c ****         /* Check if other image is valid. */
 538:..\src\system/boot.c ****         if (boot_validate_fw (alt_md) != CCG_STAT_SUCCESS)
 539:..\src\system/boot.c ****         {
 540:..\src\system/boot.c ****             /* Mark the other image as invalid. */
 541:..\src\system/boot.c ****             gl_img_status.val |= (1 << alt_img_bit_pos);
 542:..\src\system/boot.c ****         }
 543:..\src\system/boot.c ****     }
 544:..\src\system/boot.c **** 
 545:..\src\system/boot.c ****     if (invalidate_md)
 546:..\src\system/boot.c ****     {
 547:..\src\system/boot.c ****         /*Invalidate Pseudo-metadata and Metadata of other FW Image.*/
 548:..\src\system/boot.c ****         flash_row_clear (alt_md_row_num);
 549:..\src\system/boot.c ****         flash_row_clear (alt_p_md_row_num);
ARM GAS  e:\temp\ccvz51Lv.s 			page 19


 550:..\src\system/boot.c ****         /* Mark the other image as invalid. */
 551:..\src\system/boot.c ****         gl_img_status.val |= (1 << alt_img_bit_pos);
 552:..\src\system/boot.c ****     }
 553:..\src\system/boot.c **** }
 554:..\src\system/boot.c **** #endif /* CCG_PSEUDO_METADATA_DISABLE */
 555:..\src\system/boot.c **** 
 556:..\src\system/boot.c **** #endif /* CCG_BOOT */
 557:..\src\system/boot.c **** 
 558:..\src\system/boot.c **** uint32_t boot_get_boot_seq(uint8_t fwid)
 559:..\src\system/boot.c **** {
 460              		.loc 1 559 0
 461              		.cfi_startproc
 462              		@ args = 0, pretend = 0, frame = 0
 463              		@ frame_needed = 0, uses_anonymous_args = 0
 464              	.LVL44:
 465 0000 70B5     		push	{r4, r5, r6, lr}
 466              		.cfi_def_cfa_offset 16
 467              		.cfi_offset 4, -16
 468              		.cfi_offset 5, -12
 469              		.cfi_offset 6, -8
 470              		.cfi_offset 14, -4
 471 0002 0400     		movs	r4, r0
 560:..\src\system/boot.c ****     sys_fw_metadata_t *md_p;
 561:..\src\system/boot.c **** 
 562:..\src\system/boot.c ****     if (fwid == SYS_FW_MODE_FWIMAGE_1)
 472              		.loc 1 562 0
 473 0004 0128     		cmp	r0, #1
 474 0006 01D1     		bne	.L44
 563:..\src\system/boot.c ****         md_p = (sys_fw_metadata_t *)CCG_IMG1_FW_METADATA_ADDR;
 475              		.loc 1 563 0
 476 0008 074D     		ldr	r5, .L46
 477 000a 00E0     		b	.L41
 478              	.L44:
 564:..\src\system/boot.c **** #if (!CCG_DUALAPP_DISABLE)
 565:..\src\system/boot.c ****     else
 566:..\src\system/boot.c ****         md_p = (sys_fw_metadata_t *)CCG_IMG2_FW_METADATA_ADDR;
 479              		.loc 1 566 0
 480 000c 074D     		ldr	r5, .L46+4
 481              	.L41:
 482              	.LVL45:
 567:..\src\system/boot.c **** #endif /* (!CCG_DUALAPP_DISABLE) */
 568:..\src\system/boot.c **** 
 569:..\src\system/boot.c **** #if (CCG_BOOT != 0)
 570:..\src\system/boot.c ****     if (boot_validate_fw (md_p) == CCG_STAT_SUCCESS)
 571:..\src\system/boot.c ****     {
 572:..\src\system/boot.c ****         return (md_p->boot_seq);
 573:..\src\system/boot.c ****     }
 574:..\src\system/boot.c **** #else /* (CCG_BOOT != 0) */
 575:..\src\system/boot.c **** 
 576:..\src\system/boot.c ****     /* We only need to validate if the target is not the active firmware. */
 577:..\src\system/boot.c ****     if ((sys_get_device_mode () == fwid) || (boot_validate_fw (md_p) == CCG_STAT_SUCCESS))
 483              		.loc 1 577 0
 484 000e FFF7FEFF 		bl	sys_get_device_mode
 485              	.LVL46:
 486 0012 8442     		cmp	r4, r0
 487 0014 04D0     		beq	.L42
 488              		.loc 1 577 0 is_stmt 0 discriminator 1
ARM GAS  e:\temp\ccvz51Lv.s 			page 20


 489 0016 2800     		movs	r0, r5
 490 0018 FFF7FEFF 		bl	boot_validate_fw
 491              	.LVL47:
 492 001c 0028     		cmp	r0, #0
 493 001e 01D1     		bne	.L45
 494              	.L42:
 578:..\src\system/boot.c ****     {
 579:..\src\system/boot.c ****         return (md_p->boot_seq);
 495              		.loc 1 579 0 is_stmt 1
 496 0020 E869     		ldr	r0, [r5, #28]
 497 0022 00E0     		b	.L43
 498              	.L45:
 580:..\src\system/boot.c ****     }
 581:..\src\system/boot.c **** #endif /* (CCG_BOOT != 0) */
 582:..\src\system/boot.c ****     return 0;
 499              		.loc 1 582 0
 500 0024 0020     		movs	r0, #0
 501              	.L43:
 583:..\src\system/boot.c **** }
 502              		.loc 1 583 0
 503              		@ sp needed
 504              	.LVL48:
 505 0026 70BD     		pop	{r4, r5, r6, pc}
 506              	.L47:
 507              		.align	2
 508              	.L46:
 509 0028 C0FF0100 		.word	131008
 510 002c C0FE0100 		.word	130752
 511              		.cfi_endproc
 512              	.LFE37:
 513              		.size	boot_get_boot_seq, .-boot_get_boot_seq
 514              		.global	gl_img2_fw_metadata
 515              		.global	gl_img1_fw_metadata
 516              		.comm	gl_img_status,1,4
 517              		.data
 518              		.align	2
 519              		.set	.LANCHOR0,. + 0
 520              		.type	gl_img1_fw_metadata, %object
 521              		.size	gl_img1_fw_metadata, 4
 522              	gl_img1_fw_metadata:
 523 0000 C0FF0100 		.word	131008
 524              		.type	gl_img2_fw_metadata, %object
 525              		.size	gl_img2_fw_metadata, 4
 526              	gl_img2_fw_metadata:
 527 0004 C0FE0100 		.word	130752
 528              		.type	gl_boot_wait_delay, %object
 529              		.size	gl_boot_wait_delay, 2
 530              	gl_boot_wait_delay:
 531 0008 3200     		.short	50
 532              		.text
 533              	.Letext0:
 534              		.file 2 "e:\\cypress\\psoc creator\\4.2\\psoc creator\\import\\gnu\\arm\\5.4.1\\arm-none-eabi\\inc
 535              		.file 3 "e:\\cypress\\psoc creator\\4.2\\psoc creator\\import\\gnu\\arm\\5.4.1\\arm-none-eabi\\inc
 536              		.file 4 "..\\src\\system/status.h"
 537              		.file 5 "..\\src\\system/system.h"
 538              		.file 6 "..\\src\\system/boot.h"
 539              		.file 7 "..\\src\\system/utils.h"
ARM GAS  e:\temp\ccvz51Lv.s 			page 21

