ARM GAS  e:\temp\ccVGPNYG.s 			page 1


   1              		.syntax unified
   2              		.cpu cortex-m0
   3              		.fpu softvfp
   4              		.eabi_attribute 20, 1
   5              		.eabi_attribute 21, 1
   6              		.eabi_attribute 23, 3
   7              		.eabi_attribute 24, 1
   8              		.eabi_attribute 25, 1
   9              		.eabi_attribute 26, 1
  10              		.eabi_attribute 30, 1
  11              		.eabi_attribute 34, 0
  12              		.eabi_attribute 18, 4
  13              		.thumb
  14              		.syntax unified
  15              		.file	"flash.c"
  16              		.text
  17              	.Ltext0:
  18              		.cfi_sections	.debug_frame
  19              		.section	.text.flash_trig_row_write_in_place,"ax",%progbits
  20              		.align	2
  21              		.code	16
  22              		.thumb_func
  23              		.type	flash_trig_row_write_in_place, %function
  24              	flash_trig_row_write_in_place:
  25              	.LFB32:
  26              		.file 1 "..\\src\\system\\flash.c"
   1:..\src\system/flash.c **** /**
   2:..\src\system/flash.c ****  * @file flash.c
   3:..\src\system/flash.c ****  *
   4:..\src\system/flash.c ****  * @brief @{Flash command handler source file.@}
   5:..\src\system/flash.c ****  */
   6:..\src\system/flash.c **** 
   7:..\src\system/flash.c **** /*
   8:..\src\system/flash.c ****  * Copyright (2014-2018), Cypress Semiconductor Corporation or a subsidiary of
   9:..\src\system/flash.c ****  * Cypress Semiconductor Corporation. All rights reserved.
  10:..\src\system/flash.c ****  *
  11:..\src\system/flash.c ****  * This software, including source code, documentation and related materials
  12:..\src\system/flash.c ****  * (“Software”), is owned by Cypress Semiconductor Corporation or one of its
  13:..\src\system/flash.c ****  * subsidiaries (“Cypress”) and is protected by and subject to worldwide patent
  14:..\src\system/flash.c ****  * protection (United States and foreign), United States copyright laws and
  15:..\src\system/flash.c ****  * international treaty provisions. Therefore, you may use this Software only
  16:..\src\system/flash.c ****  * as provided in the license agreement accompanying the software package from
  17:..\src\system/flash.c ****  * which you obtained this Software (“EULA”).
  18:..\src\system/flash.c ****  *
  19:..\src\system/flash.c ****  * If no EULA applies, Cypress hereby grants you a personal, nonexclusive,
  20:..\src\system/flash.c ****  * non-transferable license to copy, modify, and compile the Software source
  21:..\src\system/flash.c ****  * code solely for use in connection with Cypress’s integrated circuit
  22:..\src\system/flash.c ****  * products. Any reproduction, modification, translation, compilation, or
  23:..\src\system/flash.c ****  * representation of this Software except as specified above is prohibited
  24:..\src\system/flash.c ****  * without the express written permission of Cypress. Disclaimer: THIS SOFTWARE
  25:..\src\system/flash.c ****  * IS PROVIDED AS-IS, WITH NO WARRANTY OF ANY KIND, EXPRESS OR IMPLIED,
  26:..\src\system/flash.c ****  * INCLUDING, BUT NOT LIMITED TO, NONINFRINGEMENT, IMPLIED WARRANTIES OF
  27:..\src\system/flash.c ****  * MERCHANTABILITY AND FITNESS FOR A PARTICULAR PURPOSE. Cypress reserves the
  28:..\src\system/flash.c ****  * right to make changes to the Software without notice. Cypress does not
  29:..\src\system/flash.c ****  * assume any liability arising out of the application or use of the Software
  30:..\src\system/flash.c ****  * or any product or circuit described in the Software. Cypress does not
  31:..\src\system/flash.c ****  * authorize its products for use in any products where a malfunction or
ARM GAS  e:\temp\ccVGPNYG.s 			page 2


  32:..\src\system/flash.c ****  * failure of the Cypress product may reasonably be expected to result in
  33:..\src\system/flash.c ****  * significant property damage, injury or death (“High Risk Product”). By
  34:..\src\system/flash.c ****  * including Cypress’s product in a High Risk Product, the manufacturer of such
  35:..\src\system/flash.c ****  * system or application assumes all risk of such use and in doing so agrees to
  36:..\src\system/flash.c ****  * indemnify Cypress against all liability.
  37:..\src\system/flash.c ****  */
  38:..\src\system/flash.c **** 
  39:..\src\system/flash.c **** #include <stdbool.h>
  40:..\src\system/flash.c **** #include <config.h>
  41:..\src\system/flash.c **** #include <utils.h>
  42:..\src\system/flash.c **** #include <status.h>
  43:..\src\system/flash.c **** #include <system.h>
  44:..\src\system/flash.c **** #include <boot.h>
  45:..\src\system/flash.c **** #include <ccgx_regs.h>
  46:..\src\system/flash.c **** #include <flash_config.h>
  47:..\src\system/flash.c **** #include <flash.h>
  48:..\src\system/flash.c **** 
  49:..\src\system/flash.c **** /* 
  50:..\src\system/flash.c ****  * Flags to indicate Flashing mode. Flash read and write requests
  51:..\src\system/flash.c ****  * are honoured only when any of these flags are set. Also, the
  52:..\src\system/flash.c ****  * flash_set_access_limits() function must be called before flash
  53:..\src\system/flash.c ****  * access can be done. The default values prevent any write or
  54:..\src\system/flash.c ****  * read.
  55:..\src\system/flash.c ****  */
  56:..\src\system/flash.c **** static uint8_t gl_flash_mode_en = 0;
  57:..\src\system/flash.c **** 
  58:..\src\system/flash.c **** /* Lowest flash row number that can be accessed. */
  59:..\src\system/flash.c **** static uint16_t gl_flash_access_first = CCG_LAST_FLASH_ROW_NUM + 1;
  60:..\src\system/flash.c **** 
  61:..\src\system/flash.c **** /* Highest flash row number that can be accessed. */
  62:..\src\system/flash.c **** static uint16_t gl_flash_access_last = CCG_LAST_FLASH_ROW_NUM + 1;
  63:..\src\system/flash.c **** 
  64:..\src\system/flash.c **** /* Flash row containing metadata for the alternate firmware image. */
  65:..\src\system/flash.c **** static uint16_t gl_flash_metadata_row = CCG_LAST_FLASH_ROW_NUM + 1;
  66:..\src\system/flash.c **** 
  67:..\src\system/flash.c **** /* Last boot loader flash row. Used for read protection. */
  68:..\src\system/flash.c **** static uint16_t gl_flash_bl_last_row = CCG_LAST_FLASH_ROW_NUM + 1;
  69:..\src\system/flash.c **** 
  70:..\src\system/flash.c **** #if (!CCG_BOOT)
  71:..\src\system/flash.c **** /* Whether flash write data can be used in-place as SROM API parameter. */
  72:..\src\system/flash.c **** static volatile bool gl_flash_write_in_place = false;
  73:..\src\system/flash.c **** #endif /* (!CCG_BOOT) */
  74:..\src\system/flash.c **** 
  75:..\src\system/flash.c **** #if (FLASH_ENABLE_NB_MODE == 1)
  76:..\src\system/flash.c **** /* SPC Interrupt Number. */
  77:..\src\system/flash.c **** #ifdef CCG3
  78:..\src\system/flash.c **** #define FLASH_SPC_INTR                  (0x0C)
  79:..\src\system/flash.c **** #elif (defined(CCG3PA2))
  80:..\src\system/flash.c **** #define FLASH_SPC_INTR                  (0x09)
  81:..\src\system/flash.c **** #else /* CCGx */
  82:..\src\system/flash.c **** #error "Not suppported device family. Non blocked flashing supported only on CCG3 and CCG3PA2."
  83:..\src\system/flash.c **** #endif /* CCGx */
  84:..\src\system/flash.c **** #endif /* (FLASH_ENABLE_NB_MODE == 1) */
  85:..\src\system/flash.c **** 
  86:..\src\system/flash.c **** /* MACROS for SROM APIs. */
  87:..\src\system/flash.c **** 
  88:..\src\system/flash.c **** #define SROM_API_RETURN_VALUE                   \
ARM GAS  e:\temp\ccVGPNYG.s 			page 3


  89:..\src\system/flash.c ****     (((CY_FLASH_CPUSS_SYSARG_REG & 0xF0000000u) \
  90:..\src\system/flash.c ****       == 0xA0000000u) ? CYRET_SUCCESS :         \
  91:..\src\system/flash.c ****      (CY_FLASH_CPUSS_SYSARG_REG & 0x0000000Fu))
  92:..\src\system/flash.c **** 
  93:..\src\system/flash.c **** /* Keys used in SROM APIs. */
  94:..\src\system/flash.c **** #define SROM_FLASH_API_KEY_ONE          (0xB6)
  95:..\src\system/flash.c **** #define SROM_FLASH_API_KEY_TWO(x)       (uint32_t)(0xD3u + x)
  96:..\src\system/flash.c **** #define SROM_FLASH_KEY_TWO_OFFSET       (0x08)
  97:..\src\system/flash.c **** 
  98:..\src\system/flash.c **** /* Offset of Argument 1 and 2 (Words) for SROM APIs in SRAM Buffer. */
  99:..\src\system/flash.c **** #define SROM_API_ARG0_OFFSET            (0x00)
 100:..\src\system/flash.c **** #define SROM_API_ARG1_OFFSET            (0x01)
 101:..\src\system/flash.c **** 
 102:..\src\system/flash.c **** /* SROM LOAD FLASH API. */
 103:..\src\system/flash.c **** #define SROM_LOAD_FLASH_API_OPCODE              (0x04)
 104:..\src\system/flash.c **** #define SROM_LOAD_FLASH_DATA_OFFSET             (0x02)
 105:..\src\system/flash.c **** #define SROM_LOAD_FLASH_BYTE_ADDR               (0x00)
 106:..\src\system/flash.c **** #define SROM_LOAD_FLASH_BYTE_ADDR_OFFSET        (0x10)
 107:..\src\system/flash.c **** #define SROM_LOAD_FLASH_MACRO_OFFSET            (0x18)
 108:..\src\system/flash.c **** 
 109:..\src\system/flash.c **** /* FLASH ROW PROGRAM API. */
 110:..\src\system/flash.c **** #define SROM_FLASH_PROGRAM_API_OPCODE           (0x05)
 111:..\src\system/flash.c **** 
 112:..\src\system/flash.c **** /* Non-BLOCKING Write Flash Row API */
 113:..\src\system/flash.c **** #define SROM_NB_FLASH_ROW_API_OPCODE    (0x07)
 114:..\src\system/flash.c **** #define SROM_NB_FLASH_ROW_NUM_OFFSET    (0x10)
 115:..\src\system/flash.c **** 
 116:..\src\system/flash.c **** /* Resume Non-Blocking API */
 117:..\src\system/flash.c **** #define SROM_RESUME_NB_API_OPCODE       (0x09)
 118:..\src\system/flash.c ****     
 119:..\src\system/flash.c **** /* Abort Non-Blokcing Flash Row Write API Opcode. */
 120:..\src\system/flash.c **** #define SROM_ABORT_FLASH_WRITE_OPCODE   (0x1C)
 121:..\src\system/flash.c **** 
 122:..\src\system/flash.c **** /* CPUSS SYSARG return value mask. */
 123:..\src\system/flash.c **** #define CPUSS_SYSARG_RETURN_VALUE_MASK  (0xF0000000u)
 124:..\src\system/flash.c **** 
 125:..\src\system/flash.c **** /* CPUSS SYSARG success return value. */
 126:..\src\system/flash.c **** #define CPUSS_SYSARG_PASS_RETURN_VALUE  (0xA0000000u)
 127:..\src\system/flash.c **** 
 128:..\src\system/flash.c **** /* CPUSS SYSARG error return value. */
 129:..\src\system/flash.c **** #define CPUSS_SYSARG_ERROR_RETURN_VALUE (0xF0000000u)
 130:..\src\system/flash.c ****     
 131:..\src\system/flash.c **** #define CPUSS_FLASH_PARAM_SIZE          (8u)
 132:..\src\system/flash.c **** 
 133:..\src\system/flash.c **** #if (FLASH_ENABLE_NB_MODE == 1)
 134:..\src\system/flash.c **** 
 135:..\src\system/flash.c **** /* Buffer used for SROM APIs */
 136:..\src\system/flash.c **** static uint32_t gl_srom_arg_buf[(CCG_FLASH_ROW_SIZE / sizeof(uint32_t)) + 2];
 137:..\src\system/flash.c **** 
 138:..\src\system/flash.c **** /* Callback function registered by user for Non Blokcing Flash Write Row operation. */
 139:..\src\system/flash.c **** static flash_cbk_t flash_notify;
 140:..\src\system/flash.c **** 
 141:..\src\system/flash.c **** /* Counter to keep track of the SPC Interrupts while Non-Blocking Flash update. */
 142:..\src\system/flash.c **** static uint8_t gl_spc_intr_counter = 0;
 143:..\src\system/flash.c **** 
 144:..\src\system/flash.c **** /* Flag to indciate Abort request for current Non Blokcing Flash write operation was received. */
 145:..\src\system/flash.c **** static bool gl_flash_nb_write_abort = false;
ARM GAS  e:\temp\ccVGPNYG.s 			page 4


 146:..\src\system/flash.c **** 
 147:..\src\system/flash.c **** CY_ISR_PROTO(flash_spc_intr_handler);
 148:..\src\system/flash.c **** 
 149:..\src\system/flash.c **** /* Refer BROS 001-88589 Section 4.6.2.5 for SROM API's description. */
 150:..\src\system/flash.c **** 
 151:..\src\system/flash.c **** /*
 152:..\src\system/flash.c ****  * @brief Execute SROM LOAD FLASH API
 153:..\src\system/flash.c ****  *
 154:..\src\system/flash.c ****  * Description
 155:..\src\system/flash.c ****  * This API loads the page latch buffer with the data to be programmed in flash,
 156:..\src\system/flash.c ****  * This is the first API in FLASH ROW operation.
 157:..\src\system/flash.c ****  *
 158:..\src\system/flash.c ****  * @param data Pointer to data to be flashed
 159:..\src\system/flash.c ****  * @param flash_macro_index Flash macro number
 160:..\src\system/flash.c ****  *
 161:..\src\system/flash.c ****  * @rerurn Status of API. true if success, false otherwise
 162:..\src\system/flash.c ****  */
 163:..\src\system/flash.c **** static bool srom_load_flash_bytes_api(uint8_t *data, uint8_t flash_macro_index)
 164:..\src\system/flash.c **** {
 165:..\src\system/flash.c ****     uint8_t retValue;
 166:..\src\system/flash.c ****     /* Write 128 bytes in a temp buf which is eventually passed to SROM API. */
 167:..\src\system/flash.c ****     memcpy ((void *)&gl_srom_arg_buf[SROM_LOAD_FLASH_DATA_OFFSET], data,
 168:..\src\system/flash.c ****             CCG_FLASH_ROW_SIZE);
 169:..\src\system/flash.c **** 
 170:..\src\system/flash.c ****     /* Fill in the arguments for API. */
 171:..\src\system/flash.c ****     gl_srom_arg_buf[SROM_API_ARG0_OFFSET] = (uint32_t)
 172:..\src\system/flash.c ****                 ((flash_macro_index << SROM_LOAD_FLASH_MACRO_OFFSET) |
 173:..\src\system/flash.c ****                 (SROM_LOAD_FLASH_BYTE_ADDR << SROM_LOAD_FLASH_BYTE_ADDR_OFFSET) |
 174:..\src\system/flash.c ****                 (SROM_FLASH_API_KEY_TWO(SROM_LOAD_FLASH_API_OPCODE) <<
 175:..\src\system/flash.c ****                 SROM_FLASH_KEY_TWO_OFFSET) | SROM_FLASH_API_KEY_ONE);
 176:..\src\system/flash.c ****     /* Number of bytes to flash - 1 */
 177:..\src\system/flash.c ****     gl_srom_arg_buf[SROM_API_ARG1_OFFSET] = CCG_FLASH_ROW_SIZE-1;
 178:..\src\system/flash.c **** 
 179:..\src\system/flash.c ****     /* SYSARG */
 180:..\src\system/flash.c ****     CPUSS->sysarg = (uint32)&gl_srom_arg_buf[SROM_API_ARG0_OFFSET];
 181:..\src\system/flash.c ****     /* SYSREQ */
 182:..\src\system/flash.c ****     CPUSS->sysreq = (CPUSS_SYSREQ_SYSCALL_REQ | SROM_LOAD_FLASH_API_OPCODE);
 183:..\src\system/flash.c **** 
 184:..\src\system/flash.c ****     /* Read the Result. */
 185:..\src\system/flash.c ****     retValue = SROM_API_RETURN_VALUE;
 186:..\src\system/flash.c ****     if (retValue != 0)
 187:..\src\system/flash.c ****     {
 188:..\src\system/flash.c ****         return false;
 189:..\src\system/flash.c ****     }
 190:..\src\system/flash.c ****     return true;
 191:..\src\system/flash.c **** }
 192:..\src\system/flash.c **** 
 193:..\src\system/flash.c **** /*
 194:..\src\system/flash.c ****  * @brief Execute Non Blocking Write Row
 195:..\src\system/flash.c ****  *
 196:..\src\system/flash.c ****  * Description
 197:..\src\system/flash.c ****  * This API performs the first part of the write row operation, which is
 198:..\src\system/flash.c ****  * the pre-program operation.
 199:..\src\system/flash.c ****  *
 200:..\src\system/flash.c ****  * @param row_num Flash Row Number to be programmed
 201:..\src\system/flash.c ****  * @rerurn Status of API. true if success, false otherwise
 202:..\src\system/flash.c ****  */
ARM GAS  e:\temp\ccVGPNYG.s 			page 5


 203:..\src\system/flash.c **** static bool srom_nb_flash_write_api(uint16_t row_num)
 204:..\src\system/flash.c **** {
 205:..\src\system/flash.c ****     /* Arguments */
 206:..\src\system/flash.c ****     gl_srom_arg_buf[SROM_API_ARG0_OFFSET]  = (uint32_t)
 207:..\src\system/flash.c ****             ((row_num << SROM_NB_FLASH_ROW_NUM_OFFSET) |
 208:..\src\system/flash.c ****             (SROM_FLASH_API_KEY_TWO(SROM_NB_FLASH_ROW_API_OPCODE) <<
 209:..\src\system/flash.c ****             SROM_FLASH_KEY_TWO_OFFSET) | SROM_FLASH_API_KEY_ONE);
 210:..\src\system/flash.c **** 
 211:..\src\system/flash.c ****     /* This command results in three SPC interrupts. Reset the counter. */
 212:..\src\system/flash.c ****     gl_spc_intr_counter = 0;
 213:..\src\system/flash.c ****     /* SYSARG */
 214:..\src\system/flash.c ****     CPUSS->sysarg = (uint32_t)&gl_srom_arg_buf[SROM_API_ARG0_OFFSET];
 215:..\src\system/flash.c ****     /* SYSREQ */
 216:..\src\system/flash.c ****     CPUSS->sysreq = (CPUSS_SYSREQ_SYSCALL_REQ | SROM_NB_FLASH_ROW_API_OPCODE);
 217:..\src\system/flash.c **** 
 218:..\src\system/flash.c ****     /*
 219:..\src\system/flash.c ****      * Check if the status in SYSARG is failure. If yes, then return false.
 220:..\src\system/flash.c ****      * Otherwise, request was successful.
 221:..\src\system/flash.c ****      */
 222:..\src\system/flash.c ****     if ((CPUSS->sysarg & CPUSS_SYSARG_RETURN_VALUE_MASK) ==
 223:..\src\system/flash.c ****         CPUSS_SYSARG_ERROR_RETURN_VALUE)
 224:..\src\system/flash.c ****     {
 225:..\src\system/flash.c ****         return false;
 226:..\src\system/flash.c ****     }
 227:..\src\system/flash.c ****     return true;
 228:..\src\system/flash.c **** }
 229:..\src\system/flash.c **** 
 230:..\src\system/flash.c **** /*
 231:..\src\system/flash.c ****  * @brief Execute SROM Non Blocking Resume APIs
 232:..\src\system/flash.c ****  *
 233:..\src\system/flash.c ****  * @param None
 234:..\src\system/flash.c ****  * @rerurn None
 235:..\src\system/flash.c ****  */
 236:..\src\system/flash.c **** static void srom_resume_non_blocking(void)
 237:..\src\system/flash.c **** {
 238:..\src\system/flash.c ****     /* Execute Resume Non Blocking API */
 239:..\src\system/flash.c ****     
 240:..\src\system/flash.c ****     /* Arguments. */
 241:..\src\system/flash.c ****     gl_srom_arg_buf[SROM_API_ARG0_OFFSET]  = (uint32_t)((SROM_FLASH_API_KEY_TWO(SROM_RESUME_NB_API_
 242:..\src\system/flash.c ****         << SROM_FLASH_KEY_TWO_OFFSET) | SROM_FLASH_API_KEY_ONE);
 243:..\src\system/flash.c ****     /* SYSARG */
 244:..\src\system/flash.c ****     CPUSS->sysarg = (uint32_t)&gl_srom_arg_buf[SROM_API_ARG0_OFFSET];
 245:..\src\system/flash.c ****     /* SYSREQ */
 246:..\src\system/flash.c ****     CPUSS->sysreq = (CPUSS_SYSREQ_SYSCALL_REQ | SROM_RESUME_NB_API_OPCODE);
 247:..\src\system/flash.c **** }
 248:..\src\system/flash.c **** 
 249:..\src\system/flash.c **** /*
 250:..\src\system/flash.c ****  * @brief Execute SROM Non Blocking Abort APIs
 251:..\src\system/flash.c ****  *
 252:..\src\system/flash.c ****  * @param None
 253:..\src\system/flash.c ****  * @rerurn None
 254:..\src\system/flash.c ****  */
 255:..\src\system/flash.c **** static void srom_abort_flash_write(void)
 256:..\src\system/flash.c **** {
 257:..\src\system/flash.c ****     /* Execute Abort Non Blaokcing Flash Row Write operation. */
 258:..\src\system/flash.c ****     
 259:..\src\system/flash.c ****     /* Arguments. */
ARM GAS  e:\temp\ccVGPNYG.s 			page 6


 260:..\src\system/flash.c ****     gl_srom_arg_buf[SROM_API_ARG0_OFFSET]  = (uint32_t)((SROM_FLASH_API_KEY_TWO(SROM_ABORT_FLASH_WR
 261:..\src\system/flash.c ****         << SROM_FLASH_KEY_TWO_OFFSET) | SROM_FLASH_API_KEY_ONE);
 262:..\src\system/flash.c ****     /* SYSARG */
 263:..\src\system/flash.c ****     CPUSS->sysarg = (uint32_t)&gl_srom_arg_buf[SROM_API_ARG0_OFFSET];
 264:..\src\system/flash.c ****     /* SYSREQ */
 265:..\src\system/flash.c ****     CPUSS->sysreq = (CPUSS_SYSREQ_SYSCALL_REQ | SROM_ABORT_FLASH_WRITE_OPCODE);
 266:..\src\system/flash.c **** }
 267:..\src\system/flash.c **** 
 268:..\src\system/flash.c **** /* SPC Interrupt for Resume Non-Blocking SROM API */
 269:..\src\system/flash.c **** CY_ISR(flash_spc_intr_handler)
 270:..\src\system/flash.c **** {
 271:..\src\system/flash.c ****     flash_write_status_t status = FLASH_WRITE_COMPLETE;
 272:..\src\system/flash.c **** 
 273:..\src\system/flash.c ****     /* Check if Abort request is pending. */
 274:..\src\system/flash.c ****     if (gl_flash_nb_write_abort)
 275:..\src\system/flash.c ****     {
 276:..\src\system/flash.c ****         /*
 277:..\src\system/flash.c ****          * See if we are already in last phase of Flash update i.e the
 278:..\src\system/flash.c ****          * third interrupt. If yes, there is no point in aborting the flash as there
 279:..\src\system/flash.c ****          * is nothing left to abort.
 280:..\src\system/flash.c ****          */
 281:..\src\system/flash.c ****         if (gl_spc_intr_counter < 2)
 282:..\src\system/flash.c ****         {
 283:..\src\system/flash.c ****            srom_abort_flash_write ();
 284:..\src\system/flash.c ****            status = FLASH_WRITE_ABORTED;
 285:..\src\system/flash.c ****         }
 286:..\src\system/flash.c ****         else
 287:..\src\system/flash.c ****         {
 288:..\src\system/flash.c ****             srom_resume_non_blocking ();
 289:..\src\system/flash.c ****             status = FLASH_WRITE_COMPLETE_AND_ABORTED;
 290:..\src\system/flash.c ****         }            
 291:..\src\system/flash.c ****         gl_flash_nb_write_abort = false;        
 292:..\src\system/flash.c ****     }
 293:..\src\system/flash.c ****     else
 294:..\src\system/flash.c ****     {
 295:..\src\system/flash.c ****         /*
 296:..\src\system/flash.c ****          * Once Non-Blocking Flash row update process starts, this interrupt
 297:..\src\system/flash.c ****          * will fire three times. FW is expected to call Resume Non-Blocking
 298:..\src\system/flash.c ****          * SROM API from here.
 299:..\src\system/flash.c ****          */
 300:..\src\system/flash.c ****         gl_spc_intr_counter++;
 301:..\src\system/flash.c **** 
 302:..\src\system/flash.c ****         /* Resume Non-Blokcing Operation. */
 303:..\src\system/flash.c ****         srom_resume_non_blocking ();
 304:..\src\system/flash.c ****     }
 305:..\src\system/flash.c ****     
 306:..\src\system/flash.c ****     /*
 307:..\src\system/flash.c ****      * See if this is the third interrupt of flash write sequence or if there
 308:..\src\system/flash.c ****      * was an abort request. In both cases, reset the counters/clocks and invoke
 309:..\src\system/flash.c ****      * the registered callback.
 310:..\src\system/flash.c ****      */
 311:..\src\system/flash.c ****     if ((gl_spc_intr_counter == 3) || (status != FLASH_WRITE_COMPLETE))
 312:..\src\system/flash.c ****     {
 313:..\src\system/flash.c ****         /* Disable clock to the charge pump after flash write is complete or aborted. */
 314:..\src\system/flash.c ****         SRSSLT->clk_select = (SRSSLT->clk_select & ~CLK_SELECT_PUMP_SEL_MASK);
 315:..\src\system/flash.c **** 
 316:..\src\system/flash.c ****         /* Reset counter. */
ARM GAS  e:\temp\ccVGPNYG.s 			page 7


 317:..\src\system/flash.c ****         gl_spc_intr_counter = 0;
 318:..\src\system/flash.c ****         /* Invoke Callback. */
 319:..\src\system/flash.c ****         if (flash_notify != NULL)
 320:..\src\system/flash.c ****         {
 321:..\src\system/flash.c ****             /* Callback should notify the status of flash write as well. */
 322:..\src\system/flash.c ****             flash_notify (status);
 323:..\src\system/flash.c ****         }
 324:..\src\system/flash.c ****     }
 325:..\src\system/flash.c **** }
 326:..\src\system/flash.c **** #endif /* FLASH_ENABLE_NB_MODE */
 327:..\src\system/flash.c **** 
 328:..\src\system/flash.c **** #if (!CCG_BOOT)
 329:..\src\system/flash.c **** /*
 330:..\src\system/flash.c ****  * This function invokes the SROM API to do a flash row write.
 331:..\src\system/flash.c ****  * This function is used instead of the CySysFlashWriteRow, so as to avoid
 332:..\src\system/flash.c ****  * the clock trim updates that are done as part of that API.
 333:..\src\system/flash.c ****  *
 334:..\src\system/flash.c ****  * Note: This function expects that the data_p buffer has CPUSS_FLASH_PARAM_SIZE
 335:..\src\system/flash.c ****  * bytes of prefix space which can be used for setting up the SROM write API
 336:..\src\system/flash.c ****  * parameters.
 337:..\src\system/flash.c ****  */
 338:..\src\system/flash.c **** static ccg_status_t flash_trig_row_write_in_place(uint32_t row_num, uint8_t *data_p)
 339:..\src\system/flash.c **** {
  27              		.loc 1 339 0
  28              		.cfi_startproc
  29              		@ args = 0, pretend = 0, frame = 0
  30              		@ frame_needed = 0, uses_anonymous_args = 0
  31              	.LVL0:
  32 0000 30B5     		push	{r4, r5, lr}
  33              		.cfi_def_cfa_offset 12
  34              		.cfi_offset 4, -12
  35              		.cfi_offset 5, -8
  36              		.cfi_offset 14, -4
 340:..\src\system/flash.c ****     volatile uint32_t *params = ((uint32_t *)data_p) - 2;
  37              		.loc 1 340 0
  38 0002 0C00     		movs	r4, r1
  39 0004 083C     		subs	r4, r4, #8
  40              	.LVL1:
 341:..\src\system/flash.c ****     ccg_status_t status = CCG_STAT_SUCCESS;
 342:..\src\system/flash.c **** 
 343:..\src\system/flash.c ****     /* Connect the charge pump to IMO clock for flash write. */
 344:..\src\system/flash.c ****     SRSSLT->clk_select = (SRSSLT->clk_select & ~CLK_SELECT_PUMP_SEL_MASK) | (1 << CLK_SELECT_PUMP_S
  41              		.loc 1 344 0
  42 0006 1B4D     		ldr	r5, .L5
  43 0008 AB6A     		ldr	r3, [r5, #40]
  44 000a 3022     		movs	r2, #48
  45 000c 9343     		bics	r3, r2
  46 000e 203A     		subs	r2, r2, #32
  47 0010 1343     		orrs	r3, r2
  48 0012 AB62     		str	r3, [r5, #40]
 345:..\src\system/flash.c **** 
 346:..\src\system/flash.c ****     /* Set the parameters for load data into latch operation. */
 347:..\src\system/flash.c ****     params[0] = SROM_FLASH_API_KEY_ONE |
  49              		.loc 1 347 0
  50 0014 184B     		ldr	r3, .L5+4
  51 0016 2360     		str	r3, [r4]
 348:..\src\system/flash.c ****         (SROM_FLASH_API_KEY_TWO(SROM_LOAD_FLASH_API_OPCODE) << SROM_FLASH_KEY_TWO_OFFSET);
ARM GAS  e:\temp\ccVGPNYG.s 			page 8


 349:..\src\system/flash.c ****     params[1] = CY_FLASH_SIZEOF_ROW - 1;
  52              		.loc 1 349 0
  53 0018 0B1F     		subs	r3, r1, #4
  54 001a EF32     		adds	r2, r2, #239
  55 001c 1A60     		str	r2, [r3]
 350:..\src\system/flash.c **** #if (CY_IP_FLASH_MACROS > 1)
 351:..\src\system/flash.c ****     if (CY_FLASH_GET_MACRO_FROM_ROW(row_num) != 0)
 352:..\src\system/flash.c ****     {
 353:..\src\system/flash.c ****         params[0] |= (1 << SROM_LOAD_FLASH_MACRO_OFFSET);
 354:..\src\system/flash.c ****     }
 355:..\src\system/flash.c **** #endif /* (CY_IP_FLASH_MACROS > 1) */
 356:..\src\system/flash.c **** 
 357:..\src\system/flash.c ****     CPUSS->sysarg = (uint32_t)(&params[0]);
  56              		.loc 1 357 0
  57 001e 174B     		ldr	r3, .L5+8
  58 0020 9C60     		str	r4, [r3, #8]
 358:..\src\system/flash.c ****     CPUSS->sysreq = (CPUSS_SYSREQ_SYSCALL_REQ | SROM_LOAD_FLASH_API_OPCODE);
  59              		.loc 1 358 0
  60 0022 174A     		ldr	r2, .L5+12
  61 0024 5A60     		str	r2, [r3, #4]
 359:..\src\system/flash.c ****     __asm(
  62              		.loc 1 359 0
  63              		.syntax divided
  64              	@ 359 "..\src\system\flash.c" 1
  65 0026 C046     		NOP
  66 0028 C046     	NOP
  67 002a C046     	NOP
  68              	
  69              	@ 0 "" 2
 360:..\src\system/flash.c ****             "NOP\n"
 361:..\src\system/flash.c ****             "NOP\n"
 362:..\src\system/flash.c ****             "NOP\n"
 363:..\src\system/flash.c ****          );
 364:..\src\system/flash.c **** 
 365:..\src\system/flash.c ****     /* If load latch is successful. */
 366:..\src\system/flash.c ****     if ((CPUSS->sysarg & CPUSS_SYSARG_RETURN_VALUE_MASK) == CPUSS_SYSARG_PASS_RETURN_VALUE)
  70              		.loc 1 366 0
  71              		.thumb
  72              		.syntax unified
  73 002c 9B68     		ldr	r3, [r3, #8]
  74 002e 1B0F     		lsrs	r3, r3, #28
  75 0030 1B07     		lsls	r3, r3, #28
  76 0032 A022     		movs	r2, #160
  77 0034 1206     		lsls	r2, r2, #24
  78 0036 9342     		cmp	r3, r2
  79 0038 13D1     		bne	.L3
 367:..\src\system/flash.c ****     {
 368:..\src\system/flash.c ****         /* Perform the flash write. */
 369:..\src\system/flash.c ****         params[0] = ((row_num << SROM_NB_FLASH_ROW_NUM_OFFSET) | SROM_FLASH_API_KEY_ONE |
  80              		.loc 1 369 0
  81 003a 0004     		lsls	r0, r0, #16
  82              	.LVL2:
  83 003c 114B     		ldr	r3, .L5+16
  84 003e 1843     		orrs	r0, r3
  85 0040 2060     		str	r0, [r4]
 370:..\src\system/flash.c ****             (SROM_FLASH_API_KEY_TWO(SROM_FLASH_PROGRAM_API_OPCODE) << SROM_FLASH_KEY_TWO_OFFSET));
 371:..\src\system/flash.c ****         CPUSS->sysarg = (uint32_t)(&params[0]);
ARM GAS  e:\temp\ccVGPNYG.s 			page 9


  86              		.loc 1 371 0
  87 0042 0E4B     		ldr	r3, .L5+8
  88 0044 9C60     		str	r4, [r3, #8]
 372:..\src\system/flash.c ****         CPUSS->sysreq = (CPUSS_SYSREQ_SYSCALL_REQ | SROM_FLASH_PROGRAM_API_OPCODE);
  89              		.loc 1 372 0
  90 0046 104A     		ldr	r2, .L5+20
  91 0048 5A60     		str	r2, [r3, #4]
 373:..\src\system/flash.c ****         __asm(
  92              		.loc 1 373 0
  93              		.syntax divided
  94              	@ 373 "..\src\system\flash.c" 1
  95 004a C046     		NOP
  96 004c C046     	NOP
  97 004e C046     	NOP
  98              	
  99              	@ 0 "" 2
 374:..\src\system/flash.c ****                 "NOP\n"
 375:..\src\system/flash.c ****                 "NOP\n"
 376:..\src\system/flash.c ****                 "NOP\n"
 377:..\src\system/flash.c ****              );
 378:..\src\system/flash.c ****         if ((CPUSS->sysarg & CPUSS_SYSARG_RETURN_VALUE_MASK) != CPUSS_SYSARG_PASS_RETURN_VALUE)
 100              		.loc 1 378 0
 101              		.thumb
 102              		.syntax unified
 103 0050 9B68     		ldr	r3, [r3, #8]
 104 0052 1B0F     		lsrs	r3, r3, #28
 105 0054 1B07     		lsls	r3, r3, #28
 106 0056 A022     		movs	r2, #160
 107 0058 1206     		lsls	r2, r2, #24
 108 005a 9342     		cmp	r3, r2
 109 005c 03D1     		bne	.L4
 341:..\src\system/flash.c **** 
 110              		.loc 1 341 0
 111 005e 0020     		movs	r0, #0
 112 0060 02E0     		b	.L2
 113              	.LVL3:
 114              	.L3:
 379:..\src\system/flash.c ****         {
 380:..\src\system/flash.c ****             status = CCG_STAT_FAILURE;
 381:..\src\system/flash.c ****         }
 382:..\src\system/flash.c ****     }
 383:..\src\system/flash.c ****     else
 384:..\src\system/flash.c ****     {
 385:..\src\system/flash.c ****         status = CCG_STAT_FAILURE;
 115              		.loc 1 385 0
 116 0062 0C20     		movs	r0, #12
 117              	.LVL4:
 118 0064 00E0     		b	.L2
 119              	.L4:
 380:..\src\system/flash.c ****         }
 120              		.loc 1 380 0
 121 0066 0C20     		movs	r0, #12
 122              	.L2:
 123              	.LVL5:
 386:..\src\system/flash.c ****     }
 387:..\src\system/flash.c **** 
 388:..\src\system/flash.c ****     /* Disconnect the clock to the charge pump after flash write is complete. */
ARM GAS  e:\temp\ccVGPNYG.s 			page 10


 389:..\src\system/flash.c ****     SRSSLT->clk_select = (SRSSLT->clk_select & ~CLK_SELECT_PUMP_SEL_MASK);
 124              		.loc 1 389 0
 125 0068 024A     		ldr	r2, .L5
 126 006a 936A     		ldr	r3, [r2, #40]
 127 006c 3021     		movs	r1, #48
 128              	.LVL6:
 129 006e 8B43     		bics	r3, r1
 130 0070 9362     		str	r3, [r2, #40]
 390:..\src\system/flash.c **** 
 391:..\src\system/flash.c ****     return status;
 392:..\src\system/flash.c **** }
 131              		.loc 1 392 0
 132              		@ sp needed
 133              	.LVL7:
 134 0072 30BD     		pop	{r4, r5, pc}
 135              	.L6:
 136              		.align	2
 137              	.L5:
 138 0074 00000340 		.word	1073938432
 139 0078 B6D70000 		.word	55222
 140 007c 00001040 		.word	1074790400
 141 0080 04000080 		.word	-2147483644
 142 0084 B6D80000 		.word	55478
 143 0088 05000080 		.word	-2147483643
 144              		.cfi_endproc
 145              	.LFE32:
 146              		.size	flash_trig_row_write_in_place, .-flash_trig_row_write_in_place
 147              		.section	.text.flash_blocking_row_write,"ax",%progbits
 148              		.align	2
 149              		.code	16
 150              		.thumb_func
 151              		.type	flash_blocking_row_write, %function
 152              	flash_blocking_row_write:
 153              	.LFB37:
 393:..\src\system/flash.c **** #endif /* (!CCG_BOOT) */
 394:..\src\system/flash.c **** 
 395:..\src\system/flash.c **** /*
 396:..\src\system/flash.c ****  * This function invokes the SROM API to do a flash row write.
 397:..\src\system/flash.c ****  * This function is used instead of the CySysFlashWriteRow, so as to avoid
 398:..\src\system/flash.c ****  * the clock trim updates that are done as part of that API.
 399:..\src\system/flash.c ****  */
 400:..\src\system/flash.c **** ccg_status_t flash_trig_row_write(uint32_t row_num, uint8_t *data_p)
 401:..\src\system/flash.c **** {
 402:..\src\system/flash.c ****     volatile uint32_t params[(CY_FLASH_SIZEOF_ROW + CPUSS_FLASH_PARAM_SIZE) / sizeof(uint32_t)];
 403:..\src\system/flash.c ****     ccg_status_t status = CCG_STAT_SUCCESS;
 404:..\src\system/flash.c **** 
 405:..\src\system/flash.c ****     /* Connect the charge pump to IMO clock for flash write. */
 406:..\src\system/flash.c ****     SRSSLT->clk_select = (SRSSLT->clk_select & ~CLK_SELECT_PUMP_SEL_MASK) | (1 << CLK_SELECT_PUMP_S
 407:..\src\system/flash.c **** 
 408:..\src\system/flash.c ****     /* Copy the data into the parameter buffer. */
 409:..\src\system/flash.c ****     memcpy ((uint8_t *)(&params[2]), data_p, CY_FLASH_SIZEOF_ROW);
 410:..\src\system/flash.c **** 
 411:..\src\system/flash.c ****     /* Set the parameters for load data into latch operation. */
 412:..\src\system/flash.c ****     params[0] = SROM_FLASH_API_KEY_ONE |
 413:..\src\system/flash.c ****         (SROM_FLASH_API_KEY_TWO(SROM_LOAD_FLASH_API_OPCODE) << SROM_FLASH_KEY_TWO_OFFSET);
 414:..\src\system/flash.c ****     params[1] = CY_FLASH_SIZEOF_ROW - 1;
 415:..\src\system/flash.c **** #if (CY_IP_FLASH_MACROS > 1)
ARM GAS  e:\temp\ccVGPNYG.s 			page 11


 416:..\src\system/flash.c ****     if (CY_FLASH_GET_MACRO_FROM_ROW(row_num) != 0)
 417:..\src\system/flash.c ****     {
 418:..\src\system/flash.c ****         params[0] |= (1 << SROM_LOAD_FLASH_MACRO_OFFSET);
 419:..\src\system/flash.c ****     }
 420:..\src\system/flash.c **** #endif /* (CY_IP_FLASH_MACROS > 1) */
 421:..\src\system/flash.c **** 
 422:..\src\system/flash.c ****     CPUSS->sysarg = (uint32_t)(&params[0]);
 423:..\src\system/flash.c ****     CPUSS->sysreq = (CPUSS_SYSREQ_SYSCALL_REQ | SROM_LOAD_FLASH_API_OPCODE);
 424:..\src\system/flash.c ****     __asm(
 425:..\src\system/flash.c ****             "NOP\n"
 426:..\src\system/flash.c ****             "NOP\n"
 427:..\src\system/flash.c ****             "NOP\n"
 428:..\src\system/flash.c ****          );
 429:..\src\system/flash.c **** 
 430:..\src\system/flash.c ****     /* If load latch is successful. */
 431:..\src\system/flash.c ****     if ((CPUSS->sysarg & CPUSS_SYSARG_RETURN_VALUE_MASK) == CPUSS_SYSARG_PASS_RETURN_VALUE)
 432:..\src\system/flash.c ****     {
 433:..\src\system/flash.c ****         /* Perform the flash write. */
 434:..\src\system/flash.c ****         params[0] = ((row_num << SROM_NB_FLASH_ROW_NUM_OFFSET) | SROM_FLASH_API_KEY_ONE |
 435:..\src\system/flash.c ****             (SROM_FLASH_API_KEY_TWO(SROM_FLASH_PROGRAM_API_OPCODE) << SROM_FLASH_KEY_TWO_OFFSET));
 436:..\src\system/flash.c ****         CPUSS->sysarg = (uint32_t)(&params[0]);
 437:..\src\system/flash.c ****         CPUSS->sysreq = (CPUSS_SYSREQ_SYSCALL_REQ | SROM_FLASH_PROGRAM_API_OPCODE);
 438:..\src\system/flash.c ****         __asm(
 439:..\src\system/flash.c ****                 "NOP\n"
 440:..\src\system/flash.c ****                 "NOP\n"
 441:..\src\system/flash.c ****                 "NOP\n"
 442:..\src\system/flash.c ****              );
 443:..\src\system/flash.c ****         if ((CPUSS->sysarg & CPUSS_SYSARG_RETURN_VALUE_MASK) != CPUSS_SYSARG_PASS_RETURN_VALUE)
 444:..\src\system/flash.c ****         {
 445:..\src\system/flash.c ****             status = CCG_STAT_FAILURE;
 446:..\src\system/flash.c ****         }
 447:..\src\system/flash.c ****     }
 448:..\src\system/flash.c ****     else
 449:..\src\system/flash.c ****     {
 450:..\src\system/flash.c ****         status = CCG_STAT_FAILURE;
 451:..\src\system/flash.c ****     }
 452:..\src\system/flash.c **** 
 453:..\src\system/flash.c ****     /* Disconnect the clock to the charge pump after flash write is complete. */
 454:..\src\system/flash.c ****     SRSSLT->clk_select = (SRSSLT->clk_select & ~CLK_SELECT_PUMP_SEL_MASK);
 455:..\src\system/flash.c **** 
 456:..\src\system/flash.c ****     return status;
 457:..\src\system/flash.c **** }
 458:..\src\system/flash.c **** 
 459:..\src\system/flash.c **** void flash_enter_mode(bool is_enable, flash_interface_t mode, bool data_in_place)
 460:..\src\system/flash.c **** {
 461:..\src\system/flash.c ****     /* Enter or Exit the Flashing mode. Only one mode will be active at a time. */
 462:..\src\system/flash.c ****     if (is_enable)
 463:..\src\system/flash.c ****     {
 464:..\src\system/flash.c ****         gl_flash_mode_en = (1 << mode);
 465:..\src\system/flash.c **** #if (!CCG_BOOT)
 466:..\src\system/flash.c ****         gl_flash_write_in_place = data_in_place;
 467:..\src\system/flash.c **** #endif /* (!CCG_BOOT) */
 468:..\src\system/flash.c ****     }
 469:..\src\system/flash.c ****     else
 470:..\src\system/flash.c ****     {
 471:..\src\system/flash.c ****         gl_flash_mode_en = 0;
 472:..\src\system/flash.c **** #if (!CCG_BOOT)
ARM GAS  e:\temp\ccVGPNYG.s 			page 12


 473:..\src\system/flash.c ****         gl_flash_write_in_place = false;
 474:..\src\system/flash.c **** #endif /* (!CCG_BOOT) */
 475:..\src\system/flash.c ****     }
 476:..\src\system/flash.c **** }
 477:..\src\system/flash.c **** 
 478:..\src\system/flash.c **** bool flash_access_get_status (uint8_t modes)
 479:..\src\system/flash.c **** {
 480:..\src\system/flash.c ****     return ((bool)((gl_flash_mode_en & modes) != 0));
 481:..\src\system/flash.c **** }
 482:..\src\system/flash.c **** 
 483:..\src\system/flash.c **** void flash_set_access_limits (uint16_t start_row, uint16_t last_row, uint16_t md_row,
 484:..\src\system/flash.c ****         uint16_t bl_last_row)
 485:..\src\system/flash.c **** {
 486:..\src\system/flash.c ****     /* 
 487:..\src\system/flash.c ****      * Caller is expected to provide valid parameters. No error checking
 488:..\src\system/flash.c ****      * is expected to be done by this function. Store the flash write and
 489:..\src\system/flash.c ****      * flash read access area information.
 490:..\src\system/flash.c ****      */
 491:..\src\system/flash.c ****     gl_flash_access_first = start_row;
 492:..\src\system/flash.c ****     gl_flash_access_last  = last_row;
 493:..\src\system/flash.c ****     gl_flash_metadata_row = md_row;
 494:..\src\system/flash.c ****     gl_flash_bl_last_row = bl_last_row;
 495:..\src\system/flash.c **** }
 496:..\src\system/flash.c **** 
 497:..\src\system/flash.c **** static ccg_status_t flash_blocking_row_write(uint16_t row_num, uint8_t *data)
 498:..\src\system/flash.c **** {
 154              		.loc 1 498 0
 155              		.cfi_startproc
 156              		@ args = 0, pretend = 0, frame = 0
 157              		@ frame_needed = 0, uses_anonymous_args = 0
 158              	.LVL8:
 159 0000 10B5     		push	{r4, lr}
 160              		.cfi_def_cfa_offset 8
 161              		.cfi_offset 4, -8
 162              		.cfi_offset 14, -4
 163              	.LVL9:
 499:..\src\system/flash.c ****     ccg_status_t stat = CCG_STAT_SUCCESS;
 500:..\src\system/flash.c **** 
 501:..\src\system/flash.c **** #if (!CCG_BOOT)
 502:..\src\system/flash.c ****     /* Invoke Flash Write API. */
 503:..\src\system/flash.c ****     if (gl_flash_write_in_place)
 164              		.loc 1 503 0
 165 0002 064B     		ldr	r3, .L12
 166 0004 1B78     		ldrb	r3, [r3]
 167 0006 002B     		cmp	r3, #0
 168 0008 02D0     		beq	.L10
 504:..\src\system/flash.c ****     {
 505:..\src\system/flash.c ****         stat = flash_trig_row_write_in_place (row_num, data);
 169              		.loc 1 505 0
 170 000a FFF7FEFF 		bl	flash_trig_row_write_in_place
 171              	.LVL10:
 172 000e 00E0     		b	.L8
 173              	.LVL11:
 174              	.L10:
 506:..\src\system/flash.c ****     }
 507:..\src\system/flash.c ****     else
 508:..\src\system/flash.c **** #endif /* (!CCG_BOOT) */
ARM GAS  e:\temp\ccVGPNYG.s 			page 13


 509:..\src\system/flash.c ****     {
 510:..\src\system/flash.c **** #if ((CCG_HPI_ENABLE) && (!CCG_BOOT))
 511:..\src\system/flash.c ****         /* Assume that only in-place writes are enabled in HPI based binaries. */
 512:..\src\system/flash.c ****         stat = CCG_STAT_FAILURE;
 175              		.loc 1 512 0
 176 0010 0C20     		movs	r0, #12
 177              	.LVL12:
 178              	.L8:
 513:..\src\system/flash.c **** #else
 514:..\src\system/flash.c ****         stat = flash_trig_row_write (row_num, data);
 515:..\src\system/flash.c **** #endif /* ((CCG_HPI_ENABLE) && (!CCG_BOOT)) */
 516:..\src\system/flash.c ****     }
 517:..\src\system/flash.c **** 
 518:..\src\system/flash.c ****     if (stat != CCG_STAT_SUCCESS)
 179              		.loc 1 518 0
 180 0012 0028     		cmp	r0, #0
 181 0014 00D0     		beq	.L9
 519:..\src\system/flash.c ****     {
 520:..\src\system/flash.c ****         stat = CCG_STAT_FLASH_UPDATE_FAILED;
 182              		.loc 1 520 0
 183 0016 0520     		movs	r0, #5
 184              	.LVL13:
 185              	.L9:
 521:..\src\system/flash.c ****     }
 522:..\src\system/flash.c **** 
 523:..\src\system/flash.c ****     return stat;
 524:..\src\system/flash.c **** }
 186              		.loc 1 524 0
 187              		@ sp needed
 188 0018 10BD     		pop	{r4, pc}
 189              	.L13:
 190 001a C046     		.align	2
 191              	.L12:
 192 001c 00000000 		.word	.LANCHOR0
 193              		.cfi_endproc
 194              	.LFE37:
 195              		.size	flash_blocking_row_write, .-flash_blocking_row_write
 196              		.section	.text.flash_trig_row_write,"ax",%progbits
 197              		.align	2
 198              		.global	flash_trig_row_write
 199              		.code	16
 200              		.thumb_func
 201              		.type	flash_trig_row_write, %function
 202              	flash_trig_row_write:
 203              	.LFB33:
 401:..\src\system/flash.c ****     volatile uint32_t params[(CY_FLASH_SIZEOF_ROW + CPUSS_FLASH_PARAM_SIZE) / sizeof(uint32_t)];
 204              		.loc 1 401 0
 205              		.cfi_startproc
 206              		@ args = 0, pretend = 0, frame = 264
 207              		@ frame_needed = 0, uses_anonymous_args = 0
 208              	.LVL14:
 209 0000 10B5     		push	{r4, lr}
 210              		.cfi_def_cfa_offset 8
 211              		.cfi_offset 4, -8
 212              		.cfi_offset 14, -4
 213 0002 C2B0     		sub	sp, sp, #264
 214              		.cfi_def_cfa_offset 272
ARM GAS  e:\temp\ccVGPNYG.s 			page 14


 215 0004 0400     		movs	r4, r0
 216              	.LVL15:
 406:..\src\system/flash.c **** 
 217              		.loc 1 406 0
 218 0006 1E48     		ldr	r0, .L18
 219              	.LVL16:
 220 0008 836A     		ldr	r3, [r0, #40]
 221 000a 3022     		movs	r2, #48
 222 000c 9343     		bics	r3, r2
 223 000e 203A     		subs	r2, r2, #32
 224 0010 1343     		orrs	r3, r2
 225 0012 8362     		str	r3, [r0, #40]
 409:..\src\system/flash.c **** 
 226              		.loc 1 409 0
 227 0014 F032     		adds	r2, r2, #240
 228 0016 02A8     		add	r0, sp, #8
 229 0018 FFF7FEFF 		bl	memcpy
 230              	.LVL17:
 412:..\src\system/flash.c ****         (SROM_FLASH_API_KEY_TWO(SROM_LOAD_FLASH_API_OPCODE) << SROM_FLASH_KEY_TWO_OFFSET);
 231              		.loc 1 412 0
 232 001c 194B     		ldr	r3, .L18+4
 233 001e 0093     		str	r3, [sp]
 414:..\src\system/flash.c **** #if (CY_IP_FLASH_MACROS > 1)
 234              		.loc 1 414 0
 235 0020 FF23     		movs	r3, #255
 236 0022 0193     		str	r3, [sp, #4]
 422:..\src\system/flash.c ****     CPUSS->sysreq = (CPUSS_SYSREQ_SYSCALL_REQ | SROM_LOAD_FLASH_API_OPCODE);
 237              		.loc 1 422 0
 238 0024 184B     		ldr	r3, .L18+8
 239 0026 6A46     		mov	r2, sp
 240 0028 9A60     		str	r2, [r3, #8]
 423:..\src\system/flash.c ****     __asm(
 241              		.loc 1 423 0
 242 002a 184A     		ldr	r2, .L18+12
 243 002c 5A60     		str	r2, [r3, #4]
 424:..\src\system/flash.c ****             "NOP\n"
 244              		.loc 1 424 0
 245              		.syntax divided
 246              	@ 424 "..\src\system\flash.c" 1
 247 002e C046     		NOP
 248 0030 C046     	NOP
 249 0032 C046     	NOP
 250              	
 251              	@ 0 "" 2
 431:..\src\system/flash.c ****     {
 252              		.loc 1 431 0
 253              		.thumb
 254              		.syntax unified
 255 0034 9B68     		ldr	r3, [r3, #8]
 256 0036 1B0F     		lsrs	r3, r3, #28
 257 0038 1B07     		lsls	r3, r3, #28
 258 003a A022     		movs	r2, #160
 259 003c 1206     		lsls	r2, r2, #24
 260 003e 9342     		cmp	r3, r2
 261 0040 14D1     		bne	.L16
 434:..\src\system/flash.c ****             (SROM_FLASH_API_KEY_TWO(SROM_FLASH_PROGRAM_API_OPCODE) << SROM_FLASH_KEY_TWO_OFFSET));
 262              		.loc 1 434 0
ARM GAS  e:\temp\ccVGPNYG.s 			page 15


 263 0042 2404     		lsls	r4, r4, #16
 264              	.LVL18:
 265 0044 124B     		ldr	r3, .L18+16
 266 0046 1C43     		orrs	r4, r3
 267 0048 0094     		str	r4, [sp]
 436:..\src\system/flash.c ****         CPUSS->sysreq = (CPUSS_SYSREQ_SYSCALL_REQ | SROM_FLASH_PROGRAM_API_OPCODE);
 268              		.loc 1 436 0
 269 004a 0F4B     		ldr	r3, .L18+8
 270 004c 6A46     		mov	r2, sp
 271 004e 9A60     		str	r2, [r3, #8]
 437:..\src\system/flash.c ****         __asm(
 272              		.loc 1 437 0
 273 0050 104A     		ldr	r2, .L18+20
 274 0052 5A60     		str	r2, [r3, #4]
 438:..\src\system/flash.c ****                 "NOP\n"
 275              		.loc 1 438 0
 276              		.syntax divided
 277              	@ 438 "..\src\system\flash.c" 1
 278 0054 C046     		NOP
 279 0056 C046     	NOP
 280 0058 C046     	NOP
 281              	
 282              	@ 0 "" 2
 443:..\src\system/flash.c ****         {
 283              		.loc 1 443 0
 284              		.thumb
 285              		.syntax unified
 286 005a 9B68     		ldr	r3, [r3, #8]
 287 005c 1B0F     		lsrs	r3, r3, #28
 288 005e 1B07     		lsls	r3, r3, #28
 289 0060 A022     		movs	r2, #160
 290 0062 1206     		lsls	r2, r2, #24
 291 0064 9342     		cmp	r3, r2
 292 0066 03D1     		bne	.L17
 403:..\src\system/flash.c **** 
 293              		.loc 1 403 0
 294 0068 0020     		movs	r0, #0
 295 006a 02E0     		b	.L15
 296              	.LVL19:
 297              	.L16:
 450:..\src\system/flash.c ****     }
 298              		.loc 1 450 0
 299 006c 0C20     		movs	r0, #12
 300 006e 00E0     		b	.L15
 301              	.LVL20:
 302              	.L17:
 445:..\src\system/flash.c ****         }
 303              		.loc 1 445 0
 304 0070 0C20     		movs	r0, #12
 305              	.L15:
 306              	.LVL21:
 454:..\src\system/flash.c **** 
 307              		.loc 1 454 0
 308 0072 034A     		ldr	r2, .L18
 309 0074 936A     		ldr	r3, [r2, #40]
 310 0076 3021     		movs	r1, #48
 311 0078 8B43     		bics	r3, r1
ARM GAS  e:\temp\ccVGPNYG.s 			page 16


 312 007a 9362     		str	r3, [r2, #40]
 457:..\src\system/flash.c **** 
 313              		.loc 1 457 0
 314 007c 42B0     		add	sp, sp, #264
 315              		@ sp needed
 316 007e 10BD     		pop	{r4, pc}
 317              	.L19:
 318              		.align	2
 319              	.L18:
 320 0080 00000340 		.word	1073938432
 321 0084 B6D70000 		.word	55222
 322 0088 00001040 		.word	1074790400
 323 008c 04000080 		.word	-2147483644
 324 0090 B6D80000 		.word	55478
 325 0094 05000080 		.word	-2147483643
 326              		.cfi_endproc
 327              	.LFE33:
 328              		.size	flash_trig_row_write, .-flash_trig_row_write
 329              		.section	.text.flash_enter_mode,"ax",%progbits
 330              		.align	2
 331              		.global	flash_enter_mode
 332              		.code	16
 333              		.thumb_func
 334              		.type	flash_enter_mode, %function
 335              	flash_enter_mode:
 336              	.LFB34:
 460:..\src\system/flash.c ****     /* Enter or Exit the Flashing mode. Only one mode will be active at a time. */
 337              		.loc 1 460 0
 338              		.cfi_startproc
 339              		@ args = 0, pretend = 0, frame = 0
 340              		@ frame_needed = 0, uses_anonymous_args = 0
 341              		@ link register save eliminated.
 342              	.LVL22:
 462:..\src\system/flash.c ****     {
 343              		.loc 1 462 0
 344 0000 0028     		cmp	r0, #0
 345 0002 05D0     		beq	.L21
 464:..\src\system/flash.c **** #if (!CCG_BOOT)
 346              		.loc 1 464 0
 347 0004 0123     		movs	r3, #1
 348 0006 8B40     		lsls	r3, r3, r1
 349 0008 0449     		ldr	r1, .L23
 350              	.LVL23:
 351 000a 4B70     		strb	r3, [r1, #1]
 466:..\src\system/flash.c **** #endif /* (!CCG_BOOT) */
 352              		.loc 1 466 0
 353 000c 0A70     		strb	r2, [r1]
 354 000e 03E0     		b	.L20
 355              	.LVL24:
 356              	.L21:
 471:..\src\system/flash.c **** #if (!CCG_BOOT)
 357              		.loc 1 471 0
 358 0010 024B     		ldr	r3, .L23
 359 0012 0022     		movs	r2, #0
 360              	.LVL25:
 361 0014 5A70     		strb	r2, [r3, #1]
 473:..\src\system/flash.c **** #endif /* (!CCG_BOOT) */
ARM GAS  e:\temp\ccVGPNYG.s 			page 17


 362              		.loc 1 473 0
 363 0016 1A70     		strb	r2, [r3]
 364              	.LVL26:
 365              	.L20:
 476:..\src\system/flash.c **** 
 366              		.loc 1 476 0
 367              		@ sp needed
 368 0018 7047     		bx	lr
 369              	.L24:
 370 001a C046     		.align	2
 371              	.L23:
 372 001c 00000000 		.word	.LANCHOR0
 373              		.cfi_endproc
 374              	.LFE34:
 375              		.size	flash_enter_mode, .-flash_enter_mode
 376              		.section	.text.flash_access_get_status,"ax",%progbits
 377              		.align	2
 378              		.global	flash_access_get_status
 379              		.code	16
 380              		.thumb_func
 381              		.type	flash_access_get_status, %function
 382              	flash_access_get_status:
 383              	.LFB35:
 479:..\src\system/flash.c ****     return ((bool)((gl_flash_mode_en & modes) != 0));
 384              		.loc 1 479 0
 385              		.cfi_startproc
 386              		@ args = 0, pretend = 0, frame = 0
 387              		@ frame_needed = 0, uses_anonymous_args = 0
 388              		@ link register save eliminated.
 389              	.LVL27:
 480:..\src\system/flash.c **** }
 390              		.loc 1 480 0
 391 0000 034B     		ldr	r3, .L26
 392 0002 5B78     		ldrb	r3, [r3, #1]
 393 0004 1840     		ands	r0, r3
 394              	.LVL28:
 395 0006 431E     		subs	r3, r0, #1
 396 0008 9841     		sbcs	r0, r0, r3
 397 000a C0B2     		uxtb	r0, r0
 481:..\src\system/flash.c **** 
 398              		.loc 1 481 0
 399              		@ sp needed
 400 000c 7047     		bx	lr
 401              	.L27:
 402 000e C046     		.align	2
 403              	.L26:
 404 0010 00000000 		.word	.LANCHOR0
 405              		.cfi_endproc
 406              	.LFE35:
 407              		.size	flash_access_get_status, .-flash_access_get_status
 408              		.section	.text.flash_set_access_limits,"ax",%progbits
 409              		.align	2
 410              		.global	flash_set_access_limits
 411              		.code	16
 412              		.thumb_func
 413              		.type	flash_set_access_limits, %function
 414              	flash_set_access_limits:
ARM GAS  e:\temp\ccVGPNYG.s 			page 18


 415              	.LFB36:
 485:..\src\system/flash.c ****     /* 
 416              		.loc 1 485 0
 417              		.cfi_startproc
 418              		@ args = 0, pretend = 0, frame = 0
 419              		@ frame_needed = 0, uses_anonymous_args = 0
 420              	.LVL29:
 421 0000 10B5     		push	{r4, lr}
 422              		.cfi_def_cfa_offset 8
 423              		.cfi_offset 4, -8
 424              		.cfi_offset 14, -4
 491:..\src\system/flash.c ****     gl_flash_access_last  = last_row;
 425              		.loc 1 491 0
 426 0002 034C     		ldr	r4, .L29
 427 0004 2080     		strh	r0, [r4]
 492:..\src\system/flash.c ****     gl_flash_metadata_row = md_row;
 428              		.loc 1 492 0
 429 0006 6180     		strh	r1, [r4, #2]
 493:..\src\system/flash.c ****     gl_flash_bl_last_row = bl_last_row;
 430              		.loc 1 493 0
 431 0008 A280     		strh	r2, [r4, #4]
 494:..\src\system/flash.c **** }
 432              		.loc 1 494 0
 433 000a E380     		strh	r3, [r4, #6]
 495:..\src\system/flash.c **** 
 434              		.loc 1 495 0
 435              		@ sp needed
 436 000c 10BD     		pop	{r4, pc}
 437              	.L30:
 438 000e C046     		.align	2
 439              	.L29:
 440 0010 00000000 		.word	.LANCHOR1
 441              		.cfi_endproc
 442              	.LFE36:
 443              		.size	flash_set_access_limits, .-flash_set_access_limits
 444              		.section	.text.flash_row_clear,"ax",%progbits
 445              		.align	2
 446              		.global	flash_row_clear
 447              		.code	16
 448              		.thumb_func
 449              		.type	flash_row_clear, %function
 450              	flash_row_clear:
 451              	.LFB38:
 525:..\src\system/flash.c **** 
 526:..\src\system/flash.c **** /*
 527:..\src\system/flash.c ****  * @brief Handle Clear Flash Row operation.
 528:..\src\system/flash.c ****  *
 529:..\src\system/flash.c ****  * Description
 530:..\src\system/flash.c ****  * This function clears spcified flash row
 531:..\src\system/flash.c ****  *
 532:..\src\system/flash.c ****  * @param row_num Flash Row Number
 533:..\src\system/flash.c ****  * @return ccg_status_t Status Code
 534:..\src\system/flash.c ****  */
 535:..\src\system/flash.c **** ccg_status_t flash_row_clear(uint16_t row_num)
 536:..\src\system/flash.c **** {
 452              		.loc 1 536 0
 453              		.cfi_startproc
ARM GAS  e:\temp\ccVGPNYG.s 			page 19


 454              		@ args = 0, pretend = 0, frame = 264
 455              		@ frame_needed = 0, uses_anonymous_args = 0
 456              	.LVL30:
 457 0000 10B5     		push	{r4, lr}
 458              		.cfi_def_cfa_offset 8
 459              		.cfi_offset 4, -8
 460              		.cfi_offset 14, -4
 461 0002 C2B0     		sub	sp, sp, #264
 462              		.cfi_def_cfa_offset 272
 463 0004 0400     		movs	r4, r0
 537:..\src\system/flash.c ****     uint8_t buffer[CCG_FLASH_ROW_SIZE + CPUSS_FLASH_PARAM_SIZE] = {0};
 464              		.loc 1 537 0
 465 0006 8422     		movs	r2, #132
 466 0008 5200     		lsls	r2, r2, #1
 467 000a 0021     		movs	r1, #0
 468 000c 6846     		mov	r0, sp
 469              	.LVL31:
 470 000e FFF7FEFF 		bl	memset
 471              	.LVL32:
 538:..\src\system/flash.c ****     return flash_blocking_row_write (row_num, buffer + CPUSS_FLASH_PARAM_SIZE);
 472              		.loc 1 538 0
 473 0012 02A9     		add	r1, sp, #8
 474 0014 2000     		movs	r0, r4
 475 0016 FFF7FEFF 		bl	flash_blocking_row_write
 476              	.LVL33:
 539:..\src\system/flash.c **** }
 477              		.loc 1 539 0
 478 001a 42B0     		add	sp, sp, #264
 479              		@ sp needed
 480 001c 10BD     		pop	{r4, pc}
 481              		.cfi_endproc
 482              	.LFE38:
 483              		.size	flash_row_clear, .-flash_row_clear
 484 001e C046     		.section	.text.flash_row_write,"ax",%progbits
 485              		.align	2
 486              		.global	flash_row_write
 487              		.code	16
 488              		.thumb_func
 489              		.type	flash_row_write, %function
 490              	flash_row_write:
 491              	.LFB39:
 540:..\src\system/flash.c **** 
 541:..\src\system/flash.c **** #if (FLASH_ENABLE_NB_MODE == 1)
 542:..\src\system/flash.c **** 
 543:..\src\system/flash.c **** void flash_non_blocking_write_abort(void)
 544:..\src\system/flash.c **** {
 545:..\src\system/flash.c ****     /* Set a flag which which will be sampled in next SPCIF interrupt. */
 546:..\src\system/flash.c ****     gl_flash_nb_write_abort = true;
 547:..\src\system/flash.c **** }
 548:..\src\system/flash.c **** 
 549:..\src\system/flash.c **** static ccg_status_t flash_non_blocking_row_write(uint16_t row_num, uint8_t *data,
 550:..\src\system/flash.c ****         flash_cbk_t cbk)
 551:..\src\system/flash.c **** {
 552:..\src\system/flash.c ****     uint8_t flash_macro_index;
 553:..\src\system/flash.c **** 
 554:..\src\system/flash.c ****     /* Determine the Flash Macro from Row number. */
 555:..\src\system/flash.c ****     flash_macro_index = CY_FLASH_GET_MACRO_FROM_ROW(row_num);
ARM GAS  e:\temp\ccVGPNYG.s 			page 20


 556:..\src\system/flash.c **** 
 557:..\src\system/flash.c ****     /* Load Flash Bytes SROM API. */
 558:..\src\system/flash.c ****     if (!srom_load_flash_bytes_api (data, flash_macro_index))
 559:..\src\system/flash.c ****     {
 560:..\src\system/flash.c ****         return CCG_STAT_FLASH_UPDATE_FAILED;
 561:..\src\system/flash.c ****     }
 562:..\src\system/flash.c **** 
 563:..\src\system/flash.c ****     /* Connect the charge pump to IMO clock for flash write. */
 564:..\src\system/flash.c ****     SRSSLT->clk_select = (SRSSLT->clk_select & ~CLK_SELECT_PUMP_SEL_MASK) | (1 << CLK_SELECT_PUMP_S
 565:..\src\system/flash.c **** 
 566:..\src\system/flash.c ****     /* Set SPC Interrupt Vector and enable Interrupt. */
 567:..\src\system/flash.c ****     CyIntDisable (FLASH_SPC_INTR);
 568:..\src\system/flash.c ****     CyIntSetVector (FLASH_SPC_INTR, &flash_spc_intr_handler);
 569:..\src\system/flash.c ****     CyIntEnable (FLASH_SPC_INTR);
 570:..\src\system/flash.c **** 
 571:..\src\system/flash.c ****     /* Flash Callback. */
 572:..\src\system/flash.c ****     flash_notify = cbk;
 573:..\src\system/flash.c **** 
 574:..\src\system/flash.c ****     /* Non Blocking Write Row API. */
 575:..\src\system/flash.c ****     if (!(srom_nb_flash_write_api (row_num)))
 576:..\src\system/flash.c ****     {
 577:..\src\system/flash.c ****         return CCG_STAT_FLASH_UPDATE_FAILED;
 578:..\src\system/flash.c ****     }
 579:..\src\system/flash.c ****     /*
 580:..\src\system/flash.c ****      * Non-Blocking Flash Write has started. Response will
 581:..\src\system/flash.c ****      * go back only after write completes.
 582:..\src\system/flash.c ****      */
 583:..\src\system/flash.c ****     return CCG_STAT_NO_RESPONSE;
 584:..\src\system/flash.c **** }
 585:..\src\system/flash.c **** #endif /* FLASH_ENABLE_NB_MODE */
 586:..\src\system/flash.c **** 
 587:..\src\system/flash.c **** ccg_status_t flash_row_write(uint16_t row_num, uint8_t *data, flash_cbk_t cbk)
 588:..\src\system/flash.c **** {
 492              		.loc 1 588 0
 493              		.cfi_startproc
 494              		@ args = 0, pretend = 0, frame = 0
 495              		@ frame_needed = 0, uses_anonymous_args = 0
 496              	.LVL34:
 497 0000 70B5     		push	{r4, r5, r6, lr}
 498              		.cfi_def_cfa_offset 16
 499              		.cfi_offset 4, -16
 500              		.cfi_offset 5, -12
 501              		.cfi_offset 6, -8
 502              		.cfi_offset 14, -4
 503 0002 0400     		movs	r4, r0
 504 0004 0D00     		movs	r5, r1
 505              	.LVL35:
 589:..\src\system/flash.c ****     /* Initialize Return Status Value. */
 590:..\src\system/flash.c ****     ccg_status_t status = CCG_STAT_NO_RESPONSE;
 591:..\src\system/flash.c **** 
 592:..\src\system/flash.c **** #if (!CCG_DUALAPP_DISABLE)
 593:..\src\system/flash.c **** #if ((CCG_BOOT != 0) || (CCG_PSEUDO_METADATA_DISABLE != 0))
 594:..\src\system/flash.c ****     uint32_t seq_num;
 595:..\src\system/flash.c ****     uint16_t offset;
 596:..\src\system/flash.c **** #else /* ((CCG_BOOT != 0) || (CCG_PSEUDO_METADATA_DISABLE != 0)) */
 597:..\src\system/flash.c ****     sys_fw_metadata_t *fw_metadata;
 598:..\src\system/flash.c **** #endif /* ((CCG_BOOT != 0) || (CCG_PSEUDO_METADATA_DISABLE != 0)) */
ARM GAS  e:\temp\ccVGPNYG.s 			page 21


 599:..\src\system/flash.c **** #endif /* CCG_DUALAPP_DISABLE */
 600:..\src\system/flash.c **** 
 601:..\src\system/flash.c ****     /*
 602:..\src\system/flash.c ****      * On actual CCG silicon, we use customized flash update code for reduced stack usage.
 603:..\src\system/flash.c ****      * This version of code can only work when the HFCLK setting for the device is 48 MHz.
 604:..\src\system/flash.c ****      * Return error if flash write is being initiated with HFCLK set to values other than
 605:..\src\system/flash.c ****      * 48 MHz.
 606:..\src\system/flash.c ****      */
 607:..\src\system/flash.c **** #if (CYDEV_BCLK__HFCLK__MHZ != 48)
 608:..\src\system/flash.c ****     return (CCG_STAT_FLASH_UPDATE_FAILED);
 609:..\src\system/flash.c **** #endif /* (CYDEV_BCLK__HFCLK__MHZ != 48) */
 610:..\src\system/flash.c **** 
 611:..\src\system/flash.c ****     /* Can't handle flash update request if Flashing mode is not active. */
 612:..\src\system/flash.c ****     if (gl_flash_mode_en == 0)
 506              		.loc 1 612 0
 507 0006 1B4B     		ldr	r3, .L42
 508 0008 5B78     		ldrb	r3, [r3, #1]
 509 000a 002B     		cmp	r3, #0
 510 000c 28D0     		beq	.L37
 613:..\src\system/flash.c ****     {
 614:..\src\system/flash.c ****         return CCG_STAT_NOT_READY;
 615:..\src\system/flash.c ****     }
 616:..\src\system/flash.c **** 
 617:..\src\system/flash.c ****     if ((data == NULL) || (row_num < gl_flash_access_first) ||
 511              		.loc 1 617 0
 512 000e 0029     		cmp	r1, #0
 513 0010 28D0     		beq	.L38
 514              		.loc 1 617 0 is_stmt 0 discriminator 1
 515 0012 194B     		ldr	r3, .L42+4
 516 0014 1B88     		ldrh	r3, [r3]
 517 0016 8342     		cmp	r3, r0
 518 0018 26D8     		bhi	.L39
 618:..\src\system/flash.c ****             ((row_num > gl_flash_access_last) && (row_num != gl_flash_metadata_row)) ||
 519              		.loc 1 618 0 is_stmt 1 discriminator 2
 520 001a 174B     		ldr	r3, .L42+4
 521 001c 5B88     		ldrh	r3, [r3, #2]
 617:..\src\system/flash.c ****             ((row_num > gl_flash_access_last) && (row_num != gl_flash_metadata_row)) ||
 522              		.loc 1 617 0 discriminator 2
 523 001e 9842     		cmp	r0, r3
 524 0020 03D9     		bls	.L34
 525              		.loc 1 618 0
 526 0022 154B     		ldr	r3, .L42+4
 527 0024 9B88     		ldrh	r3, [r3, #4]
 528 0026 9842     		cmp	r0, r3
 529 0028 20D1     		bne	.L40
 530              	.L34:
 531              		.loc 1 618 0 is_stmt 0 discriminator 1
 532 002a 144B     		ldr	r3, .L42+8
 533 002c 9C42     		cmp	r4, r3
 534 002e 1FD8     		bhi	.L41
 535              	.LVL36:
 619:..\src\system/flash.c ****             (row_num > CCG_LAST_FLASH_ROW_NUM))
 620:..\src\system/flash.c ****     {
 621:..\src\system/flash.c ****         return CCG_STAT_INVALID_ARGUMENT;
 622:..\src\system/flash.c ****     }
 623:..\src\system/flash.c **** #if (!CCG_DUALAPP_DISABLE)     
 624:..\src\system/flash.c **** #if CCG_BOOT
ARM GAS  e:\temp\ccVGPNYG.s 			page 22


 625:..\src\system/flash.c ****     /*
 626:..\src\system/flash.c ****      * Ensure boot loader is not allowed to write to reserved rows (if any) in FW2 Image area.
 627:..\src\system/flash.c ****      * Certain applications use FW Image 2 area to store APP priority, Customer info etc.
 628:..\src\system/flash.c ****      * This rows are sandwiched between last row of image 2 and image 2's metadata table row.
 629:..\src\system/flash.c ****      */
 630:..\src\system/flash.c ****     if ((row_num > CCG_IMG2_LAST_FLASH_ROW_NUM) && (row_num < CCG_IMG2_METADATA_ROW_NUM))
 631:..\src\system/flash.c ****     {
 632:..\src\system/flash.c ****         return CCG_STAT_INVALID_ARGUMENT;
 633:..\src\system/flash.c ****     }
 634:..\src\system/flash.c **** #endif /* CCG_BOOT */
 635:..\src\system/flash.c **** 
 636:..\src\system/flash.c **** #if ((CCG_BOOT != 0) || (CCG_PSEUDO_METADATA_DISABLE != 0))
 637:..\src\system/flash.c ****     /* Byte offset to the sequence number field in metadata. */
 638:..\src\system/flash.c ****     offset  = (CCG_FLASH_ROW_SIZE - CCG_METADATA_TABLE_SIZE + CCG_FW_METADATA_BOOTSEQ_OFFSET);
 639:..\src\system/flash.c ****     if (row_num == CCG_IMG1_METADATA_ROW_NUM)
 536              		.loc 1 639 0 is_stmt 1
 537 0030 06D1     		bne	.L35
 640:..\src\system/flash.c ****     {
 641:..\src\system/flash.c **** #if CCG_PRIORITIZE_FW2
 642:..\src\system/flash.c ****         /* Set sequence number to 0. */
 643:..\src\system/flash.c ****         seq_num = 0;
 644:..\src\system/flash.c **** #else /* !CCG_PRIORITIZE_FW2 */
 645:..\src\system/flash.c ****         /* Set sequence number to 1 + that of FW2. */
 646:..\src\system/flash.c ****         seq_num = boot_get_boot_seq (SYS_FW_MODE_FWIMAGE_2) + 1;
 538              		.loc 1 646 0
 539 0032 0220     		movs	r0, #2
 540              	.LVL37:
 541 0034 FFF7FEFF 		bl	boot_get_boot_seq
 542              	.LVL38:
 543 0038 0130     		adds	r0, r0, #1
 544              	.LVL39:
 647:..\src\system/flash.c **** #endif /* CCG_PRIORITIZE_FW2 */
 648:..\src\system/flash.c **** 
 649:..\src\system/flash.c ****         ((uint32_t *)data)[offset / 4] = seq_num;
 545              		.loc 1 649 0
 546 003a 2B00     		movs	r3, r5
 547 003c DC33     		adds	r3, r3, #220
 548 003e 1860     		str	r0, [r3]
 549              	.LVL40:
 550              	.L35:
 650:..\src\system/flash.c ****     }
 651:..\src\system/flash.c ****     if (row_num == CCG_IMG2_METADATA_ROW_NUM)
 551              		.loc 1 651 0
 552 0040 FF23     		movs	r3, #255
 553 0042 5B00     		lsls	r3, r3, #1
 554 0044 9C42     		cmp	r4, r3
 555 0046 06D1     		bne	.L36
 652:..\src\system/flash.c ****     {
 653:..\src\system/flash.c **** #if CCG_PRIORITIZE_FW1
 654:..\src\system/flash.c ****         /* Set sequence number to 0. */
 655:..\src\system/flash.c ****         seq_num = 0;
 656:..\src\system/flash.c **** #else /* !CCG_PRIORITIZE_FW1 */
 657:..\src\system/flash.c ****         /* Set sequence number to 1 + that of FW1. */
 658:..\src\system/flash.c ****         seq_num = boot_get_boot_seq (SYS_FW_MODE_FWIMAGE_1) + 1;
 556              		.loc 1 658 0
 557 0048 0120     		movs	r0, #1
 558 004a FFF7FEFF 		bl	boot_get_boot_seq
ARM GAS  e:\temp\ccVGPNYG.s 			page 23


 559              	.LVL41:
 560 004e 0130     		adds	r0, r0, #1
 561              	.LVL42:
 659:..\src\system/flash.c **** #endif /* CCG_PRIORITIZE_FW1 */
 660:..\src\system/flash.c **** 
 661:..\src\system/flash.c ****         ((uint32_t *)data)[offset / 4] = seq_num;
 562              		.loc 1 661 0
 563 0050 2B00     		movs	r3, r5
 564 0052 DC33     		adds	r3, r3, #220
 565 0054 1860     		str	r0, [r3]
 566              	.LVL43:
 567              	.L36:
 662:..\src\system/flash.c ****     }
 663:..\src\system/flash.c **** #else /* ((CCG_BOOT != 0) || (CCG_PSEUDO_METADATA_DISABLE != 0)) */
 664:..\src\system/flash.c ****     /*
 665:..\src\system/flash.c ****      * Refer JITM#2, In FW mode, For metadata rows write,
 666:..\src\system/flash.c ****      * FW image updates the coresponding pseudo metadata
 667:..\src\system/flash.c ****      * row instead of actual metadata row.
 668:..\src\system/flash.c ****      */
 669:..\src\system/flash.c ****     if (row_num == CCG_IMG1_METADATA_ROW_NUM)
 670:..\src\system/flash.c ****     {
 671:..\src\system/flash.c ****         row_num = gl_img2_fw_metadata->boot_last_row;
 672:..\src\system/flash.c ****         /*
 673:..\src\system/flash.c ****          * Mark the METADATA_VALID as "CP" which indicates that FW flashing is
 674:..\src\system/flash.c ****          * now complete. After RESET, this will signal the current FW to
 675:..\src\system/flash.c ****          * validate the other image and then jump to it.
 676:..\src\system/flash.c ****          */
 677:..\src\system/flash.c ****         fw_metadata= (sys_fw_metadata_t *)(data + (CCG_FLASH_ROW_SIZE
 678:..\src\system/flash.c ****                 - CCG_METADATA_TABLE_SIZE));
 679:..\src\system/flash.c ****         fw_metadata->metadata_valid = SYS_PSEUDO_METADATA_VALID_SIG;
 680:..\src\system/flash.c ****     }
 681:..\src\system/flash.c ****     else if (row_num == CCG_IMG2_METADATA_ROW_NUM)
 682:..\src\system/flash.c ****     {
 683:..\src\system/flash.c ****         row_num = CCG_IMG2_PSEUDO_METADATA_ROW_NUM;
 684:..\src\system/flash.c ****         /* 
 685:..\src\system/flash.c ****          * Mark the METADATA_VALID as "CP" which indicates that FW flashing is
 686:..\src\system/flash.c ****          * now complete. After RESET, this will signal the current FW to validate
 687:..\src\system/flash.c ****          * the other image and then jump to it.
 688:..\src\system/flash.c ****          */
 689:..\src\system/flash.c ****         fw_metadata= (sys_fw_metadata_t *)(data + (CCG_FLASH_ROW_SIZE
 690:..\src\system/flash.c ****                 - CCG_METADATA_TABLE_SIZE));
 691:..\src\system/flash.c ****         fw_metadata->metadata_valid = SYS_PSEUDO_METADATA_VALID_SIG;
 692:..\src\system/flash.c ****     }
 693:..\src\system/flash.c **** #endif /* ((CCG_BOOT != 0) || (CCG_PSEUDO_METADATA_DISABLE != 0)) */
 694:..\src\system/flash.c **** #endif /* (CCG_DUALAPP_DISABLE) */
 695:..\src\system/flash.c **** 
 696:..\src\system/flash.c **** #if (FLASH_ENABLE_NB_MODE == 1)
 697:..\src\system/flash.c ****    /*
 698:..\src\system/flash.c ****     * Determine mode of flashing: Blocking or Non-Blocking based
 699:..\src\system/flash.c ****     * on the callback function pointer.
 700:..\src\system/flash.c ****     */
 701:..\src\system/flash.c ****     if (cbk == NULL)
 702:..\src\system/flash.c ****     {
 703:..\src\system/flash.c ****         status = flash_blocking_row_write (row_num, data);
 704:..\src\system/flash.c ****     }
 705:..\src\system/flash.c ****     else
 706:..\src\system/flash.c ****     {
ARM GAS  e:\temp\ccVGPNYG.s 			page 24


 707:..\src\system/flash.c ****         status = flash_non_blocking_row_write (row_num, data, cbk);
 708:..\src\system/flash.c ****     }
 709:..\src\system/flash.c **** #else
 710:..\src\system/flash.c ****     /* Blocking Flash Row Write in Bootloader mode. */
 711:..\src\system/flash.c ****     /* Handle only if Flashing mode is active. */
 712:..\src\system/flash.c ****     status = flash_blocking_row_write (row_num, data);
 568              		.loc 1 712 0
 569 0056 2900     		movs	r1, r5
 570 0058 2000     		movs	r0, r4
 571 005a FFF7FEFF 		bl	flash_blocking_row_write
 572              	.LVL44:
 713:..\src\system/flash.c **** #endif /* FLASH_ENABLE_NB_MODE */
 714:..\src\system/flash.c ****     return status;
 573              		.loc 1 714 0
 574 005e 08E0     		b	.L33
 575              	.LVL45:
 576              	.L37:
 614:..\src\system/flash.c ****     }
 577              		.loc 1 614 0
 578 0060 0E20     		movs	r0, #14
 579              	.LVL46:
 580 0062 06E0     		b	.L33
 581              	.LVL47:
 582              	.L38:
 621:..\src\system/flash.c ****     }
 583              		.loc 1 621 0
 584 0064 0720     		movs	r0, #7
 585              	.LVL48:
 586 0066 04E0     		b	.L33
 587              	.LVL49:
 588              	.L39:
 589 0068 0720     		movs	r0, #7
 590              	.LVL50:
 591 006a 02E0     		b	.L33
 592              	.LVL51:
 593              	.L40:
 594 006c 0720     		movs	r0, #7
 595              	.LVL52:
 596 006e 00E0     		b	.L33
 597              	.LVL53:
 598              	.L41:
 599 0070 0720     		movs	r0, #7
 600              	.LVL54:
 601              	.L33:
 715:..\src\system/flash.c **** }
 602              		.loc 1 715 0
 603              		@ sp needed
 604              	.LVL55:
 605 0072 70BD     		pop	{r4, r5, r6, pc}
 606              	.L43:
 607              		.align	2
 608              	.L42:
 609 0074 00000000 		.word	.LANCHOR0
 610 0078 00000000 		.word	.LANCHOR1
 611 007c FF010000 		.word	511
 612              		.cfi_endproc
 613              	.LFE39:
ARM GAS  e:\temp\ccVGPNYG.s 			page 25


 614              		.size	flash_row_write, .-flash_row_write
 615              		.section	.text.flash_row_read,"ax",%progbits
 616              		.align	2
 617              		.global	flash_row_read
 618              		.code	16
 619              		.thumb_func
 620              		.type	flash_row_read, %function
 621              	flash_row_read:
 622              	.LFB40:
 716:..\src\system/flash.c **** 
 717:..\src\system/flash.c **** ccg_status_t flash_row_read(uint16_t row_num, uint8_t* data)
 718:..\src\system/flash.c **** {
 623              		.loc 1 718 0
 624              		.cfi_startproc
 625              		@ args = 0, pretend = 0, frame = 0
 626              		@ frame_needed = 0, uses_anonymous_args = 0
 627              	.LVL56:
 628 0000 10B5     		push	{r4, lr}
 629              		.cfi_def_cfa_offset 8
 630              		.cfi_offset 4, -8
 631              		.cfi_offset 14, -4
 632 0002 0C00     		movs	r4, r1
 719:..\src\system/flash.c ****     /* Can't handle flash update request if Flashing mode is not active. */
 720:..\src\system/flash.c ****     if (gl_flash_mode_en == 0)
 633              		.loc 1 720 0
 634 0004 0E4B     		ldr	r3, .L50
 635 0006 5B78     		ldrb	r3, [r3, #1]
 636 0008 002B     		cmp	r3, #0
 637 000a 10D0     		beq	.L46
 721:..\src\system/flash.c ****     {
 722:..\src\system/flash.c ****         return CCG_STAT_NOT_READY;
 723:..\src\system/flash.c ****     }
 724:..\src\system/flash.c **** 
 725:..\src\system/flash.c ****     /* We allow any row outside of the boot-loader to be read. */
 726:..\src\system/flash.c ****     if ((data == NULL) || (row_num <= gl_flash_bl_last_row) ||
 638              		.loc 1 726 0
 639 000c 0029     		cmp	r1, #0
 640 000e 10D0     		beq	.L47
 641              		.loc 1 726 0 is_stmt 0 discriminator 1
 642 0010 0C4B     		ldr	r3, .L50+4
 643 0012 DB88     		ldrh	r3, [r3, #6]
 644 0014 8342     		cmp	r3, r0
 645 0016 0ED2     		bcs	.L48
 646              		.loc 1 726 0 discriminator 2
 647 0018 0B4B     		ldr	r3, .L50+8
 648 001a 9842     		cmp	r0, r3
 649 001c 0DD8     		bhi	.L49
 727:..\src\system/flash.c ****             (row_num > CCG_LAST_FLASH_ROW_NUM))
 728:..\src\system/flash.c ****     {
 729:..\src\system/flash.c ****         return CCG_STAT_INVALID_ARGUMENT;
 730:..\src\system/flash.c ****     }
 731:..\src\system/flash.c **** 
 732:..\src\system/flash.c ****     memcpy (data, (void *)(row_num << CCG_FLASH_ROW_SHIFT_NUM), CCG_FLASH_ROW_SIZE);
 650              		.loc 1 732 0 is_stmt 1
 651 001e 0102     		lsls	r1, r0, #8
 652              	.LVL57:
 653 0020 8022     		movs	r2, #128
ARM GAS  e:\temp\ccVGPNYG.s 			page 26


 654 0022 5200     		lsls	r2, r2, #1
 655 0024 2000     		movs	r0, r4
 656              	.LVL58:
 657 0026 FFF7FEFF 		bl	memcpy
 658              	.LVL59:
 733:..\src\system/flash.c ****     return CCG_STAT_SUCCESS;
 659              		.loc 1 733 0
 660 002a 0020     		movs	r0, #0
 661 002c 06E0     		b	.L45
 662              	.LVL60:
 663              	.L46:
 722:..\src\system/flash.c ****     }
 664              		.loc 1 722 0
 665 002e 0E20     		movs	r0, #14
 666              	.LVL61:
 667 0030 04E0     		b	.L45
 668              	.LVL62:
 669              	.L47:
 729:..\src\system/flash.c ****     }
 670              		.loc 1 729 0
 671 0032 0720     		movs	r0, #7
 672              	.LVL63:
 673 0034 02E0     		b	.L45
 674              	.LVL64:
 675              	.L48:
 676 0036 0720     		movs	r0, #7
 677              	.LVL65:
 678 0038 00E0     		b	.L45
 679              	.LVL66:
 680              	.L49:
 681 003a 0720     		movs	r0, #7
 682              	.LVL67:
 683              	.L45:
 734:..\src\system/flash.c **** }
 684              		.loc 1 734 0
 685              		@ sp needed
 686              	.LVL68:
 687 003c 10BD     		pop	{r4, pc}
 688              	.L51:
 689 003e C046     		.align	2
 690              	.L50:
 691 0040 00000000 		.word	.LANCHOR0
 692 0044 00000000 		.word	.LANCHOR1
 693 0048 FF010000 		.word	511
 694              		.cfi_endproc
 695              	.LFE40:
 696              		.size	flash_row_read, .-flash_row_read
 697              		.data
 698              		.align	1
 699              		.set	.LANCHOR1,. + 0
 700              		.type	gl_flash_access_first, %object
 701              		.size	gl_flash_access_first, 2
 702              	gl_flash_access_first:
 703 0000 0002     		.short	512
 704              		.type	gl_flash_access_last, %object
 705              		.size	gl_flash_access_last, 2
 706              	gl_flash_access_last:
ARM GAS  e:\temp\ccVGPNYG.s 			page 27


 707 0002 0002     		.short	512
 708              		.type	gl_flash_metadata_row, %object
 709              		.size	gl_flash_metadata_row, 2
 710              	gl_flash_metadata_row:
 711 0004 0002     		.short	512
 712              		.type	gl_flash_bl_last_row, %object
 713              		.size	gl_flash_bl_last_row, 2
 714              	gl_flash_bl_last_row:
 715 0006 0002     		.short	512
 716              		.bss
 717              		.set	.LANCHOR0,. + 0
 718              		.type	gl_flash_write_in_place, %object
 719              		.size	gl_flash_write_in_place, 1
 720              	gl_flash_write_in_place:
 721 0000 00       		.space	1
 722              		.type	gl_flash_mode_en, %object
 723              		.size	gl_flash_mode_en, 1
 724              	gl_flash_mode_en:
 725 0001 00       		.space	1
 726              		.text
 727              	.Letext0:
 728              		.file 2 "e:\\cypress\\psoc creator\\4.2\\psoc creator\\import\\gnu\\arm\\5.4.1\\arm-none-eabi\\inc
 729              		.file 3 "e:\\cypress\\psoc creator\\4.2\\psoc creator\\import\\gnu\\arm\\5.4.1\\arm-none-eabi\\inc
 730              		.file 4 "..\\src\\system/status.h"
 731              		.file 5 "..\\src\\system/ccg5_regs.h"
 732              		.file 6 "..\\src\\system/system.h"
 733              		.file 7 "..\\src\\system/flash.h"
 734              		.file 8 "..\\src\\system/boot.h"