ARM GAS  e:\temp\ccdyAbtO.s 			page 1


   1              		.syntax unified
   2              		.cpu cortex-m0
   3              		.fpu softvfp
   4              		.eabi_attribute 20, 1
   5              		.eabi_attribute 21, 1
   6              		.eabi_attribute 23, 3
   7              		.eabi_attribute 24, 1
   8              		.eabi_attribute 25, 1
   9              		.eabi_attribute 26, 1
  10              		.eabi_attribute 30, 1
  11              		.eabi_attribute 34, 0
  12              		.eabi_attribute 18, 4
  13              		.thumb
  14              		.syntax unified
  15              		.file	"gpio.c"
  16              		.text
  17              	.Ltext0:
  18              		.cfi_sections	.debug_frame
  19              		.section	.text.gpio_set_value,"ax",%progbits
  20              		.align	2
  21              		.global	gpio_set_value
  22              		.code	16
  23              		.thumb_func
  24              		.type	gpio_set_value, %function
  25              	gpio_set_value:
  26              	.LFB32:
  27              		.file 1 "..\\src\\system\\gpio.c"
   1:..\src\system/gpio.c **** /**
   2:..\src\system/gpio.c ****  * @file gpio.c
   3:..\src\system/gpio.c ****  *
   4:..\src\system/gpio.c ****  * @brief @{GPIO and IO mapping control functions.@}
   5:..\src\system/gpio.c ****  */
   6:..\src\system/gpio.c **** 
   7:..\src\system/gpio.c **** /*
   8:..\src\system/gpio.c ****  * Copyright (2014-2018), Cypress Semiconductor Corporation or a subsidiary of
   9:..\src\system/gpio.c ****  * Cypress Semiconductor Corporation. All rights reserved.
  10:..\src\system/gpio.c ****  *
  11:..\src\system/gpio.c ****  * This software, including source code, documentation and related materials
  12:..\src\system/gpio.c ****  * (“Software”), is owned by Cypress Semiconductor Corporation or one of its
  13:..\src\system/gpio.c ****  * subsidiaries (“Cypress”) and is protected by and subject to worldwide patent
  14:..\src\system/gpio.c ****  * protection (United States and foreign), United States copyright laws and
  15:..\src\system/gpio.c ****  * international treaty provisions. Therefore, you may use this Software only
  16:..\src\system/gpio.c ****  * as provided in the license agreement accompanying the software package from
  17:..\src\system/gpio.c ****  * which you obtained this Software (“EULA”).
  18:..\src\system/gpio.c ****  *
  19:..\src\system/gpio.c ****  * If no EULA applies, Cypress hereby grants you a personal, nonexclusive,
  20:..\src\system/gpio.c ****  * non-transferable license to copy, modify, and compile the Software source
  21:..\src\system/gpio.c ****  * code solely for use in connection with Cypress’s integrated circuit
  22:..\src\system/gpio.c ****  * products. Any reproduction, modification, translation, compilation, or
  23:..\src\system/gpio.c ****  * representation of this Software except as specified above is prohibited
  24:..\src\system/gpio.c ****  * without the express written permission of Cypress. Disclaimer: THIS SOFTWARE
  25:..\src\system/gpio.c ****  * IS PROVIDED AS-IS, WITH NO WARRANTY OF ANY KIND, EXPRESS OR IMPLIED,
  26:..\src\system/gpio.c ****  * INCLUDING, BUT NOT LIMITED TO, NONINFRINGEMENT, IMPLIED WARRANTIES OF
  27:..\src\system/gpio.c ****  * MERCHANTABILITY AND FITNESS FOR A PARTICULAR PURPOSE. Cypress reserves the
  28:..\src\system/gpio.c ****  * right to make changes to the Software without notice. Cypress does not
  29:..\src\system/gpio.c ****  * assume any liability arising out of the application or use of the Software
  30:..\src\system/gpio.c ****  * or any product or circuit described in the Software. Cypress does not
ARM GAS  e:\temp\ccdyAbtO.s 			page 2


  31:..\src\system/gpio.c ****  * authorize its products for use in any products where a malfunction or
  32:..\src\system/gpio.c ****  * failure of the Cypress product may reasonably be expected to result in
  33:..\src\system/gpio.c ****  * significant property damage, injury or death (“High Risk Product”). By
  34:..\src\system/gpio.c ****  * including Cypress’s product in a High Risk Product, the manufacturer of such
  35:..\src\system/gpio.c ****  * system or application assumes all risk of such use and in doing so agrees to
  36:..\src\system/gpio.c ****  * indemnify Cypress against all liability.
  37:..\src\system/gpio.c ****  */
  38:..\src\system/gpio.c **** 
  39:..\src\system/gpio.c **** #include "stdint.h"
  40:..\src\system/gpio.c **** #include "stdbool.h"
  41:..\src\system/gpio.c **** #include "ccgx_regs.h"
  42:..\src\system/gpio.c **** #include "gpio.h"
  43:..\src\system/gpio.c **** 
  44:..\src\system/gpio.c **** /* GPIO block address array */
  45:..\src\system/gpio.c **** const PGPIO_REGS_T GPIO[] =
  46:..\src\system/gpio.c **** {
  47:..\src\system/gpio.c ****     GPIO0,
  48:..\src\system/gpio.c ****     GPIO1,
  49:..\src\system/gpio.c ****     GPIO2,
  50:..\src\system/gpio.c ****     GPIO3,
  51:..\src\system/gpio.c **** #if (!defined(CCG3PA) && !defined(CCG3PA2))
  52:..\src\system/gpio.c ****     GPIO4,
  53:..\src\system/gpio.c **** #ifdef CCG5
  54:..\src\system/gpio.c ****     GPIO5
  55:..\src\system/gpio.c **** #endif /* CCG5 */
  56:..\src\system/gpio.c **** #endif /* (!defined(CCG3PA) && !defined(CCG3PA2)) */
  57:..\src\system/gpio.c **** };
  58:..\src\system/gpio.c **** 
  59:..\src\system/gpio.c **** /* HSIOM block address array */
  60:..\src\system/gpio.c **** const PHSIOM_REGS_T HSIOM[] =
  61:..\src\system/gpio.c **** {
  62:..\src\system/gpio.c ****     HSIOM0,
  63:..\src\system/gpio.c ****     HSIOM1,
  64:..\src\system/gpio.c ****     HSIOM2,
  65:..\src\system/gpio.c ****     HSIOM3,
  66:..\src\system/gpio.c **** #if (!defined(CCG3PA) && !defined(CCG3PA2))
  67:..\src\system/gpio.c ****     HSIOM4,
  68:..\src\system/gpio.c **** #ifdef CCG5
  69:..\src\system/gpio.c ****     HSIOM5
  70:..\src\system/gpio.c **** #endif /* CCG5 */
  71:..\src\system/gpio.c **** #endif /* (!defined(CCG3PA) && !defined(CCG3PA2)) */
  72:..\src\system/gpio.c **** };
  73:..\src\system/gpio.c **** 
  74:..\src\system/gpio.c **** void gpio_set_value(gpio_port_pin_t port_pin, bool value)
  75:..\src\system/gpio.c **** {
  28              		.loc 1 75 0
  29              		.cfi_startproc
  30              		@ args = 0, pretend = 0, frame = 0
  31              		@ frame_needed = 0, uses_anonymous_args = 0
  32              		@ link register save eliminated.
  33              	.LVL0:
  76:..\src\system/gpio.c ****     uint8_t port = port_pin >> 4;
  34              		.loc 1 76 0
  35 0000 0309     		lsrs	r3, r0, #4
  36              	.LVL1:
  77:..\src\system/gpio.c ****     uint8_t pin = port_pin & 0x0F;
  37              		.loc 1 77 0
ARM GAS  e:\temp\ccdyAbtO.s 			page 3


  38 0002 0F22     		movs	r2, #15
  39 0004 1040     		ands	r0, r2
  40              	.LVL2:
  78:..\src\system/gpio.c **** 
  79:..\src\system/gpio.c ****     if (value)
  41              		.loc 1 79 0
  42 0006 0029     		cmp	r1, #0
  43 0008 08D0     		beq	.L2
  80:..\src\system/gpio.c ****     {
  81:..\src\system/gpio.c ****         GPIO[(port)]->dr |= (1 << (pin));
  44              		.loc 1 81 0
  45 000a 9B00     		lsls	r3, r3, #2
  46              	.LVL3:
  47 000c 084A     		ldr	r2, .L4
  48 000e 9958     		ldr	r1, [r3, r2]
  49              	.LVL4:
  50 0010 0A68     		ldr	r2, [r1]
  51 0012 0123     		movs	r3, #1
  52 0014 8340     		lsls	r3, r3, r0
  53 0016 1343     		orrs	r3, r2
  54 0018 0B60     		str	r3, [r1]
  55 001a 07E0     		b	.L1
  56              	.LVL5:
  57              	.L2:
  82:..\src\system/gpio.c ****     }
  83:..\src\system/gpio.c ****     else
  84:..\src\system/gpio.c ****     {
  85:..\src\system/gpio.c ****         GPIO[(port)]->dr &= ~(1 << (pin));
  58              		.loc 1 85 0
  59 001c 9B00     		lsls	r3, r3, #2
  60              	.LVL6:
  61 001e 044A     		ldr	r2, .L4
  62 0020 9958     		ldr	r1, [r3, r2]
  63              	.LVL7:
  64 0022 0B68     		ldr	r3, [r1]
  65 0024 0122     		movs	r2, #1
  66 0026 8240     		lsls	r2, r2, r0
  67 0028 9343     		bics	r3, r2
  68 002a 0B60     		str	r3, [r1]
  69              	.L1:
  86:..\src\system/gpio.c ****     }
  87:..\src\system/gpio.c **** }
  70              		.loc 1 87 0
  71              		@ sp needed
  72 002c 7047     		bx	lr
  73              	.L5:
  74 002e C046     		.align	2
  75              	.L4:
  76 0030 00000000 		.word	.LANCHOR0
  77              		.cfi_endproc
  78              	.LFE32:
  79              		.size	gpio_set_value, .-gpio_set_value
  80              		.section	.text.gpio_read_value,"ax",%progbits
  81              		.align	2
  82              		.global	gpio_read_value
  83              		.code	16
  84              		.thumb_func
ARM GAS  e:\temp\ccdyAbtO.s 			page 4


  85              		.type	gpio_read_value, %function
  86              	gpio_read_value:
  87              	.LFB33:
  88:..\src\system/gpio.c **** 
  89:..\src\system/gpio.c **** bool gpio_read_value(gpio_port_pin_t port_pin)
  90:..\src\system/gpio.c **** {
  88              		.loc 1 90 0
  89              		.cfi_startproc
  90              		@ args = 0, pretend = 0, frame = 0
  91              		@ frame_needed = 0, uses_anonymous_args = 0
  92              		@ link register save eliminated.
  93              	.LVL8:
  91:..\src\system/gpio.c ****     uint8_t port = port_pin >> 4;
  94              		.loc 1 91 0
  95 0000 0309     		lsrs	r3, r0, #4
  96              	.LVL9:
  92:..\src\system/gpio.c ****     uint8_t pin = port_pin & 0x0F;
  97              		.loc 1 92 0
  98 0002 0F22     		movs	r2, #15
  99 0004 0240     		ands	r2, r0
 100              	.LVL10:
  93:..\src\system/gpio.c **** 
  94:..\src\system/gpio.c ****     return (GPIO[(port)]->ps & (1 << (pin))) ? true : false;
 101              		.loc 1 94 0
 102 0006 9B00     		lsls	r3, r3, #2
 103              	.LVL11:
 104 0008 0549     		ldr	r1, .L7
 105 000a 5B58     		ldr	r3, [r3, r1]
 106 000c 5968     		ldr	r1, [r3, #4]
 107 000e 0123     		movs	r3, #1
 108 0010 9340     		lsls	r3, r3, r2
 109 0012 1800     		movs	r0, r3
 110              	.LVL12:
 111 0014 0840     		ands	r0, r1
 112 0016 431E     		subs	r3, r0, #1
 113 0018 9841     		sbcs	r0, r0, r3
 114 001a C0B2     		uxtb	r0, r0
  95:..\src\system/gpio.c **** }
 115              		.loc 1 95 0
 116              		@ sp needed
 117 001c 7047     		bx	lr
 118              	.L8:
 119 001e C046     		.align	2
 120              	.L7:
 121 0020 00000000 		.word	.LANCHOR0
 122              		.cfi_endproc
 123              	.LFE33:
 124              		.size	gpio_read_value, .-gpio_read_value
 125              		.section	.text.gpio_set_drv_mode,"ax",%progbits
 126              		.align	2
 127              		.global	gpio_set_drv_mode
 128              		.code	16
 129              		.thumb_func
 130              		.type	gpio_set_drv_mode, %function
 131              	gpio_set_drv_mode:
 132              	.LFB34:
  96:..\src\system/gpio.c **** 
ARM GAS  e:\temp\ccdyAbtO.s 			page 5


  97:..\src\system/gpio.c **** void gpio_set_drv_mode(gpio_port_pin_t port_pin, gpio_dm_t drv_mode)
  98:..\src\system/gpio.c **** {
 133              		.loc 1 98 0
 134              		.cfi_startproc
 135              		@ args = 0, pretend = 0, frame = 0
 136              		@ frame_needed = 0, uses_anonymous_args = 0
 137              	.LVL13:
 138 0000 10B5     		push	{r4, lr}
 139              		.cfi_def_cfa_offset 8
 140              		.cfi_offset 4, -8
 141              		.cfi_offset 14, -4
  99:..\src\system/gpio.c ****     uint8_t pos;
 100:..\src\system/gpio.c ****     uint8_t port = port_pin >> 4;
 142              		.loc 1 100 0
 143 0002 0209     		lsrs	r2, r0, #4
 144              	.LVL14:
 101:..\src\system/gpio.c ****     uint8_t pin = port_pin & 0x0F;
 145              		.loc 1 101 0
 146 0004 0F23     		movs	r3, #15
 147 0006 1840     		ands	r0, r3
 148              	.LVL15:
 102:..\src\system/gpio.c ****     uint32_t regVal;
 103:..\src\system/gpio.c **** 
 104:..\src\system/gpio.c ****     /* Multiply by three as pin uses 3 bits in the register. */
 105:..\src\system/gpio.c ****     pos = pin * GPIO_DM_FIELD_SIZE;
 149              		.loc 1 105 0
 150 0008 4300     		lsls	r3, r0, #1
 151 000a C018     		adds	r0, r0, r3
 152              	.LVL16:
 106:..\src\system/gpio.c **** 
 107:..\src\system/gpio.c ****     /* Need to mask all other bits. Just update
 108:..\src\system/gpio.c ****      * the three bits of the current pin.
 109:..\src\system/gpio.c ****      */
 110:..\src\system/gpio.c ****     regVal = (GPIO[port]->pc & ~(GPIO_DM_FIELD_MASK << pos));
 153              		.loc 1 110 0
 154 000c 9300     		lsls	r3, r2, #2
 155 000e 054A     		ldr	r2, .L10
 156              	.LVL17:
 157 0010 9C58     		ldr	r4, [r3, r2]
 158 0012 A368     		ldr	r3, [r4, #8]
 159 0014 0722     		movs	r2, #7
 160 0016 8240     		lsls	r2, r2, r0
 161 0018 9343     		bics	r3, r2
 162              	.LVL18:
 111:..\src\system/gpio.c ****     GPIO[port]->pc = (regVal | (drv_mode << pos));
 163              		.loc 1 111 0
 164 001a 8140     		lsls	r1, r1, r0
 165              	.LVL19:
 166 001c 1943     		orrs	r1, r3
 167 001e A160     		str	r1, [r4, #8]
 112:..\src\system/gpio.c **** }
 168              		.loc 1 112 0
 169              		@ sp needed
 170 0020 10BD     		pop	{r4, pc}
 171              	.L11:
 172 0022 C046     		.align	2
 173              	.L10:
ARM GAS  e:\temp\ccdyAbtO.s 			page 6


 174 0024 00000000 		.word	.LANCHOR0
 175              		.cfi_endproc
 176              	.LFE34:
 177              		.size	gpio_set_drv_mode, .-gpio_set_drv_mode
 178              		.section	.text.gpio_int_set_config,"ax",%progbits
 179              		.align	2
 180              		.global	gpio_int_set_config
 181              		.code	16
 182              		.thumb_func
 183              		.type	gpio_int_set_config, %function
 184              	gpio_int_set_config:
 185              	.LFB35:
 113:..\src\system/gpio.c **** 
 114:..\src\system/gpio.c **** void gpio_int_set_config(gpio_port_pin_t port_pin, uint8_t int_mode)
 115:..\src\system/gpio.c **** {
 186              		.loc 1 115 0
 187              		.cfi_startproc
 188              		@ args = 0, pretend = 0, frame = 0
 189              		@ frame_needed = 0, uses_anonymous_args = 0
 190              	.LVL20:
 191 0000 10B5     		push	{r4, lr}
 192              		.cfi_def_cfa_offset 8
 193              		.cfi_offset 4, -8
 194              		.cfi_offset 14, -4
 116:..\src\system/gpio.c ****     uint8_t pos;
 117:..\src\system/gpio.c ****     uint8_t port = port_pin >> 4;
 195              		.loc 1 117 0
 196 0002 0309     		lsrs	r3, r0, #4
 197              	.LVL21:
 118:..\src\system/gpio.c ****     uint8_t pin = port_pin & 0x0F;
 198              		.loc 1 118 0
 199 0004 0F22     		movs	r2, #15
 200 0006 1040     		ands	r0, r2
 201              	.LVL22:
 119:..\src\system/gpio.c ****     uint32_t regVal;
 120:..\src\system/gpio.c **** 
 121:..\src\system/gpio.c ****     pos = pin << 1;
 202              		.loc 1 121 0
 203 0008 4400     		lsls	r4, r0, #1
 204              	.LVL23:
 122:..\src\system/gpio.c **** 
 123:..\src\system/gpio.c ****     /* Make sure that the interrupt is cleared. */
 124:..\src\system/gpio.c ****     GPIO[port]->intr = (1 << pin);
 205              		.loc 1 124 0
 206 000a 9B00     		lsls	r3, r3, #2
 207              	.LVL24:
 208 000c 064A     		ldr	r2, .L13
 209 000e 9A58     		ldr	r2, [r3, r2]
 210 0010 0123     		movs	r3, #1
 211 0012 8340     		lsls	r3, r3, r0
 212 0014 1361     		str	r3, [r2, #16]
 125:..\src\system/gpio.c **** 
 126:..\src\system/gpio.c ****     /* Set the configuration. */
 127:..\src\system/gpio.c ****     regVal = (GPIO[port]->intr_cfg & ~(GPIO_INT_FIELD_MASK << pos));
 213              		.loc 1 127 0
 214 0016 D368     		ldr	r3, [r2, #12]
 215 0018 0320     		movs	r0, #3
ARM GAS  e:\temp\ccdyAbtO.s 			page 7


 216              	.LVL25:
 217 001a A040     		lsls	r0, r0, r4
 218 001c 8343     		bics	r3, r0
 219              	.LVL26:
 128:..\src\system/gpio.c ****     GPIO[port]->intr_cfg = (regVal | (int_mode << pos));
 220              		.loc 1 128 0
 221 001e A140     		lsls	r1, r1, r4
 222              	.LVL27:
 223 0020 1943     		orrs	r1, r3
 224 0022 D160     		str	r1, [r2, #12]
 129:..\src\system/gpio.c **** }
 225              		.loc 1 129 0
 226              		@ sp needed
 227              	.LVL28:
 228 0024 10BD     		pop	{r4, pc}
 229              	.L14:
 230 0026 C046     		.align	2
 231              	.L13:
 232 0028 00000000 		.word	.LANCHOR0
 233              		.cfi_endproc
 234              	.LFE35:
 235              		.size	gpio_int_set_config, .-gpio_int_set_config
 236              		.section	.text.gpio_get_intr,"ax",%progbits
 237              		.align	2
 238              		.global	gpio_get_intr
 239              		.code	16
 240              		.thumb_func
 241              		.type	gpio_get_intr, %function
 242              	gpio_get_intr:
 243              	.LFB36:
 130:..\src\system/gpio.c **** 
 131:..\src\system/gpio.c **** bool gpio_get_intr(gpio_port_pin_t port_pin)
 132:..\src\system/gpio.c **** {
 244              		.loc 1 132 0
 245              		.cfi_startproc
 246              		@ args = 0, pretend = 0, frame = 0
 247              		@ frame_needed = 0, uses_anonymous_args = 0
 248              		@ link register save eliminated.
 249              	.LVL29:
 133:..\src\system/gpio.c ****     uint8_t port = port_pin >> 4;
 250              		.loc 1 133 0
 251 0000 0309     		lsrs	r3, r0, #4
 252              	.LVL30:
 134:..\src\system/gpio.c ****     uint8_t pin = port_pin & 0x0F;
 253              		.loc 1 134 0
 254 0002 0F22     		movs	r2, #15
 255 0004 1040     		ands	r0, r2
 256              	.LVL31:
 135:..\src\system/gpio.c **** 
 136:..\src\system/gpio.c ****     /* Check if intr set */
 137:..\src\system/gpio.c ****     if( GPIO[port]->intr & (1 << pin))
 257              		.loc 1 137 0
 258 0006 9B00     		lsls	r3, r3, #2
 259              	.LVL32:
 260 0008 054A     		ldr	r2, .L18
 261 000a 9B58     		ldr	r3, [r3, r2]
 262 000c 1A69     		ldr	r2, [r3, #16]
ARM GAS  e:\temp\ccdyAbtO.s 			page 8


 263 000e 0123     		movs	r3, #1
 264 0010 8340     		lsls	r3, r3, r0
 265 0012 1A42     		tst	r2, r3
 266 0014 01D0     		beq	.L17
 138:..\src\system/gpio.c ****     {
 139:..\src\system/gpio.c ****         return true;
 267              		.loc 1 139 0
 268 0016 0120     		movs	r0, #1
 269              	.LVL33:
 270 0018 00E0     		b	.L16
 271              	.LVL34:
 272              	.L17:
 140:..\src\system/gpio.c ****     }
 141:..\src\system/gpio.c **** 
 142:..\src\system/gpio.c ****     return false;
 273              		.loc 1 142 0
 274 001a 0020     		movs	r0, #0
 275              	.LVL35:
 276              	.L16:
 143:..\src\system/gpio.c **** }
 277              		.loc 1 143 0
 278              		@ sp needed
 279 001c 7047     		bx	lr
 280              	.L19:
 281 001e C046     		.align	2
 282              	.L18:
 283 0020 00000000 		.word	.LANCHOR0
 284              		.cfi_endproc
 285              	.LFE36:
 286              		.size	gpio_get_intr, .-gpio_get_intr
 287              		.section	.text.gpio_clear_intr,"ax",%progbits
 288              		.align	2
 289              		.global	gpio_clear_intr
 290              		.code	16
 291              		.thumb_func
 292              		.type	gpio_clear_intr, %function
 293              	gpio_clear_intr:
 294              	.LFB37:
 144:..\src\system/gpio.c **** 
 145:..\src\system/gpio.c **** void gpio_clear_intr(gpio_port_pin_t port_pin)
 146:..\src\system/gpio.c **** {
 295              		.loc 1 146 0
 296              		.cfi_startproc
 297              		@ args = 0, pretend = 0, frame = 0
 298              		@ frame_needed = 0, uses_anonymous_args = 0
 299              		@ link register save eliminated.
 300              	.LVL36:
 147:..\src\system/gpio.c ****     uint8_t port = port_pin >> 4;
 301              		.loc 1 147 0
 302 0000 0309     		lsrs	r3, r0, #4
 303              	.LVL37:
 148:..\src\system/gpio.c ****     uint8_t pin = port_pin & 0x0F;
 304              		.loc 1 148 0
 305 0002 0F22     		movs	r2, #15
 306 0004 1040     		ands	r0, r2
 307              	.LVL38:
 149:..\src\system/gpio.c **** 
ARM GAS  e:\temp\ccdyAbtO.s 			page 9


 150:..\src\system/gpio.c ****     /* Clear interrupt */
 151:..\src\system/gpio.c ****     GPIO[port]->intr = (1 << pin);
 308              		.loc 1 151 0
 309 0006 9B00     		lsls	r3, r3, #2
 310              	.LVL39:
 311 0008 024A     		ldr	r2, .L21
 312 000a 9A58     		ldr	r2, [r3, r2]
 313 000c 0123     		movs	r3, #1
 314 000e 8340     		lsls	r3, r3, r0
 315 0010 1361     		str	r3, [r2, #16]
 152:..\src\system/gpio.c **** }
 316              		.loc 1 152 0
 317              		@ sp needed
 318 0012 7047     		bx	lr
 319              	.L22:
 320              		.align	2
 321              	.L21:
 322 0014 00000000 		.word	.LANCHOR0
 323              		.cfi_endproc
 324              	.LFE37:
 325              		.size	gpio_clear_intr, .-gpio_clear_intr
 326              		.section	.text.hsiom_set_config,"ax",%progbits
 327              		.align	2
 328              		.global	hsiom_set_config
 329              		.code	16
 330              		.thumb_func
 331              		.type	hsiom_set_config, %function
 332              	hsiom_set_config:
 333              	.LFB38:
 153:..\src\system/gpio.c **** 
 154:..\src\system/gpio.c **** void hsiom_set_config(gpio_port_pin_t port_pin, hsiom_mode_t hsiom_mode)
 155:..\src\system/gpio.c **** {
 334              		.loc 1 155 0
 335              		.cfi_startproc
 336              		@ args = 0, pretend = 0, frame = 0
 337              		@ frame_needed = 0, uses_anonymous_args = 0
 338              	.LVL40:
 339 0000 10B5     		push	{r4, lr}
 340              		.cfi_def_cfa_offset 8
 341              		.cfi_offset 4, -8
 342              		.cfi_offset 14, -4
 156:..\src\system/gpio.c ****     uint8_t port = port_pin >> 4;
 343              		.loc 1 156 0
 344 0002 0309     		lsrs	r3, r0, #4
 345              	.LVL41:
 157:..\src\system/gpio.c ****     uint8_t pin = port_pin & 0x0F;
 346              		.loc 1 157 0
 347 0004 0F22     		movs	r2, #15
 348 0006 1040     		ands	r0, r2
 349              	.LVL42:
 158:..\src\system/gpio.c ****     uint32_t regVal;
 159:..\src\system/gpio.c **** 
 160:..\src\system/gpio.c ****     regVal = HSIOM[port]->port_sel;
 350              		.loc 1 160 0
 351 0008 9B00     		lsls	r3, r3, #2
 352              	.LVL43:
 353 000a 064A     		ldr	r2, .L24
ARM GAS  e:\temp\ccdyAbtO.s 			page 10


 354 000c D318     		adds	r3, r2, r3
 355 000e 9C69     		ldr	r4, [r3, #24]
 356 0010 2368     		ldr	r3, [r4]
 357              	.LVL44:
 161:..\src\system/gpio.c **** 
 162:..\src\system/gpio.c ****     regVal &= ~(HSIOM_PORT_SEL_IO0_SEL_MASK << (pin << HSIOM_FIELD_SHIFT));
 358              		.loc 1 162 0
 359 0012 8000     		lsls	r0, r0, #2
 360              	.LVL45:
 361 0014 0F22     		movs	r2, #15
 362 0016 8240     		lsls	r2, r2, r0
 363 0018 9343     		bics	r3, r2
 364              	.LVL46:
 163:..\src\system/gpio.c ****     regVal |= (hsiom_mode << (pin << HSIOM_FIELD_SHIFT));
 365              		.loc 1 163 0
 366 001a 8140     		lsls	r1, r1, r0
 367              	.LVL47:
 368 001c 1943     		orrs	r1, r3
 369              	.LVL48:
 164:..\src\system/gpio.c **** 
 165:..\src\system/gpio.c ****     HSIOM[port]->port_sel = regVal;
 370              		.loc 1 165 0
 371 001e 2160     		str	r1, [r4]
 166:..\src\system/gpio.c **** }
 372              		.loc 1 166 0
 373              		@ sp needed
 374 0020 10BD     		pop	{r4, pc}
 375              	.L25:
 376 0022 C046     		.align	2
 377              	.L24:
 378 0024 00000000 		.word	.LANCHOR0
 379              		.cfi_endproc
 380              	.LFE38:
 381              		.size	hsiom_set_config, .-hsiom_set_config
 382              		.section	.text.gpio_hsiom_set_config,"ax",%progbits
 383              		.align	2
 384              		.global	gpio_hsiom_set_config
 385              		.code	16
 386              		.thumb_func
 387              		.type	gpio_hsiom_set_config, %function
 388              	gpio_hsiom_set_config:
 389              	.LFB39:
 167:..\src\system/gpio.c **** 
 168:..\src\system/gpio.c **** void gpio_hsiom_set_config(gpio_port_pin_t port_pin, hsiom_mode_t hsiom_mode,
 169:..\src\system/gpio.c ****     gpio_dm_t drv_mode, bool value)
 170:..\src\system/gpio.c **** {
 390              		.loc 1 170 0
 391              		.cfi_startproc
 392              		@ args = 0, pretend = 0, frame = 0
 393              		@ frame_needed = 0, uses_anonymous_args = 0
 394              	.LVL49:
 395 0000 70B5     		push	{r4, r5, r6, lr}
 396              		.cfi_def_cfa_offset 16
 397              		.cfi_offset 4, -16
 398              		.cfi_offset 5, -12
 399              		.cfi_offset 6, -8
 400              		.cfi_offset 14, -4
ARM GAS  e:\temp\ccdyAbtO.s 			page 11


 401 0002 0400     		movs	r4, r0
 402 0004 0D00     		movs	r5, r1
 403 0006 1600     		movs	r6, r2
 171:..\src\system/gpio.c ****     /* Drive GPIO. */
 172:..\src\system/gpio.c ****     gpio_set_value(port_pin, value);
 404              		.loc 1 172 0
 405 0008 1900     		movs	r1, r3
 406              	.LVL50:
 407 000a FFF7FEFF 		bl	gpio_set_value
 408              	.LVL51:
 173:..\src\system/gpio.c ****     /* Set Drive Mode of GPIO. */
 174:..\src\system/gpio.c ****     gpio_set_drv_mode(port_pin, drv_mode);
 409              		.loc 1 174 0
 410 000e 3100     		movs	r1, r6
 411 0010 2000     		movs	r0, r4
 412 0012 FFF7FEFF 		bl	gpio_set_drv_mode
 413              	.LVL52:
 175:..\src\system/gpio.c ****     /* Set HSIOM Configuration. */
 176:..\src\system/gpio.c ****     hsiom_set_config(port_pin, hsiom_mode);
 414              		.loc 1 176 0
 415 0016 2900     		movs	r1, r5
 416 0018 2000     		movs	r0, r4
 417 001a FFF7FEFF 		bl	hsiom_set_config
 418              	.LVL53:
 177:..\src\system/gpio.c **** }
 419              		.loc 1 177 0
 420              		@ sp needed
 421 001e 70BD     		pop	{r4, r5, r6, pc}
 422              		.cfi_endproc
 423              	.LFE39:
 424              		.size	gpio_hsiom_set_config, .-gpio_hsiom_set_config
 425              		.section	.text.gpio_set_lvttl_mode,"ax",%progbits
 426              		.align	2
 427              		.global	gpio_set_lvttl_mode
 428              		.code	16
 429              		.thumb_func
 430              		.type	gpio_set_lvttl_mode, %function
 431              	gpio_set_lvttl_mode:
 432              	.LFB40:
 178:..\src\system/gpio.c **** 
 179:..\src\system/gpio.c **** void gpio_set_lvttl_mode(uint8_t port)
 180:..\src\system/gpio.c **** {
 433              		.loc 1 180 0
 434              		.cfi_startproc
 435              		@ args = 0, pretend = 0, frame = 0
 436              		@ frame_needed = 0, uses_anonymous_args = 0
 437              		@ link register save eliminated.
 438              	.LVL54:
 181:..\src\system/gpio.c ****     GPIO[port]->pc |= GPIO_PRT_PC_PORT_VTRIP_SEL;
 439              		.loc 1 181 0
 440 0000 8000     		lsls	r0, r0, #2
 441              	.LVL55:
 442 0002 044B     		ldr	r3, .L28
 443 0004 C258     		ldr	r2, [r0, r3]
 444 0006 9368     		ldr	r3, [r2, #8]
 445 0008 8021     		movs	r1, #128
 446 000a 4904     		lsls	r1, r1, #17
ARM GAS  e:\temp\ccdyAbtO.s 			page 12


 447 000c 0B43     		orrs	r3, r1
 448 000e 9360     		str	r3, [r2, #8]
 182:..\src\system/gpio.c **** }
 449              		.loc 1 182 0
 450              		@ sp needed
 451 0010 7047     		bx	lr
 452              	.L29:
 453 0012 C046     		.align	2
 454              	.L28:
 455 0014 00000000 		.word	.LANCHOR0
 456              		.cfi_endproc
 457              	.LFE40:
 458              		.size	gpio_set_lvttl_mode, .-gpio_set_lvttl_mode
 459              		.global	HSIOM
 460              		.global	GPIO
 461              		.section	.rodata
 462              		.align	2
 463              		.set	.LANCHOR0,. + 0
 464              		.type	GPIO, %object
 465              		.size	GPIO, 24
 466              	GPIO:
 467 0000 00000440 		.word	1074003968
 468 0004 00010440 		.word	1074004224
 469 0008 00020440 		.word	1074004480
 470 000c 00030440 		.word	1074004736
 471 0010 00040440 		.word	1074004992
 472 0014 00050440 		.word	1074005248
 473              		.type	HSIOM, %object
 474              		.size	HSIOM, 24
 475              	HSIOM:
 476 0018 00000240 		.word	1073872896
 477 001c 00010240 		.word	1073873152
 478 0020 00020240 		.word	1073873408
 479 0024 00030240 		.word	1073873664
 480 0028 00040240 		.word	1073873920
 481 002c 00050240 		.word	1073874176
 482              		.text
 483              	.Letext0:
 484              		.file 2 "e:\\cypress\\psoc creator\\4.2\\psoc creator\\import\\gnu\\arm\\5.4.1\\arm-none-eabi\\inc
 485              		.file 3 "e:\\cypress\\psoc creator\\4.2\\psoc creator\\import\\gnu\\arm\\5.4.1\\arm-none-eabi\\inc
 486              		.file 4 "..\\src\\system\\ccg5_regs.h"
 487              		.file 5 "..\\src\\system\\gpio.h"