ARM GAS  e:\temp\ccOQOzxO.s 			page 1


   1              		.syntax unified
   2              		.cpu cortex-m0
   3              		.fpu softvfp
   4              		.eabi_attribute 20, 1
   5              		.eabi_attribute 21, 1
   6              		.eabi_attribute 23, 3
   7              		.eabi_attribute 24, 1
   8              		.eabi_attribute 25, 1
   9              		.eabi_attribute 26, 1
  10              		.eabi_attribute 30, 1
  11              		.eabi_attribute 34, 0
  12              		.eabi_attribute 18, 4
  13              		.thumb
  14              		.syntax unified
  15              		.file	"hal_ccgx.c"
  16              		.text
  17              	.Ltext0:
  18              		.cfi_sections	.debug_frame
  19              		.section	.text.system_init,"ax",%progbits
  20              		.align	2
  21              		.global	system_init
  22              		.code	16
  23              		.thumb_func
  24              		.type	system_init, %function
  25              	system_init:
  26              	.LFB33:
  27              		.file 1 "..\\src\\pd_hal\\hal_ccgx.c"
   1:..\src\pd_hal/hal_ccgx.c **** /**
   2:..\src\pd_hal/hal_ccgx.c ****  * @file hal_ccgx.c
   3:..\src\pd_hal/hal_ccgx.c ****  *
   4:..\src\pd_hal/hal_ccgx.c ****  * @brief @{PD and Type-C HAL layer for CCGx device family.@}
   5:..\src\pd_hal/hal_ccgx.c ****  */
   6:..\src\pd_hal/hal_ccgx.c **** 
   7:..\src\pd_hal/hal_ccgx.c **** /*
   8:..\src\pd_hal/hal_ccgx.c ****  * Copyright (2014-2018), Cypress Semiconductor Corporation or a subsidiary of
   9:..\src\pd_hal/hal_ccgx.c ****  * Cypress Semiconductor Corporation. All rights reserved.
  10:..\src\pd_hal/hal_ccgx.c ****  *
  11:..\src\pd_hal/hal_ccgx.c ****  * This software, including source code, documentation and related materials
  12:..\src\pd_hal/hal_ccgx.c ****  * (“Software”), is owned by Cypress Semiconductor Corporation or one of its
  13:..\src\pd_hal/hal_ccgx.c ****  * subsidiaries (“Cypress”) and is protected by and subject to worldwide patent
  14:..\src\pd_hal/hal_ccgx.c ****  * protection (United States and foreign), United States copyright laws and
  15:..\src\pd_hal/hal_ccgx.c ****  * international treaty provisions. Therefore, you may use this Software only
  16:..\src\pd_hal/hal_ccgx.c ****  * as provided in the license agreement accompanying the software package from
  17:..\src\pd_hal/hal_ccgx.c ****  * which you obtained this Software (“EULA”).
  18:..\src\pd_hal/hal_ccgx.c ****  *
  19:..\src\pd_hal/hal_ccgx.c ****  * If no EULA applies, Cypress hereby grants you a personal, nonexclusive,
  20:..\src\pd_hal/hal_ccgx.c ****  * non-transferable license to copy, modify, and compile the Software source
  21:..\src\pd_hal/hal_ccgx.c ****  * code solely for use in connection with Cypress’s integrated circuit
  22:..\src\pd_hal/hal_ccgx.c ****  * products. Any reproduction, modification, translation, compilation, or
  23:..\src\pd_hal/hal_ccgx.c ****  * representation of this Software except as specified above is prohibited
  24:..\src\pd_hal/hal_ccgx.c ****  * without the express written permission of Cypress. Disclaimer: THIS SOFTWARE
  25:..\src\pd_hal/hal_ccgx.c ****  * IS PROVIDED AS-IS, WITH NO WARRANTY OF ANY KIND, EXPRESS OR IMPLIED,
  26:..\src\pd_hal/hal_ccgx.c ****  * INCLUDING, BUT NOT LIMITED TO, NONINFRINGEMENT, IMPLIED WARRANTIES OF
  27:..\src\pd_hal/hal_ccgx.c ****  * MERCHANTABILITY AND FITNESS FOR A PARTICULAR PURPOSE. Cypress reserves the
  28:..\src\pd_hal/hal_ccgx.c ****  * right to make changes to the Software without notice. Cypress does not
  29:..\src\pd_hal/hal_ccgx.c ****  * assume any liability arising out of the application or use of the Software
  30:..\src\pd_hal/hal_ccgx.c ****  * or any product or circuit described in the Software. Cypress does not
ARM GAS  e:\temp\ccOQOzxO.s 			page 2


  31:..\src\pd_hal/hal_ccgx.c ****  * authorize its products for use in any products where a malfunction or
  32:..\src\pd_hal/hal_ccgx.c ****  * failure of the Cypress product may reasonably be expected to result in
  33:..\src\pd_hal/hal_ccgx.c ****  * significant property damage, injury or death (“High Risk Product”). By
  34:..\src\pd_hal/hal_ccgx.c ****  * including Cypress’s product in a High Risk Product, the manufacturer of such
  35:..\src\pd_hal/hal_ccgx.c ****  * system or application assumes all risk of such use and in doing so agrees to
  36:..\src\pd_hal/hal_ccgx.c ****  * indemnify Cypress against all liability.
  37:..\src\pd_hal/hal_ccgx.c ****  */
  38:..\src\pd_hal/hal_ccgx.c **** 
  39:..\src\pd_hal/hal_ccgx.c **** #include "config.h"
  40:..\src\pd_hal/hal_ccgx.c **** #include "hal_ccgx.h"
  41:..\src\pd_hal/hal_ccgx.c **** #include "ccgx_regs.h"
  42:..\src\pd_hal/hal_ccgx.c **** #include "pd.h"
  43:..\src\pd_hal/hal_ccgx.c **** #include "gpio.h"
  44:..\src\pd_hal/hal_ccgx.c **** #include "pdss_hal.h"
  45:..\src\pd_hal/hal_ccgx.c **** #include "timer.h"
  46:..\src\pd_hal/hal_ccgx.c **** #include "system.h"
  47:..\src\pd_hal/hal_ccgx.c **** 
  48:..\src\pd_hal/hal_ccgx.c **** #if VBUS_SCP_ENABLE
  49:..\src\pd_hal/hal_ccgx.c **** /*SCP callbacks. */
  50:..\src\pd_hal/hal_ccgx.c **** vbus_ocp_cbk_t vbus_scp_cbk[NO_OF_TYPEC_PORTS];
  51:..\src\pd_hal/hal_ccgx.c **** #endif /* VBUS_SCP_ENABLE */
  52:..\src\pd_hal/hal_ccgx.c **** 
  53:..\src\pd_hal/hal_ccgx.c **** #if VBUS_OCP_ENABLE
  54:..\src\pd_hal/hal_ccgx.c **** 
  55:..\src\pd_hal/hal_ccgx.c **** /* OCP callbacks. */
  56:..\src\pd_hal/hal_ccgx.c **** vbus_ocp_cbk_t vbus_ocp_cbk[NO_OF_TYPEC_PORTS];
  57:..\src\pd_hal/hal_ccgx.c **** 
  58:..\src\pd_hal/hal_ccgx.c **** #if ((VBUS_OCP_MODE != VBUS_OCP_MODE_EXT) && (defined(CCG3) || defined(CCG5)))
  59:..\src\pd_hal/hal_ccgx.c **** 
  60:..\src\pd_hal/hal_ccgx.c **** /*
  61:..\src\pd_hal/hal_ccgx.c ****  * Note: The high side CSA block used for Over-Current detection in CCG3 and CCG5 devices has
  62:..\src\pd_hal/hal_ccgx.c ****  * a non-linear measurement error. The error is as high as 26% at low sense voltages and reduces
  63:..\src\pd_hal/hal_ccgx.c ****  * to the order of 4% at higher sense voltages.
  64:..\src\pd_hal/hal_ccgx.c ****  *
  65:..\src\pd_hal/hal_ccgx.c ****  * The following table has been updated to prevent false Over-Current detection due to a worst
  66:..\src\pd_hal/hal_ccgx.c ****  * case positive measurement error. This means that the nominal Over-Current detection threshold
  67:..\src\pd_hal/hal_ccgx.c ****  * is set much higher than the expected value for low sense voltages.
  68:..\src\pd_hal/hal_ccgx.c ****  */
  69:..\src\pd_hal/hal_ccgx.c **** const uint8_t csa_tab[] =
  70:..\src\pd_hal/hal_ccgx.c **** /* Vsense (mv) (for 10mOhm Rsense), av1 (:3)-bw (:2), vref_sel code (6) */
  71:..\src\pd_hal/hal_ccgx.c **** {                  /* Nominal gain, Vref */
  72:..\src\pd_hal/hal_ccgx.c ****     /* 10, */  0x1F,  5,        /* 100, 1.35  */
  73:..\src\pd_hal/hal_ccgx.c ****     /* 11, */  0x1F, 19,        /* 100, 1.49  */
  74:..\src\pd_hal/hal_ccgx.c ****     /* 12, */  0x1F, 32,        /* 100, 1.62  */
  75:..\src\pd_hal/hal_ccgx.c ****     /* 13, */  0x1F, 46,        /* 100, 1.76  */
  76:..\src\pd_hal/hal_ccgx.c ****     /* 14, */  0x1F, 59,        /* 100, 1.89  */
  77:..\src\pd_hal/hal_ccgx.c ****     /* 15, */  0x1B, 12,        /* 70,  1.42  */
  78:..\src\pd_hal/hal_ccgx.c ****     /* 16, */  0x1B, 21,        /* 70,  1.51  */
  79:..\src\pd_hal/hal_ccgx.c ****     /* 17, */  0x1B, 31,        /* 70,  1.61  */
  80:..\src\pd_hal/hal_ccgx.c ****     /* 18, */  0x1B, 40,        /* 70,  1.70  */
  81:..\src\pd_hal/hal_ccgx.c ****     /* 19, */  0x1B, 50,        /* 70,  1.80  */
  82:..\src\pd_hal/hal_ccgx.c ****     /* 20, */  0x1B, 39,        /* 70,  1.69  */
  83:..\src\pd_hal/hal_ccgx.c ****     /* 21, */  0x1B, 47,        /* 70,  1.77  */
  84:..\src\pd_hal/hal_ccgx.c ****     /* 22, */  0x1B, 55,        /* 70,  1.85  */
  85:..\src\pd_hal/hal_ccgx.c ****     /* 23, */  0x1B, 63,        /* 70,  1.93  */
  86:..\src\pd_hal/hal_ccgx.c ****     /* 24, */  0x16, 15,        /* 50,  1.45  */
  87:..\src\pd_hal/hal_ccgx.c ****     /* 25, */  0x16, 15,        /* 50,  1.45  */
ARM GAS  e:\temp\ccOQOzxO.s 			page 3


  88:..\src\pd_hal/hal_ccgx.c ****     /* 26, */  0x16, 21,        /* 50,  1.51  */
  89:..\src\pd_hal/hal_ccgx.c ****     /* 27, */  0x16, 27,        /* 50,  1.57  */
  90:..\src\pd_hal/hal_ccgx.c ****     /* 28, */  0x16, 33,        /* 50,  1.63  */
  91:..\src\pd_hal/hal_ccgx.c ****     /* 29, */  0x16, 39,        /* 50,  1.69  */
  92:..\src\pd_hal/hal_ccgx.c ****     /* 30, */  0x16, 44,        /* 50,  1.74  */
  93:..\src\pd_hal/hal_ccgx.c ****     /* 31, */  0x16, 50,        /* 50,  1.80  */
  94:..\src\pd_hal/hal_ccgx.c ****     /* 32, */  0x16, 56,        /* 50,  1.86  */
  95:..\src\pd_hal/hal_ccgx.c ****     /* 33, */  0x16, 62,        /* 50,  1.92  */
  96:..\src\pd_hal/hal_ccgx.c ****     /* 34, */  0x12, 28,        /* 40,  1.58  */
  97:..\src\pd_hal/hal_ccgx.c ****     /* 35, */  0x12, 33,        /* 40,  1.63  */
  98:..\src\pd_hal/hal_ccgx.c ****     /* 36, */  0x12, 30,        /* 40,  1.60  */
  99:..\src\pd_hal/hal_ccgx.c ****     /* 37, */  0x12, 34,        /* 40,  1.64  */
 100:..\src\pd_hal/hal_ccgx.c ****     /* 38, */  0x12, 39,        /* 40,  1.69  */
 101:..\src\pd_hal/hal_ccgx.c ****     /* 39, */  0x12, 43,        /* 40,  1.73  */
 102:..\src\pd_hal/hal_ccgx.c ****     /* 40, */  0x12, 48,        /* 40,  1.78  */
 103:..\src\pd_hal/hal_ccgx.c ****     /* 41, */  0x12, 52,        /* 40,  1.82  */
 104:..\src\pd_hal/hal_ccgx.c ****     /* 42, */  0x12, 57,        /* 40,  1.87  */
 105:..\src\pd_hal/hal_ccgx.c ****     /* 43, */  0x12, 61,        /* 40,  1.91  */
 106:..\src\pd_hal/hal_ccgx.c ****     /* 44, */  0x0D, 17,        /* 30,  1.47  */
 107:..\src\pd_hal/hal_ccgx.c ****     /* 45, */  0x0D, 20,        /* 30,  1.50  */
 108:..\src\pd_hal/hal_ccgx.c ****     /* 46, */  0x0D, 23,        /* 30,  1.53  */
 109:..\src\pd_hal/hal_ccgx.c ****     /* 47, */  0x0D, 27,        /* 30,  1.57  */
 110:..\src\pd_hal/hal_ccgx.c ****     /* 48, */  0x0D, 30,        /* 30,  1.60  */
 111:..\src\pd_hal/hal_ccgx.c ****     /* 49, */  0x0D, 33,        /* 30,  1.63  */
 112:..\src\pd_hal/hal_ccgx.c ****     /* 50, */  0x0D, 37,        /* 30,  1.67  */
 113:..\src\pd_hal/hal_ccgx.c ****     /* 51, */  0x0D, 40,        /* 30,  1.70  */
 114:..\src\pd_hal/hal_ccgx.c ****     /* 52, */  0x0D, 43,        /* 30,  1.73  */
 115:..\src\pd_hal/hal_ccgx.c ****     /* 53, */  0x0D, 47,        /* 30,  1.77  */
 116:..\src\pd_hal/hal_ccgx.c ****     /* 54, */  0x0D, 44,        /* 30,  1.74  */
 117:..\src\pd_hal/hal_ccgx.c ****     /* 55, */  0x0D, 47,        /* 30,  1.77  */
 118:..\src\pd_hal/hal_ccgx.c ****     /* 56, */  0x0D, 51,        /* 30,  1.81  */
 119:..\src\pd_hal/hal_ccgx.c ****     /* 57, */  0x0D, 54,        /* 30,  1.84  */
 120:..\src\pd_hal/hal_ccgx.c ****     /* 58, */  0x0D, 57,        /* 30,  1.87  */
 121:..\src\pd_hal/hal_ccgx.c ****     /* 59, */  0x0D, 60,        /* 30,  1.90  */
 122:..\src\pd_hal/hal_ccgx.c ****     /* 60, */  0x0D, 63,        /* 30,  1.93  */
 123:..\src\pd_hal/hal_ccgx.c ****     /* 61, */  0x09,  1,        /* 20,  1.31  */
 124:..\src\pd_hal/hal_ccgx.c ****     /* 62, */  0x09,  3,        /* 20,  1.33  */
 125:..\src\pd_hal/hal_ccgx.c ****     /* 63, */  0x09,  5,        /* 20,  1.35  */
 126:..\src\pd_hal/hal_ccgx.c ****     /* 64, */  0x09,  8,        /* 20,  1.38  */
 127:..\src\pd_hal/hal_ccgx.c ****     /* 65, */  0x09, 10,        /* 20,  1.40  */
 128:..\src\pd_hal/hal_ccgx.c ****     /* 66, */  0x09, 12,        /* 20,  1.42  */
 129:..\src\pd_hal/hal_ccgx.c ****     /* 67, */  0x09, 14,        /* 20,  1.44  */
 130:..\src\pd_hal/hal_ccgx.c ****     /* 68, */  0x09, 16,        /* 20,  1.46  */
 131:..\src\pd_hal/hal_ccgx.c ****     /* 69, */  0x09, 18,        /* 20,  1.48  */
 132:..\src\pd_hal/hal_ccgx.c ****     /* 70, */  0x09, 21,        /* 20,  1.51  */
 133:..\src\pd_hal/hal_ccgx.c ****     /* 71, */  0x09, 23,        /* 20,  1.53  */
 134:..\src\pd_hal/hal_ccgx.c ****     /* 72, */  0x09, 25         /* 20,  1.55  */
 135:..\src\pd_hal/hal_ccgx.c **** 
 136:..\src\pd_hal/hal_ccgx.c **** /*
 137:..\src\pd_hal/hal_ccgx.c ****  * For an Rsense of 10 mOhm this is enough.
 138:..\src\pd_hal/hal_ccgx.c ****  * The rest of the table follows.
 139:..\src\pd_hal/hal_ccgx.c ****  */
 140:..\src\pd_hal/hal_ccgx.c **** #if 0
 141:..\src\pd_hal/hal_ccgx.c ****     /* 73,  */ 0x09, 27,        /* 20,  1.57  */
 142:..\src\pd_hal/hal_ccgx.c ****     /* 74,  */ 0x09, 29,        /* 20,  1.59  */
 143:..\src\pd_hal/hal_ccgx.c ****     /* 75,  */ 0x09, 31,        /* 20,  1.61  */
 144:..\src\pd_hal/hal_ccgx.c ****     /* 76,  */ 0x09, 33,        /* 20,  1.63  */
ARM GAS  e:\temp\ccOQOzxO.s 			page 4


 145:..\src\pd_hal/hal_ccgx.c ****     /* 77,  */ 0x09, 36,        /* 20,  1.66  */
 146:..\src\pd_hal/hal_ccgx.c ****     /* 78,  */ 0x09, 38,        /* 20,  1.68  */
 147:..\src\pd_hal/hal_ccgx.c ****     /* 79,  */ 0x09, 40,        /* 20,  1.70  */
 148:..\src\pd_hal/hal_ccgx.c ****     /* 80,  */ 0x09, 42,        /* 20,  1.72  */
 149:..\src\pd_hal/hal_ccgx.c ****     /* 81,  */ 0x09, 44,        /* 20,  1.74  */
 150:..\src\pd_hal/hal_ccgx.c ****     /* 82,  */ 0x09, 46,        /* 20,  1.76  */
 151:..\src\pd_hal/hal_ccgx.c ****     /* 83,  */ 0x09, 48,        /* 20,  1.78  */
 152:..\src\pd_hal/hal_ccgx.c ****     /* 84,  */ 0x09, 51,        /* 20,  1.81  */
 153:..\src\pd_hal/hal_ccgx.c ****     /* 85,  */ 0x09, 53,        /* 20,  1.83  */
 154:..\src\pd_hal/hal_ccgx.c ****     /* 86,  */ 0x09, 55,        /* 20,  1.85  */
 155:..\src\pd_hal/hal_ccgx.c ****     /* 87,  */ 0x09, 57,        /* 20,  1.87  */
 156:..\src\pd_hal/hal_ccgx.c ****     /* 88,  */ 0x09, 59,        /* 20,  1.89  */
 157:..\src\pd_hal/hal_ccgx.c ****     /* 89,  */ 0x09, 61,        /* 20,  1.91  */
 158:..\src\pd_hal/hal_ccgx.c ****     /* 90,  */ 0x04, 15,        /* 15,  1.45  */
 159:..\src\pd_hal/hal_ccgx.c ****     /* 91,  */ 0x04, 17,        /* 15,  1.47  */
 160:..\src\pd_hal/hal_ccgx.c ****     /* 92,  */ 0x04, 18,        /* 15,  1.48  */
 161:..\src\pd_hal/hal_ccgx.c ****     /* 93,  */ 0x04, 20,        /* 15,  1.50  */
 162:..\src\pd_hal/hal_ccgx.c ****     /* 94,  */ 0x04, 22,        /* 15,  1.52  */
 163:..\src\pd_hal/hal_ccgx.c ****     /* 95,  */ 0x04, 23,        /* 15,  1.53  */
 164:..\src\pd_hal/hal_ccgx.c ****     /* 96,  */ 0x04, 25,        /* 15,  1.55  */
 165:..\src\pd_hal/hal_ccgx.c ****     /* 97,  */ 0x04, 26,        /* 15,  1.56  */
 166:..\src\pd_hal/hal_ccgx.c ****     /* 98,  */ 0x04, 28,        /* 15,  1.58  */
 167:..\src\pd_hal/hal_ccgx.c ****     /* 99,  */ 0x04, 30,        /* 15,  1.60  */
 168:..\src\pd_hal/hal_ccgx.c ****     /* 100, */ 0x04, 31,        /* 15,  1.61  */
 169:..\src\pd_hal/hal_ccgx.c ****     /* 101, */ 0x04, 33,        /* 15,  1.63  */
 170:..\src\pd_hal/hal_ccgx.c ****     /* 102, */ 0x04, 35,        /* 15,  1.65  */
 171:..\src\pd_hal/hal_ccgx.c ****     /* 103, */ 0x04, 36,        /* 15,  1.66  */
 172:..\src\pd_hal/hal_ccgx.c ****     /* 104, */ 0x04, 38,        /* 15,  1.68  */
 173:..\src\pd_hal/hal_ccgx.c ****     /* 105, */ 0x04, 39,        /* 15,  1.69  */
 174:..\src\pd_hal/hal_ccgx.c ****     /* 106, */ 0x04, 41,        /* 15,  1.71  */
 175:..\src\pd_hal/hal_ccgx.c ****     /* 107, */ 0x04, 43,        /* 15,  1.73  */
 176:..\src\pd_hal/hal_ccgx.c ****     /* 108, */ 0x04, 44,        /* 15,  1.74  */
 177:..\src\pd_hal/hal_ccgx.c ****     /* 109, */ 0x04, 46,        /* 15,  1.76  */
 178:..\src\pd_hal/hal_ccgx.c ****     /* 110, */ 0x04, 47,        /* 15,  1.77  */
 179:..\src\pd_hal/hal_ccgx.c ****     /* 111, */ 0x04, 49,        /* 15,  1.79  */
 180:..\src\pd_hal/hal_ccgx.c ****     /* 112, */ 0x04, 51,        /* 15,  1.81  */
 181:..\src\pd_hal/hal_ccgx.c ****     /* 113, */ 0x04, 52,        /* 15,  1.82  */
 182:..\src\pd_hal/hal_ccgx.c ****     /* 114, */ 0x04, 54,        /* 15,  1.84  */
 183:..\src\pd_hal/hal_ccgx.c ****     /* 115, */ 0x04, 55,        /* 15,  1.85  */
 184:..\src\pd_hal/hal_ccgx.c ****     /* 116, */ 0x04, 57,        /* 15,  1.87  */
 185:..\src\pd_hal/hal_ccgx.c ****     /* 117, */ 0x04, 59,        /* 15,  1.89  */
 186:..\src\pd_hal/hal_ccgx.c ****     /* 118, */ 0x04, 60,        /* 15,  1.90  */
 187:..\src\pd_hal/hal_ccgx.c ****     /* 119, */ 0x04, 62,        /* 15,  1.92  */
 188:..\src\pd_hal/hal_ccgx.c ****     /* 120, */ 0x04, 63,        /* 15,  1.93  */
 189:..\src\pd_hal/hal_ccgx.c ****     /* 121, */ 0x00,  0,        /* 10,  1.30  */
 190:..\src\pd_hal/hal_ccgx.c ****     /* 122, */ 0x00,  1,        /* 10,  1.31  */
 191:..\src\pd_hal/hal_ccgx.c ****     /* 123, */ 0x00,  2,        /* 10,  1.32  */
 192:..\src\pd_hal/hal_ccgx.c ****     /* 124, */ 0x00,  3,        /* 10,  1.33  */
 193:..\src\pd_hal/hal_ccgx.c ****     /* 125, */ 0x00,  4,        /* 10,  1.34  */
 194:..\src\pd_hal/hal_ccgx.c ****     /* 126, */ 0x00,  5,        /* 10,  1.35  */
 195:..\src\pd_hal/hal_ccgx.c ****     /* 127, */ 0x00,  7,        /* 10,  1.37  */
 196:..\src\pd_hal/hal_ccgx.c ****     /* 128, */ 0x00,  8,        /* 10,  1.38  */
 197:..\src\pd_hal/hal_ccgx.c ****     /* 129, */ 0x00,  9,        /* 10,  1.39  */
 198:..\src\pd_hal/hal_ccgx.c ****     /* 130, */ 0x00, 10,        /* 10,  1.40  */
 199:..\src\pd_hal/hal_ccgx.c ****     /* 131, */ 0x00, 11,        /* 10,  1.41  */
 200:..\src\pd_hal/hal_ccgx.c ****     /* 132, */ 0x00, 12,        /* 10,  1.42  */
 201:..\src\pd_hal/hal_ccgx.c ****     /* 133, */ 0x00, 13,        /* 10,  1.43  */
ARM GAS  e:\temp\ccOQOzxO.s 			page 5


 202:..\src\pd_hal/hal_ccgx.c ****     /* 134, */ 0x00, 14,        /* 10,  1.44  */
 203:..\src\pd_hal/hal_ccgx.c ****     /* 135, */ 0x00, 15,        /* 10,  1.45  */
 204:..\src\pd_hal/hal_ccgx.c ****     /* 136, */ 0x00, 16,        /* 10,  1.46  */
 205:..\src\pd_hal/hal_ccgx.c ****     /* 137, */ 0x00, 17,        /* 10,  1.47  */
 206:..\src\pd_hal/hal_ccgx.c ****     /* 138, */ 0x00, 18,        /* 10,  1.48  */
 207:..\src\pd_hal/hal_ccgx.c ****     /* 139, */ 0x00, 19,        /* 10,  1.49  */
 208:..\src\pd_hal/hal_ccgx.c ****     /* 140, */ 0x00, 21,        /* 10,  1.51  */
 209:..\src\pd_hal/hal_ccgx.c ****     /* 141, */ 0x00, 22,        /* 10,  1.52  */
 210:..\src\pd_hal/hal_ccgx.c ****     /* 142, */ 0x00, 23,        /* 10,  1.53  */
 211:..\src\pd_hal/hal_ccgx.c ****     /* 143, */ 0x00, 24,        /* 10,  1.54  */
 212:..\src\pd_hal/hal_ccgx.c ****     /* 144, */ 0x00, 25,        /* 10,  1.55  */
 213:..\src\pd_hal/hal_ccgx.c ****     /* 145, */ 0x00, 26,        /* 10,  1.56  */
 214:..\src\pd_hal/hal_ccgx.c ****     /* 146, */ 0x00, 27,        /* 10,  1.57  */
 215:..\src\pd_hal/hal_ccgx.c ****     /* 147, */ 0x00, 28,        /* 10,  1.58  */
 216:..\src\pd_hal/hal_ccgx.c ****     /* 148, */ 0x00, 29,        /* 10,  1.59  */
 217:..\src\pd_hal/hal_ccgx.c ****     /* 149, */ 0x00, 30,        /* 10,  1.60  */
 218:..\src\pd_hal/hal_ccgx.c ****     /* 150, */ 0x00, 31,        /* 10,  1.61  */
 219:..\src\pd_hal/hal_ccgx.c ****     /* 151, */ 0x00, 32,        /* 10,  1.62  */
 220:..\src\pd_hal/hal_ccgx.c ****     /* 152, */ 0x00, 33,        /* 10,  1.63  */
 221:..\src\pd_hal/hal_ccgx.c ****     /* 153, */ 0x00, 35,        /* 10,  1.65  */
 222:..\src\pd_hal/hal_ccgx.c ****     /* 154, */ 0x00, 36,        /* 10,  1.66  */
 223:..\src\pd_hal/hal_ccgx.c ****     /* 155, */ 0x00, 37,        /* 10,  1.67  */
 224:..\src\pd_hal/hal_ccgx.c ****     /* 156, */ 0x00, 38,        /* 10,  1.68  */
 225:..\src\pd_hal/hal_ccgx.c ****     /* 157, */ 0x00, 39,        /* 10,  1.69  */
 226:..\src\pd_hal/hal_ccgx.c ****     /* 158, */ 0x00, 40,        /* 10,  1.70  */
 227:..\src\pd_hal/hal_ccgx.c ****     /* 159, */ 0x00, 41,        /* 10,  1.71  */
 228:..\src\pd_hal/hal_ccgx.c ****     /* 160, */ 0x00, 42,        /* 10,  1.72  */
 229:..\src\pd_hal/hal_ccgx.c ****     /* 161, */ 0x00, 43,        /* 10,  1.73  */
 230:..\src\pd_hal/hal_ccgx.c ****     /* 162, */ 0x00, 44,        /* 10,  1.74  */
 231:..\src\pd_hal/hal_ccgx.c ****     /* 163, */ 0x00, 45,        /* 10,  1.75  */
 232:..\src\pd_hal/hal_ccgx.c ****     /* 164, */ 0x00, 46,        /* 10,  1.76  */
 233:..\src\pd_hal/hal_ccgx.c ****     /* 165, */ 0x00, 47,        /* 10,  1.77  */
 234:..\src\pd_hal/hal_ccgx.c ****     /* 166, */ 0x00, 48,        /* 10,  1.78  */
 235:..\src\pd_hal/hal_ccgx.c ****     /* 167, */ 0x00, 50,        /* 10,  1.80  */
 236:..\src\pd_hal/hal_ccgx.c ****     /* 168, */ 0x00, 51,        /* 10,  1.81  */
 237:..\src\pd_hal/hal_ccgx.c ****     /* 169, */ 0x00, 52,        /* 10,  1.82  */
 238:..\src\pd_hal/hal_ccgx.c ****     /* 170, */ 0x00, 53,        /* 10,  1.83  */
 239:..\src\pd_hal/hal_ccgx.c ****     /* 171, */ 0x00, 54,        /* 10,  1.84  */
 240:..\src\pd_hal/hal_ccgx.c ****     /* 172, */ 0x00, 55,        /* 10,  1.85  */
 241:..\src\pd_hal/hal_ccgx.c ****     /* 173, */ 0x00, 56,        /* 10,  1.86  */
 242:..\src\pd_hal/hal_ccgx.c ****     /* 174, */ 0x00, 57,        /* 10,  1.87  */
 243:..\src\pd_hal/hal_ccgx.c ****     /* 175, */ 0x00, 58,        /* 10,  1.88  */
 244:..\src\pd_hal/hal_ccgx.c ****     /* 176, */ 0x00, 59,        /* 10,  1.89  */
 245:..\src\pd_hal/hal_ccgx.c ****     /* 177, */ 0x00, 60,        /* 10,  1.90  */
 246:..\src\pd_hal/hal_ccgx.c ****     /* 178, */ 0x00, 61,        /* 10,  1.91  */
 247:..\src\pd_hal/hal_ccgx.c ****     /* 179, */ 0x00, 62,        /* 10,  1.92  */
 248:..\src\pd_hal/hal_ccgx.c ****     /* 180, */ 0x00, 63         /* 10,  1.93  */
 249:..\src\pd_hal/hal_ccgx.c **** #endif
 250:..\src\pd_hal/hal_ccgx.c **** };
 251:..\src\pd_hal/hal_ccgx.c **** #endif /* ((VBUS_OCP_MODE != VBUS_OCP_MODE_EXT) && (defined(CCG3) || defined(CCG5))) */
 252:..\src\pd_hal/hal_ccgx.c **** 
 253:..\src\pd_hal/hal_ccgx.c **** #if (VBUS_OCP_MODE == VBUS_OCP_MODE_EXT)
 254:..\src\pd_hal/hal_ccgx.c **** 
 255:..\src\pd_hal/hal_ccgx.c **** static const gpio_port_pin_t hal_ocp_fault_pin[] = {
 256:..\src\pd_hal/hal_ccgx.c ****     APP_VBUS_OCP_PORT_PIN_P1
 257:..\src\pd_hal/hal_ccgx.c **** #if CCG_PD_DUALPORT_ENABLE
 258:..\src\pd_hal/hal_ccgx.c ****     ,
ARM GAS  e:\temp\ccOQOzxO.s 			page 6


 259:..\src\pd_hal/hal_ccgx.c ****     APP_VBUS_OCP_PORT_PIN_P2
 260:..\src\pd_hal/hal_ccgx.c **** #endif
 261:..\src\pd_hal/hal_ccgx.c **** };
 262:..\src\pd_hal/hal_ccgx.c **** 
 263:..\src\pd_hal/hal_ccgx.c **** static uint8_t hal_ocp_debounce_ms[NO_OF_TYPEC_PORTS];
 264:..\src\pd_hal/hal_ccgx.c **** 
 265:..\src\pd_hal/hal_ccgx.c **** static void ocp_handler_wrapper(uint8_t port, timer_id_t id)
 266:..\src\pd_hal/hal_ccgx.c **** {
 267:..\src\pd_hal/hal_ccgx.c ****     vbus_ocp_handler (port);
 268:..\src\pd_hal/hal_ccgx.c **** }
 269:..\src\pd_hal/hal_ccgx.c **** 
 270:..\src\pd_hal/hal_ccgx.c **** CY_ISR(vbus_ocp_port0_handler)
 271:..\src\pd_hal/hal_ccgx.c **** {
 272:..\src\pd_hal/hal_ccgx.c ****     /* Clear the interrupt. */
 273:..\src\pd_hal/hal_ccgx.c ****     gpio_clear_intr(hal_ocp_fault_pin[TYPEC_PORT_0_IDX]);
 274:..\src\pd_hal/hal_ccgx.c **** 
 275:..\src\pd_hal/hal_ccgx.c ****     if (hal_ocp_debounce_ms[TYPEC_PORT_0_IDX] == 0)
 276:..\src\pd_hal/hal_ccgx.c ****     {
 277:..\src\pd_hal/hal_ccgx.c ****         vbus_ocp_handler(TYPEC_PORT_0_IDX);
 278:..\src\pd_hal/hal_ccgx.c ****     }
 279:..\src\pd_hal/hal_ccgx.c ****     else
 280:..\src\pd_hal/hal_ccgx.c ****     {
 281:..\src\pd_hal/hal_ccgx.c ****         /* Stop looking for interrupts again and start the debounce timer. */
 282:..\src\pd_hal/hal_ccgx.c ****         gpio_int_set_config (hal_ocp_fault_pin[TYPEC_PORT_0_IDX], GPIO_INTR_DISABLE);
 283:..\src\pd_hal/hal_ccgx.c ****         timer_start(TYPEC_PORT_0_IDX, PD_OCP_DEBOUNCE_TIMER,
 284:..\src\pd_hal/hal_ccgx.c ****                 hal_ocp_debounce_ms[TYPEC_PORT_0_IDX], ocp_handler_wrapper);
 285:..\src\pd_hal/hal_ccgx.c ****     }
 286:..\src\pd_hal/hal_ccgx.c **** }
 287:..\src\pd_hal/hal_ccgx.c **** 
 288:..\src\pd_hal/hal_ccgx.c **** #if CCG_PD_DUALPORT_ENABLE
 289:..\src\pd_hal/hal_ccgx.c **** 
 290:..\src\pd_hal/hal_ccgx.c **** CY_ISR(vbus_ocp_port1_handler)
 291:..\src\pd_hal/hal_ccgx.c **** {
 292:..\src\pd_hal/hal_ccgx.c ****     /* Clear the interrupt. */
 293:..\src\pd_hal/hal_ccgx.c ****     gpio_clear_intr(hal_ocp_fault_pin[TYPEC_PORT_1_IDX]);
 294:..\src\pd_hal/hal_ccgx.c **** 
 295:..\src\pd_hal/hal_ccgx.c ****     if (hal_ocp_debounce_ms[TYPEC_PORT_1_IDX] == 0)
 296:..\src\pd_hal/hal_ccgx.c ****     {
 297:..\src\pd_hal/hal_ccgx.c ****         vbus_ocp_handler(TYPEC_PORT_1_IDX);
 298:..\src\pd_hal/hal_ccgx.c ****     }
 299:..\src\pd_hal/hal_ccgx.c ****     else
 300:..\src\pd_hal/hal_ccgx.c ****     {
 301:..\src\pd_hal/hal_ccgx.c ****         /* Stop looking for interrupts again and start the debounce timer. */
 302:..\src\pd_hal/hal_ccgx.c ****         gpio_int_set_config (hal_ocp_fault_pin[TYPEC_PORT_1_IDX], GPIO_INTR_DISABLE);
 303:..\src\pd_hal/hal_ccgx.c ****         timer_start(TYPEC_PORT_1_IDX, PD_OCP_DEBOUNCE_TIMER,
 304:..\src\pd_hal/hal_ccgx.c ****                 hal_ocp_debounce_ms[TYPEC_PORT_1_IDX], ocp_handler_wrapper);
 305:..\src\pd_hal/hal_ccgx.c ****     }
 306:..\src\pd_hal/hal_ccgx.c **** }
 307:..\src\pd_hal/hal_ccgx.c **** 
 308:..\src\pd_hal/hal_ccgx.c **** #endif /* CCG_PD_DUALPORT_ENABLE */
 309:..\src\pd_hal/hal_ccgx.c **** 
 310:..\src\pd_hal/hal_ccgx.c **** #endif /* (VBUS_OCP_MODE == VBUS_OCP_MODE_EXT) */
 311:..\src\pd_hal/hal_ccgx.c **** 
 312:..\src\pd_hal/hal_ccgx.c **** #endif /* VBUS_OCP_ENABLE */
 313:..\src\pd_hal/hal_ccgx.c **** 
 314:..\src\pd_hal/hal_ccgx.c **** /** Variable used to identify current CCG silicon revision. */
 315:..\src\pd_hal/hal_ccgx.c **** uint8_t ccg_si_revision = 0;
ARM GAS  e:\temp\ccOQOzxO.s 			page 7


 316:..\src\pd_hal/hal_ccgx.c **** 
 317:..\src\pd_hal/hal_ccgx.c **** /** Function that configures CCG device GPIOs that are used for:
 318:..\src\pd_hal/hal_ccgx.c ****     1. VBus monitoring in cases where it is done through external resistor divider.
 319:..\src\pd_hal/hal_ccgx.c ****     2. OCP fault indication GPIO where they are used.
 320:..\src\pd_hal/hal_ccgx.c ****     3. OVP trip GPIO where used.
 321:..\src\pd_hal/hal_ccgx.c ****  */
 322:..\src\pd_hal/hal_ccgx.c **** static void ccg_pwr_gpio_init(void)
 323:..\src\pd_hal/hal_ccgx.c **** {
 324:..\src\pd_hal/hal_ccgx.c **** #if (VBUS_MON_INTERNAL == 0)
 325:..\src\pd_hal/hal_ccgx.c ****     /* Connect port 0 VBUS_MON to corresponding AMUX. */
 326:..\src\pd_hal/hal_ccgx.c ****     hsiom_set_config(APP_VBUS_MON_PORT_PIN_P1, APP_VBUS_MON_AMUX_INPUT_P1);
 327:..\src\pd_hal/hal_ccgx.c **** #endif /* VBUS_MON_INTERNAL */
 328:..\src\pd_hal/hal_ccgx.c **** 
 329:..\src\pd_hal/hal_ccgx.c **** #if ((VBUS_OCP_ENABLE) && (VBUS_OCP_MODE == VBUS_OCP_MODE_EXT))
 330:..\src\pd_hal/hal_ccgx.c ****     uint8_t intr_no;
 331:..\src\pd_hal/hal_ccgx.c **** 
 332:..\src\pd_hal/hal_ccgx.c ****     /* OCP_FAULT GPIO for PD Port-0 */
 333:..\src\pd_hal/hal_ccgx.c ****     intr_no = GPIO_PORT0_INTR_NO + APP_VBUS_OCP_FAULT_PORT_NO_P1;
 334:..\src\pd_hal/hal_ccgx.c ****     /* Register sync interrupt handler. */
 335:..\src\pd_hal/hal_ccgx.c ****     CyIntDisable(intr_no);
 336:..\src\pd_hal/hal_ccgx.c ****     (void)CyIntSetVector(intr_no, &vbus_ocp_port0_handler);
 337:..\src\pd_hal/hal_ccgx.c ****     CyIntSetPriority(intr_no, 0);
 338:..\src\pd_hal/hal_ccgx.c ****     CyIntEnable(intr_no);
 339:..\src\pd_hal/hal_ccgx.c **** #endif /* ((VBUS_OCP_ENABLE) && (VBUS_OCP_MODE == VBUS_OCP_MODE_EXT)) */
 340:..\src\pd_hal/hal_ccgx.c **** 
 341:..\src\pd_hal/hal_ccgx.c **** #ifdef CCG4
 342:..\src\pd_hal/hal_ccgx.c ****     /* Route OVP comparator output to OVP trip GPIO. */
 343:..\src\pd_hal/hal_ccgx.c ****     system_connect_ovp_trip(TYPEC_PORT_0_IDX);
 344:..\src\pd_hal/hal_ccgx.c **** #endif /* CCG4 */
 345:..\src\pd_hal/hal_ccgx.c **** 
 346:..\src\pd_hal/hal_ccgx.c **** #if CCG_PD_DUALPORT_ENABLE
 347:..\src\pd_hal/hal_ccgx.c **** 
 348:..\src\pd_hal/hal_ccgx.c **** #if (VBUS_MON_INTERNAL == 0)
 349:..\src\pd_hal/hal_ccgx.c ****     /* Connect port 1 VBUS_MON to corresponding AMUX. */
 350:..\src\pd_hal/hal_ccgx.c ****     hsiom_set_config(APP_VBUS_MON_PORT_PIN_P2, APP_VBUS_MON_AMUX_INPUT_P2);
 351:..\src\pd_hal/hal_ccgx.c **** #endif /* VBUS_MON_INTERNAL */
 352:..\src\pd_hal/hal_ccgx.c **** 
 353:..\src\pd_hal/hal_ccgx.c **** #if ((VBUS_OCP_ENABLE) && (VBUS_OCP_MODE == VBUS_OCP_MODE_EXT))
 354:..\src\pd_hal/hal_ccgx.c ****     /* OCP_FAULT GPIO for PD Port-1 */
 355:..\src\pd_hal/hal_ccgx.c ****     intr_no = GPIO_PORT0_INTR_NO + APP_VBUS_OCP_FAULT_PORT_NO_P2;
 356:..\src\pd_hal/hal_ccgx.c ****     /* Register sync interrupt handler. */
 357:..\src\pd_hal/hal_ccgx.c ****     CyIntDisable(intr_no);
 358:..\src\pd_hal/hal_ccgx.c ****     (void)CyIntSetVector(intr_no, &vbus_ocp_port1_handler);
 359:..\src\pd_hal/hal_ccgx.c ****     CyIntSetPriority(intr_no, 0);
 360:..\src\pd_hal/hal_ccgx.c ****     CyIntEnable(intr_no);
 361:..\src\pd_hal/hal_ccgx.c **** #endif /* ((VBUS_OCP_ENABLE) && (VBUS_OCP_MODE == VBUS_OCP_MODE_EXT)) */
 362:..\src\pd_hal/hal_ccgx.c **** 
 363:..\src\pd_hal/hal_ccgx.c **** #ifdef CCG4
 364:..\src\pd_hal/hal_ccgx.c ****     /* Route OVP comparator output to OVP trip GPIO. */
 365:..\src\pd_hal/hal_ccgx.c ****     system_connect_ovp_trip(TYPEC_PORT_1_IDX);
 366:..\src\pd_hal/hal_ccgx.c **** #endif /* CCG4 */
 367:..\src\pd_hal/hal_ccgx.c **** 
 368:..\src\pd_hal/hal_ccgx.c **** #endif /* CCG_PD_DUALPORT_ENABLE */
 369:..\src\pd_hal/hal_ccgx.c **** }
 370:..\src\pd_hal/hal_ccgx.c **** 
 371:..\src\pd_hal/hal_ccgx.c **** void system_init(void)
 372:..\src\pd_hal/hal_ccgx.c **** {
ARM GAS  e:\temp\ccOQOzxO.s 			page 8


  28              		.loc 1 372 0
  29              		.cfi_startproc
  30              		@ args = 0, pretend = 0, frame = 0
  31              		@ frame_needed = 0, uses_anonymous_args = 0
  32 0000 70B5     		push	{r4, r5, r6, lr}
  33              		.cfi_def_cfa_offset 16
  34              		.cfi_offset 4, -16
  35              		.cfi_offset 5, -12
  36              		.cfi_offset 6, -8
  37              		.cfi_offset 14, -4
 373:..\src\pd_hal/hal_ccgx.c ****     /* Configure clocks for the PDSS IP block. */
 374:..\src\pd_hal/hal_ccgx.c **** #if (NO_OF_TYPEC_PORTS == 1)
 375:..\src\pd_hal/hal_ccgx.c ****     PERI->pclk_ctl[PDSS_PORT0_PCLK_RX_IDX]  = PDSS_PORT0_RX_CLK_DIV_ID;
 376:..\src\pd_hal/hal_ccgx.c ****     PERI->pclk_ctl[PDSS_PORT0_PCLK_TX_IDX]  = PDSS_PORT0_TX_CLK_DIV_ID;
 377:..\src\pd_hal/hal_ccgx.c ****     PERI->pclk_ctl[PDSS_PORT0_PCLK_SAR_IDX] = PDSS_PORT0_SAR_CLK_DIV_ID;
 378:..\src\pd_hal/hal_ccgx.c **** 
 379:..\src\pd_hal/hal_ccgx.c **** #if (defined(CCG3PA) || defined(CCG3PA2))
 380:..\src\pd_hal/hal_ccgx.c ****     /* CCG3PA specific clocks. */
 381:..\src\pd_hal/hal_ccgx.c ****     PERI->pclk_ctl[PDSS_PORT0_PCLK_REFGEN_IDX] = PDSS_PORTX_REFGEN_CLK_DIV_ID;
 382:..\src\pd_hal/hal_ccgx.c ****     PERI->pclk_ctl[PDSS_PORT0_PCLK_BCH_IDX]    = PDSS_PORT0_BCH_CLK_DIV_ID;
 383:..\src\pd_hal/hal_ccgx.c ****     PERI->pclk_ctl[PDSS_PORT0_PCLK_FILT1_IDX]  = PDSS_PORT0_FILT_CLK_SEL_DIV_ID;
 384:..\src\pd_hal/hal_ccgx.c ****     PERI->pclk_ctl[PDSS_PORT0_PCLK_ISINK_IDX]  = PDSS_PORT0_ISINK_CLK_DIV_ID;
 385:..\src\pd_hal/hal_ccgx.c **** #endif /* (defined(CCG3PA) || defined(CCG3PA2)) */
 386:..\src\pd_hal/hal_ccgx.c **** 
 387:..\src\pd_hal/hal_ccgx.c **** #if (defined(CCG5))
 388:..\src\pd_hal/hal_ccgx.c ****     /* CCG5 specific clocks. */
 389:..\src\pd_hal/hal_ccgx.c ****     PERI->pclk_ctl[PDSS_PORT0_PCLK_REFGEN_IDX] = PDSS_PORTX_REFGEN_CLK_DIV_ID;
 390:..\src\pd_hal/hal_ccgx.c ****     PERI->pclk_ctl[PDSS_PORT0_PCLK_FILT1_IDX]  = PDSS_PORT0_FILT1_CLK_DIV_ID;
 391:..\src\pd_hal/hal_ccgx.c **** #endif /* (defined(CCG5)) */
 392:..\src\pd_hal/hal_ccgx.c **** 
 393:..\src\pd_hal/hal_ccgx.c **** #if ((CCG_PD_REV3_ENABLE) && ((CCG_FRS_RX_ENABLE) || (CCG_FRS_TX_ENABLE)))
 394:..\src\pd_hal/hal_ccgx.c ****     PERI->pclk_ctl[PDSS_PORT0_PCLK_SWAP_IDX] = PDSS_PORT0_SWAP_CLK_DIV_ID;
 395:..\src\pd_hal/hal_ccgx.c **** #endif /*((CCG_PD_REV3_ENABLE) && ((CCG_FRS_RX_ENABLE) || (CCG_FRS_TX_ENABLE)) */
 396:..\src\pd_hal/hal_ccgx.c **** 
 397:..\src\pd_hal/hal_ccgx.c **** #elif (NO_OF_TYPEC_PORTS == 2)
 398:..\src\pd_hal/hal_ccgx.c ****     PERI->pclk_ctl[PDSS_PORT0_PCLK_RX_IDX]  = PDSS_PORT0_RX_CLK_DIV_ID;
  38              		.loc 1 398 0
  39 0002 1A4B     		ldr	r3, .L3
  40 0004 0224     		movs	r4, #2
  41 0006 8C22     		movs	r2, #140
  42 0008 5200     		lsls	r2, r2, #1
  43 000a 9C50     		str	r4, [r3, r2]
 399:..\src\pd_hal/hal_ccgx.c ****     PERI->pclk_ctl[PDSS_PORT0_PCLK_TX_IDX]  = PDSS_PORT0_TX_CLK_DIV_ID;
  44              		.loc 1 399 0
  45 000c 4020     		movs	r0, #64
  46 000e 0432     		adds	r2, r2, #4
  47 0010 9850     		str	r0, [r3, r2]
 400:..\src\pd_hal/hal_ccgx.c ****     PERI->pclk_ctl[PDSS_PORT0_PCLK_SAR_IDX] = PDSS_PORT0_SAR_CLK_DIV_ID;
  48              		.loc 1 400 0
  49 0012 0521     		movs	r1, #5
  50 0014 0432     		adds	r2, r2, #4
  51 0016 9950     		str	r1, [r3, r2]
 401:..\src\pd_hal/hal_ccgx.c **** 
 402:..\src\pd_hal/hal_ccgx.c **** #ifdef CCG5
 403:..\src\pd_hal/hal_ccgx.c ****     /* CCG5 specific clocks. */
 404:..\src\pd_hal/hal_ccgx.c ****     PERI->pclk_ctl[PDSS_PORT0_PCLK_REFGEN_IDX] = PDSS_PORTX_REFGEN_CLK_DIV_ID;
  52              		.loc 1 404 0
ARM GAS  e:\temp\ccOQOzxO.s 			page 9


  53 0018 0325     		movs	r5, #3
  54 001a 1032     		adds	r2, r2, #16
  55 001c 9D50     		str	r5, [r3, r2]
 405:..\src\pd_hal/hal_ccgx.c ****     PERI->pclk_ctl[PDSS_PORT0_PCLK_FILT1_IDX]  = PDSS_PORT0_FILT1_CLK_DIV_ID;
  56              		.loc 1 405 0
  57 001e EF3A     		subs	r2, r2, #239
  58 0020 2635     		adds	r5, r5, #38
  59 0022 FF35     		adds	r5, r5, #255
  60 0024 5A51     		str	r2, [r3, r5]
 406:..\src\pd_hal/hal_ccgx.c **** 
 407:..\src\pd_hal/hal_ccgx.c ****     /* On CCG5, we use the same clocks for both PD ports. */
 408:..\src\pd_hal/hal_ccgx.c ****     PERI->pclk_ctl[PDSS_PORT1_PCLK_RX_IDX]    = PDSS_PORT0_RX_CLK_DIV_ID;
  61              		.loc 1 408 0
  62 0026 0C35     		adds	r5, r5, #12
  63 0028 5C51     		str	r4, [r3, r5]
 409:..\src\pd_hal/hal_ccgx.c ****     PERI->pclk_ctl[PDSS_PORT1_PCLK_TX_IDX]    = PDSS_PORT0_TX_CLK_DIV_ID;
  64              		.loc 1 409 0
  65 002a 3734     		adds	r4, r4, #55
  66 002c FF34     		adds	r4, r4, #255
  67 002e 1851     		str	r0, [r3, r4]
 410:..\src\pd_hal/hal_ccgx.c ****     PERI->pclk_ctl[PDSS_PORT1_PCLK_SAR_IDX]   = PDSS_PORT0_SAR_CLK_DIV_ID;
  68              		.loc 1 410 0
  69 0030 FC30     		adds	r0, r0, #252
  70 0032 1950     		str	r1, [r3, r0]
 411:..\src\pd_hal/hal_ccgx.c ****     PERI->pclk_ctl[PDSS_PORT1_PCLK_FILT1_IDX] = PDSS_PORT0_FILT1_CLK_DIV_ID;
  71              		.loc 1 411 0
  72 0034 4031     		adds	r1, r1, #64
  73 0036 FF31     		adds	r1, r1, #255
  74 0038 5A50     		str	r2, [r3, r1]
 412:..\src\pd_hal/hal_ccgx.c **** 
 413:..\src\pd_hal/hal_ccgx.c **** #else /* !CCG5 */
 414:..\src\pd_hal/hal_ccgx.c ****     /* Using separate clocks for Ports 0 and 1 on CCG4. */
 415:..\src\pd_hal/hal_ccgx.c ****     PERI->pclk_ctl[PDSS_PORT1_PCLK_RX_IDX]  = PDSS_PORT1_RX_CLK_DIV_ID;
 416:..\src\pd_hal/hal_ccgx.c ****     PERI->pclk_ctl[PDSS_PORT1_PCLK_TX_IDX]  = PDSS_PORT1_TX_CLK_DIV_ID;
 417:..\src\pd_hal/hal_ccgx.c ****     PERI->pclk_ctl[PDSS_PORT1_PCLK_SAR_IDX] = PDSS_PORT1_SAR_CLK_DIV_ID;
 418:..\src\pd_hal/hal_ccgx.c **** #endif /* CCG5 */
 419:..\src\pd_hal/hal_ccgx.c **** 
 420:..\src\pd_hal/hal_ccgx.c **** #if ((CCG_PD_REV3_ENABLE) && ((CCG_FRS_RX_ENABLE) || (CCG_FRS_TX_ENABLE)))
 421:..\src\pd_hal/hal_ccgx.c ****     PERI->pclk_ctl[PDSS_PORT0_PCLK_SWAP_IDX] = PDSS_PORT0_SWAP_CLK_DIV_ID;
  75              		.loc 1 421 0
  76 003a 3D3A     		subs	r2, r2, #61
  77 003c 2039     		subs	r1, r1, #32
  78 003e 5A50     		str	r2, [r3, r1]
 422:..\src\pd_hal/hal_ccgx.c **** 
 423:..\src\pd_hal/hal_ccgx.c **** #ifdef CCG5
 424:..\src\pd_hal/hal_ccgx.c ****     PERI->pclk_ctl[PDSS_PORT1_PCLK_SWAP_IDX] = PDSS_PORT0_SWAP_CLK_DIV_ID;
  79              		.loc 1 424 0
  80 0040 1C31     		adds	r1, r1, #28
  81 0042 5A50     		str	r2, [r3, r1]
 425:..\src\pd_hal/hal_ccgx.c **** #else /* !CCG5 */
 426:..\src\pd_hal/hal_ccgx.c ****     PERI->pclk_ctl[PDSS_PORT1_PCLK_SWAP_IDX] = PDSS_PORT1_SWAP_CLK_DIV_ID;
 427:..\src\pd_hal/hal_ccgx.c **** #endif /* CCG5 */
 428:..\src\pd_hal/hal_ccgx.c **** 
 429:..\src\pd_hal/hal_ccgx.c **** #endif /*((CCG_PD_REV3_ENABLE) && ((CCG_FRS_RX_ENABLE) || (CCG_FRS_TX_ENABLE)) */
 430:..\src\pd_hal/hal_ccgx.c **** 
 431:..\src\pd_hal/hal_ccgx.c **** #endif /* NO_OF_TYPEC_PORTS */
 432:..\src\pd_hal/hal_ccgx.c **** 
ARM GAS  e:\temp\ccOQOzxO.s 			page 10


 433:..\src\pd_hal/hal_ccgx.c ****     /* Update configuration of various GPIOs used in power management. */
 434:..\src\pd_hal/hal_ccgx.c ****     ccg_pwr_gpio_init();
 435:..\src\pd_hal/hal_ccgx.c **** 
 436:..\src\pd_hal/hal_ccgx.c ****     /* Store the CCG silicon revision. */
 437:..\src\pd_hal/hal_ccgx.c ****     ccg_si_revision = get_silicon_revision() - CCG_SILICON_REV00_VALUE;
  82              		.loc 1 437 0
  83 0044 FFF7FEFF 		bl	get_silicon_revision
  84              	.LVL0:
  85 0048 1138     		subs	r0, r0, #17
  86 004a C0B2     		uxtb	r0, r0
  87 004c 084B     		ldr	r3, .L3+4
  88 004e 1870     		strb	r0, [r3]
 438:..\src\pd_hal/hal_ccgx.c **** #ifdef CCG5
 439:..\src\pd_hal/hal_ccgx.c ****     if (ccg_si_revision > 0)
  89              		.loc 1 439 0
  90 0050 0028     		cmp	r0, #0
  91 0052 09D0     		beq	.L1
 440:..\src\pd_hal/hal_ccgx.c ****     {
 441:..\src\pd_hal/hal_ccgx.c ****         /* For Rev *A and later silicon, we need to enable crude OVP detection on CC lines at start
 442:..\src\pd_hal/hal_ccgx.c ****         PDSS0->vconn20_ctrl |= (CCG5_CC_OVP_DET_ENABLE_VAL << PDSS_VCONN20_CTRL_T_VCONN_POS);
  92              		.loc 1 442 0
  93 0054 0748     		ldr	r0, .L3+8
  94 0056 084B     		ldr	r3, .L3+12
  95 0058 C158     		ldr	r1, [r0, r3]
  96 005a 2022     		movs	r2, #32
  97 005c 1143     		orrs	r1, r2
  98 005e C150     		str	r1, [r0, r3]
 443:..\src\pd_hal/hal_ccgx.c **** #if CCG_PD_DUALPORT_ENABLE
 444:..\src\pd_hal/hal_ccgx.c ****         PDSS1->vconn20_ctrl |= (CCG5_CC_OVP_DET_ENABLE_VAL << PDSS_VCONN20_CTRL_T_VCONN_POS);
  99              		.loc 1 444 0
 100 0060 0649     		ldr	r1, .L3+16
 101 0062 C858     		ldr	r0, [r1, r3]
 102 0064 0243     		orrs	r2, r0
 103 0066 CA50     		str	r2, [r1, r3]
 104              	.L1:
 445:..\src\pd_hal/hal_ccgx.c **** #endif /* CCG_PD_DUALPORT_ENABLE */
 446:..\src\pd_hal/hal_ccgx.c ****     }
 447:..\src\pd_hal/hal_ccgx.c **** #endif /* CCG5 */
 448:..\src\pd_hal/hal_ccgx.c **** }
 105              		.loc 1 448 0
 106              		@ sp needed
 107 0068 70BD     		pop	{r4, r5, r6, pc}
 108              	.L4:
 109 006a C046     		.align	2
 110              	.L3:
 111 006c 00000140 		.word	1073807360
 112 0070 00000000 		.word	.LANCHOR0
 113 0074 00000A40 		.word	1074397184
 114 0078 68080000 		.word	2152
 115 007c 00000B40 		.word	1074462720
 116              		.cfi_endproc
 117              	.LFE33:
 118              		.size	system_init, .-system_init
 119              		.section	.text.ccg_get_si_revision,"ax",%progbits
 120              		.align	2
 121              		.global	ccg_get_si_revision
 122              		.code	16
ARM GAS  e:\temp\ccOQOzxO.s 			page 11


 123              		.thumb_func
 124              		.type	ccg_get_si_revision, %function
 125              	ccg_get_si_revision:
 126              	.LFB34:
 449:..\src\pd_hal/hal_ccgx.c **** 
 450:..\src\pd_hal/hal_ccgx.c **** uint8_t ccg_get_si_revision(void)
 451:..\src\pd_hal/hal_ccgx.c **** {
 127              		.loc 1 451 0
 128              		.cfi_startproc
 129              		@ args = 0, pretend = 0, frame = 0
 130              		@ frame_needed = 0, uses_anonymous_args = 0
 131              		@ link register save eliminated.
 452:..\src\pd_hal/hal_ccgx.c ****     return (ccg_si_revision);
 132              		.loc 1 452 0
 133 0000 014B     		ldr	r3, .L6
 134 0002 1878     		ldrb	r0, [r3]
 453:..\src\pd_hal/hal_ccgx.c **** }
 135              		.loc 1 453 0
 136              		@ sp needed
 137 0004 7047     		bx	lr
 138              	.L7:
 139 0006 C046     		.align	2
 140              	.L6:
 141 0008 00000000 		.word	.LANCHOR0
 142              		.cfi_endproc
 143              	.LFE34:
 144              		.size	ccg_get_si_revision, .-ccg_get_si_revision
 145              		.global	__aeabi_uidiv
 146              		.section	.text.system_vbus_ocp_en,"ax",%progbits
 147              		.align	2
 148              		.global	system_vbus_ocp_en
 149              		.code	16
 150              		.thumb_func
 151              		.type	system_vbus_ocp_en, %function
 152              	system_vbus_ocp_en:
 153              	.LFB35:
 454:..\src\pd_hal/hal_ccgx.c **** 
 455:..\src\pd_hal/hal_ccgx.c **** #if VBUS_OCP_ENABLE
 456:..\src\pd_hal/hal_ccgx.c **** 
 457:..\src\pd_hal/hal_ccgx.c **** #if (VBUS_OCP_MODE == VBUS_OCP_MODE_POLLING)
 458:..\src\pd_hal/hal_ccgx.c **** extern void sln_set_ocp_params(uint8_t port, bool enable, uint32_t max_cur, uint8_t debounce);
 459:..\src\pd_hal/hal_ccgx.c **** #endif /* (VBUS_OCP_MODE == VBUS_OCP_MODE_POLLING) */
 460:..\src\pd_hal/hal_ccgx.c **** 
 461:..\src\pd_hal/hal_ccgx.c **** uint8_t system_vbus_ocp_en(uint8_t port, uint32_t cur, vbus_ocp_cbk_t cbk)
 462:..\src\pd_hal/hal_ccgx.c **** {
 154              		.loc 1 462 0
 155              		.cfi_startproc
 156              		@ args = 0, pretend = 0, frame = 0
 157              		@ frame_needed = 0, uses_anonymous_args = 0
 158              	.LVL1:
 159 0000 70B5     		push	{r4, r5, r6, lr}
 160              		.cfi_def_cfa_offset 16
 161              		.cfi_offset 4, -16
 162              		.cfi_offset 5, -12
 163              		.cfi_offset 6, -8
 164              		.cfi_offset 14, -4
 165 0002 82B0     		sub	sp, sp, #8
ARM GAS  e:\temp\ccOQOzxO.s 			page 12


 166              		.cfi_def_cfa_offset 24
 167 0004 0400     		movs	r4, r0
 168 0006 0D00     		movs	r5, r1
 463:..\src\pd_hal/hal_ccgx.c ****     if (cbk == NULL)
 169              		.loc 1 463 0
 170 0008 002A     		cmp	r2, #0
 171 000a 2ED0     		beq	.L12
 464:..\src\pd_hal/hal_ccgx.c ****     {
 465:..\src\pd_hal/hal_ccgx.c ****         return false;
 466:..\src\pd_hal/hal_ccgx.c ****     }
 467:..\src\pd_hal/hal_ccgx.c ****     vbus_ocp_cbk[port] = cbk;
 172              		.loc 1 467 0
 173 000c 8300     		lsls	r3, r0, #2
 174 000e 1849     		ldr	r1, .L14
 175              	.LVL2:
 176 0010 5A50     		str	r2, [r3, r1]
 468:..\src\pd_hal/hal_ccgx.c **** 
 469:..\src\pd_hal/hal_ccgx.c ****     /* Enable VBUS OCP protection. */
 470:..\src\pd_hal/hal_ccgx.c **** #if (VBUS_OCP_MODE == VBUS_OCP_MODE_POLLING)
 471:..\src\pd_hal/hal_ccgx.c ****     cur = cur + ((cur * pd_get_ptr_ocp_tbl(port)->threshold) / 100);
 472:..\src\pd_hal/hal_ccgx.c ****     sln_set_ocp_params (port, true, cur, pd_get_ptr_ocp_tbl(port)->debounce);
 473:..\src\pd_hal/hal_ccgx.c **** #elif (VBUS_OCP_MODE == VBUS_OCP_MODE_EXT)
 474:..\src\pd_hal/hal_ccgx.c ****     hal_ocp_debounce_ms[port] = pd_get_ptr_ocp_tbl(port)->debounce;
 475:..\src\pd_hal/hal_ccgx.c **** 
 476:..\src\pd_hal/hal_ccgx.c ****   #if (VBUS_OCP_FAULT_GPIO_POLARITY == VBUS_OCP_GPIO_ACTIVE_HIGH)
 477:..\src\pd_hal/hal_ccgx.c ****     gpio_int_set_config (hal_ocp_fault_pin[port], GPIO_INTR_RISING);
 478:..\src\pd_hal/hal_ccgx.c ****   #else /* VBUS_OCP_FAULT_GPIO_POLARITY */
 479:..\src\pd_hal/hal_ccgx.c ****     gpio_int_set_config (hal_ocp_fault_pin[port], GPIO_INTR_FALLING);
 480:..\src\pd_hal/hal_ccgx.c ****   #endif /* (VBUS_OCP_FAULT_GPIO_POLARITY == VBUS_OCP_GPIO_ACTIVE_HIGH) */
 481:..\src\pd_hal/hal_ccgx.c **** #else /* (VBUS_OCP_MODE == VBUS_OCP_MODE_EXT) */
 482:..\src\pd_hal/hal_ccgx.c **** 
 483:..\src\pd_hal/hal_ccgx.c ****   #if (defined(CCG3) || defined(CCG3PA) || defined(CCG3PA2) || defined(CCG5))
 484:..\src\pd_hal/hal_ccgx.c ****     uint32_t vsense;
 485:..\src\pd_hal/hal_ccgx.c ****     uint8_t vref_sel;
 486:..\src\pd_hal/hal_ccgx.c ****     uint8_t gain_sel;
 487:..\src\pd_hal/hal_ccgx.c **** 
 488:..\src\pd_hal/hal_ccgx.c ****     /* Apply the OCP threshold which is mentioned in percentage of rated current. */
 489:..\src\pd_hal/hal_ccgx.c ****     vsense = (cur + (cur * pd_get_ptr_ocp_tbl(port)->threshold) / 100);
 177              		.loc 1 489 0
 178 0012 FFF7FEFF 		bl	pd_get_ptr_ocp_tbl
 179              	.LVL3:
 180 0016 4078     		ldrb	r0, [r0, #1]
 181 0018 6843     		muls	r0, r5
 182 001a 6421     		movs	r1, #100
 183 001c FFF7FEFF 		bl	__aeabi_uidiv
 184              	.LVL4:
 185 0020 2D18     		adds	r5, r5, r0
 186              	.LVL5:
 187              	.LBB2:
 490:..\src\pd_hal/hal_ccgx.c **** 
 491:..\src\pd_hal/hal_ccgx.c ****     #if (defined(CCG3) || defined(CCG5))
 492:..\src\pd_hal/hal_ccgx.c ****     {
 493:..\src\pd_hal/hal_ccgx.c ****         unsigned int i = 0;
 494:..\src\pd_hal/hal_ccgx.c **** 
 495:..\src\pd_hal/hal_ccgx.c ****         /* Convert to mV, accounting for the unit of current which is 10mA. */
 496:..\src\pd_hal/hal_ccgx.c ****         vsense = (vsense * pd_get_ptr_ocp_tbl(port)->sense_res) / 100;
 188              		.loc 1 496 0
ARM GAS  e:\temp\ccOQOzxO.s 			page 13


 189 0022 2000     		movs	r0, r4
 190 0024 FFF7FEFF 		bl	pd_get_ptr_ocp_tbl
 191              	.LVL6:
 192 0028 8079     		ldrb	r0, [r0, #6]
 193 002a 6843     		muls	r0, r5
 194 002c 6421     		movs	r1, #100
 195 002e FFF7FEFF 		bl	__aeabi_uidiv
 196              	.LVL7:
 497:..\src\pd_hal/hal_ccgx.c ****         vsense = GET_MIN (vsense, VSENSE_MAX);
 197              		.loc 1 497 0
 198 0032 4828     		cmp	r0, #72
 199 0034 00D9     		bls	.L10
 200 0036 4820     		movs	r0, #72
 201              	.LVL8:
 202              	.L10:
 498:..\src\pd_hal/hal_ccgx.c ****         if (vsense < VSENSE_MIN)
 203              		.loc 1 498 0
 204 0038 0928     		cmp	r0, #9
 205 003a 02D9     		bls	.L13
 499:..\src\pd_hal/hal_ccgx.c ****         {
 500:..\src\pd_hal/hal_ccgx.c ****             i = 0;
 501:..\src\pd_hal/hal_ccgx.c ****             vsense = VSENSE_MIN;
 502:..\src\pd_hal/hal_ccgx.c ****         }
 503:..\src\pd_hal/hal_ccgx.c ****         else
 504:..\src\pd_hal/hal_ccgx.c ****         {
 505:..\src\pd_hal/hal_ccgx.c ****             i = ((vsense - VSENSE_MIN) << 1);
 206              		.loc 1 505 0
 207 003c 0A38     		subs	r0, r0, #10
 208              	.LVL9:
 209 003e 4000     		lsls	r0, r0, #1
 210              	.LVL10:
 211 0040 00E0     		b	.L11
 212              	.LVL11:
 213              	.L13:
 500:..\src\pd_hal/hal_ccgx.c ****             vsense = VSENSE_MIN;
 214              		.loc 1 500 0
 215 0042 0020     		movs	r0, #0
 216              	.LVL12:
 217              	.L11:
 506:..\src\pd_hal/hal_ccgx.c ****         }
 507:..\src\pd_hal/hal_ccgx.c **** 
 508:..\src\pd_hal/hal_ccgx.c ****         gain_sel = csa_tab[i];
 218              		.loc 1 508 0
 219 0044 0B4B     		ldr	r3, .L14+4
 220 0046 1D5C     		ldrb	r5, [r3, r0]
 221              	.LVL13:
 509:..\src\pd_hal/hal_ccgx.c ****         vref_sel = csa_tab[i + 1];
 222              		.loc 1 509 0
 223 0048 0130     		adds	r0, r0, #1
 224              	.LVL14:
 225 004a 1E5C     		ldrb	r6, [r3, r0]
 226              	.LVL15:
 227              	.LBE2:
 510:..\src\pd_hal/hal_ccgx.c ****     }
 511:..\src\pd_hal/hal_ccgx.c ****     #else /* (defined(CCG3PA) || defined(CCG3PA2)) */
 512:..\src\pd_hal/hal_ccgx.c ****     {
 513:..\src\pd_hal/hal_ccgx.c ****         /* vsense contains the current setting required in 10mA units. */
ARM GAS  e:\temp\ccOQOzxO.s 			page 14


 514:..\src\pd_hal/hal_ccgx.c ****         pd_lscsa_calc_cfg(vsense, &gain_sel, &vref_sel);
 515:..\src\pd_hal/hal_ccgx.c ****     }
 516:..\src\pd_hal/hal_ccgx.c ****     #endif /* CCGx */
 517:..\src\pd_hal/hal_ccgx.c **** 
 518:..\src\pd_hal/hal_ccgx.c ****     pd_internal_vbus_ocp_en(port, gain_sel, vref_sel, CCG_SRC_FET, VBUS_OCP_MODE,
 519:..\src\pd_hal/hal_ccgx.c ****             pd_get_ptr_ocp_tbl(port)->debounce);
 228              		.loc 1 519 0
 229 004c 2000     		movs	r0, r4
 230              	.LVL16:
 231 004e FFF7FEFF 		bl	pd_get_ptr_ocp_tbl
 232              	.LVL17:
 518:..\src\pd_hal/hal_ccgx.c ****             pd_get_ptr_ocp_tbl(port)->debounce);
 233              		.loc 1 518 0
 234 0052 8378     		ldrb	r3, [r0, #2]
 235 0054 0193     		str	r3, [sp, #4]
 236 0056 0323     		movs	r3, #3
 237 0058 0093     		str	r3, [sp]
 238 005a 023B     		subs	r3, r3, #2
 239 005c 3200     		movs	r2, r6
 240 005e 2900     		movs	r1, r5
 241 0060 2000     		movs	r0, r4
 242 0062 FFF7FEFF 		bl	pd_internal_vbus_ocp_en
 243              	.LVL18:
 520:..\src\pd_hal/hal_ccgx.c ****   #endif /* (defined(CCG3) || defined(CCG3PA) || defined(CCG3PA2) || defined(CCG5)) */
 521:..\src\pd_hal/hal_ccgx.c **** #endif /* (VBUS_OCP_MODE == VBUS_OCP_MODE_EXT) */
 522:..\src\pd_hal/hal_ccgx.c **** 
 523:..\src\pd_hal/hal_ccgx.c ****     return true;
 244              		.loc 1 523 0
 245 0066 0120     		movs	r0, #1
 246 0068 00E0     		b	.L9
 247              	.LVL19:
 248              	.L12:
 465:..\src\pd_hal/hal_ccgx.c ****     }
 249              		.loc 1 465 0
 250 006a 0020     		movs	r0, #0
 251              	.LVL20:
 252              	.L9:
 524:..\src\pd_hal/hal_ccgx.c **** }
 253              		.loc 1 524 0
 254 006c 02B0     		add	sp, sp, #8
 255              		@ sp needed
 256 006e 70BD     		pop	{r4, r5, r6, pc}
 257              	.L15:
 258              		.align	2
 259              	.L14:
 260 0070 00000000 		.word	vbus_ocp_cbk
 261 0074 00000000 		.word	.LANCHOR1
 262              		.cfi_endproc
 263              	.LFE35:
 264              		.size	system_vbus_ocp_en, .-system_vbus_ocp_en
 265              		.section	.text.system_vbus_ocp_dis,"ax",%progbits
 266              		.align	2
 267              		.global	system_vbus_ocp_dis
 268              		.code	16
 269              		.thumb_func
 270              		.type	system_vbus_ocp_dis, %function
 271              	system_vbus_ocp_dis:
ARM GAS  e:\temp\ccOQOzxO.s 			page 15


 272              	.LFB36:
 525:..\src\pd_hal/hal_ccgx.c **** 
 526:..\src\pd_hal/hal_ccgx.c **** uint8_t system_vbus_ocp_dis(uint8_t port)
 527:..\src\pd_hal/hal_ccgx.c **** {
 273              		.loc 1 527 0
 274              		.cfi_startproc
 275              		@ args = 0, pretend = 0, frame = 0
 276              		@ frame_needed = 0, uses_anonymous_args = 0
 277              	.LVL21:
 278 0000 10B5     		push	{r4, lr}
 279              		.cfi_def_cfa_offset 8
 280              		.cfi_offset 4, -8
 281              		.cfi_offset 14, -4
 282 0002 0400     		movs	r4, r0
 528:..\src\pd_hal/hal_ccgx.c **** #if (VBUS_OCP_MODE == VBUS_OCP_MODE_POLLING)
 529:..\src\pd_hal/hal_ccgx.c ****     sln_set_ocp_params(port, false, 0, 0);
 530:..\src\pd_hal/hal_ccgx.c **** #elif (VBUS_OCP_MODE == VBUS_OCP_MODE_EXT)
 531:..\src\pd_hal/hal_ccgx.c ****     hal_ocp_debounce_ms[port] = 0;
 532:..\src\pd_hal/hal_ccgx.c ****     gpio_int_set_config(hal_ocp_fault_pin[port], GPIO_INTR_DISABLE);
 533:..\src\pd_hal/hal_ccgx.c **** #else /* VBUS_OCP_MODE */
 534:..\src\pd_hal/hal_ccgx.c ****   #if (defined(CCG3) || defined(CCG3PA) || defined(CCG3PA2) || defined(CCG5))
 535:..\src\pd_hal/hal_ccgx.c ****     pd_internal_vbus_ocp_dis(port, CCG_SRC_FET);
 283              		.loc 1 535 0
 284 0004 0121     		movs	r1, #1
 285 0006 FFF7FEFF 		bl	pd_internal_vbus_ocp_dis
 286              	.LVL22:
 536:..\src\pd_hal/hal_ccgx.c ****   #endif /* (defined(CCG3) || defined(CCG3PA) || defined(CCG3PA2) || defined(CCG5)) */
 537:..\src\pd_hal/hal_ccgx.c **** #endif /* (VBUS_OCP_MODE == VBUS_OCP_MODE_EXT) */
 538:..\src\pd_hal/hal_ccgx.c **** 
 539:..\src\pd_hal/hal_ccgx.c ****     vbus_ocp_cbk[port] = NULL;
 287              		.loc 1 539 0
 288 000a A400     		lsls	r4, r4, #2
 289 000c 0022     		movs	r2, #0
 290 000e 024B     		ldr	r3, .L17
 291 0010 E250     		str	r2, [r4, r3]
 540:..\src\pd_hal/hal_ccgx.c ****     return true;
 541:..\src\pd_hal/hal_ccgx.c **** }
 292              		.loc 1 541 0
 293 0012 0120     		movs	r0, #1
 294              		@ sp needed
 295 0014 10BD     		pop	{r4, pc}
 296              	.L18:
 297 0016 C046     		.align	2
 298              	.L17:
 299 0018 00000000 		.word	vbus_ocp_cbk
 300              		.cfi_endproc
 301              	.LFE36:
 302              		.size	system_vbus_ocp_dis, .-system_vbus_ocp_dis
 303              		.section	.text.vbus_ocp_handler,"ax",%progbits
 304              		.align	2
 305              		.global	vbus_ocp_handler
 306              		.code	16
 307              		.thumb_func
 308              		.type	vbus_ocp_handler, %function
 309              	vbus_ocp_handler:
 310              	.LFB37:
 542:..\src\pd_hal/hal_ccgx.c **** 
ARM GAS  e:\temp\ccOQOzxO.s 			page 16


 543:..\src\pd_hal/hal_ccgx.c **** #endif /* VBUS_OCP_ENABLE */
 544:..\src\pd_hal/hal_ccgx.c **** 
 545:..\src\pd_hal/hal_ccgx.c **** void vbus_ocp_handler(uint8_t port)
 546:..\src\pd_hal/hal_ccgx.c **** {
 311              		.loc 1 546 0
 312              		.cfi_startproc
 313              		@ args = 0, pretend = 0, frame = 0
 314              		@ frame_needed = 0, uses_anonymous_args = 0
 315              	.LVL23:
 316 0000 10B5     		push	{r4, lr}
 317              		.cfi_def_cfa_offset 8
 318              		.cfi_offset 4, -8
 319              		.cfi_offset 14, -4
 547:..\src\pd_hal/hal_ccgx.c **** #if VBUS_OCP_ENABLE
 548:..\src\pd_hal/hal_ccgx.c **** 
 549:..\src\pd_hal/hal_ccgx.c **** #if (VBUS_OCP_MODE == VBUS_OCP_MODE_POLLING)
 550:..\src\pd_hal/hal_ccgx.c ****     if (vbus_ocp_cbk[port] != NULL)
 551:..\src\pd_hal/hal_ccgx.c ****     {
 552:..\src\pd_hal/hal_ccgx.c ****         vbus_ocp_cbk[port](port);
 553:..\src\pd_hal/hal_ccgx.c ****     }
 554:..\src\pd_hal/hal_ccgx.c **** #elif (VBUS_OCP_MODE == VBUS_OCP_MODE_EXT)
 555:..\src\pd_hal/hal_ccgx.c ****     gpio_port_pin_t pin = hal_ocp_fault_pin[port];
 556:..\src\pd_hal/hal_ccgx.c **** 
 557:..\src\pd_hal/hal_ccgx.c ****     /* Check if the pin is still indicating fault. */
 558:..\src\pd_hal/hal_ccgx.c ****   #if (VBUS_OCP_FAULT_GPIO_POLARITY == VBUS_OCP_GPIO_ACTIVE_HIGH)
 559:..\src\pd_hal/hal_ccgx.c ****     if (gpio_read_value(pin) != false)
 560:..\src\pd_hal/hal_ccgx.c ****     {
 561:..\src\pd_hal/hal_ccgx.c ****         if (vbus_ocp_cbk[port] != NULL)
 562:..\src\pd_hal/hal_ccgx.c ****         {
 563:..\src\pd_hal/hal_ccgx.c ****             vbus_ocp_cbk[port](port);
 564:..\src\pd_hal/hal_ccgx.c ****         }
 565:..\src\pd_hal/hal_ccgx.c ****     }
 566:..\src\pd_hal/hal_ccgx.c ****     else
 567:..\src\pd_hal/hal_ccgx.c ****     {
 568:..\src\pd_hal/hal_ccgx.c ****         /* Re-enable the interrupt on the pin. */
 569:..\src\pd_hal/hal_ccgx.c ****         gpio_int_set_config(pin, GPIO_INTR_RISING);
 570:..\src\pd_hal/hal_ccgx.c ****     }
 571:..\src\pd_hal/hal_ccgx.c ****   #else /* (VBUS_OCP_FAULT_GPIO_POLARITY == VBUS_OCP_GPIO_ACTIVE_HIGH) */
 572:..\src\pd_hal/hal_ccgx.c ****     if (gpio_read_value(pin) == false)
 573:..\src\pd_hal/hal_ccgx.c ****     {
 574:..\src\pd_hal/hal_ccgx.c ****         if (vbus_ocp_cbk[port] != NULL)
 575:..\src\pd_hal/hal_ccgx.c ****         {
 576:..\src\pd_hal/hal_ccgx.c ****             vbus_ocp_cbk[port](port);
 577:..\src\pd_hal/hal_ccgx.c ****         }
 578:..\src\pd_hal/hal_ccgx.c ****     }
 579:..\src\pd_hal/hal_ccgx.c ****     else
 580:..\src\pd_hal/hal_ccgx.c ****     {
 581:..\src\pd_hal/hal_ccgx.c ****         /* Re-enable the interrupt on the pin. */
 582:..\src\pd_hal/hal_ccgx.c ****         gpio_int_set_config(pin, GPIO_INTR_FALLING);
 583:..\src\pd_hal/hal_ccgx.c ****     }
 584:..\src\pd_hal/hal_ccgx.c ****   #endif /* (VBUS_OCP_FAULT_GPIO_POLARITY == VBUS_OCP_GPIO_ACTIVE_HIGH) */
 585:..\src\pd_hal/hal_ccgx.c **** #else /* VBUS_OCP_MODE */
 586:..\src\pd_hal/hal_ccgx.c **** 
 587:..\src\pd_hal/hal_ccgx.c ****   #if (defined(CCG3) || defined(CCG3PA) || defined(CCG3PA2) || defined(CCG5))
 588:..\src\pd_hal/hal_ccgx.c ****     if (vbus_ocp_cbk[port] != NULL)
 320              		.loc 1 588 0
 321 0002 8200     		lsls	r2, r0, #2
ARM GAS  e:\temp\ccOQOzxO.s 			page 17


 322 0004 024B     		ldr	r3, .L21
 323 0006 D358     		ldr	r3, [r2, r3]
 324 0008 002B     		cmp	r3, #0
 325 000a 00D0     		beq	.L19
 589:..\src\pd_hal/hal_ccgx.c ****     {
 590:..\src\pd_hal/hal_ccgx.c ****         vbus_ocp_cbk[port](port);
 326              		.loc 1 590 0
 327 000c 9847     		blx	r3
 328              	.LVL24:
 329              	.L19:
 591:..\src\pd_hal/hal_ccgx.c ****     }
 592:..\src\pd_hal/hal_ccgx.c ****   #endif /* (defined(CCG3) || defined(CCG3PA) || defined(CCG3PA2) || defined(CCG5)) */
 593:..\src\pd_hal/hal_ccgx.c **** 
 594:..\src\pd_hal/hal_ccgx.c **** #endif /* (VBUS_OCP_MODE == VBUS_OCP_MODE_EXT) */
 595:..\src\pd_hal/hal_ccgx.c **** #endif /* VBUS_OCP_ENABLE */
 596:..\src\pd_hal/hal_ccgx.c **** }
 330              		.loc 1 596 0
 331              		@ sp needed
 332 000e 10BD     		pop	{r4, pc}
 333              	.L22:
 334              		.align	2
 335              	.L21:
 336 0010 00000000 		.word	vbus_ocp_cbk
 337              		.cfi_endproc
 338              	.LFE37:
 339              		.size	vbus_ocp_handler, .-vbus_ocp_handler
 340              		.section	.text.system_disconnect_ovp_trip,"ax",%progbits
 341              		.align	2
 342              		.global	system_disconnect_ovp_trip
 343              		.code	16
 344              		.thumb_func
 345              		.type	system_disconnect_ovp_trip, %function
 346              	system_disconnect_ovp_trip:
 347              	.LFB38:
 597:..\src\pd_hal/hal_ccgx.c **** 
 598:..\src\pd_hal/hal_ccgx.c **** #if VBUS_SCP_ENABLE
 599:..\src\pd_hal/hal_ccgx.c **** uint8_t system_vbus_scp_en(uint8_t port, uint32_t cur, vbus_ocp_cbk_t cbk)
 600:..\src\pd_hal/hal_ccgx.c **** {
 601:..\src\pd_hal/hal_ccgx.c ****     uint32_t vsense;
 602:..\src\pd_hal/hal_ccgx.c ****     uint8_t debounce;
 603:..\src\pd_hal/hal_ccgx.c **** 
 604:..\src\pd_hal/hal_ccgx.c ****     debounce = pd_get_ptr_scp_tbl(port)->debounce;
 605:..\src\pd_hal/hal_ccgx.c ****     /* Assumming 500KHz clock */
 606:..\src\pd_hal/hal_ccgx.c ****     debounce = (debounce > 0x40) ? 0x20 : ((debounce+1) >> 1);
 607:..\src\pd_hal/hal_ccgx.c **** 
 608:..\src\pd_hal/hal_ccgx.c ****     if (cbk == NULL)
 609:..\src\pd_hal/hal_ccgx.c ****     {
 610:..\src\pd_hal/hal_ccgx.c ****         return false;
 611:..\src\pd_hal/hal_ccgx.c ****     }
 612:..\src\pd_hal/hal_ccgx.c **** 
 613:..\src\pd_hal/hal_ccgx.c ****     vbus_scp_cbk[port] = cbk;
 614:..\src\pd_hal/hal_ccgx.c ****     
 615:..\src\pd_hal/hal_ccgx.c ****     /*
 616:..\src\pd_hal/hal_ccgx.c ****      * SCP Current threshold shall be a fixed value instead of a function of
 617:..\src\pd_hal/hal_ccgx.c ****      * negotiated current. Setting it to 7.5 A for now.
 618:..\src\pd_hal/hal_ccgx.c ****      */
 619:..\src\pd_hal/hal_ccgx.c ****     cur = 1000; // 150% of 10A is 15A
ARM GAS  e:\temp\ccOQOzxO.s 			page 18


 620:..\src\pd_hal/hal_ccgx.c **** 
 621:..\src\pd_hal/hal_ccgx.c ****     /* Get the current threshold for SCP. */
 622:..\src\pd_hal/hal_ccgx.c ****     vsense = (cur + (cur * pd_get_ptr_scp_tbl(port)->threshold) / 100);
 623:..\src\pd_hal/hal_ccgx.c **** 
 624:..\src\pd_hal/hal_ccgx.c ****     /* Convert into mV. */
 625:..\src\pd_hal/hal_ccgx.c ****     vsense = (vsense * VBUS_CSA_RSENSE) / 1000;
 626:..\src\pd_hal/hal_ccgx.c **** 
 627:..\src\pd_hal/hal_ccgx.c ****     pd_internal_vbus_scp_en (port, vsense, debounce, CCG_SRC_FET, VBUS_SCP_MODE);
 628:..\src\pd_hal/hal_ccgx.c ****     return true;
 629:..\src\pd_hal/hal_ccgx.c **** }
 630:..\src\pd_hal/hal_ccgx.c **** 
 631:..\src\pd_hal/hal_ccgx.c **** uint8_t system_vbus_scp_dis(uint8_t port)
 632:..\src\pd_hal/hal_ccgx.c **** {
 633:..\src\pd_hal/hal_ccgx.c ****     pd_internal_vbus_scp_dis (port, CCG_SRC_FET);
 634:..\src\pd_hal/hal_ccgx.c **** 
 635:..\src\pd_hal/hal_ccgx.c ****     vbus_scp_cbk[port] = NULL;
 636:..\src\pd_hal/hal_ccgx.c ****     return true;
 637:..\src\pd_hal/hal_ccgx.c **** }
 638:..\src\pd_hal/hal_ccgx.c **** 
 639:..\src\pd_hal/hal_ccgx.c **** void vbus_scp_handler(uint8_t port)
 640:..\src\pd_hal/hal_ccgx.c **** {
 641:..\src\pd_hal/hal_ccgx.c ****     if (vbus_scp_cbk[port] != NULL)
 642:..\src\pd_hal/hal_ccgx.c ****     {
 643:..\src\pd_hal/hal_ccgx.c ****         vbus_scp_cbk[port](port);
 644:..\src\pd_hal/hal_ccgx.c ****     }
 645:..\src\pd_hal/hal_ccgx.c **** }
 646:..\src\pd_hal/hal_ccgx.c **** #endif /* VBUS_SCP_ENABLE */
 647:..\src\pd_hal/hal_ccgx.c **** 
 648:..\src\pd_hal/hal_ccgx.c **** void system_disconnect_ovp_trip(uint8_t port)
 649:..\src\pd_hal/hal_ccgx.c **** {
 348              		.loc 1 649 0
 349              		.cfi_startproc
 350              		@ args = 0, pretend = 0, frame = 0
 351              		@ frame_needed = 0, uses_anonymous_args = 0
 352              		@ link register save eliminated.
 353              	.LVL25:
 650:..\src\pd_hal/hal_ccgx.c **** #ifdef CCG4
 651:..\src\pd_hal/hal_ccgx.c **** #if ((VBUS_OVP_ENABLE != 0) && (VBUS_OVP_TRIP_ENABLE != 0))
 652:..\src\pd_hal/hal_ccgx.c ****     uint8_t intr_state = CyEnterCriticalSection();
 653:..\src\pd_hal/hal_ccgx.c ****     /*
 654:..\src\pd_hal/hal_ccgx.c ****      * The VBUS OVP trip pin for port1 on the CCG4 EVK can only connect to
 655:..\src\pd_hal/hal_ccgx.c ****      * comparator 0. Configure the HSIOM appropriately. Also certain revision
 656:..\src\pd_hal/hal_ccgx.c ****      * of CCG4 EVK has OVP trip circuit polarity reversed and ovp trip won't work
 657:..\src\pd_hal/hal_ccgx.c ****      * on these boards.
 658:..\src\pd_hal/hal_ccgx.c ****      */
 659:..\src\pd_hal/hal_ccgx.c ****     if(port == TYPEC_PORT_0_IDX)
 660:..\src\pd_hal/hal_ccgx.c ****     {
 661:..\src\pd_hal/hal_ccgx.c ****         /* Drive GPIO, Actual comparator HW output is opposite of  pd_adc_get_comparator_status() r
 662:..\src\pd_hal/hal_ccgx.c ****         gpio_set_value (APP_VBUS_OVP_TRIP_PORT_PIN_P1, (pd_adc_get_comparator_status (port, APP_OVP
 663:..\src\pd_hal/hal_ccgx.c **** 
 664:..\src\pd_hal/hal_ccgx.c ****         /* Set HSIOM Configuration. */
 665:..\src\pd_hal/hal_ccgx.c ****         hsiom_set_config (APP_VBUS_OVP_TRIP_PORT_PIN_P1, HSIOM_MODE_GPIO);
 666:..\src\pd_hal/hal_ccgx.c **** 
 667:..\src\pd_hal/hal_ccgx.c ****     }
 668:..\src\pd_hal/hal_ccgx.c **** 
 669:..\src\pd_hal/hal_ccgx.c **** #if CCG_PD_DUALPORT_ENABLE
 670:..\src\pd_hal/hal_ccgx.c ****     if(port == TYPEC_PORT_1_IDX)
ARM GAS  e:\temp\ccOQOzxO.s 			page 19


 671:..\src\pd_hal/hal_ccgx.c ****     {
 672:..\src\pd_hal/hal_ccgx.c ****         /* Drive GPIO, Actual comparator HW output is opposite of  pd_adc_get_comparator_status() r
 673:..\src\pd_hal/hal_ccgx.c ****         gpio_set_value (APP_VBUS_OVP_TRIP_PORT_PIN_P2, (pd_adc_get_comparator_status (port, APP_OVP
 674:..\src\pd_hal/hal_ccgx.c **** 
 675:..\src\pd_hal/hal_ccgx.c ****         /* Set HSIOM Configuration. */
 676:..\src\pd_hal/hal_ccgx.c ****         hsiom_set_config (APP_VBUS_OVP_TRIP_PORT_PIN_P2, HSIOM_MODE_GPIO);
 677:..\src\pd_hal/hal_ccgx.c ****     }
 678:..\src\pd_hal/hal_ccgx.c **** #endif /* CCG_PD_DUALPORT_ENABLE */
 679:..\src\pd_hal/hal_ccgx.c **** 
 680:..\src\pd_hal/hal_ccgx.c ****     CyExitCriticalSection(intr_state);
 681:..\src\pd_hal/hal_ccgx.c **** #endif /* ((VBUS_OVP_ENABLE != 0) && (VBUS_OVP_TRIP_ENABLE != 0)) */
 682:..\src\pd_hal/hal_ccgx.c **** #endif /* CCG4*/
 683:..\src\pd_hal/hal_ccgx.c **** 
 684:..\src\pd_hal/hal_ccgx.c **** }
 354              		.loc 1 684 0
 355              		@ sp needed
 356 0000 7047     		bx	lr
 357              		.cfi_endproc
 358              	.LFE38:
 359              		.size	system_disconnect_ovp_trip, .-system_disconnect_ovp_trip
 360 0002 C046     		.section	.text.system_connect_ovp_trip,"ax",%progbits
 361              		.align	2
 362              		.global	system_connect_ovp_trip
 363              		.code	16
 364              		.thumb_func
 365              		.type	system_connect_ovp_trip, %function
 366              	system_connect_ovp_trip:
 367              	.LFB39:
 685:..\src\pd_hal/hal_ccgx.c **** 
 686:..\src\pd_hal/hal_ccgx.c **** void system_connect_ovp_trip(uint8_t port)
 687:..\src\pd_hal/hal_ccgx.c **** {
 368              		.loc 1 687 0
 369              		.cfi_startproc
 370              		@ args = 0, pretend = 0, frame = 0
 371              		@ frame_needed = 0, uses_anonymous_args = 0
 372              		@ link register save eliminated.
 373              	.LVL26:
 688:..\src\pd_hal/hal_ccgx.c **** #ifdef CCG4
 689:..\src\pd_hal/hal_ccgx.c **** #if ((VBUS_OVP_ENABLE != 0) && (VBUS_OVP_TRIP_ENABLE != 0))
 690:..\src\pd_hal/hal_ccgx.c ****     uint8_t intr_state = CyEnterCriticalSection();
 691:..\src\pd_hal/hal_ccgx.c ****     /*
 692:..\src\pd_hal/hal_ccgx.c ****      * The VBUS OVP trip pin for port1 on the CCG4 EVK can only connect to
 693:..\src\pd_hal/hal_ccgx.c ****      * comparator 0. Configure the HSIOM appropriately. Also certain revision
 694:..\src\pd_hal/hal_ccgx.c ****      * of CCG4 EVK has OVP trip circuit polarity reversed and ovp trip won't work
 695:..\src\pd_hal/hal_ccgx.c ****      * on these boards.
 696:..\src\pd_hal/hal_ccgx.c ****      */
 697:..\src\pd_hal/hal_ccgx.c ****     if(port == TYPEC_PORT_0_IDX)
 698:..\src\pd_hal/hal_ccgx.c ****     {
 699:..\src\pd_hal/hal_ccgx.c ****         /* Set Drive Mode of GPIO. */
 700:..\src\pd_hal/hal_ccgx.c ****         gpio_set_drv_mode (APP_VBUS_OVP_TRIP_PORT_PIN_P1, GPIO_DM_STRONG);
 701:..\src\pd_hal/hal_ccgx.c ****         /* Set HSIOM Configuration. */
 702:..\src\pd_hal/hal_ccgx.c ****         hsiom_set_config (APP_VBUS_OVP_TRIP_PORT_PIN_P1, APP_VBUS_OVP_TRIP_HSIOM_P1);
 703:..\src\pd_hal/hal_ccgx.c **** 
 704:..\src\pd_hal/hal_ccgx.c ****     }
 705:..\src\pd_hal/hal_ccgx.c **** 
 706:..\src\pd_hal/hal_ccgx.c **** #if CCG_PD_DUALPORT_ENABLE
 707:..\src\pd_hal/hal_ccgx.c ****     if(port == TYPEC_PORT_1_IDX)
ARM GAS  e:\temp\ccOQOzxO.s 			page 20


 708:..\src\pd_hal/hal_ccgx.c ****     {
 709:..\src\pd_hal/hal_ccgx.c ****         /* Set Drive Mode of GPIO. */
 710:..\src\pd_hal/hal_ccgx.c ****         gpio_set_drv_mode (APP_VBUS_OVP_TRIP_PORT_PIN_P2, GPIO_DM_STRONG);
 711:..\src\pd_hal/hal_ccgx.c ****         /* Set HSIOM Configuration. */
 712:..\src\pd_hal/hal_ccgx.c ****         hsiom_set_config (APP_VBUS_OVP_TRIP_PORT_PIN_P2, APP_VBUS_OVP_TRIP_HSIOM_P2);
 713:..\src\pd_hal/hal_ccgx.c ****     }
 714:..\src\pd_hal/hal_ccgx.c **** #endif /* CCG_PD_DUALPORT_ENABLE */
 715:..\src\pd_hal/hal_ccgx.c **** 
 716:..\src\pd_hal/hal_ccgx.c ****     CyExitCriticalSection(intr_state);
 717:..\src\pd_hal/hal_ccgx.c **** #endif /* ((VBUS_OVP_ENABLE != 0) && (VBUS_OVP_TRIP_ENABLE != 0)) */
 718:..\src\pd_hal/hal_ccgx.c **** #endif /* CCG4*/
 719:..\src\pd_hal/hal_ccgx.c **** }
 374              		.loc 1 719 0
 375              		@ sp needed
 376 0000 7047     		bx	lr
 377              		.cfi_endproc
 378              	.LFE39:
 379              		.size	system_connect_ovp_trip, .-system_connect_ovp_trip
 380              		.global	ccg_si_revision
 381              		.global	csa_tab
 382              		.comm	vbus_ocp_cbk,8,4
 383 0002 C046     		.section	.rodata
 384              		.align	2
 385              		.set	.LANCHOR1,. + 0
 386              		.type	csa_tab, %object
 387              		.size	csa_tab, 126
 388              	csa_tab:
 389 0000 1F       		.byte	31
 390 0001 05       		.byte	5
 391 0002 1F       		.byte	31
 392 0003 13       		.byte	19
 393 0004 1F       		.byte	31
 394 0005 20       		.byte	32
 395 0006 1F       		.byte	31
 396 0007 2E       		.byte	46
 397 0008 1F       		.byte	31
 398 0009 3B       		.byte	59
 399 000a 1B       		.byte	27
 400 000b 0C       		.byte	12
 401 000c 1B       		.byte	27
 402 000d 15       		.byte	21
 403 000e 1B       		.byte	27
 404 000f 1F       		.byte	31
 405 0010 1B       		.byte	27
 406 0011 28       		.byte	40
 407 0012 1B       		.byte	27
 408 0013 32       		.byte	50
 409 0014 1B       		.byte	27
 410 0015 27       		.byte	39
 411 0016 1B       		.byte	27
 412 0017 2F       		.byte	47
 413 0018 1B       		.byte	27
 414 0019 37       		.byte	55
 415 001a 1B       		.byte	27
 416 001b 3F       		.byte	63
 417 001c 16       		.byte	22
 418 001d 0F       		.byte	15
ARM GAS  e:\temp\ccOQOzxO.s 			page 21


 419 001e 16       		.byte	22
 420 001f 0F       		.byte	15
 421 0020 16       		.byte	22
 422 0021 15       		.byte	21
 423 0022 16       		.byte	22
 424 0023 1B       		.byte	27
 425 0024 16       		.byte	22
 426 0025 21       		.byte	33
 427 0026 16       		.byte	22
 428 0027 27       		.byte	39
 429 0028 16       		.byte	22
 430 0029 2C       		.byte	44
 431 002a 16       		.byte	22
 432 002b 32       		.byte	50
 433 002c 16       		.byte	22
 434 002d 38       		.byte	56
 435 002e 16       		.byte	22
 436 002f 3E       		.byte	62
 437 0030 12       		.byte	18
 438 0031 1C       		.byte	28
 439 0032 12       		.byte	18
 440 0033 21       		.byte	33
 441 0034 12       		.byte	18
 442 0035 1E       		.byte	30
 443 0036 12       		.byte	18
 444 0037 22       		.byte	34
 445 0038 12       		.byte	18
 446 0039 27       		.byte	39
 447 003a 12       		.byte	18
 448 003b 2B       		.byte	43
 449 003c 12       		.byte	18
 450 003d 30       		.byte	48
 451 003e 12       		.byte	18
 452 003f 34       		.byte	52
 453 0040 12       		.byte	18
 454 0041 39       		.byte	57
 455 0042 12       		.byte	18
 456 0043 3D       		.byte	61
 457 0044 0D       		.byte	13
 458 0045 11       		.byte	17
 459 0046 0D       		.byte	13
 460 0047 14       		.byte	20
 461 0048 0D       		.byte	13
 462 0049 17       		.byte	23
 463 004a 0D       		.byte	13
 464 004b 1B       		.byte	27
 465 004c 0D       		.byte	13
 466 004d 1E       		.byte	30
 467 004e 0D       		.byte	13
 468 004f 21       		.byte	33
 469 0050 0D       		.byte	13
 470 0051 25       		.byte	37
 471 0052 0D       		.byte	13
 472 0053 28       		.byte	40
 473 0054 0D       		.byte	13
 474 0055 2B       		.byte	43
 475 0056 0D       		.byte	13
ARM GAS  e:\temp\ccOQOzxO.s 			page 22


 476 0057 2F       		.byte	47
 477 0058 0D       		.byte	13
 478 0059 2C       		.byte	44
 479 005a 0D       		.byte	13
 480 005b 2F       		.byte	47
 481 005c 0D       		.byte	13
 482 005d 33       		.byte	51
 483 005e 0D       		.byte	13
 484 005f 36       		.byte	54
 485 0060 0D       		.byte	13
 486 0061 39       		.byte	57
 487 0062 0D       		.byte	13
 488 0063 3C       		.byte	60
 489 0064 0D       		.byte	13
 490 0065 3F       		.byte	63
 491 0066 09       		.byte	9
 492 0067 01       		.byte	1
 493 0068 09       		.byte	9
 494 0069 03       		.byte	3
 495 006a 09       		.byte	9
 496 006b 05       		.byte	5
 497 006c 09       		.byte	9
 498 006d 08       		.byte	8
 499 006e 09       		.byte	9
 500 006f 0A       		.byte	10
 501 0070 09       		.byte	9
 502 0071 0C       		.byte	12
 503 0072 09       		.byte	9
 504 0073 0E       		.byte	14
 505 0074 09       		.byte	9
 506 0075 10       		.byte	16
 507 0076 09       		.byte	9
 508 0077 12       		.byte	18
 509 0078 09       		.byte	9
 510 0079 15       		.byte	21
 511 007a 09       		.byte	9
 512 007b 17       		.byte	23
 513 007c 09       		.byte	9
 514 007d 19       		.byte	25
 515              		.bss
 516              		.set	.LANCHOR0,. + 0
 517              		.type	ccg_si_revision, %object
 518              		.size	ccg_si_revision, 1
 519              	ccg_si_revision:
 520 0000 00       		.space	1
 521              		.text
 522              	.Letext0:
 523              		.file 2 "e:\\cypress\\psoc creator\\4.2\\psoc creator\\import\\gnu\\arm\\5.4.1\\arm-none-eabi\\inc
 524              		.file 3 "e:\\cypress\\psoc creator\\4.2\\psoc creator\\import\\gnu\\arm\\5.4.1\\arm-none-eabi\\inc
 525              		.file 4 "..\\src\\pd_hal\\hal_ccgx.h"
 526              		.file 5 "..\\src\\system/ccg5_regs.h"
 527              		.file 6 "..\\src\\system/system.h"
 528              		.file 7 "..\\src\\pd_common/pd.h"
 529              		.file 8 "..\\src\\pd_hal\\pdss_hal.h"