ARM GAS  e:\temp\cc4YJHBF.s 			page 1


   1              		.syntax unified
   2              		.cpu cortex-m0
   3              		.fpu softvfp
   4              		.eabi_attribute 20, 1
   5              		.eabi_attribute 21, 1
   6              		.eabi_attribute 23, 3
   7              		.eabi_attribute 24, 1
   8              		.eabi_attribute 25, 1
   9              		.eabi_attribute 26, 1
  10              		.eabi_attribute 30, 1
  11              		.eabi_attribute 34, 0
  12              		.eabi_attribute 18, 4
  13              		.thumb
  14              		.syntax unified
  15              		.file	"instrumentation.c"
  16              		.text
  17              	.Ltext0:
  18              		.cfi_sections	.debug_frame
  19              		.section	.text.watchdog_timer_cb,"ax",%progbits
  20              		.align	2
  21              		.global	watchdog_timer_cb
  22              		.code	16
  23              		.thumb_func
  24              		.type	watchdog_timer_cb, %function
  25              	watchdog_timer_cb:
  26              	.LFB32:
  27              		.file 1 "..\\common\\instrumentation.c"
   1:..\common/instrumentation.c **** /**
   2:..\common/instrumentation.c ****  * @file instrumentation.c
   3:..\common/instrumentation.c ****  *
   4:..\common/instrumentation.c ****  * @brief @{Source file containing application level instrumentation code.
   5:..\common/instrumentation.c ****  *
   6:..\common/instrumentation.c ****  * This USB-PD port controller application supports high level instrumentation
   7:..\common/instrumentation.c ****  * to track the task execution latencies and runtime stack usage. This source
   8:..\common/instrumentation.c ****  * file contains the code associated with these functions.@}
   9:..\common/instrumentation.c ****  */
  10:..\common/instrumentation.c **** 
  11:..\common/instrumentation.c **** /*
  12:..\common/instrumentation.c ****  * Copyright (2016-2018), Cypress Semiconductor Corporation or a subsidiary of
  13:..\common/instrumentation.c ****  * Cypress Semiconductor Corporation. All rights reserved.
  14:..\common/instrumentation.c ****  *
  15:..\common/instrumentation.c ****  * This software, including source code, documentation and related materials
  16:..\common/instrumentation.c ****  * (“Software”), is owned by Cypress Semiconductor Corporation or one of its
  17:..\common/instrumentation.c ****  * subsidiaries (“Cypress”) and is protected by and subject to worldwide patent
  18:..\common/instrumentation.c ****  * protection (United States and foreign), United States copyright laws and
  19:..\common/instrumentation.c ****  * international treaty provisions. Therefore, you may use this Software only
  20:..\common/instrumentation.c ****  * as provided in the license agreement accompanying the software package from
  21:..\common/instrumentation.c ****  * which you obtained this Software (“EULA”).
  22:..\common/instrumentation.c ****  *
  23:..\common/instrumentation.c ****  * If no EULA applies, Cypress hereby grants you a personal, nonexclusive,
  24:..\common/instrumentation.c ****  * non-transferable license to copy, modify, and compile the Software source
  25:..\common/instrumentation.c ****  * code solely for use in connection with Cypress’s integrated circuit
  26:..\common/instrumentation.c ****  * products. Any reproduction, modification, translation, compilation, or
  27:..\common/instrumentation.c ****  * representation of this Software except as specified above is prohibited
  28:..\common/instrumentation.c ****  * without the express written permission of Cypress. Disclaimer: THIS SOFTWARE
  29:..\common/instrumentation.c ****  * IS PROVIDED AS-IS, WITH NO WARRANTY OF ANY KIND, EXPRESS OR IMPLIED,
  30:..\common/instrumentation.c ****  * INCLUDING, BUT NOT LIMITED TO, NONINFRINGEMENT, IMPLIED WARRANTIES OF
ARM GAS  e:\temp\cc4YJHBF.s 			page 2


  31:..\common/instrumentation.c ****  * MERCHANTABILITY AND FITNESS FOR A PARTICULAR PURPOSE. Cypress reserves the
  32:..\common/instrumentation.c ****  * right to make changes to the Software without notice. Cypress does not
  33:..\common/instrumentation.c ****  * assume any liability arising out of the application or use of the Software
  34:..\common/instrumentation.c ****  * or any product or circuit described in the Software. Cypress does not
  35:..\common/instrumentation.c ****  * authorize its products for use in any products where a malfunction or
  36:..\common/instrumentation.c ****  * failure of the Cypress product may reasonably be expected to result in
  37:..\common/instrumentation.c ****  * significant property damage, injury or death (“High Risk Product”). By
  38:..\common/instrumentation.c ****  * including Cypress’s product in a High Risk Product, the manufacturer of such
  39:..\common/instrumentation.c ****  * system or application assumes all risk of such use and in doing so agrees to
  40:..\common/instrumentation.c ****  * indemnify Cypress against all liability.
  41:..\common/instrumentation.c ****  */
  42:..\common/instrumentation.c **** 
  43:..\common/instrumentation.c **** #include <project.h>
  44:..\common/instrumentation.c **** #include <flash_config.h>
  45:..\common/instrumentation.c **** #include <system.h>
  46:..\common/instrumentation.c **** #include <app.h>
  47:..\common/instrumentation.c **** #include <timer.h>
  48:..\common/instrumentation.c **** #include <hpi.h>
  49:..\common/instrumentation.c **** #include <boot.h>
  50:..\common/instrumentation.c **** #include <flash.h>
  51:..\common/instrumentation.c **** #include <status.h>
  52:..\common/instrumentation.c **** #include <utils.h>
  53:..\common/instrumentation.c **** #include <gpio.h>
  54:..\common/instrumentation.c **** 
  55:..\common/instrumentation.c **** /* Run-time stack lower limit defined in linker script. */
  56:..\common/instrumentation.c **** extern int __cy_stack_limit;
  57:..\common/instrumentation.c **** 
  58:..\common/instrumentation.c **** #if RESET_ON_ERROR_ENABLE
  59:..\common/instrumentation.c **** 
  60:..\common/instrumentation.c **** /* RAM based signature and offset used to check whether reset data is valid. */
  61:..\common/instrumentation.c **** #define RESET_DATA_VALID_OFFSET         (0)
  62:..\common/instrumentation.c **** #define RESET_DATA_VALID_SIG            (0xDEADBEEF)
  63:..\common/instrumentation.c **** 
  64:..\common/instrumentation.c **** /* RAM based signature and offset used to check whether watchdog reset has happened. */
  65:..\common/instrumentation.c **** #define WATCHDOG_RESET_OFFSET           (1)
  66:..\common/instrumentation.c **** #define WATCHDOG_RESET_SIG              (0xC003300C)
  67:..\common/instrumentation.c **** 
  68:..\common/instrumentation.c **** /* RAM offset where the watchdog reset count is maintained. */
  69:..\common/instrumentation.c **** #define RESET_COUNT_OFFSET              (2)
  70:..\common/instrumentation.c **** 
  71:..\common/instrumentation.c **** /* Size of the reset tracking data structure in DWORDs. */
  72:..\common/instrumentation.c **** #define RESET_DATA_STRUCT_SIZE          (3)
  73:..\common/instrumentation.c **** 
  74:..\common/instrumentation.c **** /* Address of the run-time instrumentation data structure. */
  75:..\common/instrumentation.c ****          uint32_t *gRunTimeDataAddr = (uint32_t *)CYDEV_SRAM_BASE;
  76:..\common/instrumentation.c **** 
  77:..\common/instrumentation.c **** /* Variable used to identify whether main loop has been run. */
  78:..\common/instrumentation.c **** volatile uint32_t gMainLoopDelay = 0;
  79:..\common/instrumentation.c **** 
  80:..\common/instrumentation.c **** /* Margin (in ms) available until watchdog reset. */
  81:..\common/instrumentation.c **** volatile uint16_t gMinResetMargin = WATCHDOG_RESET_PERIOD_MS;
  82:..\common/instrumentation.c **** 
  83:..\common/instrumentation.c **** /* Timer callback to reset device if main loop has not been run as expected. */
  84:..\common/instrumentation.c **** void watchdog_timer_cb (
  85:..\common/instrumentation.c ****     uint8_t port,
  86:..\common/instrumentation.c ****     timer_id_t id)
  87:..\common/instrumentation.c **** {
ARM GAS  e:\temp\cc4YJHBF.s 			page 3


  28              		.loc 1 87 0
  29              		.cfi_startproc
  30              		@ args = 0, pretend = 0, frame = 0
  31              		@ frame_needed = 0, uses_anonymous_args = 0
  32              	.LVL0:
  33 0000 10B5     		push	{r4, lr}
  34              		.cfi_def_cfa_offset 8
  35              		.cfi_offset 4, -8
  36              		.cfi_offset 14, -4
  88:..\common/instrumentation.c ****     /*
  89:..\common/instrumentation.c ****      * It is possible that this timer is the only reason for the device to wake from sleep.
  90:..\common/instrumentation.c ****      * Hence allow two consecutive timer expiries before resetting the device.
  91:..\common/instrumentation.c ****      */
  92:..\common/instrumentation.c ****     gMainLoopDelay++;
  37              		.loc 1 92 0
  38 0002 0A4B     		ldr	r3, .L3
  39 0004 1A68     		ldr	r2, [r3]
  40 0006 0132     		adds	r2, r2, #1
  41 0008 1A60     		str	r2, [r3]
  93:..\common/instrumentation.c ****     if (gMainLoopDelay >= 2)
  42              		.loc 1 93 0
  43 000a 1B68     		ldr	r3, [r3]
  44 000c 012B     		cmp	r3, #1
  45 000e 05D9     		bls	.L2
  94:..\common/instrumentation.c ****     {
  95:..\common/instrumentation.c ****         /* Store the reset signature into RAM. */
  96:..\common/instrumentation.c ****         gRunTimeDataAddr[WATCHDOG_RESET_OFFSET] = WATCHDOG_RESET_SIG;
  46              		.loc 1 96 0
  47 0010 074B     		ldr	r3, .L3+4
  48 0012 1B68     		ldr	r3, [r3]
  49 0014 074A     		ldr	r2, .L3+8
  50 0016 5A60     		str	r2, [r3, #4]
  97:..\common/instrumentation.c ****         CySoftwareReset ();
  51              		.loc 1 97 0
  52 0018 FFF7FEFF 		bl	CySoftwareReset
  53              	.LVL1:
  54              	.L2:
  98:..\common/instrumentation.c ****     }
  99:..\common/instrumentation.c **** 
 100:..\common/instrumentation.c ****     /* Start the timer again. */
 101:..\common/instrumentation.c ****     timer_start (0, WATCHDOG_TIMER_ID, WATCHDOG_RESET_PERIOD_MS, watchdog_timer_cb);
  55              		.loc 1 101 0
  56 001c 064B     		ldr	r3, .L3+12
  57 001e 074A     		ldr	r2, .L3+16
  58 0020 D021     		movs	r1, #208
  59 0022 0020     		movs	r0, #0
  60 0024 FFF7FEFF 		bl	timer_start
  61              	.LVL2:
 102:..\common/instrumentation.c **** }
  62              		.loc 1 102 0
  63              		@ sp needed
  64 0028 10BD     		pop	{r4, pc}
  65              	.L4:
  66 002a C046     		.align	2
  67              	.L3:
  68 002c 00000000 		.word	.LANCHOR0
  69 0030 00000000 		.word	.LANCHOR1
ARM GAS  e:\temp\cc4YJHBF.s 			page 4


  70 0034 0C3003C0 		.word	-1073532916
  71 0038 00000000 		.word	watchdog_timer_cb
  72 003c EE020000 		.word	750
  73              		.cfi_endproc
  74              	.LFE32:
  75              		.size	watchdog_timer_cb, .-watchdog_timer_cb
  76              		.section	.text.instrumentation_init,"ax",%progbits
  77              		.align	2
  78              		.global	instrumentation_init
  79              		.code	16
  80              		.thumb_func
  81              		.type	instrumentation_init, %function
  82              	instrumentation_init:
  83              	.LFB33:
 103:..\common/instrumentation.c **** 
 104:..\common/instrumentation.c **** #endif /* RESET_ON_ERROR_ENABLE */
 105:..\common/instrumentation.c **** 
 106:..\common/instrumentation.c **** #if STACK_USAGE_CHECK_ENABLE
 107:..\common/instrumentation.c ****     
 108:..\common/instrumentation.c **** /*
 109:..\common/instrumentation.c ****  * Minimum run-time stack usage value. This many bytes at the top of the stack
 110:..\common/instrumentation.c ****  * will not be tracked for usage.
 111:..\common/instrumentation.c ****  */
 112:..\common/instrumentation.c **** #define MIN_STACK_USAGE     (128u)
 113:..\common/instrumentation.c **** 
 114:..\common/instrumentation.c **** /* Signature used to track stack usage. */
 115:..\common/instrumentation.c **** #define STACK_UNUSED_SIG    (0x00555500)
 116:..\common/instrumentation.c **** 
 117:..\common/instrumentation.c **** /* Address of the bottom location of the run-time stack. */
 118:..\common/instrumentation.c ****          uint32_t *gStackBottom  = (uint32_t *)CYDEV_SRAM_BASE;
 119:..\common/instrumentation.c **** volatile uint16_t gMinStackMargin   = 0;
 120:..\common/instrumentation.c **** 
 121:..\common/instrumentation.c **** #endif /* STACK_USAGE_CHECK_ENABLE */
 122:..\common/instrumentation.c **** 
 123:..\common/instrumentation.c **** void instrumentation_init(void)
 124:..\common/instrumentation.c **** {
  84              		.loc 1 124 0
  85              		.cfi_startproc
  86              		@ args = 0, pretend = 0, frame = 0
  87              		@ frame_needed = 0, uses_anonymous_args = 0
  88 0000 10B5     		push	{r4, lr}
  89              		.cfi_def_cfa_offset 8
  90              		.cfi_offset 4, -8
  91              		.cfi_offset 14, -4
  92              	.LVL3:
 125:..\common/instrumentation.c ****     uint32_t wdr_cnt = 0;
 126:..\common/instrumentation.c ****     (void)wdr_cnt;
 127:..\common/instrumentation.c **** 
 128:..\common/instrumentation.c **** #if STACK_USAGE_CHECK_ENABLE
 129:..\common/instrumentation.c ****     uint32_t *addr_p;
 130:..\common/instrumentation.c **** 
 131:..\common/instrumentation.c ****     /* Store the stack bottom location. */
 132:..\common/instrumentation.c ****     gStackBottom = (uint32_t *)&__cy_stack_limit;
 133:..\common/instrumentation.c **** #if RESET_ON_ERROR_ENABLE
 134:..\common/instrumentation.c ****     /* If we have watchdog reset tracking enabled, the lowest twelve bytes of stack cannot be used.
 135:..\common/instrumentation.c ****     gStackBottom += RESET_DATA_STRUCT_SIZE;
 136:..\common/instrumentation.c **** #endif /* RESET_ON_ERROR_ENABLE */
ARM GAS  e:\temp\cc4YJHBF.s 			page 5


 137:..\common/instrumentation.c **** 
 138:..\common/instrumentation.c ****     /* Fill the stack memory with unused signature. */
 139:..\common/instrumentation.c ****     for (addr_p = gStackBottom; addr_p < (uint32_t *)((CYDEV_SRAM_BASE + CYDEV_SRAM_SIZE) - MIN_STA
 140:..\common/instrumentation.c ****     {
 141:..\common/instrumentation.c ****         *addr_p = STACK_UNUSED_SIG;
 142:..\common/instrumentation.c ****     }
 143:..\common/instrumentation.c ****     
 144:..\common/instrumentation.c ****     /* Initialize the stack margin value. */
 145:..\common/instrumentation.c ****     gMinStackMargin = (uint16_t)((uint32_t)addr_p - (uint32_t)gStackBottom);
 146:..\common/instrumentation.c **** 
 147:..\common/instrumentation.c **** #if CCG_HPI_ENABLE
 148:..\common/instrumentation.c ****     hpi_set_reserved_reg_37 (gMinStackMargin);
 149:..\common/instrumentation.c **** #endif /* CCG_HPI_ENABLE */
 150:..\common/instrumentation.c **** 
 151:..\common/instrumentation.c **** #endif /* STACK_USAGE_CHECK_ENABLE */
 152:..\common/instrumentation.c **** 
 153:..\common/instrumentation.c **** #if RESET_ON_ERROR_ENABLE
 154:..\common/instrumentation.c ****     gRunTimeDataAddr = (uint32_t *)&__cy_stack_limit;
  93              		.loc 1 154 0
  94 0002 124B     		ldr	r3, .L10
  95 0004 124A     		ldr	r2, .L10+4
  96 0006 1360     		str	r3, [r2]
 155:..\common/instrumentation.c ****     if (gRunTimeDataAddr[RESET_DATA_VALID_OFFSET] == RESET_DATA_VALID_SIG)
  97              		.loc 1 155 0
  98 0008 1A68     		ldr	r2, [r3]
  99 000a 124B     		ldr	r3, .L10+8
 100 000c 9A42     		cmp	r2, r3
 101 000e 07D1     		bne	.L8
 156:..\common/instrumentation.c ****     {
 157:..\common/instrumentation.c ****         wdr_cnt = gRunTimeDataAddr[RESET_COUNT_OFFSET];
 102              		.loc 1 157 0
 103 0010 0E4B     		ldr	r3, .L10
 104 0012 9C68     		ldr	r4, [r3, #8]
 105              	.LVL4:
 158:..\common/instrumentation.c ****         if (gRunTimeDataAddr[WATCHDOG_RESET_OFFSET] == WATCHDOG_RESET_SIG)
 106              		.loc 1 158 0
 107 0014 5A68     		ldr	r2, [r3, #4]
 108 0016 104B     		ldr	r3, .L10+12
 109 0018 9A42     		cmp	r2, r3
 110 001a 02D1     		bne	.L6
 159:..\common/instrumentation.c ****             wdr_cnt++;
 111              		.loc 1 159 0
 112 001c 0134     		adds	r4, r4, #1
 113              	.LVL5:
 114 001e 00E0     		b	.L6
 115              	.LVL6:
 116              	.L8:
 125:..\common/instrumentation.c ****     (void)wdr_cnt;
 117              		.loc 1 125 0
 118 0020 0024     		movs	r4, #0
 119              	.LVL7:
 120              	.L6:
 160:..\common/instrumentation.c ****     }
 161:..\common/instrumentation.c **** 
 162:..\common/instrumentation.c ****     /*
 163:..\common/instrumentation.c ****      * Store the reset data valid signature and current reset count.
 164:..\common/instrumentation.c ****      * Also clear the reset detected signature.
ARM GAS  e:\temp\cc4YJHBF.s 			page 6


 165:..\common/instrumentation.c ****      */
 166:..\common/instrumentation.c ****     gRunTimeDataAddr[RESET_DATA_VALID_OFFSET] = RESET_DATA_VALID_SIG;
 121              		.loc 1 166 0
 122 0022 0A4B     		ldr	r3, .L10
 123 0024 0B4A     		ldr	r2, .L10+8
 124 0026 1A60     		str	r2, [r3]
 167:..\common/instrumentation.c ****     gRunTimeDataAddr[WATCHDOG_RESET_OFFSET]   = 0;
 125              		.loc 1 167 0
 126 0028 0022     		movs	r2, #0
 127 002a 5A60     		str	r2, [r3, #4]
 168:..\common/instrumentation.c ****     gRunTimeDataAddr[RESET_COUNT_OFFSET]      = wdr_cnt;
 128              		.loc 1 168 0
 129 002c 9C60     		str	r4, [r3, #8]
 169:..\common/instrumentation.c ****     
 170:..\common/instrumentation.c ****     gMinResetMargin = 2 * WATCHDOG_RESET_PERIOD_MS;
 130              		.loc 1 170 0
 131 002e 084B     		ldr	r3, .L10+4
 132 0030 0A4A     		ldr	r2, .L10+16
 133 0032 9A80     		strh	r2, [r3, #4]
 171:..\common/instrumentation.c **** 
 172:..\common/instrumentation.c **** #if CCG_HPI_ENABLE
 173:..\common/instrumentation.c ****     hpi_set_reserved_reg_35 (gMinResetMargin);
 134              		.loc 1 173 0
 135 0034 9888     		ldrh	r0, [r3, #4]
 136 0036 80B2     		uxth	r0, r0
 137 0038 FFF7FEFF 		bl	hpi_set_reserved_reg_35
 138              	.LVL8:
 174:..\common/instrumentation.c **** #endif /* CCG_HPI_ENABLE */
 175:..\common/instrumentation.c **** 
 176:..\common/instrumentation.c **** #endif /* RESET_ON_ERROR_ENABLE */
 177:..\common/instrumentation.c **** 
 178:..\common/instrumentation.c **** #if ((CCG_HPI_ENABLE) && (HPI_WATCHDOG_RESET_ENABLE))
 179:..\common/instrumentation.c ****     /* Store the reset count into the HPI register. */
 180:..\common/instrumentation.c ****     if (wdr_cnt > 0xFFu)
 139              		.loc 1 180 0
 140 003c FF2C     		cmp	r4, #255
 141 003e 00D9     		bls	.L7
 181:..\common/instrumentation.c ****         wdr_cnt = 0xFFu;
 142              		.loc 1 181 0
 143 0040 FF24     		movs	r4, #255
 144              	.LVL9:
 145              	.L7:
 182:..\common/instrumentation.c ****     hpi_set_reset_count (wdr_cnt);
 146              		.loc 1 182 0
 147 0042 E0B2     		uxtb	r0, r4
 148 0044 FFF7FEFF 		bl	hpi_set_reset_count
 149              	.LVL10:
 183:..\common/instrumentation.c **** #endif /* CCG_HPI_ENABLE */
 184:..\common/instrumentation.c **** }
 150              		.loc 1 184 0
 151              		@ sp needed
 152              	.LVL11:
 153 0048 10BD     		pop	{r4, pc}
 154              	.L11:
 155 004a C046     		.align	2
 156              	.L10:
 157 004c 00000000 		.word	__cy_stack_limit
ARM GAS  e:\temp\cc4YJHBF.s 			page 7


 158 0050 00000000 		.word	.LANCHOR1
 159 0054 EFBEADDE 		.word	-559038737
 160 0058 0C3003C0 		.word	-1073532916
 161 005c DC050000 		.word	1500
 162              		.cfi_endproc
 163              	.LFE33:
 164              		.size	instrumentation_init, .-instrumentation_init
 165              		.section	.text.instrumentation_start,"ax",%progbits
 166              		.align	2
 167              		.global	instrumentation_start
 168              		.code	16
 169              		.thumb_func
 170              		.type	instrumentation_start, %function
 171              	instrumentation_start:
 172              	.LFB34:
 185:..\common/instrumentation.c **** 
 186:..\common/instrumentation.c **** void instrumentation_start(void)
 187:..\common/instrumentation.c **** {
 173              		.loc 1 187 0
 174              		.cfi_startproc
 175              		@ args = 0, pretend = 0, frame = 0
 176              		@ frame_needed = 0, uses_anonymous_args = 0
 177 0000 10B5     		push	{r4, lr}
 178              		.cfi_def_cfa_offset 8
 179              		.cfi_offset 4, -8
 180              		.cfi_offset 14, -4
 188:..\common/instrumentation.c **** #if RESET_ON_ERROR_ENABLE
 189:..\common/instrumentation.c ****     /* Start the timer used for watchdog reset. */
 190:..\common/instrumentation.c ****     timer_start (0, WATCHDOG_TIMER_ID, WATCHDOG_RESET_PERIOD_MS, watchdog_timer_cb);
 181              		.loc 1 190 0
 182 0002 034B     		ldr	r3, .L13
 183 0004 034A     		ldr	r2, .L13+4
 184 0006 D021     		movs	r1, #208
 185 0008 0020     		movs	r0, #0
 186 000a FFF7FEFF 		bl	timer_start
 187              	.LVL12:
 191:..\common/instrumentation.c **** #endif /* RESET_ON_ERROR_ENABLE */
 192:..\common/instrumentation.c **** }
 188              		.loc 1 192 0
 189              		@ sp needed
 190 000e 10BD     		pop	{r4, pc}
 191              	.L14:
 192              		.align	2
 193              	.L13:
 194 0010 00000000 		.word	watchdog_timer_cb
 195 0014 EE020000 		.word	750
 196              		.cfi_endproc
 197              	.LFE34:
 198              		.size	instrumentation_start, .-instrumentation_start
 199              		.section	.text.instrumentation_task,"ax",%progbits
 200              		.align	2
 201              		.global	instrumentation_task
 202              		.code	16
 203              		.thumb_func
 204              		.type	instrumentation_task, %function
 205              	instrumentation_task:
 206              	.LFB35:
ARM GAS  e:\temp\cc4YJHBF.s 			page 8


 193:..\common/instrumentation.c **** 
 194:..\common/instrumentation.c **** void instrumentation_task(void)
 195:..\common/instrumentation.c **** {
 207              		.loc 1 195 0
 208              		.cfi_startproc
 209              		@ args = 0, pretend = 0, frame = 0
 210              		@ frame_needed = 0, uses_anonymous_args = 0
 211              		@ link register save eliminated.
 196:..\common/instrumentation.c **** #if STACK_USAGE_CHECK_ENABLE
 197:..\common/instrumentation.c ****     uint32_t *addr_p = gStackBottom;
 198:..\common/instrumentation.c **** #endif /* STACK_USAGE_CHECK_ENABLE */
 199:..\common/instrumentation.c **** 
 200:..\common/instrumentation.c **** #if RESET_ON_ERROR_ENABLE
 201:..\common/instrumentation.c **** 
 202:..\common/instrumentation.c ****     /* Clear the variable to indicate main loop has been run. */
 203:..\common/instrumentation.c ****     gMainLoopDelay = 0;
 212              		.loc 1 203 0
 213 0000 0022     		movs	r2, #0
 214 0002 014B     		ldr	r3, .L16
 215 0004 1A60     		str	r2, [r3]
 204:..\common/instrumentation.c **** 
 205:..\common/instrumentation.c **** #if CALCULATE_TIMER_MARGINS
 206:..\common/instrumentation.c ****     /* Calculate how much time is left before device could get reset. */
 207:..\common/instrumentation.c ****     gMinResetMargin = GET_MIN(gMinResetMargin,
 208:..\common/instrumentation.c ****             ((1 - gMainLoopDelay) * WATCHDOG_RESET_PERIOD_MS) + timer_get_count(0, WATCHDOG_TIMER_I
 209:..\common/instrumentation.c **** #if CCG_HPI_ENABLE
 210:..\common/instrumentation.c ****     hpi_set_reserved_reg_35 (gMinResetMargin);
 211:..\common/instrumentation.c **** #endif /* CCG_HPI_ENABLE */
 212:..\common/instrumentation.c **** 
 213:..\common/instrumentation.c ****     /* Stop and restart the timer. */
 214:..\common/instrumentation.c ****     timer_stop (0, WATCHDOG_TIMER_ID);
 215:..\common/instrumentation.c ****     timer_start (0, WATCHDOG_TIMER_ID, WATCHDOG_RESET_PERIOD_MS, watchdog_timer_cb);
 216:..\common/instrumentation.c **** #endif /* CALCULATE_TIMER_MARGINS */
 217:..\common/instrumentation.c **** 
 218:..\common/instrumentation.c **** #endif /* RESET_ON_ERROR_ENABLE */
 219:..\common/instrumentation.c **** 
 220:..\common/instrumentation.c **** #if STACK_USAGE_CHECK_ENABLE
 221:..\common/instrumentation.c ****     for (addr_p = gStackBottom; addr_p < (uint32_t *)((CYDEV_SRAM_BASE + CYDEV_SRAM_SIZE) - MIN_STA
 222:..\common/instrumentation.c ****     {
 223:..\common/instrumentation.c ****         if (*addr_p != STACK_UNUSED_SIG)
 224:..\common/instrumentation.c ****         {
 225:..\common/instrumentation.c ****             break;
 226:..\common/instrumentation.c ****         }
 227:..\common/instrumentation.c ****     }
 228:..\common/instrumentation.c ****     
 229:..\common/instrumentation.c ****     /* Calculate the minimum stack availability margin and update debug register. */
 230:..\common/instrumentation.c ****     gMinStackMargin = GET_MIN(gMinStackMargin, ((uint32_t)addr_p - (uint32_t)gStackBottom));
 231:..\common/instrumentation.c **** #if CCG_HPI_ENABLE
 232:..\common/instrumentation.c ****     hpi_set_reserved_reg_37(gMinStackMargin);
 233:..\common/instrumentation.c **** #endif /* CCG_HPI_ENABLE */
 234:..\common/instrumentation.c **** 
 235:..\common/instrumentation.c **** #endif /* STACK_USAGE_CHECK_ENABLE */
 236:..\common/instrumentation.c **** }
 216              		.loc 1 236 0
 217              		@ sp needed
 218 0006 7047     		bx	lr
 219              	.L17:
ARM GAS  e:\temp\cc4YJHBF.s 			page 9


 220              		.align	2
 221              	.L16:
 222 0008 00000000 		.word	.LANCHOR0
 223              		.cfi_endproc
 224              	.LFE35:
 225              		.size	instrumentation_task, .-instrumentation_task
 226              		.section	.text.CyBoot_IntDefaultHandler_Exception_EntryCallback,"ax",%progbits
 227              		.align	2
 228              		.global	CyBoot_IntDefaultHandler_Exception_EntryCallback
 229              		.code	16
 230              		.thumb_func
 231              		.type	CyBoot_IntDefaultHandler_Exception_EntryCallback, %function
 232              	CyBoot_IntDefaultHandler_Exception_EntryCallback:
 233              	.LFB36:
 237:..\common/instrumentation.c **** 
 238:..\common/instrumentation.c **** void CyBoot_IntDefaultHandler_Exception_EntryCallback(void)
 239:..\common/instrumentation.c **** {
 234              		.loc 1 239 0
 235              		.cfi_startproc
 236              		@ args = 0, pretend = 0, frame = 0
 237              		@ frame_needed = 0, uses_anonymous_args = 0
 238 0000 10B5     		push	{r4, lr}
 239              		.cfi_def_cfa_offset 8
 240              		.cfi_offset 4, -8
 241              		.cfi_offset 14, -4
 240:..\common/instrumentation.c **** #if RESET_ON_ERROR_ENABLE
 241:..\common/instrumentation.c ****     /* Store the reset signature into RAM. */
 242:..\common/instrumentation.c ****     gRunTimeDataAddr[WATCHDOG_RESET_OFFSET] = WATCHDOG_RESET_SIG;
 242              		.loc 1 242 0
 243 0002 034B     		ldr	r3, .L19
 244 0004 1B68     		ldr	r3, [r3]
 245 0006 034A     		ldr	r2, .L19+4
 246 0008 5A60     		str	r2, [r3, #4]
 243:..\common/instrumentation.c ****     CySoftwareReset ();
 247              		.loc 1 243 0
 248 000a FFF7FEFF 		bl	CySoftwareReset
 249              	.LVL13:
 244:..\common/instrumentation.c **** #endif /* RESET_ON_ERROR_ENABLE */
 245:..\common/instrumentation.c **** }
 250              		.loc 1 245 0
 251              		@ sp needed
 252 000e 10BD     		pop	{r4, pc}
 253              	.L20:
 254              		.align	2
 255              	.L19:
 256 0010 00000000 		.word	.LANCHOR1
 257 0014 0C3003C0 		.word	-1073532916
 258              		.cfi_endproc
 259              	.LFE36:
 260              		.size	CyBoot_IntDefaultHandler_Exception_EntryCallback, .-CyBoot_IntDefaultHandler_Exception_Entry
 261              		.global	gMinResetMargin
 262              		.global	gMainLoopDelay
 263              		.global	gRunTimeDataAddr
 264              		.data
 265              		.align	2
 266              		.set	.LANCHOR1,. + 0
 267              		.type	gRunTimeDataAddr, %object
ARM GAS  e:\temp\cc4YJHBF.s 			page 10


 268              		.size	gRunTimeDataAddr, 4
 269              	gRunTimeDataAddr:
 270 0000 00000020 		.word	536870912
 271              		.type	gMinResetMargin, %object
 272              		.size	gMinResetMargin, 2
 273              	gMinResetMargin:
 274 0004 EE02     		.short	750
 275              		.bss
 276              		.align	2
 277              		.set	.LANCHOR0,. + 0
 278              		.type	gMainLoopDelay, %object
 279              		.size	gMainLoopDelay, 4
 280              	gMainLoopDelay:
 281 0000 00000000 		.space	4
 282              		.text
 283              	.Letext0:
 284              		.file 2 "e:\\cypress\\psoc creator\\4.2\\psoc creator\\import\\gnu\\arm\\5.4.1\\arm-none-eabi\\inc
 285              		.file 3 "e:\\cypress\\psoc creator\\4.2\\psoc creator\\import\\gnu\\arm\\5.4.1\\arm-none-eabi\\inc
 286              		.file 4 "..\\src\\system/timer.h"
 287              		.file 5 "Generated_Source\\PSoC4/CyLib.h"
 288              		.file 6 "..\\src\\hpiss/hpi.h"