ARM GAS  e:\temp\ccqMBGId.s 			page 1


   1              		.syntax unified
   2              		.cpu cortex-m0
   3              		.fpu softvfp
   4              		.eabi_attribute 20, 1
   5              		.eabi_attribute 21, 1
   6              		.eabi_attribute 23, 3
   7              		.eabi_attribute 24, 1
   8              		.eabi_attribute 25, 1
   9              		.eabi_attribute 26, 1
  10              		.eabi_attribute 30, 1
  11              		.eabi_attribute 34, 0
  12              		.eabi_attribute 18, 4
  13              		.thumb
  14              		.syntax unified
  15              		.file	"main.c"
  16              		.text
  17              	.Ltext0:
  18              		.cfi_sections	.debug_frame
  19              		.section	.text.update_hpi_regs,"ax",%progbits
  20              		.align	2
  21              		.code	16
  22              		.thumb_func
  23              		.type	update_hpi_regs, %function
  24              	update_hpi_regs:
  25              	.LFB34:
  26              		.file 1 "..\\common\\main.c"
   1:..\common/main.c **** /**
   2:..\common/main.c ****  * @file main.c
   3:..\common/main.c ****  *
   4:..\common/main.c ****  * @brief @{Main source file for CCG firmware implementation.@}
   5:..\common/main.c ****  *
   6:..\common/main.c ****  *******************************************************************************
   7:..\common/main.c ****  *
   8:..\common/main.c ****  * Copyright (2016-2018), Cypress Semiconductor Corporation or a subsidiary of
   9:..\common/main.c ****  * Cypress Semiconductor Corporation. All rights reserved.
  10:..\common/main.c ****  *
  11:..\common/main.c ****  * This software, including source code, documentation and related materials
  12:..\common/main.c ****  * (“Software”), is owned by Cypress Semiconductor Corporation or one of its
  13:..\common/main.c ****  * subsidiaries (“Cypress”) and is protected by and subject to worldwide patent
  14:..\common/main.c ****  * protection (United States and foreign), United States copyright laws and
  15:..\common/main.c ****  * international treaty provisions. Therefore, you may use this Software only
  16:..\common/main.c ****  * as provided in the license agreement accompanying the software package from
  17:..\common/main.c ****  * which you obtained this Software (“EULA”).
  18:..\common/main.c ****  *
  19:..\common/main.c ****  * If no EULA applies, Cypress hereby grants you a personal, nonexclusive,
  20:..\common/main.c ****  * non-transferable license to copy, modify, and compile the Software source
  21:..\common/main.c ****  * code solely for use in connection with Cypress’s integrated circuit
  22:..\common/main.c ****  * products. Any reproduction, modification, translation, compilation, or
  23:..\common/main.c ****  * representation of this Software except as specified above is prohibited
  24:..\common/main.c ****  * without the express written permission of Cypress. Disclaimer: THIS SOFTWARE
  25:..\common/main.c ****  * IS PROVIDED AS-IS, WITH NO WARRANTY OF ANY KIND, EXPRESS OR IMPLIED,
  26:..\common/main.c ****  * INCLUDING, BUT NOT LIMITED TO, NONINFRINGEMENT, IMPLIED WARRANTIES OF
  27:..\common/main.c ****  * MERCHANTABILITY AND FITNESS FOR A PARTICULAR PURPOSE. Cypress reserves the
  28:..\common/main.c ****  * right to make changes to the Software without notice. Cypress does not
  29:..\common/main.c ****  * assume any liability arising out of the application or use of the Software
  30:..\common/main.c ****  * or any product or circuit described in the Software. Cypress does not
  31:..\common/main.c ****  * authorize its products for use in any products where a malfunction or
ARM GAS  e:\temp\ccqMBGId.s 			page 2


  32:..\common/main.c ****  * failure of the Cypress product may reasonably be expected to result in
  33:..\common/main.c ****  * significant property damage, injury or death (“High Risk Product”). By
  34:..\common/main.c ****  * including Cypress’s product in a High Risk Product, the manufacturer of such
  35:..\common/main.c ****  * system or application assumes all risk of such use and in doing so agrees to
  36:..\common/main.c ****  * indemnify Cypress against all liability.
  37:..\common/main.c ****  */
  38:..\common/main.c **** 
  39:..\common/main.c **** #include <project.h>
  40:..\common/main.c **** #include <flash_config.h>
  41:..\common/main.c **** #include <system.h>
  42:..\common/main.c **** #include <timer.h>
  43:..\common/main.c **** #include <hpi.h>
  44:..\common/main.c **** #include <boot.h>
  45:..\common/main.c **** #include <flash.h>
  46:..\common/main.c **** #include <status.h>
  47:..\common/main.c **** #include <ccgx_version.h>
  48:..\common/main.c **** #include <app_version.h>
  49:..\common/main.c **** #include <utils.h>
  50:..\common/main.c **** #include <gpio.h>
  51:..\common/main.c **** #include <pd.h>
  52:..\common/main.c **** #include <dpm.h>
  53:..\common/main.c **** #include <app.h>
  54:..\common/main.c **** #include <psource.h>
  55:..\common/main.c **** #include <psink.h>
  56:..\common/main.c **** #include <pdo.h>
  57:..\common/main.c **** #include <swap.h>
  58:..\common/main.c **** #include <vdm.h>
  59:..\common/main.c **** #include <hal_ccgx.h>
  60:..\common/main.c **** #include <solution.h>
  61:..\common/main.c **** #include <instrumentation.h>
  62:..\common/main.c **** 
  63:..\common/main.c **** #if RIDGE_SLAVE_ENABLE
  64:..\common/main.c **** #include <ridge_slave.h>
  65:..\common/main.c **** #endif /* RIDGE_SLAVE_ENABLE */
  66:..\common/main.c **** 
  67:..\common/main.c **** /*
  68:..\common/main.c ****  * Reserve 32 bytes of space for Customer related info.
  69:..\common/main.c ****  * Fill this with customer related info.
  70:..\common/main.c ****  * This will be placed at an offset of 0xC0 from the start of FW Image.
  71:..\common/main.c ****  */
  72:..\common/main.c **** __attribute__ ((section(".customer_region"), used))
  73:..\common/main.c **** const uint32_t customer_info[8] = {0x00};
  74:..\common/main.c **** 
  75:..\common/main.c **** /* Place the bootloader version at a fixed location, so that firmware can retrieve this as well. */
  76:..\common/main.c **** __attribute__ ((section(".base_version"), used))
  77:..\common/main.c **** const uint32_t base_version = FW_BASE_VERSION;
  78:..\common/main.c **** __attribute__ ((section(".app_version"), used))
  79:..\common/main.c **** const uint32_t app_version  = APP_VERSION;
  80:..\common/main.c **** __attribute__ ((section(".dev_siliconid"), used))
  81:..\common/main.c **** const uint32_t ccg_silicon_id = MAKE_DWORD_FROM_WORD (CCG_DEV_SILICON_ID, CCG_DEV_FAMILY_ID);
  82:..\common/main.c **** __attribute__ ((section(".fw_reserved"), used))
  83:..\common/main.c **** const uint32_t reserved_buf[5] = {0};
  84:..\common/main.c **** 
  85:..\common/main.c **** /* Solution PD event handler */
  86:..\common/main.c **** void sln_pd_event_handler(uint8_t port, app_evt_t evt, const void *data)
  87:..\common/main.c **** {
  88:..\common/main.c **** #if (CCG_HPI_PD_ENABLE == 1)
ARM GAS  e:\temp\ccqMBGId.s 			page 3


  89:..\common/main.c ****     /* Pass the callback to HPI */
  90:..\common/main.c ****     hpi_pd_event_handler(port, evt, data);
  91:..\common/main.c **** #endif /* (CCG_HPI_PD_ENABLE) */
  92:..\common/main.c **** }
  93:..\common/main.c **** 
  94:..\common/main.c **** /*
  95:..\common/main.c ****  * Application callback functions for the DPM. Since this application
  96:..\common/main.c ****  * uses the functions provided by the stack, loading the stack defaults.
  97:..\common/main.c ****  */
  98:..\common/main.c **** const app_cbk_t app_callback =
  99:..\common/main.c **** {
 100:..\common/main.c ****     app_event_handler,
 101:..\common/main.c ****     psrc_set_voltage,
 102:..\common/main.c ****     psrc_set_current,
 103:..\common/main.c ****     sln_psrc_enable,
 104:..\common/main.c ****     sln_psrc_disable,
 105:..\common/main.c ****     vconn_enable,
 106:..\common/main.c ****     vconn_disable,
 107:..\common/main.c ****     vconn_is_present,
 108:..\common/main.c ****     vbus_is_present,
 109:..\common/main.c ****     vbus_discharge_on,
 110:..\common/main.c ****     vbus_discharge_off,
 111:..\common/main.c ****     psnk_set_voltage,
 112:..\common/main.c ****     psnk_set_current,
 113:..\common/main.c ****     psnk_enable,
 114:..\common/main.c ****     psnk_disable,
 115:..\common/main.c ****     eval_src_cap,
 116:..\common/main.c ****     eval_rdo,
 117:..\common/main.c ****     eval_dr_swap,
 118:..\common/main.c ****     eval_pr_swap,
 119:..\common/main.c ****     eval_vconn_swap,
 120:..\common/main.c ****     eval_vdm,
 121:..\common/main.c **** #if CCG_PD_REV3_ENABLE
 122:..\common/main.c ****     eval_fr_swap,
 123:..\common/main.c **** #else
 124:..\common/main.c ****     0,
 125:..\common/main.c **** #endif /* CCG_PD_REV3_ENABLE */
 126:..\common/main.c ****     vbus_get_value,
 127:..\common/main.c **** };
 128:..\common/main.c **** 
 129:..\common/main.c **** app_cbk_t* app_get_callback_ptr(uint8_t port)
 130:..\common/main.c **** {
 131:..\common/main.c ****     (void)port;
 132:..\common/main.c ****     /* Solution callback pointer is same for all ports */
 133:..\common/main.c ****     return ((app_cbk_t *)(&app_callback));
 134:..\common/main.c **** }
 135:..\common/main.c **** 
 136:..\common/main.c **** #if CCG_FIRMWARE_APP_ONLY
 137:..\common/main.c **** /*
 138:..\common/main.c ****    Provide a variable required by the HPI library. The real variable only
 139:..\common/main.c ****    exists if the boot-loadable component is included.
 140:..\common/main.c ****  */
 141:..\common/main.c **** volatile uint32_t cyBtldrRunType = 0;
 142:..\common/main.c **** #endif /* CCG_FIRMWARE_APP_ONLY */
 143:..\common/main.c **** 
 144:..\common/main.c **** #if CCG_HPI_ENABLE
 145:..\common/main.c **** 
ARM GAS  e:\temp\ccqMBGId.s 			page 4


 146:..\common/main.c **** #if (DISABLE_I2C_ADDR_CONFIG == 0)
 147:..\common/main.c **** /*
 148:..\common/main.c ****  * This function checks the I2C_CFG pin strap status to identify the I2C
 149:..\common/main.c ****  * slave address to be used for the HPI interface.
 150:..\common/main.c ****  */
 151:..\common/main.c **** static void get_hpi_slave_addr(void)
 152:..\common/main.c **** {
 153:..\common/main.c ****     uint8_t addr = HPI_ADDR_I2C_CFG_FLOAT;
 154:..\common/main.c **** 
 155:..\common/main.c ****     /* Check if IO is driven low. */
 156:..\common/main.c ****     I2C_CFG_SetDriveMode(I2C_CFG_DM_RES_UP);
 157:..\common/main.c ****     I2C_CFG_Write (1);
 158:..\common/main.c ****     CyDelayUs (5);
 159:..\common/main.c ****     if (I2C_CFG_Read () == 0)
 160:..\common/main.c ****     {
 161:..\common/main.c ****         addr = HPI_ADDR_I2C_CFG_LOW;
 162:..\common/main.c ****     }
 163:..\common/main.c ****     else
 164:..\common/main.c ****     {
 165:..\common/main.c ****         /* Check if IO is driven high. */
 166:..\common/main.c ****         I2C_CFG_SetDriveMode(I2C_CFG_DM_RES_DWN);
 167:..\common/main.c ****         I2C_CFG_Write(0);
 168:..\common/main.c ****         CyDelayUs(5);
 169:..\common/main.c ****         if (I2C_CFG_Read() != 0)
 170:..\common/main.c ****         {
 171:..\common/main.c ****             addr = HPI_ADDR_I2C_CFG_HIGH;
 172:..\common/main.c ****         }
 173:..\common/main.c ****     }
 174:..\common/main.c **** 
 175:..\common/main.c ****     /* Disable the pull up/pull down on IO. */
 176:..\common/main.c ****     I2C_CFG_SetDriveMode(I2C_CFG_DM_ALG_HIZ);
 177:..\common/main.c **** 
 178:..\common/main.c ****     hpi_set_fixed_slave_address(addr);
 179:..\common/main.c **** }
 180:..\common/main.c **** #endif /* (DISABLE_I2C_ADDR_CONFIG != 0) */
 181:..\common/main.c **** 
 182:..\common/main.c **** static void
 183:..\common/main.c **** update_hpi_regs (
 184:..\common/main.c ****         void)
 185:..\common/main.c **** {
  27              		.loc 1 185 0
  28              		.cfi_startproc
  29              		@ args = 0, pretend = 0, frame = 8
  30              		@ frame_needed = 0, uses_anonymous_args = 0
  31 0000 30B5     		push	{r4, r5, lr}
  32              		.cfi_def_cfa_offset 12
  33              		.cfi_offset 4, -12
  34              		.cfi_offset 5, -8
  35              		.cfi_offset 14, -4
  36 0002 83B0     		sub	sp, sp, #12
  37              		.cfi_def_cfa_offset 24
 186:..\common/main.c **** #if CCG_FIRMWARE_APP_ONLY
 187:..\common/main.c ****     uint8_t mode, reason;
 188:..\common/main.c ****     uint8_t ver_invalid[8] = {0};
  38              		.loc 1 188 0
  39 0004 0825     		movs	r5, #8
  40 0006 2A00     		movs	r2, r5
ARM GAS  e:\temp\ccqMBGId.s 			page 5


  41 0008 0021     		movs	r1, #0
  42 000a 6846     		mov	r0, sp
  43 000c FFF7FEFF 		bl	memset
  44              	.LVL0:
 189:..\common/main.c **** 
 190:..\common/main.c ****     /* Flash access is not allowed. */
 191:..\common/main.c ****     flash_set_access_limits (CCG_LAST_FLASH_ROW_NUM, CCG_LAST_FLASH_ROW_NUM, CCG_LAST_FLASH_ROW_NUM
  45              		.loc 1 191 0
  46 0010 0A4C     		ldr	r4, .L2
  47 0012 1323     		movs	r3, #19
  48 0014 2200     		movs	r2, r4
  49 0016 2100     		movs	r1, r4
  50 0018 2000     		movs	r0, r4
  51 001a FFF7FEFF 		bl	flash_set_access_limits
  52              	.LVL1:
 192:..\common/main.c ****             CCG_BOOT_LOADER_LAST_ROW);
 193:..\common/main.c **** 
 194:..\common/main.c ****     /* Update HPI registers with default values. */
 195:..\common/main.c ****     mode   = 0x95;              /* Dual boot, 256 byte flash, 2 ports, FW1 running. */
 196:..\common/main.c ****     reason = 0x08;              /* FW2 is not valid. */
 197:..\common/main.c ****     hpi_set_mode_regs (mode, reason);
  53              		.loc 1 197 0
  54 001e 2900     		movs	r1, r5
  55 0020 9520     		movs	r0, #149
  56 0022 FFF7FEFF 		bl	hpi_set_mode_regs
  57              	.LVL2:
 198:..\common/main.c ****     hpi_update_versions (ver_invalid, (uint8_t *)&base_version, ver_invalid);
  58              		.loc 1 198 0
  59 0026 6A46     		mov	r2, sp
  60 0028 0549     		ldr	r1, .L2+4
  61 002a 6846     		mov	r0, sp
  62 002c FFF7FEFF 		bl	hpi_update_versions
  63              	.LVL3:
 199:..\common/main.c ****     hpi_update_fw_locations (0, CCG_LAST_FLASH_ROW_NUM);
  64              		.loc 1 199 0
  65 0030 2100     		movs	r1, r4
  66 0032 0020     		movs	r0, #0
  67 0034 FFF7FEFF 		bl	hpi_update_fw_locations
  68              	.LVL4:
 200:..\common/main.c **** 
 201:..\common/main.c **** #else /* !CCG_FIRMWARE_APP_ONLY */
 202:..\common/main.c **** 
 203:..\common/main.c ****     uint8_t mode, reason = 0x00;
 204:..\common/main.c ****     uint32_t fw1_ver, fw2_ver;
 205:..\common/main.c ****     uint16_t fw1_loc, fw2_loc;
 206:..\common/main.c ****     sys_fw_metadata_t *fw1_md, *fw2_md;
 207:..\common/main.c ****     uint8_t ver_invalid[8] = {0};
 208:..\common/main.c **** 
 209:..\common/main.c ****     /* Set mode variables and flash access limits based on the active firmware. */
 210:..\common/main.c ****     if (sys_get_device_mode() == SYS_FW_MODE_FWIMAGE_1)
 211:..\common/main.c ****     {
 212:..\common/main.c ****         mode = 0x81 | ((NO_OF_TYPEC_PORTS - 1) << 2) | ((CCG_FLASH_ROW_SHIFT_NUM - 7) << 4);
 213:..\common/main.c **** 
 214:..\common/main.c ****         /* Check if FW2 is valid. */
 215:..\common/main.c ****         if (boot_validate_fw ((sys_fw_metadata_t *)CCG_IMG2_FW_METADATA_ADDR) != CCG_STAT_SUCCESS)
 216:..\common/main.c ****             reason = 0x08;
 217:..\common/main.c **** 
ARM GAS  e:\temp\ccqMBGId.s 			page 6


 218:..\common/main.c ****         /* Set the legal flash access range.
 219:..\common/main.c ****            Note: This needs to be updated whenever the FW1/FW2 reserved memory size is updated.
 220:..\common/main.c ****          */
 221:..\common/main.c ****         flash_set_access_limits (CCG_IMG1_LAST_FLASH_ROW_NUM + 1, CCG_IMG2_LAST_FLASH_ROW_NUM,
 222:..\common/main.c ****                 CCG_IMG2_METADATA_ROW_NUM, CCG_BOOT_LOADER_LAST_ROW);
 223:..\common/main.c ****     }
 224:..\common/main.c ****     else
 225:..\common/main.c ****     {
 226:..\common/main.c ****         mode = 0x82 | ((NO_OF_TYPEC_PORTS - 1) << 2) | ((CCG_FLASH_ROW_SHIFT_NUM - 7) << 4);
 227:..\common/main.c **** 
 228:..\common/main.c ****         /* Check if FW1 is valid. */
 229:..\common/main.c ****         if (boot_validate_fw ((sys_fw_metadata_t *)CCG_IMG1_FW_METADATA_ADDR) != CCG_STAT_SUCCESS)
 230:..\common/main.c ****             reason = 0x04;
 231:..\common/main.c **** 
 232:..\common/main.c ****         /* Set the legal flash access range.
 233:..\common/main.c ****            Note: This needs to be updated whenever the FW1/FW2 reserved memory size is updated.
 234:..\common/main.c ****          */
 235:..\common/main.c ****         flash_set_access_limits (CCG_BOOT_LOADER_LAST_ROW + 1, gl_img2_fw_metadata->boot_last_row,
 236:..\common/main.c ****                 CCG_IMG1_METADATA_ROW_NUM, CCG_BOOT_LOADER_LAST_ROW);
 237:..\common/main.c ****     }
 238:..\common/main.c **** 
 239:..\common/main.c ****     hpi_set_mode_regs (mode, reason);
 240:..\common/main.c **** 
 241:..\common/main.c ****     /* Calculate the version address from the firmware metadata. */
 242:..\common/main.c ****     if ((reason & 0x04) == 0)
 243:..\common/main.c ****     {
 244:..\common/main.c ****         fw1_md  = (sys_fw_metadata_t *)CCG_IMG1_FW_METADATA_ADDR;
 245:..\common/main.c ****         fw1_ver = (((uint32_t)fw1_md->boot_last_row + 1) << CCG_FLASH_ROW_SHIFT_NUM) + SYS_FW_VERSI
 246:..\common/main.c ****         fw1_loc = fw1_md->boot_last_row + 1;
 247:..\common/main.c ****     }
 248:..\common/main.c ****     else
 249:..\common/main.c ****     {
 250:..\common/main.c ****         fw1_ver = (uint32_t)ver_invalid;
 251:..\common/main.c ****         fw1_loc = CCG_LAST_FLASH_ROW_NUM + 1;
 252:..\common/main.c ****     }
 253:..\common/main.c **** 
 254:..\common/main.c ****     if ((reason & 0x08) == 0)
 255:..\common/main.c ****     {
 256:..\common/main.c ****         fw2_md  = (sys_fw_metadata_t *)CCG_IMG2_FW_METADATA_ADDR;
 257:..\common/main.c ****         fw2_ver = (((uint32_t)fw2_md->boot_last_row + 1) << CCG_FLASH_ROW_SHIFT_NUM) + SYS_FW_VERSI
 258:..\common/main.c ****         fw2_loc = fw2_md->boot_last_row + 1;
 259:..\common/main.c ****     }
 260:..\common/main.c ****     else
 261:..\common/main.c ****     {
 262:..\common/main.c ****         fw2_ver = (uint32_t)ver_invalid;
 263:..\common/main.c ****         fw2_loc = CCG_LAST_FLASH_ROW_NUM + 1;
 264:..\common/main.c ****     }
 265:..\common/main.c **** 
 266:..\common/main.c ****     /* Update version information in the HPI registers. */
 267:..\common/main.c ****     hpi_update_versions (
 268:..\common/main.c ****             (uint8_t *)SYS_BOOT_VERSION_ADDRESS,
 269:..\common/main.c ****             (uint8_t *)fw1_ver,
 270:..\common/main.c ****             (uint8_t *)fw2_ver
 271:..\common/main.c ****             );
 272:..\common/main.c **** 
 273:..\common/main.c ****     /* Update firmware location registers. */
 274:..\common/main.c ****     hpi_update_fw_locations (fw1_loc, fw2_loc);
ARM GAS  e:\temp\ccqMBGId.s 			page 7


 275:..\common/main.c **** 
 276:..\common/main.c ****     /*
 277:..\common/main.c ****      * Provide firmware boot priority information through HPI register interface. Default value is 
 278:..\common/main.c ****      * the case where the last flashed binary is prioritized.
 279:..\common/main.c ****      */
 280:..\common/main.c **** #if CCG_PRIORITIZE_FW1
 281:..\common/main.c ****     hpi_set_boot_priority_conf (HPI_BOOT_PRIO_FW1);
 282:..\common/main.c **** #elif CCG_PRIORITIZE_FW2
 283:..\common/main.c ****     hpi_set_boot_priority_conf (HPI_BOOT_PRIO_FW2);
 284:..\common/main.c **** #endif /* CCG_PRIORITIZE_FWX */
 285:..\common/main.c **** 
 286:..\common/main.c **** #endif /* CCG_FIRMWARE_APP_ONLY */
 287:..\common/main.c **** }
  69              		.loc 1 287 0
  70 0038 03B0     		add	sp, sp, #12
  71              		@ sp needed
  72 003a 30BD     		pop	{r4, r5, pc}
  73              	.L3:
  74              		.align	2
  75              	.L2:
  76 003c FF010000 		.word	511
  77 0040 00000000 		.word	.LANCHOR0
  78              		.cfi_endproc
  79              	.LFE34:
  80              		.size	update_hpi_regs, .-update_hpi_regs
  81              		.section	.text.sln_pd_event_handler,"ax",%progbits
  82              		.align	2
  83              		.global	sln_pd_event_handler
  84              		.code	16
  85              		.thumb_func
  86              		.type	sln_pd_event_handler, %function
  87              	sln_pd_event_handler:
  88              	.LFB32:
  87:..\common/main.c **** #if (CCG_HPI_PD_ENABLE == 1)
  89              		.loc 1 87 0
  90              		.cfi_startproc
  91              		@ args = 0, pretend = 0, frame = 0
  92              		@ frame_needed = 0, uses_anonymous_args = 0
  93              	.LVL5:
  94 0000 10B5     		push	{r4, lr}
  95              		.cfi_def_cfa_offset 8
  96              		.cfi_offset 4, -8
  97              		.cfi_offset 14, -4
  90:..\common/main.c **** #endif /* (CCG_HPI_PD_ENABLE) */
  98              		.loc 1 90 0
  99 0002 FFF7FEFF 		bl	hpi_pd_event_handler
 100              	.LVL6:
  92:..\common/main.c **** 
 101              		.loc 1 92 0
 102              		@ sp needed
 103 0006 10BD     		pop	{r4, pc}
 104              		.cfi_endproc
 105              	.LFE32:
 106              		.size	sln_pd_event_handler, .-sln_pd_event_handler
 107              		.section	.text.app_get_callback_ptr,"ax",%progbits
 108              		.align	2
 109              		.global	app_get_callback_ptr
ARM GAS  e:\temp\ccqMBGId.s 			page 8


 110              		.code	16
 111              		.thumb_func
 112              		.type	app_get_callback_ptr, %function
 113              	app_get_callback_ptr:
 114              	.LFB33:
 130:..\common/main.c ****     (void)port;
 115              		.loc 1 130 0
 116              		.cfi_startproc
 117              		@ args = 0, pretend = 0, frame = 0
 118              		@ frame_needed = 0, uses_anonymous_args = 0
 119              		@ link register save eliminated.
 120              	.LVL7:
 134:..\common/main.c **** 
 121              		.loc 1 134 0
 122 0000 0048     		ldr	r0, .L6
 123              	.LVL8:
 124              		@ sp needed
 125 0002 7047     		bx	lr
 126              	.L7:
 127              		.align	2
 128              	.L6:
 129 0004 00000000 		.word	.LANCHOR1
 130              		.cfi_endproc
 131              	.LFE33:
 132              		.size	app_get_callback_ptr, .-app_get_callback_ptr
 133              		.section	.text.main,"ax",%progbits
 134              		.align	2
 135              		.global	main
 136              		.code	16
 137              		.thumb_func
 138              		.type	main, %function
 139              	main:
 140              	.LFB35:
 288:..\common/main.c **** #endif /* CCG_HPI_ENABLE */
 289:..\common/main.c **** 
 290:..\common/main.c **** #if APP_FW_LED_ENABLE
 291:..\common/main.c **** 
 292:..\common/main.c **** /* Blink the LED every LED_TIMER_PERIOD ms. This serves as an indication of the firmware running. *
 293:..\common/main.c **** void led_timer_cb (
 294:..\common/main.c ****     uint8_t port,
 295:..\common/main.c ****     timer_id_t id)
 296:..\common/main.c **** {
 297:..\common/main.c ****     (void)port;
 298:..\common/main.c ****     (void)id;
 299:..\common/main.c **** 
 300:..\common/main.c ****     gpio_set_value (FW_LED_GPIO_PORT_PIN, !(gpio_read_value (FW_LED_GPIO_PORT_PIN)));
 301:..\common/main.c ****     timer_start (0, LED_TIMER_ID, LED_TIMER_PERIOD, led_timer_cb);
 302:..\common/main.c **** }
 303:..\common/main.c **** 
 304:..\common/main.c **** #endif /* APP_FW_LED_ENABLE */
 305:..\common/main.c **** 
 306:..\common/main.c **** int main()
 307:..\common/main.c **** {
 141              		.loc 1 307 0
 142              		.cfi_startproc
 143              		@ args = 0, pretend = 0, frame = 0
 144              		@ frame_needed = 0, uses_anonymous_args = 0
ARM GAS  e:\temp\ccqMBGId.s 			page 9


 145 0000 10B5     		push	{r4, lr}
 146              		.cfi_def_cfa_offset 8
 147              		.cfi_offset 4, -8
 148              		.cfi_offset 14, -4
 308:..\common/main.c ****     uint32_t conf_addr;
 309:..\common/main.c ****     uint8_t i;
 310:..\common/main.c **** 
 311:..\common/main.c ****     /* Enable this to delay the firmware execution under SWD connect. */
 312:..\common/main.c **** #ifdef BREAK_AT_MAIN
 313:..\common/main.c ****     uint8_t volatile x = 0;
 314:..\common/main.c ****     while(x==0);
 315:..\common/main.c **** #endif /* BREAK_AT_MAIN */
 316:..\common/main.c **** 
 317:..\common/main.c **** #if (CYDEV_BCLK__SYSCLK__MHZ == 48)
 318:..\common/main.c ****     /* Use the maximum number of flash access wait states when the CPU clock frequency is 48 MHz. *
 319:..\common/main.c ****     CPUSS_FLASH_CTL = 0x13;
 320:..\common/main.c **** #endif /* (CYDEV_BCLK__SYSCLK__MHZ == 48) */
 321:..\common/main.c **** 
 322:..\common/main.c **** #if CCG_FIRMWARE_APP_ONLY
 323:..\common/main.c ****     sys_set_device_mode (SYS_FW_MODE_FWIMAGE_1);
 149              		.loc 1 323 0
 150 0002 0120     		movs	r0, #1
 151 0004 FFF7FEFF 		bl	sys_set_device_mode
 152              	.LVL9:
 324:..\common/main.c **** #else /* !CCG_FIRMWARE_APP_ONLY */
 325:..\common/main.c ****     if ((uint32_t)&base_version < CCG_FW1_CONFTABLE_MAX_ADDR)
 326:..\common/main.c ****     {
 327:..\common/main.c ****         sys_set_device_mode (SYS_FW_MODE_FWIMAGE_1);
 328:..\common/main.c ****     }
 329:..\common/main.c ****     else
 330:..\common/main.c ****     {
 331:..\common/main.c ****         sys_set_device_mode (SYS_FW_MODE_FWIMAGE_2);
 332:..\common/main.c ****     }
 333:..\common/main.c **** #endif /* CCG_FIRMWARE_APP_ONLY */
 334:..\common/main.c **** 
 335:..\common/main.c ****     /* Validate the signature and checksum of the configuration table. */
 336:..\common/main.c ****     conf_addr = (uint32_t)get_pd_config ();
 153              		.loc 1 336 0
 154 0008 FFF7FEFF 		bl	get_pd_config
 155              	.LVL10:
 337:..\common/main.c ****     if ((boot_validate_configtable ((uint8_t *)conf_addr) != CCG_STAT_SUCCESS) ||
 156              		.loc 1 337 0
 157 000c FFF7FEFF 		bl	boot_validate_configtable
 158              	.LVL11:
 159 0010 0028     		cmp	r0, #0
 160 0012 03D1     		bne	.L9
 338:..\common/main.c ****             (!app_validate_configtable_offsets()))
 161              		.loc 1 338 0 discriminator 1
 162 0014 FFF7FEFF 		bl	app_validate_configtable_offsets
 163              	.LVL12:
 337:..\common/main.c ****     if ((boot_validate_configtable ((uint8_t *)conf_addr) != CCG_STAT_SUCCESS) ||
 164              		.loc 1 337 0 discriminator 1
 165 0018 0028     		cmp	r0, #0
 166 001a 00D1     		bne	.L10
 167              	.L9:
 168 001c FEE7     		b	.L9
 169              	.L10:
ARM GAS  e:\temp\ccqMBGId.s 			page 10


 339:..\common/main.c ****     {
 340:..\common/main.c **** #if CCG_FIRMWARE_APP_ONLY
 341:..\common/main.c ****         /* Can't do anything if config table is not valid. */
 342:..\common/main.c ****         while (1);
 343:..\common/main.c **** #else /* !CCG_FIRMWARE_APP_ONLY */
 344:..\common/main.c ****         /* Erase the firmware metadata so that this binary stops loading. */
 345:..\common/main.c ****         if (sys_get_device_mode() == SYS_FW_MODE_FWIMAGE_1)
 346:..\common/main.c ****         {
 347:..\common/main.c ****             flash_row_clear (CCG_IMG1_METADATA_ROW_NUM);
 348:..\common/main.c ****         }
 349:..\common/main.c ****         else
 350:..\common/main.c ****         {
 351:..\common/main.c ****             flash_row_clear (CCG_IMG2_METADATA_ROW_NUM);
 352:..\common/main.c ****         }
 353:..\common/main.c **** 
 354:..\common/main.c ****         /* Now reset the device. */
 355:..\common/main.c ****         CySoftwareReset ();
 356:..\common/main.c **** #endif /* CCG_FIRMWARE_APP_ONLY */
 357:..\common/main.c ****     }
 358:..\common/main.c **** 
 359:..\common/main.c ****     /* Initialize PD block clocks. */
 360:..\common/main.c ****     system_init();
 170              		.loc 1 360 0
 171 001e FFF7FEFF 		bl	system_init
 172              	.LVL13:
 361:..\common/main.c **** 
 362:..\common/main.c ****     /* Timer INIT has to be done first. */
 363:..\common/main.c ****     timer_init();
 173              		.loc 1 363 0
 174 0022 FFF7FEFF 		bl	timer_init
 175              	.LVL14:
 364:..\common/main.c **** 
 365:..\common/main.c ****     /* Enable global interrupts */
 366:..\common/main.c ****     CyGlobalIntEnable;
 176              		.loc 1 366 0
 177              		.syntax divided
 178              	@ 366 "..\common\main.c" 1
 179 0026 62B6     		CPSIE   i
 180              	@ 0 "" 2
 367:..\common/main.c **** 
 368:..\common/main.c **** #if RIDGE_SLAVE_ENABLE
 369:..\common/main.c ****     ridge_slave_init (RIDGE_SLAVE_SCB, 0);
 370:..\common/main.c **** #endif /* RIDGE_SLAVE_ENABLE */
 371:..\common/main.c **** 
 372:..\common/main.c **** #if CCG_HPI_ENABLE
 373:..\common/main.c **** 
 374:..\common/main.c **** #if (DISABLE_I2C_ADDR_CONFIG == 0)
 375:..\common/main.c ****     /* Set the HPI slave address based on the state of the I2C_CFG pin. */
 376:..\common/main.c ****     get_hpi_slave_addr();
 377:..\common/main.c **** #endif /* (DISABLE_I2C_ADDR_CONFIG == 0) */
 378:..\common/main.c **** 
 379:..\common/main.c **** #if CCG_FIRMWARE_APP_ONLY
 380:..\common/main.c ****     /* Configure HPI for no-boot operation. */
 381:..\common/main.c ****     hpi_set_no_boot_mode (true);
 181              		.loc 1 381 0
 182              		.thumb
 183              		.syntax unified
ARM GAS  e:\temp\ccqMBGId.s 			page 11


 184 0028 0120     		movs	r0, #1
 185 002a FFF7FEFF 		bl	hpi_set_no_boot_mode
 186              	.LVL15:
 382:..\common/main.c **** #endif /* CCG_FIRMWARE_APP_ONLY */
 383:..\common/main.c **** 
 384:..\common/main.c ****     /* Set the flash sizes and bootloader size limits. */
 385:..\common/main.c ****     hpi_set_flash_params (CCG_FLASH_SIZE, CCG_FLASH_ROW_SIZE, CCG_LAST_FLASH_ROW_NUM + 1, CCG_BOOT_
 187              		.loc 1 385 0
 188 002e 1323     		movs	r3, #19
 189 0030 8022     		movs	r2, #128
 190 0032 9200     		lsls	r2, r2, #2
 191 0034 8021     		movs	r1, #128
 192 0036 4900     		lsls	r1, r1, #1
 193 0038 8020     		movs	r0, #128
 194 003a 8002     		lsls	r0, r0, #10
 195 003c FFF7FEFF 		bl	hpi_set_flash_params
 196              	.LVL16:
 386:..\common/main.c **** 
 387:..\common/main.c ****     /* Initialize the HPI interface. */
 388:..\common/main.c ****     hpi_init (HPI_SCB_INDEX);
 197              		.loc 1 388 0
 198 0040 0020     		movs	r0, #0
 199 0042 FFF7FEFF 		bl	hpi_init
 200              	.LVL17:
 389:..\common/main.c **** 
 390:..\common/main.c ****     /* Update HPI registers with mode and version information. */
 391:..\common/main.c ****     update_hpi_regs ();
 201              		.loc 1 391 0
 202 0046 FFF7FEFF 		bl	update_hpi_regs
 203              	.LVL18:
 392:..\common/main.c **** 
 393:..\common/main.c **** #endif /* CCG_HPI_ENABLE */
 394:..\common/main.c **** 
 395:..\common/main.c ****     /* Initialize the instrumentation related data structures. */
 396:..\common/main.c ****     instrumentation_init();
 204              		.loc 1 396 0
 205 004a FFF7FEFF 		bl	instrumentation_init
 206              	.LVL19:
 397:..\common/main.c **** 
 398:..\common/main.c ****     /* Configure the VBus detach detection parameters (same as VBus poll params). */
 399:..\common/main.c ****     pd_hal_set_vbus_detach_params (APP_VBUS_POLL_ADC_ID, APP_VBUS_POLL_ADC_INPUT);
 207              		.loc 1 399 0
 208 004e 0121     		movs	r1, #1
 209 0050 0020     		movs	r0, #0
 210 0052 FFF7FEFF 		bl	pd_hal_set_vbus_detach_params
 211              	.LVL20:
 400:..\common/main.c **** 
 401:..\common/main.c **** #if (MUX_INIT_DELAY_MS != 0)
 402:..\common/main.c ****     /* Specify the MUX enable delay value to be used. */
 403:..\common/main.c ****     dpm_update_mux_enable_wait_period(MUX_INIT_DELAY_MS);
 212              		.loc 1 403 0
 213 0056 3220     		movs	r0, #50
 214 0058 FFF7FEFF 		bl	dpm_update_mux_enable_wait_period
 215              	.LVL21:
 404:..\common/main.c **** #endif /* (MUX_INIT_DELAY_MS != 0) */
 405:..\common/main.c **** 
 406:..\common/main.c ****     /* Perform application level initialization. */
ARM GAS  e:\temp\ccqMBGId.s 			page 12


 407:..\common/main.c ****     app_init();
 216              		.loc 1 407 0
 217 005c FFF7FEFF 		bl	app_init
 218              	.LVL22:
 408:..\common/main.c **** 
 409:..\common/main.c ****     /* Initialize the Device Policy Manager for each PD port on the device. */
 410:..\common/main.c ****     for (i = TYPEC_PORT_0_IDX; i < NO_OF_TYPEC_PORTS; i++)
 219              		.loc 1 410 0
 220 0060 0024     		movs	r4, #0
 221 0062 08E0     		b	.L11
 222              	.LVL23:
 223              	.L12:
 411:..\common/main.c ****     {
 412:..\common/main.c ****         dpm_init (i, app_get_callback_ptr(i));
 224              		.loc 1 412 0 discriminator 3
 225 0064 2000     		movs	r0, r4
 226 0066 FFF7FEFF 		bl	app_get_callback_ptr
 227              	.LVL24:
 228 006a 0100     		movs	r1, r0
 229 006c 2000     		movs	r0, r4
 230 006e FFF7FEFF 		bl	dpm_init
 231              	.LVL25:
 410:..\common/main.c ****     {
 232              		.loc 1 410 0 discriminator 3
 233 0072 0134     		adds	r4, r4, #1
 234              	.LVL26:
 235 0074 E4B2     		uxtb	r4, r4
 236              	.LVL27:
 237              	.L11:
 410:..\common/main.c ****     {
 238              		.loc 1 410 0 is_stmt 0 discriminator 1
 239 0076 012C     		cmp	r4, #1
 240 0078 F4D9     		bls	.L12
 413:..\common/main.c ****     }
 414:..\common/main.c **** 
 415:..\common/main.c **** #if CCG_HPI_ENABLE
 416:..\common/main.c **** 
 417:..\common/main.c ****     /* Send a reset complete event to the EC. */
 418:..\common/main.c ****     hpi_send_fw_ready_event ();
 241              		.loc 1 418 0 is_stmt 1
 242 007a FFF7FEFF 		bl	hpi_send_fw_ready_event
 243              	.LVL28:
 419:..\common/main.c **** 
 420:..\common/main.c ****     /* Wait until EC ready event has been received or 100 ms has elapsed. */
 421:..\common/main.c ****     for (i = 0; i < 100; i ++)
 244              		.loc 1 421 0
 245 007e 0024     		movs	r4, #0
 246 0080 0BE0     		b	.L13
 247              	.LVL29:
 248              	.L15:
 422:..\common/main.c ****     {
 423:..\common/main.c ****         hpi_task ();
 249              		.loc 1 423 0
 250 0082 FFF7FEFF 		bl	hpi_task
 251              	.LVL30:
 424:..\common/main.c ****         if (hpi_is_ec_ready ())
 252              		.loc 1 424 0
ARM GAS  e:\temp\ccqMBGId.s 			page 13


 253 0086 FFF7FEFF 		bl	hpi_is_ec_ready
 254              	.LVL31:
 255 008a 0028     		cmp	r0, #0
 256 008c 07D1     		bne	.L14
 425:..\common/main.c ****             break;
 426:..\common/main.c **** 
 427:..\common/main.c **** #if (CYDEV_BCLK__SYSCLK__MHZ == 48)
 428:..\common/main.c ****         /*
 429:..\common/main.c ****          * Using CyDelayCycles as CyDelay is leading to a 25% error.
 430:..\common/main.c ****          * The parameter used here assumes that CPU clock is running at 48 MHz.
 431:..\common/main.c ****          */
 432:..\common/main.c ****         CyDelayCycles (38400);
 433:..\common/main.c **** #else
 434:..\common/main.c ****         /*
 435:..\common/main.c ****          * Using CyDelayCycles as CyDelay is leading to a 25% error.
 436:..\common/main.c ****          * The parameter used here assumes that CPU clock is running at 24 MHz.
 437:..\common/main.c ****          */
 438:..\common/main.c ****         CyDelayCycles (19200);
 257              		.loc 1 438 0 discriminator 2
 258 008e 9620     		movs	r0, #150
 259 0090 C001     		lsls	r0, r0, #7
 260 0092 FFF7FEFF 		bl	CyDelayCycles
 261              	.LVL32:
 421:..\common/main.c ****     {
 262              		.loc 1 421 0 discriminator 2
 263 0096 0134     		adds	r4, r4, #1
 264              	.LVL33:
 265 0098 E4B2     		uxtb	r4, r4
 266              	.LVL34:
 267              	.L13:
 421:..\common/main.c ****     {
 268              		.loc 1 421 0 is_stmt 0 discriminator 1
 269 009a 632C     		cmp	r4, #99
 270 009c F1D9     		bls	.L15
 271              	.L14:
 439:..\common/main.c **** #endif /* (CYDEV_BCLK__SYSCLK__MHZ == 48) */
 440:..\common/main.c ****     }
 441:..\common/main.c **** 
 442:..\common/main.c **** #endif /* CCG_HPI_ENABLE */
 443:..\common/main.c **** 
 444:..\common/main.c **** #if APP_FW_LED_ENABLE
 445:..\common/main.c **** 
 446:..\common/main.c ****     /* Configure the LED control GPIO as an output. */
 447:..\common/main.c ****     gpio_hsiom_set_config (FW_LED_GPIO_PORT_PIN, HSIOM_MODE_GPIO, GPIO_DM_STRONG, true);
 448:..\common/main.c ****     /* Start a timer that will blink the FW ACTIVE LED, if required. */
 449:..\common/main.c ****     timer_start (0, LED_TIMER_ID, LED_TIMER_PERIOD, led_timer_cb);
 450:..\common/main.c **** 
 451:..\common/main.c **** #endif /* APP_FW_LED_ENABLE */
 452:..\common/main.c **** 
 453:..\common/main.c ****     /* Start any timers or tasks associated with application instrumentation. */
 454:..\common/main.c ****     instrumentation_start();
 272              		.loc 1 454 0 is_stmt 1
 273 009e FFF7FEFF 		bl	instrumentation_start
 274              	.LVL35:
 455:..\common/main.c **** 
 456:..\common/main.c ****     for (i = TYPEC_PORT_0_IDX ; i < NO_OF_TYPEC_PORTS; i++)
 275              		.loc 1 456 0
ARM GAS  e:\temp\ccqMBGId.s 			page 14


 276 00a2 0024     		movs	r4, #0
 277 00a4 09E0     		b	.L16
 278              	.LVL36:
 279              	.L18:
 457:..\common/main.c ****     {
 458:..\common/main.c **** #if CCG_HPI_ENABLE
 459:..\common/main.c ****         /* Start the DPM for the port only if it is enabled at the HPI level. It is possible that t
 460:..\common/main.c ****            got disabled before we got here.
 461:..\common/main.c ****          */
 462:..\common/main.c ****         if ((hpi_get_port_enable () & (1 << i)) != 0)
 280              		.loc 1 462 0
 281 00a6 FFF7FEFF 		bl	hpi_get_port_enable
 282              	.LVL37:
 283 00aa 2041     		asrs	r0, r0, r4
 284 00ac C307     		lsls	r3, r0, #31
 285 00ae 02D5     		bpl	.L17
 463:..\common/main.c **** #endif /* CCG_HPI_ENABLE */
 464:..\common/main.c ****         {
 465:..\common/main.c ****             dpm_start (i);
 286              		.loc 1 465 0
 287 00b0 2000     		movs	r0, r4
 288 00b2 FFF7FEFF 		bl	dpm_start
 289              	.LVL38:
 290              	.L17:
 456:..\common/main.c ****     {
 291              		.loc 1 456 0 discriminator 2
 292 00b6 0134     		adds	r4, r4, #1
 293              	.LVL39:
 294 00b8 E4B2     		uxtb	r4, r4
 295              	.LVL40:
 296              	.L16:
 456:..\common/main.c ****     {
 297              		.loc 1 456 0 is_stmt 0 discriminator 1
 298 00ba 012C     		cmp	r4, #1
 299 00bc F3D9     		bls	.L18
 466:..\common/main.c ****         }
 467:..\common/main.c ****     }
 468:..\common/main.c **** 
 469:..\common/main.c ****     /* Enable NCP81239 controller */
 470:..\common/main.c ****     pd_ctrl_init();
 300              		.loc 1 470 0 is_stmt 1
 301 00be FFF7FEFF 		bl	pd_ctrl_init
 302              	.LVL41:
 303              	.L21:
 471:..\common/main.c **** 
 472:..\common/main.c ****     while(1)
 473:..\common/main.c ****     {
 474:..\common/main.c ****         /* Perform DPM, APP and HPI tasks. */
 475:..\common/main.c ****         for (i = TYPEC_PORT_0_IDX; i < NO_OF_TYPEC_PORTS; i++)
 304              		.loc 1 475 0
 305 00c2 0024     		movs	r4, #0
 306 00c4 0BE0     		b	.L19
 307              	.LVL42:
 308              	.L20:
 476:..\common/main.c ****         {
 477:..\common/main.c ****             dpm_task (i);
 309              		.loc 1 477 0 discriminator 3
ARM GAS  e:\temp\ccqMBGId.s 			page 15


 310 00c6 2000     		movs	r0, r4
 311 00c8 FFF7FEFF 		bl	dpm_task
 312              	.LVL43:
 478:..\common/main.c ****             app_task (i);
 313              		.loc 1 478 0 discriminator 3
 314 00cc 2000     		movs	r0, r4
 315 00ce FFF7FEFF 		bl	app_task
 316              	.LVL44:
 479:..\common/main.c **** 
 480:..\common/main.c **** #if CCG_HPI_ENABLE
 481:..\common/main.c ****             /* Handle any pending HPI commands. */
 482:..\common/main.c ****             hpi_task ();
 317              		.loc 1 482 0 discriminator 3
 318 00d2 FFF7FEFF 		bl	hpi_task
 319              	.LVL45:
 483:..\common/main.c **** #endif /* CCG_HPI_ENABLE */
 484:..\common/main.c **** 
 485:..\common/main.c ****             /* Perform tasks associated with instrumentation. */
 486:..\common/main.c ****             instrumentation_task();
 320              		.loc 1 486 0 discriminator 3
 321 00d6 FFF7FEFF 		bl	instrumentation_task
 322              	.LVL46:
 475:..\common/main.c ****         {
 323              		.loc 1 475 0 discriminator 3
 324 00da 0134     		adds	r4, r4, #1
 325              	.LVL47:
 326 00dc E4B2     		uxtb	r4, r4
 327              	.LVL48:
 328              	.L19:
 475:..\common/main.c ****         {
 329              		.loc 1 475 0 is_stmt 0 discriminator 1
 330 00de 012C     		cmp	r4, #1
 331 00e0 F1D9     		bls	.L20
 332 00e2 EEE7     		b	.L21
 333              		.cfi_endproc
 334              	.LFE35:
 335              		.size	main, .-main
 336              		.global	cyBtldrRunType
 337              		.global	app_callback
 338              		.global	reserved_buf
 339              		.global	ccg_silicon_id
 340              		.global	app_version
 341              		.global	base_version
 342              		.global	customer_info
 343              		.section	.rodata
 344              		.align	2
 345              		.set	.LANCHOR1,. + 0
 346              		.type	app_callback, %object
 347              		.size	app_callback, 92
 348              	app_callback:
 349 0000 00000000 		.word	app_event_handler
 350 0004 00000000 		.word	psrc_set_voltage
 351 0008 00000000 		.word	psrc_set_current
 352 000c 00000000 		.word	sln_psrc_enable
 353 0010 00000000 		.word	sln_psrc_disable
 354 0014 00000000 		.word	vconn_enable
 355 0018 00000000 		.word	vconn_disable
ARM GAS  e:\temp\ccqMBGId.s 			page 16


 356 001c 00000000 		.word	vconn_is_present
 357 0020 00000000 		.word	vbus_is_present
 358 0024 00000000 		.word	vbus_discharge_on
 359 0028 00000000 		.word	vbus_discharge_off
 360 002c 00000000 		.word	psnk_set_voltage
 361 0030 00000000 		.word	psnk_set_current
 362 0034 00000000 		.word	psnk_enable
 363 0038 00000000 		.word	psnk_disable
 364 003c 00000000 		.word	eval_src_cap
 365 0040 00000000 		.word	eval_rdo
 366 0044 00000000 		.word	eval_dr_swap
 367 0048 00000000 		.word	eval_pr_swap
 368 004c 00000000 		.word	eval_vconn_swap
 369 0050 00000000 		.word	eval_vdm
 370 0054 00000000 		.word	eval_fr_swap
 371 0058 00000000 		.word	vbus_get_value
 372              		.section	.dev_siliconid,"a",%progbits
 373              		.align	2
 374              		.type	ccg_silicon_id, %object
 375              		.size	ccg_silicon_id, 4
 376              	ccg_silicon_id:
 377 0000 B1110021 		.word	553652657
 378              		.section	.fw_reserved,"a",%progbits
 379              		.align	2
 380              		.type	reserved_buf, %object
 381              		.size	reserved_buf, 20
 382              	reserved_buf:
 383 0000 00000000 		.space	20
 383      00000000 
 383      00000000 
 383      00000000 
 383      00000000 
 384              		.section	.base_version,"a",%progbits
 385              		.align	2
 386              		.set	.LANCHOR0,. + 0
 387              		.type	base_version, %object
 388              		.size	base_version, 4
 389              	base_version:
 390 0000 7A060132 		.word	838927994
 391              		.section	.app_version,"a",%progbits
 392              		.align	2
 393              		.type	app_version, %object
 394              		.size	app_version, 4
 395              	app_version:
 396 0000 626E0200 		.word	159330
 397              		.section	.customer_region,"a",%progbits
 398              		.align	2
 399              		.type	customer_info, %object
 400              		.size	customer_info, 32
 401              	customer_info:
 402 0000 00000000 		.space	32
 402      00000000 
 402      00000000 
 402      00000000 
 402      00000000 
 403              		.bss
 404              		.align	2
ARM GAS  e:\temp\ccqMBGId.s 			page 17


 405              		.type	cyBtldrRunType, %object
 406              		.size	cyBtldrRunType, 4
 407              	cyBtldrRunType:
 408 0000 00000000 		.space	4
 409              		.text
 410              	.Letext0:
 411              		.file 2 "e:\\cypress\\psoc creator\\4.2\\psoc creator\\import\\gnu\\arm\\5.4.1\\arm-none-eabi\\inc
 412              		.file 3 "e:\\cypress\\psoc creator\\4.2\\psoc creator\\import\\gnu\\arm\\5.4.1\\arm-none-eabi\\inc
 413              		.file 4 "..\\src\\system/system.h"
 414              		.file 5 "..\\src\\pd_common/pd.h"
 415              		.file 6 "..\\src\\system/status.h"
 416              		.file 7 "..\\src\\pd_hal/pdss_hal.h"
 417              		.file 8 "..\\src\\system/flash.h"
 418              		.file 9 "..\\src\\hpiss/hpi.h"
 419              		.file 10 "..\\src\\system/boot.h"
 420              		.file 11 "..\\src\\app/app.h"
 421              		.file 12 "..\\src\\pd_hal/hal_ccgx.h"
 422              		.file 13 "..\\src\\system/timer.h"
 423              		.file 14 "..\\common/instrumentation.h"
 424              		.file 15 "..\\src\\pd_common/dpm.h"
 425              		.file 16 "Generated_Source\\PSoC4/CyLib.h"
 426              		.file 17 "..\\common/NCP81239_regs.h"