ARM GAS  e:\temp\ccGPYxev.s 			page 1


   1              		.syntax unified
   2              		.cpu cortex-m0
   3              		.fpu softvfp
   4              		.eabi_attribute 20, 1
   5              		.eabi_attribute 21, 1
   6              		.eabi_attribute 23, 3
   7              		.eabi_attribute 24, 1
   8              		.eabi_attribute 25, 1
   9              		.eabi_attribute 26, 1
  10              		.eabi_attribute 30, 1
  11              		.eabi_attribute 34, 0
  12              		.eabi_attribute 18, 4
  13              		.thumb
  14              		.syntax unified
  15              		.file	"psink.c"
  16              		.text
  17              	.Ltext0:
  18              		.cfi_sections	.debug_frame
  19              		.section	.text.app_psnk_tmr_cbk,"ax",%progbits
  20              		.align	2
  21              		.code	16
  22              		.thumb_func
  23              		.type	app_psnk_tmr_cbk, %function
  24              	app_psnk_tmr_cbk:
  25              	.LFB38:
  26              		.file 1 "..\\src\\app\\psink.c"
   1:..\src\app/psink.c **** /**
   2:..\src\app/psink.c ****  * @file psink.c
   3:..\src\app/psink.c ****  *
   4:..\src\app/psink.c ****  * @brief @{Power Sink (Consumer) manager source file.@}
   5:..\src\app/psink.c ****  */
   6:..\src\app/psink.c **** 
   7:..\src\app/psink.c **** /*
   8:..\src\app/psink.c ****  * Copyright (2014-2018), Cypress Semiconductor Corporation or a subsidiary of
   9:..\src\app/psink.c ****  * Cypress Semiconductor Corporation. All rights reserved.
  10:..\src\app/psink.c ****  *
  11:..\src\app/psink.c ****  * This software, including source code, documentation and related materials
  12:..\src\app/psink.c ****  * (“Software”), is owned by Cypress Semiconductor Corporation or one of its
  13:..\src\app/psink.c ****  * subsidiaries (“Cypress”) and is protected by and subject to worldwide patent
  14:..\src\app/psink.c ****  * protection (United States and foreign), United States copyright laws and
  15:..\src\app/psink.c ****  * international treaty provisions. Therefore, you may use this Software only
  16:..\src\app/psink.c ****  * as provided in the license agreement accompanying the software package from
  17:..\src\app/psink.c ****  * which you obtained this Software (“EULA”).
  18:..\src\app/psink.c ****  *
  19:..\src\app/psink.c ****  * If no EULA applies, Cypress hereby grants you a personal, nonexclusive,
  20:..\src\app/psink.c ****  * non-transferable license to copy, modify, and compile the Software source
  21:..\src\app/psink.c ****  * code solely for use in connection with Cypress’s integrated circuit
  22:..\src\app/psink.c ****  * products. Any reproduction, modification, translation, compilation, or
  23:..\src\app/psink.c ****  * representation of this Software except as specified above is prohibited
  24:..\src\app/psink.c ****  * without the express written permission of Cypress. Disclaimer: THIS SOFTWARE
  25:..\src\app/psink.c ****  * IS PROVIDED AS-IS, WITH NO WARRANTY OF ANY KIND, EXPRESS OR IMPLIED,
  26:..\src\app/psink.c ****  * INCLUDING, BUT NOT LIMITED TO, NONINFRINGEMENT, IMPLIED WARRANTIES OF
  27:..\src\app/psink.c ****  * MERCHANTABILITY AND FITNESS FOR A PARTICULAR PURPOSE. Cypress reserves the
  28:..\src\app/psink.c ****  * right to make changes to the Software without notice. Cypress does not
  29:..\src\app/psink.c ****  * assume any liability arising out of the application or use of the Software
  30:..\src\app/psink.c ****  * or any product or circuit described in the Software. Cypress does not
  31:..\src\app/psink.c ****  * authorize its products for use in any products where a malfunction or
ARM GAS  e:\temp\ccGPYxev.s 			page 2


  32:..\src\app/psink.c ****  * failure of the Cypress product may reasonably be expected to result in
  33:..\src\app/psink.c ****  * significant property damage, injury or death (“High Risk Product”). By
  34:..\src\app/psink.c ****  * including Cypress’s product in a High Risk Product, the manufacturer of such
  35:..\src\app/psink.c ****  * system or application assumes all risk of such use and in doing so agrees to
  36:..\src\app/psink.c ****  * indemnify Cypress against all liability.
  37:..\src\app/psink.c ****  */
  38:..\src\app/psink.c **** 
  39:..\src\app/psink.c **** #include <config.h>
  40:..\src\app/psink.c **** #include <pd.h>
  41:..\src\app/psink.c **** #include <dpm.h>
  42:..\src\app/psink.c **** #include <psink.h>
  43:..\src\app/psink.c **** #include <app.h>
  44:..\src\app/psink.c **** #include <timer.h>
  45:..\src\app/psink.c **** 
  46:..\src\app/psink.c **** 
  47:..\src\app/psink.c **** void app_psnk_vbus_ovp_cbk(uint8_t port, bool comp_out);
  48:..\src\app/psink.c **** 
  49:..\src\app/psink.c **** void sink_fet_off(uint8_t port)
  50:..\src\app/psink.c **** {
  51:..\src\app/psink.c ****     if(port == TYPEC_PORT_0_IDX)
  52:..\src\app/psink.c ****     {
  53:..\src\app/psink.c ****         APP_VBUS_SNK_FET_OFF_P1();
  54:..\src\app/psink.c ****     }
  55:..\src\app/psink.c **** #if CCG_PD_DUALPORT_ENABLE
  56:..\src\app/psink.c ****     if(port == TYPEC_PORT_1_IDX)
  57:..\src\app/psink.c ****     {
  58:..\src\app/psink.c ****         APP_VBUS_SNK_FET_OFF_P2();
  59:..\src\app/psink.c ****     }
  60:..\src\app/psink.c **** #endif /* CCG_PD_DUALPORT_ENABLE */
  61:..\src\app/psink.c **** }
  62:..\src\app/psink.c **** 
  63:..\src\app/psink.c **** void sink_fet_on(uint8_t port)
  64:..\src\app/psink.c **** {
  65:..\src\app/psink.c ****     if(port == TYPEC_PORT_0_IDX)
  66:..\src\app/psink.c ****     {
  67:..\src\app/psink.c ****         APP_VBUS_SNK_FET_ON_P1();
  68:..\src\app/psink.c ****     }
  69:..\src\app/psink.c **** #if CCG_PD_DUALPORT_ENABLE
  70:..\src\app/psink.c ****     if(port == TYPEC_PORT_1_IDX)
  71:..\src\app/psink.c ****     {
  72:..\src\app/psink.c ****         APP_VBUS_SNK_FET_ON_P2();
  73:..\src\app/psink.c ****     }
  74:..\src\app/psink.c **** #endif /* CCG_PD_DUALPORT_ENABLE */
  75:..\src\app/psink.c **** }
  76:..\src\app/psink.c **** 
  77:..\src\app/psink.c **** #if VBUS_OVP_ENABLE
  78:..\src\app/psink.c **** 
  79:..\src\app/psink.c **** void app_psnk_vbus_ovp_cbk(uint8_t port, bool comp_out)
  80:..\src\app/psink.c **** {
  81:..\src\app/psink.c ****     /*OVP fault*/
  82:..\src\app/psink.c ****     sink_fet_off(port);
  83:..\src\app/psink.c **** 
  84:..\src\app/psink.c ****     /* Set alert message */
  85:..\src\app/psink.c ****     pd_do_t alert;
  86:..\src\app/psink.c ****     alert.val = 0;
  87:..\src\app/psink.c ****     alert.ado_alert.ovp = true;
  88:..\src\app/psink.c ****     dpm_set_alert(port, alert);
ARM GAS  e:\temp\ccGPYxev.s 			page 3


  89:..\src\app/psink.c **** 
  90:..\src\app/psink.c ****     /*Enqueue HPI OVP fault event*/
  91:..\src\app/psink.c ****     app_event_handler(port, APP_EVT_VBUS_OVP_FAULT, NULL);
  92:..\src\app/psink.c **** }
  93:..\src\app/psink.c **** 
  94:..\src\app/psink.c **** #endif /* VBUS_OVP_ENABLE */
  95:..\src\app/psink.c **** 
  96:..\src\app/psink.c **** #if VBUS_UVP_ENABLE
  97:..\src\app/psink.c **** void snk_vbus_uvp_cbk (uint8_t port, bool comp_out)
  98:..\src\app/psink.c **** {
  99:..\src\app/psink.c ****     /*UVP fault*/
 100:..\src\app/psink.c ****     sink_fet_off(port);
 101:..\src\app/psink.c **** 
 102:..\src\app/psink.c ****     /*Enqueue HPI OVP fault event*/
 103:..\src\app/psink.c ****     app_event_handler(port, APP_EVT_VBUS_UVP_FAULT, NULL);
 104:..\src\app/psink.c **** }
 105:..\src\app/psink.c **** #endif /* VBUS_UVP_ENABLE */
 106:..\src\app/psink.c **** 
 107:..\src\app/psink.c **** void psnk_set_voltage (uint8_t port, uint16_t volt_mV)
 108:..\src\app/psink.c **** {
 109:..\src\app/psink.c ****     app_status_t* app_stat = app_get_status(port);
 110:..\src\app/psink.c ****     app_stat->psnk_volt = volt_mV;
 111:..\src\app/psink.c **** 
 112:..\src\app/psink.c ****     /* Disable VBus discharge when starting off as a SINK device. */
 113:..\src\app/psink.c ****     vbus_discharge_off(port);
 114:..\src\app/psink.c **** 
 115:..\src\app/psink.c **** #if VBUS_OVP_ENABLE
 116:..\src\app/psink.c **** #if (defined(CCG3) || defined(CCG3PA) || defined(CCG3PA2) || defined(CCG5))
 117:..\src\app/psink.c ****     app_ovp_enable(port, volt_mV, CCG_SNK_FET, app_psnk_vbus_ovp_cbk);
 118:..\src\app/psink.c **** #else /* CCG4 */
 119:..\src\app/psink.c ****     app_ovp_enable(port, volt_mV, false, app_psnk_vbus_ovp_cbk);
 120:..\src\app/psink.c **** #endif /* CCGx */
 121:..\src\app/psink.c **** #endif /* VBUS_OVP_ENABLE */
 122:..\src\app/psink.c **** }
 123:..\src\app/psink.c **** 
 124:..\src\app/psink.c **** void psnk_set_current (uint8_t port, uint16_t cur_10mA)
 125:..\src\app/psink.c **** {
 126:..\src\app/psink.c ****     app_status_t* app_stat = app_get_status(port);
 127:..\src\app/psink.c ****     app_stat->psnk_cur = cur_10mA;
 128:..\src\app/psink.c ****     
 129:..\src\app/psink.c ****     /*
 130:..\src\app/psink.c ****      * There are no implementation to update the current settings as of today.
 131:..\src\app/psink.c ****      * This implementation needs to be updated when the CCGx solution has
 132:..\src\app/psink.c ****      * capability to control the sink current capability.
 133:..\src\app/psink.c ****      */
 134:..\src\app/psink.c **** 
 135:..\src\app/psink.c **** #if (POWER_BANK == 1)
 136:..\src\app/psink.c ****     /* This is the implementation for CCG3 and CCG3PA Power banks. */
 137:..\src\app/psink.c **** 
 138:..\src\app/psink.c ****     if (port == TYPEC_PORT_0_IDX)
 139:..\src\app/psink.c ****     {
 140:..\src\app/psink.c ****         APP_SINK_SET_CURRENT_P1(cur_10mA);
 141:..\src\app/psink.c ****     }
 142:..\src\app/psink.c **** #if (CCG_PD_DUALPORT_ENABLE == 1)
 143:..\src\app/psink.c ****     else
 144:..\src\app/psink.c ****     {
 145:..\src\app/psink.c ****         APP_SINK_SET_CURRENT_P2(cur_10mA);
ARM GAS  e:\temp\ccGPYxev.s 			page 4


 146:..\src\app/psink.c ****     }
 147:..\src\app/psink.c **** #endif /* (CCG_PD_DUALPORT_ENABLE == 1) */
 148:..\src\app/psink.c **** #endif /* (POWER_BANK == 1) */
 149:..\src\app/psink.c **** }
 150:..\src\app/psink.c **** 
 151:..\src\app/psink.c **** void psnk_enable (uint8_t port)
 152:..\src\app/psink.c **** {
 153:..\src\app/psink.c ****     uint8_t intr_state;
 154:..\src\app/psink.c ****     intr_state = CyEnterCriticalSection();
 155:..\src\app/psink.c **** 
 156:..\src\app/psink.c ****     /* Make sure discharge path is disabled at this stage. */
 157:..\src\app/psink.c ****     vbus_discharge_off(port);
 158:..\src\app/psink.c **** 
 159:..\src\app/psink.c ****     /* Turn on FETs only if dpm is enabled and there is no active fault condition. */
 160:..\src\app/psink.c ****     if ((dpm_get_info(port)->dpm_enabled) && (dpm_get_info(port)->fault_active == false))
 161:..\src\app/psink.c ****     {
 162:..\src\app/psink.c ****         sink_fet_on(port);
 163:..\src\app/psink.c ****     }
 164:..\src\app/psink.c **** 
 165:..\src\app/psink.c ****     CyExitCriticalSection(intr_state);
 166:..\src\app/psink.c **** }
 167:..\src\app/psink.c **** 
 168:..\src\app/psink.c **** /*Timer Callback*/
 169:..\src\app/psink.c **** static void app_psnk_tmr_cbk(uint8_t port, timer_id_t id)
 170:..\src\app/psink.c **** {
  27              		.loc 1 170 0
  28              		.cfi_startproc
  29              		@ args = 0, pretend = 0, frame = 0
  30              		@ frame_needed = 0, uses_anonymous_args = 0
  31              	.LVL0:
  32 0000 70B5     		push	{r4, r5, r6, lr}
  33              		.cfi_def_cfa_offset 16
  34              		.cfi_offset 4, -16
  35              		.cfi_offset 5, -12
  36              		.cfi_offset 6, -8
  37              		.cfi_offset 14, -4
  38 0002 0400     		movs	r4, r0
  39 0004 0D00     		movs	r5, r1
 171:..\src\app/psink.c ****     app_status_t* app_stat = app_get_status(port);
  40              		.loc 1 171 0
  41 0006 FFF7FEFF 		bl	app_get_status
  42              	.LVL1:
  43 000a 0600     		movs	r6, r0
  44              	.LVL2:
 172:..\src\app/psink.c **** 
 173:..\src\app/psink.c ****     switch(id)
  45              		.loc 1 173 0
  46 000c 262D     		cmp	r5, #38
  47 000e 02D0     		beq	.L3
  48 0010 272D     		cmp	r5, #39
  49 0012 08D0     		beq	.L4
  50 0014 1FE0     		b	.L1
  51              	.L3:
 174:..\src\app/psink.c ****     {
 175:..\src\app/psink.c ****         case APP_PSINK_DIS_TIMER:
 176:..\src\app/psink.c ****             timer_stop(port, APP_PSINK_DIS_MONITOR_TIMER);
  52              		.loc 1 176 0
ARM GAS  e:\temp\ccGPYxev.s 			page 5


  53 0016 2721     		movs	r1, #39
  54 0018 2000     		movs	r0, r4
  55              	.LVL3:
  56 001a FFF7FEFF 		bl	timer_stop
  57              	.LVL4:
 177:..\src\app/psink.c ****             vbus_discharge_off(port);
  58              		.loc 1 177 0
  59 001e 2000     		movs	r0, r4
  60 0020 FFF7FEFF 		bl	vbus_discharge_off
  61              	.LVL5:
 178:..\src\app/psink.c ****             break;
  62              		.loc 1 178 0
  63 0024 17E0     		b	.L1
  64              	.LVL6:
  65              	.L4:
 179:..\src\app/psink.c **** 
 180:..\src\app/psink.c ****         case APP_PSINK_DIS_MONITOR_TIMER:
 181:..\src\app/psink.c ****             if(vbus_is_present(port, VSAFE_5V, 0) == false)
  66              		.loc 1 181 0
  67 0026 0022     		movs	r2, #0
  68 0028 0B49     		ldr	r1, .L6
  69 002a 2000     		movs	r0, r4
  70              	.LVL7:
  71 002c FFF7FEFF 		bl	vbus_is_present
  72              	.LVL8:
  73 0030 0028     		cmp	r0, #0
  74 0032 0AD1     		bne	.L5
 182:..\src\app/psink.c ****             {
 183:..\src\app/psink.c ****                 timer_stop(port, APP_PSINK_DIS_TIMER);
  75              		.loc 1 183 0
  76 0034 2621     		movs	r1, #38
  77 0036 2000     		movs	r0, r4
  78 0038 FFF7FEFF 		bl	timer_stop
  79              	.LVL9:
 184:..\src\app/psink.c ****                 vbus_discharge_off(port);
  80              		.loc 1 184 0
  81 003c 2000     		movs	r0, r4
  82 003e FFF7FEFF 		bl	vbus_discharge_off
  83              	.LVL10:
 185:..\src\app/psink.c ****                 app_stat->snk_dis_cbk(port);
  84              		.loc 1 185 0
  85 0042 7368     		ldr	r3, [r6, #4]
  86 0044 2000     		movs	r0, r4
  87 0046 9847     		blx	r3
  88              	.LVL11:
  89 0048 05E0     		b	.L1
  90              	.L5:
 186:..\src\app/psink.c ****             }
 187:..\src\app/psink.c ****             else
 188:..\src\app/psink.c ****             {
 189:..\src\app/psink.c ****                 /*Start Monitor Timer again*/
 190:..\src\app/psink.c ****                 timer_start(port, APP_PSINK_DIS_MONITOR_TIMER, APP_PSINK_DIS_MONITOR_TIMER_PERIOD, 
  91              		.loc 1 190 0
  92 004a 044B     		ldr	r3, .L6+4
  93 004c 0122     		movs	r2, #1
  94 004e 2721     		movs	r1, #39
  95 0050 2000     		movs	r0, r4
ARM GAS  e:\temp\ccGPYxev.s 			page 6


  96 0052 FFF7FEFF 		bl	timer_start
  97              	.LVL12:
  98              	.L1:
 191:..\src\app/psink.c ****             }
 192:..\src\app/psink.c ****             break;
 193:..\src\app/psink.c ****         default:
 194:..\src\app/psink.c ****             break;
 195:..\src\app/psink.c ****     }
 196:..\src\app/psink.c **** }
  99              		.loc 1 196 0
 100              		@ sp needed
 101              	.LVL13:
 102 0056 70BD     		pop	{r4, r5, r6, pc}
 103              	.L7:
 104              		.align	2
 105              	.L6:
 106 0058 88130000 		.word	5000
 107 005c 00000000 		.word	app_psnk_tmr_cbk
 108              		.cfi_endproc
 109              	.LFE38:
 110              		.size	app_psnk_tmr_cbk, .-app_psnk_tmr_cbk
 111              		.section	.text.sink_fet_off,"ax",%progbits
 112              		.align	2
 113              		.global	sink_fet_off
 114              		.code	16
 115              		.thumb_func
 116              		.type	sink_fet_off, %function
 117              	sink_fet_off:
 118              	.LFB32:
  50:..\src\app/psink.c ****     if(port == TYPEC_PORT_0_IDX)
 119              		.loc 1 50 0
 120              		.cfi_startproc
 121              		@ args = 0, pretend = 0, frame = 0
 122              		@ frame_needed = 0, uses_anonymous_args = 0
 123              	.LVL14:
 124 0000 10B5     		push	{r4, lr}
 125              		.cfi_def_cfa_offset 8
 126              		.cfi_offset 4, -8
 127              		.cfi_offset 14, -4
 128 0002 041E     		subs	r4, r0, #0
  51:..\src\app/psink.c ****     {
 129              		.loc 1 51 0
 130 0004 03D1     		bne	.L9
  53:..\src\app/psink.c ****     }
 131              		.loc 1 53 0
 132 0006 0021     		movs	r1, #0
 133 0008 0020     		movs	r0, #0
 134              	.LVL15:
 135 000a FFF7FEFF 		bl	pd_internal_cfet_off
 136              	.LVL16:
 137              	.L9:
  56:..\src\app/psink.c ****     {
 138              		.loc 1 56 0
 139 000e 012C     		cmp	r4, #1
 140 0010 03D1     		bne	.L8
  58:..\src\app/psink.c ****     }
 141              		.loc 1 58 0
ARM GAS  e:\temp\ccGPYxev.s 			page 7


 142 0012 0021     		movs	r1, #0
 143 0014 0120     		movs	r0, #1
 144 0016 FFF7FEFF 		bl	pd_internal_cfet_off
 145              	.LVL17:
 146              	.L8:
  61:..\src\app/psink.c **** 
 147              		.loc 1 61 0
 148              		@ sp needed
 149 001a 10BD     		pop	{r4, pc}
 150              		.cfi_endproc
 151              	.LFE32:
 152              		.size	sink_fet_off, .-sink_fet_off
 153              		.section	.text.app_psnk_vbus_ovp_cbk,"ax",%progbits
 154              		.align	2
 155              		.global	app_psnk_vbus_ovp_cbk
 156              		.code	16
 157              		.thumb_func
 158              		.type	app_psnk_vbus_ovp_cbk, %function
 159              	app_psnk_vbus_ovp_cbk:
 160              	.LFB34:
  80:..\src\app/psink.c ****     /*OVP fault*/
 161              		.loc 1 80 0
 162              		.cfi_startproc
 163              		@ args = 0, pretend = 0, frame = 0
 164              		@ frame_needed = 0, uses_anonymous_args = 0
 165              	.LVL18:
 166 0000 10B5     		push	{r4, lr}
 167              		.cfi_def_cfa_offset 8
 168              		.cfi_offset 4, -8
 169              		.cfi_offset 14, -4
 170 0002 0400     		movs	r4, r0
  82:..\src\app/psink.c **** 
 171              		.loc 1 82 0
 172 0004 FFF7FEFF 		bl	sink_fet_off
 173              	.LVL19:
  88:..\src\app/psink.c **** 
 174              		.loc 1 88 0
 175 0008 8021     		movs	r1, #128
 176 000a C905     		lsls	r1, r1, #23
 177 000c 2000     		movs	r0, r4
 178 000e FFF7FEFF 		bl	dpm_set_alert
 179              	.LVL20:
  91:..\src\app/psink.c **** }
 180              		.loc 1 91 0
 181 0012 0022     		movs	r2, #0
 182 0014 1721     		movs	r1, #23
 183 0016 2000     		movs	r0, r4
 184 0018 FFF7FEFF 		bl	app_event_handler
 185              	.LVL21:
  92:..\src\app/psink.c **** 
 186              		.loc 1 92 0
 187              		@ sp needed
 188 001c 10BD     		pop	{r4, pc}
 189              		.cfi_endproc
 190              	.LFE34:
 191              		.size	app_psnk_vbus_ovp_cbk, .-app_psnk_vbus_ovp_cbk
 192 001e C046     		.section	.text.sink_fet_on,"ax",%progbits
ARM GAS  e:\temp\ccGPYxev.s 			page 8


 193              		.align	2
 194              		.global	sink_fet_on
 195              		.code	16
 196              		.thumb_func
 197              		.type	sink_fet_on, %function
 198              	sink_fet_on:
 199              	.LFB33:
  64:..\src\app/psink.c ****     if(port == TYPEC_PORT_0_IDX)
 200              		.loc 1 64 0
 201              		.cfi_startproc
 202              		@ args = 0, pretend = 0, frame = 0
 203              		@ frame_needed = 0, uses_anonymous_args = 0
 204              	.LVL22:
 205 0000 10B5     		push	{r4, lr}
 206              		.cfi_def_cfa_offset 8
 207              		.cfi_offset 4, -8
 208              		.cfi_offset 14, -4
 209 0002 041E     		subs	r4, r0, #0
  65:..\src\app/psink.c ****     {
 210              		.loc 1 65 0
 211 0004 03D1     		bne	.L13
  67:..\src\app/psink.c ****     }
 212              		.loc 1 67 0
 213 0006 0021     		movs	r1, #0
 214 0008 0020     		movs	r0, #0
 215              	.LVL23:
 216 000a FFF7FEFF 		bl	pd_internal_cfet_on
 217              	.LVL24:
 218              	.L13:
  70:..\src\app/psink.c ****     {
 219              		.loc 1 70 0
 220 000e 012C     		cmp	r4, #1
 221 0010 03D1     		bne	.L12
  72:..\src\app/psink.c ****     }
 222              		.loc 1 72 0
 223 0012 0021     		movs	r1, #0
 224 0014 0120     		movs	r0, #1
 225 0016 FFF7FEFF 		bl	pd_internal_cfet_on
 226              	.LVL25:
 227              	.L12:
  75:..\src\app/psink.c **** 
 228              		.loc 1 75 0
 229              		@ sp needed
 230 001a 10BD     		pop	{r4, pc}
 231              		.cfi_endproc
 232              	.LFE33:
 233              		.size	sink_fet_on, .-sink_fet_on
 234              		.section	.text.psnk_set_voltage,"ax",%progbits
 235              		.align	2
 236              		.global	psnk_set_voltage
 237              		.code	16
 238              		.thumb_func
 239              		.type	psnk_set_voltage, %function
 240              	psnk_set_voltage:
 241              	.LFB35:
 108:..\src\app/psink.c ****     app_status_t* app_stat = app_get_status(port);
 242              		.loc 1 108 0
ARM GAS  e:\temp\ccGPYxev.s 			page 9


 243              		.cfi_startproc
 244              		@ args = 0, pretend = 0, frame = 0
 245              		@ frame_needed = 0, uses_anonymous_args = 0
 246              	.LVL26:
 247 0000 70B5     		push	{r4, r5, r6, lr}
 248              		.cfi_def_cfa_offset 16
 249              		.cfi_offset 4, -16
 250              		.cfi_offset 5, -12
 251              		.cfi_offset 6, -8
 252              		.cfi_offset 14, -4
 253 0002 0400     		movs	r4, r0
 254 0004 0D00     		movs	r5, r1
 109:..\src\app/psink.c ****     app_stat->psnk_volt = volt_mV;
 255              		.loc 1 109 0
 256 0006 FFF7FEFF 		bl	app_get_status
 257              	.LVL27:
 110:..\src\app/psink.c **** 
 258              		.loc 1 110 0
 259 000a 8586     		strh	r5, [r0, #52]
 113:..\src\app/psink.c **** 
 260              		.loc 1 113 0
 261 000c 2000     		movs	r0, r4
 262              	.LVL28:
 263 000e FFF7FEFF 		bl	vbus_discharge_off
 264              	.LVL29:
 117:..\src\app/psink.c **** #else /* CCG4 */
 265              		.loc 1 117 0
 266 0012 034B     		ldr	r3, .L16
 267 0014 0022     		movs	r2, #0
 268 0016 2900     		movs	r1, r5
 269 0018 2000     		movs	r0, r4
 270 001a FFF7FEFF 		bl	app_ovp_enable
 271              	.LVL30:
 122:..\src\app/psink.c **** 
 272              		.loc 1 122 0
 273              		@ sp needed
 274 001e 70BD     		pop	{r4, r5, r6, pc}
 275              	.L17:
 276              		.align	2
 277              	.L16:
 278 0020 00000000 		.word	app_psnk_vbus_ovp_cbk
 279              		.cfi_endproc
 280              	.LFE35:
 281              		.size	psnk_set_voltage, .-psnk_set_voltage
 282              		.section	.text.psnk_set_current,"ax",%progbits
 283              		.align	2
 284              		.global	psnk_set_current
 285              		.code	16
 286              		.thumb_func
 287              		.type	psnk_set_current, %function
 288              	psnk_set_current:
 289              	.LFB36:
 125:..\src\app/psink.c ****     app_status_t* app_stat = app_get_status(port);
 290              		.loc 1 125 0
 291              		.cfi_startproc
 292              		@ args = 0, pretend = 0, frame = 0
 293              		@ frame_needed = 0, uses_anonymous_args = 0
ARM GAS  e:\temp\ccGPYxev.s 			page 10


 294              	.LVL31:
 295 0000 10B5     		push	{r4, lr}
 296              		.cfi_def_cfa_offset 8
 297              		.cfi_offset 4, -8
 298              		.cfi_offset 14, -4
 299 0002 0C00     		movs	r4, r1
 126:..\src\app/psink.c ****     app_stat->psnk_cur = cur_10mA;
 300              		.loc 1 126 0
 301 0004 FFF7FEFF 		bl	app_get_status
 302              	.LVL32:
 127:..\src\app/psink.c ****     
 303              		.loc 1 127 0
 304 0008 C486     		strh	r4, [r0, #54]
 149:..\src\app/psink.c **** 
 305              		.loc 1 149 0
 306              		@ sp needed
 307 000a 10BD     		pop	{r4, pc}
 308              		.cfi_endproc
 309              	.LFE36:
 310              		.size	psnk_set_current, .-psnk_set_current
 311              		.section	.text.psnk_enable,"ax",%progbits
 312              		.align	2
 313              		.global	psnk_enable
 314              		.code	16
 315              		.thumb_func
 316              		.type	psnk_enable, %function
 317              	psnk_enable:
 318              	.LFB37:
 152:..\src\app/psink.c ****     uint8_t intr_state;
 319              		.loc 1 152 0
 320              		.cfi_startproc
 321              		@ args = 0, pretend = 0, frame = 0
 322              		@ frame_needed = 0, uses_anonymous_args = 0
 323              	.LVL33:
 324 0000 70B5     		push	{r4, r5, r6, lr}
 325              		.cfi_def_cfa_offset 16
 326              		.cfi_offset 4, -16
 327              		.cfi_offset 5, -12
 328              		.cfi_offset 6, -8
 329              		.cfi_offset 14, -4
 330 0002 0400     		movs	r4, r0
 154:..\src\app/psink.c **** 
 331              		.loc 1 154 0
 332 0004 FFF7FEFF 		bl	CyEnterCriticalSection
 333              	.LVL34:
 334 0008 0500     		movs	r5, r0
 335              	.LVL35:
 157:..\src\app/psink.c **** 
 336              		.loc 1 157 0
 337 000a 2000     		movs	r0, r4
 338 000c FFF7FEFF 		bl	vbus_discharge_off
 339              	.LVL36:
 160:..\src\app/psink.c ****     {
 340              		.loc 1 160 0
 341 0010 2000     		movs	r0, r4
 342 0012 FFF7FEFF 		bl	dpm_get_info
 343              	.LVL37:
ARM GAS  e:\temp\ccGPYxev.s 			page 11


 344 0016 8723     		movs	r3, #135
 345 0018 C35C     		ldrb	r3, [r0, r3]
 346 001a 002B     		cmp	r3, #0
 347 001c 09D0     		beq	.L20
 160:..\src\app/psink.c ****     {
 348              		.loc 1 160 0 is_stmt 0 discriminator 1
 349 001e 2000     		movs	r0, r4
 350 0020 FFF7FEFF 		bl	dpm_get_info
 351              	.LVL38:
 352 0024 A123     		movs	r3, #161
 353 0026 C35C     		ldrb	r3, [r0, r3]
 354 0028 002B     		cmp	r3, #0
 355 002a 02D1     		bne	.L20
 162:..\src\app/psink.c ****     }
 356              		.loc 1 162 0 is_stmt 1
 357 002c 2000     		movs	r0, r4
 358 002e FFF7FEFF 		bl	sink_fet_on
 359              	.LVL39:
 360              	.L20:
 165:..\src\app/psink.c **** }
 361              		.loc 1 165 0
 362 0032 2800     		movs	r0, r5
 363 0034 FFF7FEFF 		bl	CyExitCriticalSection
 364              	.LVL40:
 166:..\src\app/psink.c **** 
 365              		.loc 1 166 0
 366              		@ sp needed
 367              	.LVL41:
 368 0038 70BD     		pop	{r4, r5, r6, pc}
 369              		.cfi_endproc
 370              	.LFE37:
 371              		.size	psnk_enable, .-psnk_enable
 372 003a C046     		.section	.text.psnk_disable,"ax",%progbits
 373              		.align	2
 374              		.global	psnk_disable
 375              		.code	16
 376              		.thumb_func
 377              		.type	psnk_disable, %function
 378              	psnk_disable:
 379              	.LFB39:
 197:..\src\app/psink.c **** 
 198:..\src\app/psink.c **** void psnk_disable (uint8_t port, sink_discharge_off_cbk_t snk_discharge_off_handler)
 199:..\src\app/psink.c **** {
 380              		.loc 1 199 0
 381              		.cfi_startproc
 382              		@ args = 0, pretend = 0, frame = 0
 383              		@ frame_needed = 0, uses_anonymous_args = 0
 384              	.LVL42:
 385 0000 F8B5     		push	{r3, r4, r5, r6, r7, lr}
 386              		.cfi_def_cfa_offset 24
 387              		.cfi_offset 3, -24
 388              		.cfi_offset 4, -20
 389              		.cfi_offset 5, -16
 390              		.cfi_offset 6, -12
 391              		.cfi_offset 7, -8
 392              		.cfi_offset 14, -4
 393 0002 0400     		movs	r4, r0
ARM GAS  e:\temp\ccGPYxev.s 			page 12


 394 0004 0E00     		movs	r6, r1
 200:..\src\app/psink.c ****     uint8_t intr_state;
 201:..\src\app/psink.c ****     app_status_t* app_stat = app_get_status(port);
 395              		.loc 1 201 0
 396 0006 FFF7FEFF 		bl	app_get_status
 397              	.LVL43:
 398 000a 0500     		movs	r5, r0
 399              	.LVL44:
 202:..\src\app/psink.c **** 
 203:..\src\app/psink.c ****     intr_state = CyEnterCriticalSection();
 400              		.loc 1 203 0
 401 000c FFF7FEFF 		bl	CyEnterCriticalSection
 402              	.LVL45:
 403 0010 0700     		movs	r7, r0
 404              	.LVL46:
 204:..\src\app/psink.c **** 
 205:..\src\app/psink.c **** #if VBUS_OVP_ENABLE
 206:..\src\app/psink.c **** #ifdef CCG3
 207:..\src\app/psink.c ****     app_ovp_disable (port, CCG_SNK_FET);
 208:..\src\app/psink.c **** #else
 209:..\src\app/psink.c ****     app_ovp_disable (port, false);
 405              		.loc 1 209 0
 406 0012 0021     		movs	r1, #0
 407 0014 2000     		movs	r0, r4
 408 0016 FFF7FEFF 		bl	app_ovp_disable
 409              	.LVL47:
 210:..\src\app/psink.c **** #endif /* CCG3 */
 211:..\src\app/psink.c **** #endif /* VBUS_OVP_ENABLE */
 212:..\src\app/psink.c **** 
 213:..\src\app/psink.c **** #if VBUS_UVP_ENABLE
 214:..\src\app/psink.c ****     app_uvp_disable (port, CCG_SNK_FET);
 215:..\src\app/psink.c **** #endif /* VBUS_UVP_ENABLE */
 216:..\src\app/psink.c **** 
 217:..\src\app/psink.c ****     sink_fet_off(port);
 410              		.loc 1 217 0
 411 001a 2000     		movs	r0, r4
 412 001c FFF7FEFF 		bl	sink_fet_off
 413              	.LVL48:
 218:..\src\app/psink.c **** 
 219:..\src\app/psink.c ****     vbus_discharge_off(port);
 414              		.loc 1 219 0
 415 0020 2000     		movs	r0, r4
 416 0022 FFF7FEFF 		bl	vbus_discharge_off
 417              	.LVL49:
 220:..\src\app/psink.c ****     timer_stop_range(port, APP_PSINK_DIS_TIMER, APP_PSINK_DIS_MONITOR_TIMER);
 418              		.loc 1 220 0
 419 0026 2722     		movs	r2, #39
 420 0028 2621     		movs	r1, #38
 421 002a 2000     		movs	r0, r4
 422 002c FFF7FEFF 		bl	timer_stop_range
 423              	.LVL50:
 221:..\src\app/psink.c **** 
 222:..\src\app/psink.c ****     if ((snk_discharge_off_handler != NULL) && (dpm_get_info(port)->dpm_enabled))
 424              		.loc 1 222 0
 425 0030 002E     		cmp	r6, #0
 426 0032 17D0     		beq	.L22
 427              		.loc 1 222 0 is_stmt 0 discriminator 1
ARM GAS  e:\temp\ccGPYxev.s 			page 13


 428 0034 2000     		movs	r0, r4
 429 0036 FFF7FEFF 		bl	dpm_get_info
 430              	.LVL51:
 431 003a 8723     		movs	r3, #135
 432 003c C35C     		ldrb	r3, [r0, r3]
 433 003e 002B     		cmp	r3, #0
 434 0040 10D0     		beq	.L22
 223:..\src\app/psink.c ****     {
 224:..\src\app/psink.c ****         vbus_discharge_on(port);
 435              		.loc 1 224 0 is_stmt 1
 436 0042 2000     		movs	r0, r4
 437 0044 FFF7FEFF 		bl	vbus_discharge_on
 438              	.LVL52:
 225:..\src\app/psink.c **** 
 226:..\src\app/psink.c ****         app_stat->snk_dis_cbk = snk_discharge_off_handler;
 439              		.loc 1 226 0
 440 0048 6E60     		str	r6, [r5, #4]
 227:..\src\app/psink.c **** 
 228:..\src\app/psink.c ****         /* Start Power source enable and monitor timer. */
 229:..\src\app/psink.c ****         timer_start(port, APP_PSINK_DIS_TIMER, APP_PSINK_DIS_TIMER_PERIOD, app_psnk_tmr_cbk);
 441              		.loc 1 229 0
 442 004a 094E     		ldr	r6, .L23
 443              	.LVL53:
 444 004c 3300     		movs	r3, r6
 445 004e FA22     		movs	r2, #250
 446 0050 2621     		movs	r1, #38
 447 0052 2000     		movs	r0, r4
 448 0054 FFF7FEFF 		bl	timer_start
 449              	.LVL54:
 230:..\src\app/psink.c ****         timer_start(port, APP_PSINK_DIS_MONITOR_TIMER, APP_PSINK_DIS_MONITOR_TIMER_PERIOD, app_psnk
 450              		.loc 1 230 0
 451 0058 3300     		movs	r3, r6
 452 005a 0122     		movs	r2, #1
 453 005c 2721     		movs	r1, #39
 454 005e 2000     		movs	r0, r4
 455 0060 FFF7FEFF 		bl	timer_start
 456              	.LVL55:
 457              	.L22:
 231:..\src\app/psink.c ****     }
 232:..\src\app/psink.c **** #if ((VBUS_IN_DISCHARGE_EN) && (POWER_BANK))
 233:..\src\app/psink.c ****     else
 234:..\src\app/psink.c ****     {
 235:..\src\app/psink.c ****         /* It does not make sense to extra discharge even if we are not Type-C attached */
 236:..\src\app/psink.c ****         if ((dpm_get_info(port)->attach == true) && (app_get_status(port)->psnk_volt > VSAFE_5V))
 237:..\src\app/psink.c ****         {
 238:..\src\app/psink.c ****             /*
 239:..\src\app/psink.c ****              * If the same FET controls both source and sink operation, the VBUS_IN
 240:..\src\app/psink.c ****              * side of the FET needs to be discharged to less than 5V. This operation
 241:..\src\app/psink.c ****              * needs to be done. It is expected that this discharge shall happen 
 242:..\src\app/psink.c ****              * before the tSrcTransition period. A fixed delay is used for this. It
 243:..\src\app/psink.c ****              * can be extended to monitor VBUS based on the design as required.
 244:..\src\app/psink.c ****              */
 245:..\src\app/psink.c ****             pd_internal_vbus_in_discharge_on(port);
 246:..\src\app/psink.c ****             timer_start(port, APP_PSINK_DIS_TIMER, APP_PSINK_DIS_VBUS_IN_DIS_PERIOD, app_psnk_tmr_c
 247:..\src\app/psink.c ****         }
 248:..\src\app/psink.c ****     }
 249:..\src\app/psink.c **** #endif /* ((VBUS_IN_DISCHARGE_EN) && (POWER_BANK)) */
ARM GAS  e:\temp\ccGPYxev.s 			page 14


 250:..\src\app/psink.c **** 
 251:..\src\app/psink.c ****     /* Update the psnk_volt data structure so that we do not have stale value
 252:..\src\app/psink.c ****      * till the next sink attach */
 253:..\src\app/psink.c ****     app_stat->psnk_volt = VSAFE_5V;
 458              		.loc 1 253 0
 459 0064 034B     		ldr	r3, .L23+4
 460 0066 AB86     		strh	r3, [r5, #52]
 254:..\src\app/psink.c ****     
 255:..\src\app/psink.c ****     CyExitCriticalSection(intr_state);
 461              		.loc 1 255 0
 462 0068 3800     		movs	r0, r7
 463 006a FFF7FEFF 		bl	CyExitCriticalSection
 464              	.LVL56:
 256:..\src\app/psink.c **** }
 465              		.loc 1 256 0
 466              		@ sp needed
 467              	.LVL57:
 468              	.LVL58:
 469 006e F8BD     		pop	{r3, r4, r5, r6, r7, pc}
 470              	.L24:
 471              		.align	2
 472              	.L23:
 473 0070 00000000 		.word	app_psnk_tmr_cbk
 474 0074 88130000 		.word	5000
 475              		.cfi_endproc
 476              	.LFE39:
 477              		.size	psnk_disable, .-psnk_disable
 478              		.text
 479              	.Letext0:
 480              		.file 2 "e:\\cypress\\psoc creator\\4.2\\psoc creator\\import\\gnu\\arm\\5.4.1\\arm-none-eabi\\inc
 481              		.file 3 "e:\\cypress\\psoc creator\\4.2\\psoc creator\\import\\gnu\\arm\\5.4.1\\arm-none-eabi\\inc
 482              		.file 4 "..\\src\\pd_common/pd.h"
 483              		.file 5 "..\\src\\app\\alt_mode/alt_mode_hw.h"
 484              		.file 6 "..\\src\\app/app.h"
 485              		.file 7 "..\\src\\system/timer.h"
 486              		.file 8 "..\\src\\pd_hal/pdss_hal.h"
 487              		.file 9 "..\\src\\pd_common/dpm.h"
 488              		.file 10 "Generated_Source\\PSoC4/CyLib.h"