ARM GAS  e:\temp\ccAdChwx.s 			page 1


   1              		.syntax unified
   2              		.cpu cortex-m0
   3              		.fpu softvfp
   4              		.eabi_attribute 20, 1
   5              		.eabi_attribute 21, 1
   6              		.eabi_attribute 23, 3
   7              		.eabi_attribute 24, 1
   8              		.eabi_attribute 25, 1
   9              		.eabi_attribute 26, 1
  10              		.eabi_attribute 30, 1
  11              		.eabi_attribute 34, 0
  12              		.eabi_attribute 18, 4
  13              		.thumb
  14              		.syntax unified
  15              		.file	"solution.c"
  16              		.text
  17              	.Ltext0:
  18              		.cfi_sections	.debug_frame
  19              		.section	.text.mux_xfer_timer_cb,"ax",%progbits
  20              		.align	2
  21              		.global	mux_xfer_timer_cb
  22              		.code	16
  23              		.thumb_func
  24              		.type	mux_xfer_timer_cb, %function
  25              	mux_xfer_timer_cb:
  26              	.LFB32:
  27              		.file 1 "..\\common\\solution.c"
   1:..\common/solution.c **** /**
   2:..\common/solution.c ****  * @file solution.c
   3:..\common/solution.c ****  *
   4:..\common/solution.c ****  * @brief @{Solution source file for one port CCG5 NON-TBT solution layer port.@}
   5:..\common/solution.c ****  *
   6:..\common/solution.c ****  *******************************************************************************
   7:..\common/solution.c ****  *
   8:..\common/solution.c ****  * Copyright (2016-2018), Cypress Semiconductor Corporation or a subsidiary of
   9:..\common/solution.c ****  * Cypress Semiconductor Corporation. All rights reserved.
  10:..\common/solution.c ****  *
  11:..\common/solution.c ****  * This software, including source code, documentation and related materials
  12:..\common/solution.c ****  * (“Software”), is owned by Cypress Semiconductor Corporation or one of its
  13:..\common/solution.c ****  * subsidiaries (“Cypress”) and is protected by and subject to worldwide patent
  14:..\common/solution.c ****  * protection (United States and foreign), United States copyright laws and
  15:..\common/solution.c ****  * international treaty provisions. Therefore, you may use this Software only
  16:..\common/solution.c ****  * as provided in the license agreement accompanying the software package from
  17:..\common/solution.c ****  * which you obtained this Software (“EULA”).
  18:..\common/solution.c ****  *
  19:..\common/solution.c ****  * If no EULA applies, Cypress hereby grants you a personal, nonexclusive,
  20:..\common/solution.c ****  * non-transferable license to copy, modify, and compile the Software source
  21:..\common/solution.c ****  * code solely for use in connection with Cypress’s integrated circuit
  22:..\common/solution.c ****  * products. Any reproduction, modification, translation, compilation, or
  23:..\common/solution.c ****  * representation of this Software except as specified above is prohibited
  24:..\common/solution.c ****  * without the express written permission of Cypress. Disclaimer: THIS SOFTWARE
  25:..\common/solution.c ****  * IS PROVIDED AS-IS, WITH NO WARRANTY OF ANY KIND, EXPRESS OR IMPLIED,
  26:..\common/solution.c ****  * INCLUDING, BUT NOT LIMITED TO, NONINFRINGEMENT, IMPLIED WARRANTIES OF
  27:..\common/solution.c ****  * MERCHANTABILITY AND FITNESS FOR A PARTICULAR PURPOSE. Cypress reserves the
  28:..\common/solution.c ****  * right to make changes to the Software without notice. Cypress does not
  29:..\common/solution.c ****  * assume any liability arising out of the application or use of the Software
  30:..\common/solution.c ****  * or any product or circuit described in the Software. Cypress does not
ARM GAS  e:\temp\ccAdChwx.s 			page 2


  31:..\common/solution.c ****  * authorize its products for use in any products where a malfunction or
  32:..\common/solution.c ****  * failure of the Cypress product may reasonably be expected to result in
  33:..\common/solution.c ****  * significant property damage, injury or death (“High Risk Product”). By
  34:..\common/solution.c ****  * including Cypress’s product in a High Risk Product, the manufacturer of such
  35:..\common/solution.c ****  * system or application assumes all risk of such use and in doing so agrees to
  36:..\common/solution.c ****  * indemnify Cypress against all liability.
  37:..\common/solution.c ****  */
  38:..\common/solution.c **** 
  39:..\common/solution.c **** #include <pd.h>
  40:..\common/solution.c **** #include <timer.h>
  41:..\common/solution.c **** #include <dpm.h>
  42:..\common/solution.c **** #include <app.h>
  43:..\common/solution.c **** #include <psource.h>
  44:..\common/solution.c **** #include <solution.h>
  45:..\common/solution.c **** #include <NCP81239_regs.h>
  46:..\common/solution.c **** #include <pdss_hal.h>
  47:..\common/solution.c **** 
  48:..\common/solution.c **** #define MAKE_MUX_STATE(polarity,cfg)    ((uint8_t)(polarity << 7) | (cfg & 0x7F))
  49:..\common/solution.c **** 
  50:..\common/solution.c **** /* MUX access timeout indication. */
  51:..\common/solution.c **** volatile bool mux_xfer_timeout = false;
  52:..\common/solution.c **** 
  53:..\common/solution.c **** /* I2C slave address assigned to PI3DPX1205A data mux for each PD port. */
  54:..\common/solution.c **** static const uint8_t mux_addr[NO_OF_TYPEC_PORTS] =
  55:..\common/solution.c **** {
  56:..\common/solution.c ****     MUX_PORT_1_SLAVE_ADDR
  57:..\common/solution.c **** #if CCG_PD_DUALPORT_ENABLE
  58:..\common/solution.c ****         ,
  59:..\common/solution.c ****     MUX_PORT_2_SLAVE_ADDR
  60:..\common/solution.c **** #endif /* CCG_PD_DUALPORT_ENABLE */
  61:..\common/solution.c **** };
  62:..\common/solution.c **** 
  63:..\common/solution.c **** /* Current mux state. */
  64:..\common/solution.c **** static volatile uint8_t mux_state[NO_OF_TYPEC_PORTS] =
  65:..\common/solution.c **** {
  66:..\common/solution.c ****     MUX_CONFIG_DEINIT
  67:..\common/solution.c **** #if CCG_PD_DUALPORT_ENABLE
  68:..\common/solution.c ****         ,
  69:..\common/solution.c ****     MUX_CONFIG_DEINIT
  70:..\common/solution.c **** #endif /* CCG_PD_DUALPORT_ENABLE */
  71:..\common/solution.c **** };
  72:..\common/solution.c **** 
  73:..\common/solution.c **** /* I2C slave address assigned to NCP81239 controller for each PD port. */
  74:..\common/solution.c **** static const uint8_t pd_ctrl_addr[NO_OF_TYPEC_PORTS] =
  75:..\common/solution.c **** {
  76:..\common/solution.c ****     NCP_PORT_1_SLAVE_ADDR
  77:..\common/solution.c **** #if CCG_PD_DUALPORT_ENABLE
  78:..\common/solution.c ****         ,
  79:..\common/solution.c ****     NCP_PORT_2_SLAVE_ADDR
  80:..\common/solution.c **** #endif /* CCG_PD_DUALPORT_ENABLE */
  81:..\common/solution.c **** };
  82:..\common/solution.c **** 
  83:..\common/solution.c **** uint8_t pd_ctrl_config[][2] =
  84:..\common/solution.c **** {
  85:..\common/solution.c **** #if CCG_FRS_RX_ENABLE
  86:..\common/solution.c ****     {PD_CTRL_VPS_REG_ADDR, PD_CTRL_VPS_5V},
  87:..\common/solution.c **** #else /* !CCG_FRS_RX_ENABLE */
ARM GAS  e:\temp\ccAdChwx.s 			page 3


  88:..\common/solution.c ****     {PD_CTRL_VPS_REG_ADDR, PD_CTRL_VPS_0V},
  89:..\common/solution.c **** #endif /* CCG_FRS_RX_ENABLE */
  90:..\common/solution.c **** 
  91:..\common/solution.c ****     {PD_CTRL_SKEW_RATE_REG_ADDR, PD_CTRL_SKEW_RATE_4_9_MV_US}
  92:..\common/solution.c **** };
  93:..\common/solution.c **** 
  94:..\common/solution.c **** /* Timer callback used for I2C transactions to the MUX. */
  95:..\common/solution.c **** void mux_xfer_timer_cb(uint8_t port, timer_id_t id)
  96:..\common/solution.c **** {
  28              		.loc 1 96 0
  29              		.cfi_startproc
  30              		@ args = 0, pretend = 0, frame = 0
  31              		@ frame_needed = 0, uses_anonymous_args = 0
  32              		@ link register save eliminated.
  33              	.LVL0:
  97:..\common/solution.c ****     (void)port;
  98:..\common/solution.c ****     (void)id;
  99:..\common/solution.c **** 
 100:..\common/solution.c ****     /*
 101:..\common/solution.c ****      * I2C transmission to MUX continues longer than timeout. Slave doesn't
 102:..\common/solution.c ****      * respond.
 103:..\common/solution.c ****      */
 104:..\common/solution.c ****     mux_xfer_timeout = true;
  34              		.loc 1 104 0
  35 0000 0122     		movs	r2, #1
  36 0002 014B     		ldr	r3, .L2
  37 0004 1A70     		strb	r2, [r3]
 105:..\common/solution.c **** }
  38              		.loc 1 105 0
  39              		@ sp needed
  40 0006 7047     		bx	lr
  41              	.L3:
  42              		.align	2
  43              	.L2:
  44 0008 00000000 		.word	.LANCHOR0
  45              		.cfi_endproc
  46              	.LFE32:
  47              		.size	mux_xfer_timer_cb, .-mux_xfer_timer_cb
  48              		.section	.text.i2cm_init,"ax",%progbits
  49              		.align	2
  50              		.global	i2cm_init
  51              		.code	16
  52              		.thumb_func
  53              		.type	i2cm_init, %function
  54              	i2cm_init:
  55              	.LFB33:
 106:..\common/solution.c **** 
 107:..\common/solution.c **** /* Configure the I2C interface. */
 108:..\common/solution.c **** void i2cm_init(void)
 109:..\common/solution.c **** {
  56              		.loc 1 109 0
  57              		.cfi_startproc
  58              		@ args = 0, pretend = 0, frame = 0
  59              		@ frame_needed = 0, uses_anonymous_args = 0
  60              		@ link register save eliminated.
 110:..\common/solution.c ****     I2C_MSTR_CTRL_REG     = I2C_MSTR_I2C_DEFAULT_CTRL;
  61              		.loc 1 110 0
ARM GAS  e:\temp\ccAdChwx.s 			page 4


  62 0000 084B     		ldr	r3, .L5
  63 0002 0022     		movs	r2, #0
  64 0004 1A60     		str	r2, [r3]
 111:..\common/solution.c ****     I2C_MSTR_I2C_CTRL_REG = I2C_MSTR_I2C_DEFAULT_I2C_CTRL;
  65              		.loc 1 111 0
  66 0006 0848     		ldr	r0, .L5+4
  67 0008 0849     		ldr	r1, .L5+8
  68 000a 0860     		str	r0, [r1]
 112:..\common/solution.c **** 
 113:..\common/solution.c ****     /* Configure TX direction. */
 114:..\common/solution.c ****     I2C_MSTR_TX_CTRL_REG      = I2C_MSTR_I2C_DEFAULT_TX_CTRL;
  69              		.loc 1 114 0
  70 000c 0848     		ldr	r0, .L5+12
  71 000e 0949     		ldr	r1, .L5+16
  72 0010 0860     		str	r0, [r1]
 115:..\common/solution.c ****     I2C_MSTR_TX_FIFO_CTRL_REG = I2C_MSTR_I2C_DEFAULT_TX_FIFO_CTRL;
  73              		.loc 1 115 0
  74 0012 0949     		ldr	r1, .L5+20
  75 0014 0A60     		str	r2, [r1]
 116:..\common/solution.c **** 
 117:..\common/solution.c ****     I2C_MSTR_CTRL_REG |= I2C_MSTR_CTRL_ENABLED;
  76              		.loc 1 117 0
  77 0016 1A68     		ldr	r2, [r3]
  78 0018 8021     		movs	r1, #128
  79 001a 0906     		lsls	r1, r1, #24
  80 001c 0A43     		orrs	r2, r1
  81 001e 1A60     		str	r2, [r3]
 118:..\common/solution.c **** }
  82              		.loc 1 118 0
  83              		@ sp needed
  84 0020 7047     		bx	lr
  85              	.L6:
  86 0022 C046     		.align	2
  87              	.L5:
  88 0024 00000640 		.word	1074135040
  89 0028 96080080 		.word	-2147481450
  90 002c 60000640 		.word	1074135136
  91 0030 07010080 		.word	-2147483385
  92 0034 00020640 		.word	1074135552
  93 0038 04020640 		.word	1074135556
  94              		.cfi_endproc
  95              	.LFE33:
  96              		.size	i2cm_init, .-i2cm_init
  97              		.section	.text.I2C_Write,"ax",%progbits
  98              		.align	2
  99              		.global	I2C_Write
 100              		.code	16
 101              		.thumb_func
 102              		.type	I2C_Write, %function
 103              	I2C_Write:
 104              	.LFB34:
 119:..\common/solution.c **** 
 120:..\common/solution.c **** /* Sending Data to I2C device */
 121:..\common/solution.c **** bool I2C_Write( uint8_t addr, uint8_t *buffer, uint32_t count)
 122:..\common/solution.c **** {
 105              		.loc 1 122 0
 106              		.cfi_startproc
ARM GAS  e:\temp\ccAdChwx.s 			page 5


 107              		@ args = 0, pretend = 0, frame = 0
 108              		@ frame_needed = 0, uses_anonymous_args = 0
 109              	.LVL1:
 110 0000 70B5     		push	{r4, r5, r6, lr}
 111              		.cfi_def_cfa_offset 16
 112              		.cfi_offset 4, -16
 113              		.cfi_offset 5, -12
 114              		.cfi_offset 6, -8
 115              		.cfi_offset 14, -4
 116 0002 0600     		movs	r6, r0
 117 0004 0D00     		movs	r5, r1
 118 0006 1400     		movs	r4, r2
 119              	.LVL2:
 123:..\common/solution.c ****     uint32_t i;
 124:..\common/solution.c ****     uint8_t  status = false;
 125:..\common/solution.c **** 
 126:..\common/solution.c ****     /* Clear the timeout flag and start a timer. */
 127:..\common/solution.c ****     mux_xfer_timeout = false;
 120              		.loc 1 127 0
 121 0008 0022     		movs	r2, #0
 122              	.LVL3:
 123 000a 384B     		ldr	r3, .L24
 124 000c 1A70     		strb	r2, [r3]
 128:..\common/solution.c ****     timer_start (0, MUX_I2C_TIMER, MUX_I2C_TIMER_PERIOD, mux_xfer_timer_cb);
 125              		.loc 1 128 0
 126 000e 384B     		ldr	r3, .L24+4
 127 0010 0A32     		adds	r2, r2, #10
 128 0012 C121     		movs	r1, #193
 129              	.LVL4:
 130 0014 0020     		movs	r0, #0
 131              	.LVL5:
 132 0016 FFF7FEFF 		bl	timer_start
 133              	.LVL6:
 129:..\common/solution.c **** 
 130:..\common/solution.c ****     /* If the bus is free, generate a Start condition. */
 131:..\common/solution.c ****     if ((I2C_MSTR_I2C_STATUS_REG & I2C_MSTR_I2C_STATUS_BUS_BUSY) == 0)
 134              		.loc 1 131 0
 135 001a 364B     		ldr	r3, .L24+8
 136 001c 1B68     		ldr	r3, [r3]
 137 001e DB07     		lsls	r3, r3, #31
 138 0020 30D4     		bmi	.L19
 139              	.LVL7:
 132:..\common/solution.c ****     {
 133:..\common/solution.c ****         /* Assume operation passed for now. */
 134:..\common/solution.c ****         status = true;
 135:..\common/solution.c **** 
 136:..\common/solution.c ****         /* TX and RX FIFO have to be EMPTY. */
 137:..\common/solution.c ****         I2C_MSTR_TX_FIFO_WR_REG = (uint32_t)(addr << 1); /* Put address in TX FIFO. */
 140              		.loc 1 137 0
 141 0022 7600     		lsls	r6, r6, #1
 142 0024 344B     		ldr	r3, .L24+12
 143 0026 1E60     		str	r6, [r3]
 138:..\common/solution.c ****         I2C_MSTR_ClearMasterInterruptSource (I2C_MSTR_INTR_MASTER_ALL);
 144              		.loc 1 138 0
 145 0028 344A     		ldr	r2, .L24+16
 146 002a 354B     		ldr	r3, .L24+20
 147 002c 1A60     		str	r2, [r3]
ARM GAS  e:\temp\ccAdChwx.s 			page 6


 139:..\common/solution.c ****         I2C_MSTR_I2C_MASTER_GENERATE_START;
 148              		.loc 1 139 0
 149 002e 0222     		movs	r2, #2
 150 0030 344B     		ldr	r3, .L24+24
 151 0032 1A60     		str	r2, [r3]
 152              	.L10:
 140:..\common/solution.c **** 
 141:..\common/solution.c ****         /* Wait for an ACK from the MUX. */
 142:..\common/solution.c ****         while (!I2C_MSTR_CHECK_INTR_MASTER(I2C_MSTR_INTR_MASTER_I2C_BUS_ERROR |
 153              		.loc 1 142 0
 154 0034 324B     		ldr	r3, .L24+20
 155 0036 1A68     		ldr	r2, [r3]
 156 0038 0823     		movs	r3, #8
 157 003a FF33     		adds	r3, r3, #255
 158 003c 1A42     		tst	r2, r3
 159 003e 16D1     		bne	.L20
 143:..\common/solution.c ****                     I2C_MSTR_INTR_MASTER_I2C_ACK |
 144:..\common/solution.c ****                     I2C_MSTR_INTR_MASTER_I2C_NACK |
 145:..\common/solution.c ****                     I2C_MSTR_INTR_MASTER_I2C_ARB_LOST) &&
 146:..\common/solution.c ****                 (!mux_xfer_timeout));
 160              		.loc 1 146 0
 161 0040 2A4B     		ldr	r3, .L24
 162 0042 1B78     		ldrb	r3, [r3]
 145:..\common/solution.c ****                 (!mux_xfer_timeout));
 163              		.loc 1 145 0
 164 0044 002B     		cmp	r3, #0
 165 0046 F5D0     		beq	.L10
 166 0048 13E0     		b	.L21
 167              	.LVL8:
 168              	.L13:
 147:..\common/solution.c **** 
 148:..\common/solution.c ****         /* Transfer the remaining data out to the MUX. */
 149:..\common/solution.c ****         for (i = 0; ((!mux_xfer_timeout) && (i < count)); i++)
 150:..\common/solution.c ****         {
 151:..\common/solution.c ****             /* Clear ACK interrupt from earlier. */
 152:..\common/solution.c ****             I2C_MSTR_CLEAR_INTR_MASTER (I2C_MSTR_INTR_MASTER_I2C_ACK);
 169              		.loc 1 152 0
 170 004a 0422     		movs	r2, #4
 171 004c 2C4B     		ldr	r3, .L24+20
 172 004e 1A60     		str	r2, [r3]
 153:..\common/solution.c **** 
 154:..\common/solution.c ****             I2C_MSTR_TX_FIFO_WR_REG = buffer[i];
 173              		.loc 1 154 0
 174 0050 6A5C     		ldrb	r2, [r5, r1]
 175 0052 294B     		ldr	r3, .L24+12
 176 0054 1A60     		str	r2, [r3]
 177              	.L12:
 155:..\common/solution.c ****             while (!I2C_MSTR_CHECK_INTR_MASTER(I2C_MSTR_INTR_MASTER_I2C_BUS_ERROR|
 178              		.loc 1 155 0
 179 0056 2A4B     		ldr	r3, .L24+20
 180 0058 1A68     		ldr	r2, [r3]
 181 005a 0823     		movs	r3, #8
 182 005c FF33     		adds	r3, r3, #255
 183 005e 1A42     		tst	r2, r3
 184 0060 03D1     		bne	.L11
 156:..\common/solution.c ****                         I2C_MSTR_INTR_MASTER_I2C_ACK |
 157:..\common/solution.c ****                         I2C_MSTR_INTR_MASTER_I2C_NACK |
ARM GAS  e:\temp\ccAdChwx.s 			page 7


 158:..\common/solution.c ****                         I2C_MSTR_INTR_MASTER_I2C_ARB_LOST) &&
 159:..\common/solution.c ****                     (!mux_xfer_timeout));
 185              		.loc 1 159 0
 186 0062 224B     		ldr	r3, .L24
 187 0064 1B78     		ldrb	r3, [r3]
 158:..\common/solution.c ****                     (!mux_xfer_timeout));
 188              		.loc 1 158 0
 189 0066 002B     		cmp	r3, #0
 190 0068 F5D0     		beq	.L12
 191              	.L11:
 149:..\common/solution.c ****         {
 192              		.loc 1 149 0 discriminator 2
 193 006a 0131     		adds	r1, r1, #1
 194              	.LVL9:
 195 006c 02E0     		b	.L9
 196              	.LVL10:
 197              	.L20:
 198 006e 0021     		movs	r1, #0
 199 0070 00E0     		b	.L9
 200              	.L21:
 201 0072 0021     		movs	r1, #0
 202              	.L9:
 203              	.LVL11:
 149:..\common/solution.c ****         {
 204              		.loc 1 149 0 is_stmt 0 discriminator 1
 205 0074 1D4B     		ldr	r3, .L24
 206 0076 1B78     		ldrb	r3, [r3]
 207 0078 002B     		cmp	r3, #0
 208 007a 05D1     		bne	.L22
 149:..\common/solution.c ****         {
 209              		.loc 1 149 0 discriminator 3
 210 007c A142     		cmp	r1, r4
 211 007e E4D3     		bcc	.L13
 134:..\common/solution.c **** 
 212              		.loc 1 134 0 is_stmt 1
 213 0080 0124     		movs	r4, #1
 214              	.LVL12:
 215 0082 02E0     		b	.L8
 216              	.LVL13:
 217              	.L19:
 124:..\common/solution.c **** 
 218              		.loc 1 124 0
 219 0084 0024     		movs	r4, #0
 220              	.LVL14:
 221 0086 00E0     		b	.L8
 222              	.LVL15:
 223              	.L22:
 134:..\common/solution.c **** 
 224              		.loc 1 134 0
 225 0088 0124     		movs	r4, #1
 226              	.LVL16:
 227              	.L8:
 160:..\common/solution.c ****         }
 161:..\common/solution.c ****     }
 162:..\common/solution.c **** 
 163:..\common/solution.c ****     /* Send a STOP to the slave. */
 164:..\common/solution.c ****     I2C_MSTR_I2C_MASTER_GENERATE_STOP;
ARM GAS  e:\temp\ccAdChwx.s 			page 8


 228              		.loc 1 164 0
 229 008a 1A4B     		ldr	r3, .L24+8
 230 008c 1B68     		ldr	r3, [r3]
 231 008e 9B06     		lsls	r3, r3, #26
 232 0090 01D5     		bpl	.L23
 233 0092 1822     		movs	r2, #24
 234 0094 00E0     		b	.L14
 235              	.L23:
 236 0096 1022     		movs	r2, #16
 237              	.L14:
 238              		.loc 1 164 0 is_stmt 0 discriminator 4
 239 0098 1A4B     		ldr	r3, .L24+24
 240 009a 1A60     		str	r2, [r3]
 241              	.L16:
 165:..\common/solution.c ****     while (!I2C_MSTR_CHECK_INTR_MASTER(I2C_MSTR_INTR_MASTER_I2C_STOP |
 242              		.loc 1 165 0 is_stmt 1
 243 009c 184B     		ldr	r3, .L24+20
 244 009e 1A68     		ldr	r2, [r3]
 245 00a0 1223     		movs	r3, #18
 246 00a2 FF33     		adds	r3, r3, #255
 247 00a4 1A42     		tst	r2, r3
 248 00a6 03D1     		bne	.L15
 166:..\common/solution.c ****                 I2C_MSTR_INTR_MASTER_I2C_ARB_LOST |
 167:..\common/solution.c ****                 I2C_MSTR_INTR_MASTER_I2C_BUS_ERROR) &&
 168:..\common/solution.c ****             (!mux_xfer_timeout));
 249              		.loc 1 168 0
 250 00a8 104B     		ldr	r3, .L24
 251 00aa 1B78     		ldrb	r3, [r3]
 167:..\common/solution.c ****             (!mux_xfer_timeout));
 252              		.loc 1 167 0
 253 00ac 002B     		cmp	r3, #0
 254 00ae F5D0     		beq	.L16
 255              	.L15:
 169:..\common/solution.c **** 
 170:..\common/solution.c ****     /* Check the results of the address phase. */
 171:..\common/solution.c ****     if (
 172:..\common/solution.c ****             I2C_MSTR_CHECK_INTR_MASTER (I2C_MSTR_INTR_MASTER_I2C_NACK |
 256              		.loc 1 172 0
 257 00b0 134B     		ldr	r3, .L24+20
 258 00b2 1A68     		ldr	r2, [r3]
 259 00b4 0423     		movs	r3, #4
 260 00b6 FF33     		adds	r3, r3, #255
 171:..\common/solution.c ****             I2C_MSTR_CHECK_INTR_MASTER (I2C_MSTR_INTR_MASTER_I2C_NACK |
 261              		.loc 1 171 0
 262 00b8 1A42     		tst	r2, r3
 263 00ba 05D1     		bne	.L17
 173:..\common/solution.c ****                 I2C_MSTR_INTR_MASTER_I2C_ARB_LOST |
 174:..\common/solution.c ****                 I2C_MSTR_INTR_MASTER_I2C_BUS_ERROR) ||
 264              		.loc 1 174 0
 265 00bc 0B4B     		ldr	r3, .L24
 266 00be 1B78     		ldrb	r3, [r3]
 267 00c0 002B     		cmp	r3, #0
 268 00c2 01D1     		bne	.L17
 175:..\common/solution.c ****             (mux_xfer_timeout) ||
 269              		.loc 1 175 0
 270 00c4 002C     		cmp	r4, #0
 271 00c6 0AD1     		bne	.L18
ARM GAS  e:\temp\ccAdChwx.s 			page 9


 272              	.L17:
 176:..\common/solution.c ****             (status == false)
 177:..\common/solution.c ****        )
 178:..\common/solution.c ****     {
 179:..\common/solution.c ****         /* Transaction failed. Reset the SCB block and return error. */
 180:..\common/solution.c ****         I2C_MSTR_CTRL_REG &= ((uint32) ~I2C_MSTR_CTRL_ENABLED);
 273              		.loc 1 180 0
 274 00c8 0F4A     		ldr	r2, .L24+28
 275 00ca 1368     		ldr	r3, [r2]
 276 00cc 5B00     		lsls	r3, r3, #1
 277 00ce 5B08     		lsrs	r3, r3, #1
 278 00d0 1360     		str	r3, [r2]
 181:..\common/solution.c ****         I2C_MSTR_CTRL_REG |= ((uint32)  I2C_MSTR_CTRL_ENABLED);
 279              		.loc 1 181 0
 280 00d2 1368     		ldr	r3, [r2]
 281 00d4 8021     		movs	r1, #128
 282 00d6 0906     		lsls	r1, r1, #24
 283 00d8 0B43     		orrs	r3, r1
 284 00da 1360     		str	r3, [r2]
 285              	.LVL17:
 182:..\common/solution.c ****         status = false;
 286              		.loc 1 182 0
 287 00dc 0024     		movs	r4, #0
 288              	.LVL18:
 289              	.L18:
 183:..\common/solution.c ****     }
 184:..\common/solution.c **** 
 185:..\common/solution.c ****     timer_stop (0, MUX_I2C_TIMER);
 290              		.loc 1 185 0
 291 00de C121     		movs	r1, #193
 292 00e0 0020     		movs	r0, #0
 293 00e2 FFF7FEFF 		bl	timer_stop
 294              	.LVL19:
 186:..\common/solution.c ****     return (status);
 295              		.loc 1 186 0
 296 00e6 2000     		movs	r0, r4
 187:..\common/solution.c **** }
 297              		.loc 1 187 0
 298              		@ sp needed
 299              	.LVL20:
 300              	.LVL21:
 301 00e8 70BD     		pop	{r4, r5, r6, pc}
 302              	.L25:
 303 00ea C046     		.align	2
 304              	.L24:
 305 00ec 00000000 		.word	.LANCHOR0
 306 00f0 00000000 		.word	mux_xfer_timer_cb
 307 00f4 64000640 		.word	1074135140
 308 00f8 40020640 		.word	1074135616
 309 00fc 17030000 		.word	791
 310 0100 000F0640 		.word	1074138880
 311 0104 68000640 		.word	1074135144
 312 0108 00000640 		.word	1074135040
 313              		.cfi_endproc
 314              	.LFE34:
 315              		.size	I2C_Write, .-I2C_Write
 316              		.section	.text.mux_ctrl_set_cfg,"ax",%progbits
ARM GAS  e:\temp\ccAdChwx.s 			page 10


 317              		.align	2
 318              		.global	mux_ctrl_set_cfg
 319              		.code	16
 320              		.thumb_func
 321              		.type	mux_ctrl_set_cfg, %function
 322              	mux_ctrl_set_cfg:
 323              	.LFB35:
 188:..\common/solution.c **** 
 189:..\common/solution.c **** /* Update the data mux settings as required. */
 190:..\common/solution.c **** bool mux_ctrl_set_cfg(uint8_t port, mux_select_t cfg, uint8_t polarity)
 191:..\common/solution.c **** {
 324              		.loc 1 191 0
 325              		.cfi_startproc
 326              		@ args = 0, pretend = 0, frame = 16
 327              		@ frame_needed = 0, uses_anonymous_args = 0
 328              	.LVL22:
 329 0000 F0B5     		push	{r4, r5, r6, r7, lr}
 330              		.cfi_def_cfa_offset 20
 331              		.cfi_offset 4, -20
 332              		.cfi_offset 5, -16
 333              		.cfi_offset 6, -12
 334              		.cfi_offset 7, -8
 335              		.cfi_offset 14, -4
 336 0002 85B0     		sub	sp, sp, #20
 337              		.cfi_def_cfa_offset 40
 338 0004 0400     		movs	r4, r0
 339 0006 0F00     		movs	r7, r1
 340 0008 1500     		movs	r5, r2
 192:..\common/solution.c ****     /* PI3DPX1205A write buffer. First 3 bytes are read-only and not influence to MUX operation */
 193:..\common/solution.c ****     uint8_t    tmp_buf[MUX_BUFF_SIZE] = {0x00, 0x00, 0x00, 0x00};
 341              		.loc 1 193 0
 342 000a 0023     		movs	r3, #0
 343 000c 0393     		str	r3, [sp, #12]
 344              	.LVL23:
 194:..\common/solution.c ****     bool       status = false;
 195:..\common/solution.c ****     dpdm_mux_cfg_t     dpdm_conf;
 196:..\common/solution.c ****     sbu_switch_state_t sbu1_conf = SBU_NOT_CONNECTED;
 197:..\common/solution.c ****     sbu_switch_state_t sbu2_conf = SBU_NOT_CONNECTED;
 198:..\common/solution.c **** 
 199:..\common/solution.c ****     /* Compare  new and recent mux states. Write to the MUX only if the config is changing */
 200:..\common/solution.c ****     if ((port < NO_OF_TYPEC_PORTS) && (MAKE_MUX_STATE(polarity, cfg) != mux_state[port]))
 345              		.loc 1 200 0
 346 000e 0128     		cmp	r0, #1
 347 0010 69D8     		bhi	.L35
 348              		.loc 1 200 0 is_stmt 0 discriminator 1
 349 0012 D301     		lsls	r3, r2, #7
 350 0014 DEB2     		uxtb	r6, r3
 351 0016 364B     		ldr	r3, .L42
 352 0018 1A5C     		ldrb	r2, [r3, r0]
 353              	.LVL24:
 354 001a D2B2     		uxtb	r2, r2
 355 001c 7F23     		movs	r3, #127
 356 001e 0B40     		ands	r3, r1
 357 0020 3343     		orrs	r3, r6
 358 0022 9342     		cmp	r3, r2
 359 0024 61D0     		beq	.L36
 201:..\common/solution.c ****     {
ARM GAS  e:\temp\ccAdChwx.s 			page 11


 202:..\common/solution.c ****         /* Enable USB 2.0 connections through the appropriate signals. */
 203:..\common/solution.c ****         if (polarity)
 360              		.loc 1 203 0 is_stmt 1
 361 0026 002D     		cmp	r5, #0
 362 0028 01D0     		beq	.L37
 204:..\common/solution.c ****             dpdm_conf = DPDM_MUX_CONN_USB_BOT_UART;
 363              		.loc 1 204 0
 364 002a 6621     		movs	r1, #102
 365              	.LVL25:
 366 002c 00E0     		b	.L28
 367              	.LVL26:
 368              	.L37:
 205:..\common/solution.c ****         else
 206:..\common/solution.c ****             dpdm_conf = DPDM_MUX_CONN_USB_TOP_UART;
 369              		.loc 1 206 0
 370 002e 9921     		movs	r1, #153
 371              	.LVL27:
 372              	.L28:
 207:..\common/solution.c **** 
 208:..\common/solution.c ****         switch(cfg)
 373              		.loc 1 208 0
 374 0030 032F     		cmp	r7, #3
 375 0032 19D0     		beq	.L30
 376 0034 02D8     		bhi	.L31
 377 0036 022F     		cmp	r7, #2
 378 0038 05D0     		beq	.L32
 379 003a 26E0     		b	.L38
 380              	.L31:
 381 003c 042F     		cmp	r7, #4
 382 003e 09D0     		beq	.L33
 383 0040 052F     		cmp	r7, #5
 384 0042 1BD0     		beq	.L34
 385 0044 21E0     		b	.L38
 386              	.L32:
 209:..\common/solution.c ****         {
 210:..\common/solution.c ****             case MUX_CONFIG_SS_ONLY:
 211:..\common/solution.c ****                 /* Set mux to USB-only mode state. */
 212:..\common/solution.c ****                 tmp_buf[MUX_CONFIG_IDX] = MUX_USB_SS;
 387              		.loc 1 212 0
 388 0046 4022     		movs	r2, #64
 389 0048 03AB     		add	r3, sp, #12
 390 004a DA70     		strb	r2, [r3, #3]
 197:..\common/solution.c **** 
 391              		.loc 1 197 0
 392 004c 0023     		movs	r3, #0
 393 004e 0193     		str	r3, [sp, #4]
 196:..\common/solution.c ****     sbu_switch_state_t sbu2_conf = SBU_NOT_CONNECTED;
 394              		.loc 1 196 0
 395 0050 0093     		str	r3, [sp]
 213:..\common/solution.c ****                 break;
 396              		.loc 1 213 0
 397 0052 2DE0     		b	.L29
 398              	.L33:
 214:..\common/solution.c **** 
 215:..\common/solution.c ****             case MUX_CONFIG_DP_4_LANE:
 216:..\common/solution.c ****                 /* Set mux to 4-lane DP mode state. */
 217:..\common/solution.c ****                 tmp_buf[MUX_CONFIG_IDX] = MUX_DP_4_LANE;
ARM GAS  e:\temp\ccAdChwx.s 			page 12


 399              		.loc 1 217 0
 400 0054 2022     		movs	r2, #32
 401 0056 03AB     		add	r3, sp, #12
 402 0058 DA70     		strb	r2, [r3, #3]
 218:..\common/solution.c ****                 if (polarity)
 403              		.loc 1 218 0
 404 005a 002D     		cmp	r5, #0
 405 005c 1AD0     		beq	.L39
 219:..\common/solution.c ****                 {
 220:..\common/solution.c ****                     /* Flipped connection: SBU1 <-> AUXN, SBU2 <-> AUXP. */
 221:..\common/solution.c ****                     sbu1_conf = SBU_CONNECT_AUX2;
 222:..\common/solution.c ****                     sbu2_conf = SBU_CONNECT_AUX1;
 406              		.loc 1 222 0
 407 005e 0123     		movs	r3, #1
 408 0060 0193     		str	r3, [sp, #4]
 221:..\common/solution.c ****                     sbu2_conf = SBU_CONNECT_AUX1;
 409              		.loc 1 221 0
 410 0062 0133     		adds	r3, r3, #1
 411 0064 0093     		str	r3, [sp]
 412 0066 23E0     		b	.L29
 413              	.L30:
 223:..\common/solution.c ****                 }
 224:..\common/solution.c ****                 else
 225:..\common/solution.c ****                 {
 226:..\common/solution.c ****                     /* Straight connection: SBU1 <-> AUXP, SBU2 <-> AUXN */
 227:..\common/solution.c ****                     sbu1_conf = SBU_CONNECT_AUX1;
 228:..\common/solution.c ****                     sbu2_conf = SBU_CONNECT_AUX2;
 229:..\common/solution.c ****                 }
 230:..\common/solution.c ****                 break;
 231:..\common/solution.c **** 
 232:..\common/solution.c ****             case MUX_CONFIG_DP_2_LANE:
 233:..\common/solution.c ****                 /* Set mux to to 2-lane DP plus USB-only mode state. */
 234:..\common/solution.c ****                 tmp_buf[MUX_CONFIG_IDX] = MUX_DP_2_LANE;
 414              		.loc 1 234 0
 415 0068 6022     		movs	r2, #96
 416 006a 03AB     		add	r3, sp, #12
 417 006c DA70     		strb	r2, [r3, #3]
 235:..\common/solution.c ****                 if (polarity)
 418              		.loc 1 235 0
 419 006e 002D     		cmp	r5, #0
 420 0070 15D0     		beq	.L40
 236:..\common/solution.c ****                 {
 237:..\common/solution.c ****                     /* Flipped connection: SBU1 <-> AUXN, SBU2 <-> AUXP. */
 238:..\common/solution.c ****                     sbu1_conf = SBU_CONNECT_AUX2;
 239:..\common/solution.c ****                     sbu2_conf = SBU_CONNECT_AUX1;
 421              		.loc 1 239 0
 422 0072 0123     		movs	r3, #1
 423 0074 0193     		str	r3, [sp, #4]
 238:..\common/solution.c ****                     sbu2_conf = SBU_CONNECT_AUX1;
 424              		.loc 1 238 0
 425 0076 0133     		adds	r3, r3, #1
 426 0078 0093     		str	r3, [sp]
 427 007a 19E0     		b	.L29
 428              	.L34:
 240:..\common/solution.c ****                 }
 241:..\common/solution.c ****                 else
 242:..\common/solution.c ****                 {
ARM GAS  e:\temp\ccAdChwx.s 			page 13


 243:..\common/solution.c ****                     /* Straight connection: SBU1 <-> AUXP, SBU2 <-> AUXN */
 244:..\common/solution.c ****                     sbu1_conf = SBU_CONNECT_AUX1;
 245:..\common/solution.c ****                     sbu2_conf = SBU_CONNECT_AUX2;
 246:..\common/solution.c ****                 }
 247:..\common/solution.c ****                 break;
 248:..\common/solution.c **** 
 249:..\common/solution.c ****             case MUX_CONFIG_RIDGE_CUSTOM:
 250:..\common/solution.c ****                 /* Set mux to powerdown state. */
 251:..\common/solution.c ****                 tmp_buf[MUX_CONFIG_IDX] = MUX_SAFE_STATE;
 252:..\common/solution.c ****                 if (polarity)
 429              		.loc 1 252 0
 430 007c 002D     		cmp	r5, #0
 431 007e 13D0     		beq	.L41
 253:..\common/solution.c ****                 {
 254:..\common/solution.c ****                     /* Flipped connection: SBU1 <-> LSRX, SBU2 <-> LSTX. */
 255:..\common/solution.c ****                     sbu1_conf = SBU_CONNECT_LSRX;
 256:..\common/solution.c ****                     sbu2_conf = SBU_CONNECT_LSTX;
 432              		.loc 1 256 0
 433 0080 0323     		movs	r3, #3
 434 0082 0193     		str	r3, [sp, #4]
 255:..\common/solution.c ****                     sbu2_conf = SBU_CONNECT_LSTX;
 435              		.loc 1 255 0
 436 0084 0133     		adds	r3, r3, #1
 437 0086 0093     		str	r3, [sp]
 438 0088 12E0     		b	.L29
 439              	.L38:
 197:..\common/solution.c **** 
 440              		.loc 1 197 0
 441 008a 0023     		movs	r3, #0
 442 008c 0193     		str	r3, [sp, #4]
 196:..\common/solution.c ****     sbu_switch_state_t sbu2_conf = SBU_NOT_CONNECTED;
 443              		.loc 1 196 0
 444 008e 0093     		str	r3, [sp]
 257:..\common/solution.c ****                 }
 258:..\common/solution.c ****                 else
 259:..\common/solution.c ****                 {
 260:..\common/solution.c ****                     /* Straight connection: SBU1 <-> LSTX, SBU2 <-> LSRX */
 261:..\common/solution.c ****                     sbu1_conf = SBU_CONNECT_LSTX;
 262:..\common/solution.c ****                     sbu2_conf = SBU_CONNECT_LSRX;
 263:..\common/solution.c ****                 }
 264:..\common/solution.c ****                 break;
 265:..\common/solution.c **** 
 266:..\common/solution.c ****             default:
 267:..\common/solution.c ****                 /* Set mux to powerdown state. */
 268:..\common/solution.c ****                 tmp_buf[MUX_CONFIG_IDX] = MUX_SAFE_STATE;
 269:..\common/solution.c **** 
 270:..\common/solution.c ****                 /* No USB 2.0 connections required. */
 271:..\common/solution.c ****                 dpdm_conf = DPDM_MUX_CONN_NONE;
 445              		.loc 1 271 0
 446 0090 0021     		movs	r1, #0
 447              	.LVL28:
 448 0092 0DE0     		b	.L29
 449              	.LVL29:
 450              	.L39:
 228:..\common/solution.c ****                 }
 451              		.loc 1 228 0
 452 0094 0223     		movs	r3, #2
ARM GAS  e:\temp\ccAdChwx.s 			page 14


 453 0096 0193     		str	r3, [sp, #4]
 227:..\common/solution.c ****                     sbu2_conf = SBU_CONNECT_AUX2;
 454              		.loc 1 227 0
 455 0098 013B     		subs	r3, r3, #1
 456 009a 0093     		str	r3, [sp]
 457 009c 08E0     		b	.L29
 458              	.L40:
 245:..\common/solution.c ****                 }
 459              		.loc 1 245 0
 460 009e 0223     		movs	r3, #2
 461 00a0 0193     		str	r3, [sp, #4]
 244:..\common/solution.c ****                     sbu2_conf = SBU_CONNECT_AUX2;
 462              		.loc 1 244 0
 463 00a2 013B     		subs	r3, r3, #1
 464 00a4 0093     		str	r3, [sp]
 465 00a6 03E0     		b	.L29
 466              	.L41:
 262:..\common/solution.c ****                 }
 467              		.loc 1 262 0
 468 00a8 0423     		movs	r3, #4
 469 00aa 0193     		str	r3, [sp, #4]
 261:..\common/solution.c ****                     sbu2_conf = SBU_CONNECT_LSRX;
 470              		.loc 1 261 0
 471 00ac 013B     		subs	r3, r3, #1
 472 00ae 0093     		str	r3, [sp]
 473              	.LVL30:
 474              	.L29:
 272:..\common/solution.c ****                 break;
 273:..\common/solution.c ****         }
 274:..\common/solution.c **** 
 275:..\common/solution.c ****         /* Configure D+/D- MUX as required. */
 276:..\common/solution.c ****         ccg_config_dp_dm_mux (port, dpdm_conf);
 475              		.loc 1 276 0
 476 00b0 2000     		movs	r0, r4
 477              	.LVL31:
 478 00b2 FFF7FEFF 		bl	ccg_config_dp_dm_mux
 479              	.LVL32:
 277:..\common/solution.c **** 
 278:..\common/solution.c ****         /* Enable SBU to LSXX connection for testing purposes. */
 279:..\common/solution.c ****         sbu_switch_configure (port, sbu1_conf, sbu2_conf);
 480              		.loc 1 279 0
 481 00b6 019A     		ldr	r2, [sp, #4]
 482 00b8 0099     		ldr	r1, [sp]
 483 00ba 2000     		movs	r0, r4
 484 00bc FFF7FEFF 		bl	sbu_switch_configure
 485              	.LVL33:
 280:..\common/solution.c **** 
 281:..\common/solution.c ****         /* Enable WDT */
 282:..\common/solution.c ****         MUX_WDT_EN(tmp_buf[MUX_CONFIG_IDX]);
 486              		.loc 1 282 0
 487 00c0 03A9     		add	r1, sp, #12
 488 00c2 CA78     		ldrb	r2, [r1, #3]
 489 00c4 0223     		movs	r3, #2
 490 00c6 1343     		orrs	r3, r2
 491 00c8 DBB2     		uxtb	r3, r3
 283:..\common/solution.c ****         /* Set polarity */
 284:..\common/solution.c ****         MUX_SET_POLARITY(tmp_buf[MUX_CONFIG_IDX], polarity);
ARM GAS  e:\temp\ccAdChwx.s 			page 15


 492              		.loc 1 284 0
 493 00ca 2D01     		lsls	r5, r5, #4
 494 00cc 1D43     		orrs	r5, r3
 495 00ce CD70     		strb	r5, [r1, #3]
 285:..\common/solution.c **** 
 286:..\common/solution.c ****         /* Update current mux state if the operation succeeded. */
 287:..\common/solution.c ****         status = I2C_Write (mux_addr[port], tmp_buf, MUX_BUFF_SIZE);
 496              		.loc 1 287 0
 497 00d0 084B     		ldr	r3, .L42+4
 498 00d2 185D     		ldrb	r0, [r3, r4]
 499 00d4 0422     		movs	r2, #4
 500 00d6 FFF7FEFF 		bl	I2C_Write
 501              	.LVL34:
 288:..\common/solution.c **** 
 289:..\common/solution.c ****         /* Store the current MUX configuration. */
 290:..\common/solution.c ****         mux_state[port] = MAKE_MUX_STATE (polarity, cfg);
 502              		.loc 1 290 0
 503 00da 7F23     		movs	r3, #127
 504 00dc 3B40     		ands	r3, r7
 505 00de 3343     		orrs	r3, r6
 506 00e0 034A     		ldr	r2, .L42
 507 00e2 1355     		strb	r3, [r2, r4]
 508 00e4 02E0     		b	.L27
 509              	.LVL35:
 510              	.L35:
 194:..\common/solution.c ****     dpdm_mux_cfg_t     dpdm_conf;
 511              		.loc 1 194 0
 512 00e6 0020     		movs	r0, #0
 513              	.LVL36:
 514 00e8 00E0     		b	.L27
 515              	.LVL37:
 516              	.L36:
 517 00ea 0020     		movs	r0, #0
 518              	.LVL38:
 519              	.L27:
 291:..\common/solution.c ****     }
 292:..\common/solution.c **** 
 293:..\common/solution.c ****     return (status);
 294:..\common/solution.c **** }
 520              		.loc 1 294 0
 521 00ec 05B0     		add	sp, sp, #20
 522              		@ sp needed
 523 00ee F0BD     		pop	{r4, r5, r6, r7, pc}
 524              	.L43:
 525              		.align	2
 526              	.L42:
 527 00f0 00000000 		.word	.LANCHOR1
 528 00f4 00000000 		.word	.LANCHOR2
 529              		.cfi_endproc
 530              	.LFE35:
 531              		.size	mux_ctrl_set_cfg, .-mux_ctrl_set_cfg
 532              		.section	.text.mux_ctrl_init,"ax",%progbits
 533              		.align	2
 534              		.global	mux_ctrl_init
 535              		.code	16
 536              		.thumb_func
 537              		.type	mux_ctrl_init, %function
ARM GAS  e:\temp\ccAdChwx.s 			page 16


 538              	mux_ctrl_init:
 539              	.LFB36:
 295:..\common/solution.c **** 
 296:..\common/solution.c **** /* Initialize the MUX control SCB block. */
 297:..\common/solution.c **** bool mux_ctrl_init(uint8_t port)
 298:..\common/solution.c **** {
 540              		.loc 1 298 0
 541              		.cfi_startproc
 542              		@ args = 0, pretend = 0, frame = 0
 543              		@ frame_needed = 0, uses_anonymous_args = 0
 544              	.LVL39:
 545 0000 10B5     		push	{r4, lr}
 546              		.cfi_def_cfa_offset 8
 547              		.cfi_offset 4, -8
 548              		.cfi_offset 14, -4
 549 0002 0400     		movs	r4, r0
 550              	.LVL40:
 299:..\common/solution.c ****     bool status = false;
 300:..\common/solution.c **** 
 301:..\common/solution.c ****     /* Configure the I2C interface. */
 302:..\common/solution.c ****     i2cm_init();
 551              		.loc 1 302 0
 552 0004 FFF7FEFF 		bl	i2cm_init
 553              	.LVL41:
 303:..\common/solution.c ****     /* Force the MUX into ISOLATE state. */
 304:..\common/solution.c ****     status = mux_ctrl_set_cfg (port, MUX_CONFIG_INIT, 0);
 554              		.loc 1 304 0
 555 0008 0022     		movs	r2, #0
 556 000a 0621     		movs	r1, #6
 557 000c 2000     		movs	r0, r4
 558 000e FFF7FEFF 		bl	mux_ctrl_set_cfg
 559              	.LVL42:
 305:..\common/solution.c **** 
 306:..\common/solution.c ****     return status;
 307:..\common/solution.c **** }
 560              		.loc 1 307 0
 561              		@ sp needed
 562 0012 10BD     		pop	{r4, pc}
 563              		.cfi_endproc
 564              	.LFE36:
 565              		.size	mux_ctrl_init, .-mux_ctrl_init
 566              		.section	.text.pd_ctrl_init,"ax",%progbits
 567              		.align	2
 568              		.global	pd_ctrl_init
 569              		.code	16
 570              		.thumb_func
 571              		.type	pd_ctrl_init, %function
 572              	pd_ctrl_init:
 573              	.LFB37:
 308:..\common/solution.c **** 
 309:..\common/solution.c **** bool pd_ctrl_init(void)
 310:..\common/solution.c **** {
 574              		.loc 1 310 0
 575              		.cfi_startproc
 576              		@ args = 0, pretend = 0, frame = 8
 577              		@ frame_needed = 0, uses_anonymous_args = 0
 578 0000 70B5     		push	{r4, r5, r6, lr}
ARM GAS  e:\temp\ccAdChwx.s 			page 17


 579              		.cfi_def_cfa_offset 16
 580              		.cfi_offset 4, -16
 581              		.cfi_offset 5, -12
 582              		.cfi_offset 6, -8
 583              		.cfi_offset 14, -4
 584 0002 82B0     		sub	sp, sp, #8
 585              		.cfi_def_cfa_offset 24
 586              	.LVL43:
 311:..\common/solution.c ****     uint8_t idx1, idx2, count;
 312:..\common/solution.c ****     uint8_t wr_buf[2];
 313:..\common/solution.c ****     uint8_t status = true;
 587              		.loc 1 313 0
 588 0004 0126     		movs	r6, #1
 314:..\common/solution.c **** 
 315:..\common/solution.c ****     count = sizeof (pd_ctrl_config) / (2 * sizeof (uint8_t));
 316:..\common/solution.c ****     for (idx1 = TYPEC_PORT_0_IDX; idx1 < NO_OF_TYPEC_PORTS; idx1++)
 589              		.loc 1 316 0
 590 0006 0025     		movs	r5, #0
 591 0008 21E0     		b	.L46
 592              	.LVL44:
 593              	.L52:
 317:..\common/solution.c ****     {
 318:..\common/solution.c **** #if CCG_FRS_RX_ENABLE
 319:..\common/solution.c ****         /* Leave the regulator enabled as FRS swap may be triggered at any time. */
 320:..\common/solution.c ****         if (idx1 == TYPEC_PORT_0_IDX)
 594              		.loc 1 320 0
 595 000a 002D     		cmp	r5, #0
 596 000c 04D1     		bne	.L47
 321:..\common/solution.c ****         {
 322:..\common/solution.c ****             NCP81239_EN_P1();
 597              		.loc 1 322 0
 598 000e 0120     		movs	r0, #1
 599 0010 FFF7FEFF 		bl	NCP81239_EN_P1_Write
 600              	.LVL45:
 601              	.L49:
 310:..\common/solution.c ****     uint8_t idx1, idx2, count;
 602              		.loc 1 310 0 discriminator 1
 603 0014 0024     		movs	r4, #0
 604 0016 16E0     		b	.L48
 605              	.L47:
 323:..\common/solution.c ****         }
 324:..\common/solution.c **** #if CCG_PD_DUALPORT_ENABLE
 325:..\common/solution.c ****         else
 326:..\common/solution.c ****         {
 327:..\common/solution.c ****             NCP81239_EN_P2();
 606              		.loc 1 327 0
 607 0018 0120     		movs	r0, #1
 608 001a FFF7FEFF 		bl	NCP81239_EN_P2_Write
 609              	.LVL46:
 610 001e F9E7     		b	.L49
 611              	.LVL47:
 612              	.L51:
 328:..\common/solution.c ****         }
 329:..\common/solution.c **** #endif /* CCG_PD_DUALPORT_ENABLE */
 330:..\common/solution.c **** #endif /* CCG_FRS_RX_ENABLE */
 331:..\common/solution.c **** 
 332:..\common/solution.c ****         for (idx2 = 0; idx2 < count; idx2++)
ARM GAS  e:\temp\ccAdChwx.s 			page 18


 333:..\common/solution.c ****         {
 334:..\common/solution.c ****             /* Write data in index 1 to address in index 0. */
 335:..\common/solution.c ****             wr_buf[0] = pd_ctrl_config[idx2][0];
 613              		.loc 1 335 0
 614 0020 6200     		lsls	r2, r4, #1
 615 0022 0F4B     		ldr	r3, .L53
 616 0024 9B18     		adds	r3, r3, r2
 617 0026 1A79     		ldrb	r2, [r3, #4]
 618 0028 01A9     		add	r1, sp, #4
 619 002a 0A70     		strb	r2, [r1]
 336:..\common/solution.c ****             wr_buf[1] = pd_ctrl_config[idx2][1];
 620              		.loc 1 336 0
 621 002c 5B79     		ldrb	r3, [r3, #5]
 622 002e 4B70     		strb	r3, [r1, #1]
 337:..\common/solution.c **** 
 338:..\common/solution.c ****             status = I2C_Write(pd_ctrl_addr[idx1], wr_buf, 2);
 623              		.loc 1 338 0
 624 0030 0C4B     		ldr	r3, .L53+4
 625 0032 5B19     		adds	r3, r3, r5
 626 0034 1879     		ldrb	r0, [r3, #4]
 627 0036 0222     		movs	r2, #2
 628 0038 FFF7FEFF 		bl	I2C_Write
 629              	.LVL48:
 630 003c 0300     		movs	r3, r0
 631 003e 061E     		subs	r6, r0, #0
 632              	.LVL49:
 339:..\common/solution.c ****             if (!status)
 633              		.loc 1 339 0
 634 0040 0BD0     		beq	.L50
 332:..\common/solution.c ****         {
 635              		.loc 1 332 0 discriminator 2
 636 0042 0134     		adds	r4, r4, #1
 637              	.LVL50:
 638 0044 E4B2     		uxtb	r4, r4
 639              	.LVL51:
 640              	.L48:
 332:..\common/solution.c ****         {
 641              		.loc 1 332 0 is_stmt 0 discriminator 1
 642 0046 012C     		cmp	r4, #1
 643 0048 EAD9     		bls	.L51
 316:..\common/solution.c ****     {
 644              		.loc 1 316 0 is_stmt 1 discriminator 2
 645 004a 0135     		adds	r5, r5, #1
 646              	.LVL52:
 647 004c EDB2     		uxtb	r5, r5
 648              	.LVL53:
 649              	.L46:
 316:..\common/solution.c ****     {
 650              		.loc 1 316 0 is_stmt 0 discriminator 1
 651 004e 012D     		cmp	r5, #1
 652 0050 DBD9     		bls	.L52
 340:..\common/solution.c ****                 return status;
 341:..\common/solution.c ****         }
 342:..\common/solution.c ****     }
 343:..\common/solution.c ****     return status;
 653              		.loc 1 343 0 is_stmt 1
 654 0052 3000     		movs	r0, r6
ARM GAS  e:\temp\ccAdChwx.s 			page 19


 655 0054 461E     		subs	r6, r0, #1
 656 0056 B041     		sbcs	r0, r0, r6
 657              	.LVL54:
 658 0058 C3B2     		uxtb	r3, r0
 659              	.L50:
 344:..\common/solution.c **** }
 660              		.loc 1 344 0
 661 005a 1800     		movs	r0, r3
 662 005c 02B0     		add	sp, sp, #8
 663              		@ sp needed
 664              	.LVL55:
 665 005e 70BD     		pop	{r4, r5, r6, pc}
 666              	.L54:
 667              		.align	2
 668              	.L53:
 669 0060 00000000 		.word	.LANCHOR1
 670 0064 00000000 		.word	.LANCHOR2
 671              		.cfi_endproc
 672              	.LFE37:
 673              		.size	pd_ctrl_init, .-pd_ctrl_init
 674              		.global	__aeabi_uidiv
 675              		.section	.text.set_pd_ctrl_voltage,"ax",%progbits
 676              		.align	2
 677              		.global	set_pd_ctrl_voltage
 678              		.code	16
 679              		.thumb_func
 680              		.type	set_pd_ctrl_voltage, %function
 681              	set_pd_ctrl_voltage:
 682              	.LFB38:
 345:..\common/solution.c **** 
 346:..\common/solution.c **** /* Setting power voltage on NCP81239 controller */
 347:..\common/solution.c **** bool set_pd_ctrl_voltage(uint8_t port, uint16_t volt)
 348:..\common/solution.c **** {
 683              		.loc 1 348 0
 684              		.cfi_startproc
 685              		@ args = 0, pretend = 0, frame = 8
 686              		@ frame_needed = 0, uses_anonymous_args = 0
 687              	.LVL56:
 688 0000 30B5     		push	{r4, r5, lr}
 689              		.cfi_def_cfa_offset 12
 690              		.cfi_offset 4, -12
 691              		.cfi_offset 5, -8
 692              		.cfi_offset 14, -4
 693 0002 83B0     		sub	sp, sp, #12
 694              		.cfi_def_cfa_offset 24
 695 0004 0500     		movs	r5, r0
 696 0006 0800     		movs	r0, r1
 697              	.LVL57:
 349:..\common/solution.c ****     uint8_t wr_buf[2];
 350:..\common/solution.c ****     uint8_t status;
 351:..\common/solution.c **** 
 352:..\common/solution.c **** #if CCG_FRS_RX_ENABLE
 353:..\common/solution.c ****     /* If fast role swap is enabled, we need to have a 5V supply read at all times. */
 354:..\common/solution.c ****     if (volt < VSAFE_5V)
 698              		.loc 1 354 0
 699 0008 0A4B     		ldr	r3, .L58
 700 000a 9942     		cmp	r1, r3
ARM GAS  e:\temp\ccAdChwx.s 			page 20


 701 000c 00D8     		bhi	.L56
 355:..\common/solution.c ****     {
 356:..\common/solution.c ****         volt = VSAFE_5V;
 702              		.loc 1 356 0
 703 000e 0A48     		ldr	r0, .L58+4
 704              	.L56:
 705              	.LVL58:
 357:..\common/solution.c ****     }
 358:..\common/solution.c **** #endif /* CCG_FRS_RX_ENABLE */
 359:..\common/solution.c **** 
 360:..\common/solution.c ****     /* Configure the regulator output voltage. */
 361:..\common/solution.c ****     wr_buf[0] = PD_CTRL_VPS_REG_ADDR;
 706              		.loc 1 361 0
 707 0010 01AC     		add	r4, sp, #4
 708 0012 0123     		movs	r3, #1
 709 0014 2370     		strb	r3, [r4]
 362:..\common/solution.c ****     wr_buf[1] = (volt / NCP_REG_VOLT_RESOLUTION) + NCP_REG_EXCESS_VOLTAGE;
 710              		.loc 1 362 0
 711 0016 6421     		movs	r1, #100
 712 0018 FFF7FEFF 		bl	__aeabi_uidiv
 713              	.LVL59:
 714 001c 0130     		adds	r0, r0, #1
 715 001e 6070     		strb	r0, [r4, #1]
 363:..\common/solution.c **** 
 364:..\common/solution.c ****     status = I2C_Write(pd_ctrl_addr[port], wr_buf, 2);
 716              		.loc 1 364 0
 717 0020 064B     		ldr	r3, .L58+8
 718 0022 5D19     		adds	r5, r3, r5
 719 0024 2879     		ldrb	r0, [r5, #4]
 720 0026 0222     		movs	r2, #2
 721 0028 2100     		movs	r1, r4
 722 002a FFF7FEFF 		bl	I2C_Write
 723              	.LVL60:
 365:..\common/solution.c ****     return (status);
 366:..\common/solution.c **** }
 724              		.loc 1 366 0
 725 002e 03B0     		add	sp, sp, #12
 726              		@ sp needed
 727 0030 30BD     		pop	{r4, r5, pc}
 728              	.L59:
 729 0032 C046     		.align	2
 730              	.L58:
 731 0034 87130000 		.word	4999
 732 0038 88130000 		.word	5000
 733 003c 00000000 		.word	.LANCHOR2
 734              		.cfi_endproc
 735              	.LFE38:
 736              		.size	set_pd_ctrl_voltage, .-set_pd_ctrl_voltage
 737              		.section	.text.sln_psrc_enable,"ax",%progbits
 738              		.align	2
 739              		.global	sln_psrc_enable
 740              		.code	16
 741              		.thumb_func
 742              		.type	sln_psrc_enable, %function
 743              	sln_psrc_enable:
 744              	.LFB39:
 367:..\common/solution.c **** 
ARM GAS  e:\temp\ccAdChwx.s 			page 21


 368:..\common/solution.c **** void sln_psrc_enable (uint8_t port, pwr_ready_cbk_t pwr_ready_handler)
 369:..\common/solution.c **** {
 745              		.loc 1 369 0
 746              		.cfi_startproc
 747              		@ args = 0, pretend = 0, frame = 0
 748              		@ frame_needed = 0, uses_anonymous_args = 0
 749              	.LVL61:
 750 0000 70B5     		push	{r4, r5, r6, lr}
 751              		.cfi_def_cfa_offset 16
 752              		.cfi_offset 4, -16
 753              		.cfi_offset 5, -12
 754              		.cfi_offset 6, -8
 755              		.cfi_offset 14, -4
 756 0002 0400     		movs	r4, r0
 757 0004 0D00     		movs	r5, r1
 370:..\common/solution.c ****     /* Enable NCP81239 controller before enabling the FET. */
 371:..\common/solution.c ****     if (port == TYPEC_PORT_0_IDX)
 758              		.loc 1 371 0
 759 0006 0028     		cmp	r0, #0
 760 0008 03D1     		bne	.L61
 372:..\common/solution.c ****     {
 373:..\common/solution.c ****         NCP81239_EN_P1();
 761              		.loc 1 373 0
 762 000a 0120     		movs	r0, #1
 763              	.LVL62:
 764 000c FFF7FEFF 		bl	NCP81239_EN_P1_Write
 765              	.LVL63:
 766 0010 02E0     		b	.L62
 767              	.LVL64:
 768              	.L61:
 374:..\common/solution.c ****     }
 375:..\common/solution.c **** #if CCG_PD_DUALPORT_ENABLE		
 376:..\common/solution.c ****     else
 377:..\common/solution.c ****     {
 378:..\common/solution.c ****         NCP81239_EN_P2();
 769              		.loc 1 378 0
 770 0012 0120     		movs	r0, #1
 771              	.LVL65:
 772 0014 FFF7FEFF 		bl	NCP81239_EN_P2_Write
 773              	.LVL66:
 774              	.L62:
 379:..\common/solution.c ****     }
 380:..\common/solution.c **** #endif /* CCG_PD_DUALPORT_ENABLE */
 381:..\common/solution.c **** 
 382:..\common/solution.c ****     /* Invoke default psrc enable function used by PD stack. */
 383:..\common/solution.c ****     psrc_enable (port, pwr_ready_handler);
 775              		.loc 1 383 0
 776 0018 2900     		movs	r1, r5
 777 001a 2000     		movs	r0, r4
 778 001c FFF7FEFF 		bl	psrc_enable
 779              	.LVL67:
 384:..\common/solution.c **** }
 780              		.loc 1 384 0
 781              		@ sp needed
 782              	.LVL68:
 783 0020 70BD     		pop	{r4, r5, r6, pc}
 784              		.cfi_endproc
ARM GAS  e:\temp\ccAdChwx.s 			page 22


 785              	.LFE39:
 786              		.size	sln_psrc_enable, .-sln_psrc_enable
 787 0022 C046     		.section	.text.sln_psrc_disable,"ax",%progbits
 788              		.align	2
 789              		.global	sln_psrc_disable
 790              		.code	16
 791              		.thumb_func
 792              		.type	sln_psrc_disable, %function
 793              	sln_psrc_disable:
 794              	.LFB40:
 385:..\common/solution.c **** 
 386:..\common/solution.c **** void sln_psrc_disable (uint8_t port, pwr_ready_cbk_t pwr_ready_handler)
 387:..\common/solution.c **** {
 795              		.loc 1 387 0
 796              		.cfi_startproc
 797              		@ args = 0, pretend = 0, frame = 0
 798              		@ frame_needed = 0, uses_anonymous_args = 0
 799              	.LVL69:
 800 0000 10B5     		push	{r4, lr}
 801              		.cfi_def_cfa_offset 8
 802              		.cfi_offset 4, -8
 803              		.cfi_offset 14, -4
 388:..\common/solution.c ****     /* Invoke default psrc enable function used by PD stack. */
 389:..\common/solution.c ****     psrc_disable (port, pwr_ready_handler);
 804              		.loc 1 389 0
 805 0002 FFF7FEFF 		bl	psrc_disable
 806              	.LVL70:
 390:..\common/solution.c **** }
 807              		.loc 1 390 0
 808              		@ sp needed
 809 0006 10BD     		pop	{r4, pc}
 810              		.cfi_endproc
 811              	.LFE40:
 812              		.size	sln_psrc_disable, .-sln_psrc_disable
 813              		.global	pd_ctrl_config
 814              		.global	mux_xfer_timeout
 815              		.section	.rodata
 816              		.align	2
 817              		.set	.LANCHOR2,. + 0
 818              		.type	mux_addr, %object
 819              		.size	mux_addr, 2
 820              	mux_addr:
 821 0000 50       		.byte	80
 822 0001 57       		.byte	87
 823 0002 0000     		.space	2
 824              		.type	pd_ctrl_addr, %object
 825              		.size	pd_ctrl_addr, 2
 826              	pd_ctrl_addr:
 827 0004 74       		.byte	116
 828 0005 75       		.byte	117
 829              		.data
 830              		.align	2
 831              		.set	.LANCHOR1,. + 0
 832              		.type	mux_state, %object
 833              		.size	mux_state, 2
 834              	mux_state:
 835 0000 07       		.byte	7
ARM GAS  e:\temp\ccAdChwx.s 			page 23


 836 0001 07       		.byte	7
 837 0002 0000     		.space	2
 838              		.type	pd_ctrl_config, %object
 839              		.size	pd_ctrl_config, 4
 840              	pd_ctrl_config:
 841 0004 01       		.byte	1
 842 0005 32       		.byte	50
 843 0006 02       		.byte	2
 844 0007 03       		.byte	3
 845              		.bss
 846              		.set	.LANCHOR0,. + 0
 847              		.type	mux_xfer_timeout, %object
 848              		.size	mux_xfer_timeout, 1
 849              	mux_xfer_timeout:
 850 0000 00       		.space	1
 851              		.text
 852              	.Letext0:
 853              		.file 2 "e:\\cypress\\psoc creator\\4.2\\psoc creator\\import\\gnu\\arm\\5.4.1\\arm-none-eabi\\inc
 854              		.file 3 "e:\\cypress\\psoc creator\\4.2\\psoc creator\\import\\gnu\\arm\\5.4.1\\arm-none-eabi\\inc
 855              		.file 4 "Generated_Source\\PSoC4/cytypes.h"
 856              		.file 5 "..\\src\\pd_common/pd.h"
 857              		.file 6 "..\\src\\system/timer.h"
 858              		.file 7 "..\\src\\pd_hal/pdss_hal.h"
 859              		.file 8 "..\\src\\app\\alt_mode/alt_mode_hw.h"
 860              		.file 9 "Generated_Source\\PSoC4/NCP81239_EN_P1.h"
 861              		.file 10 "Generated_Source\\PSoC4/NCP81239_EN_P2.h"
 862              		.file 11 "..\\src\\app/psource.h"