ARM GAS  e:\temp\cczRWvrZ.s 			page 1


   1              		.syntax unified
   2              		.cpu cortex-m0
   3              		.fpu softvfp
   4              		.eabi_attribute 20, 1
   5              		.eabi_attribute 21, 1
   6              		.eabi_attribute 23, 3
   7              		.eabi_attribute 24, 1
   8              		.eabi_attribute 25, 1
   9              		.eabi_attribute 26, 1
  10              		.eabi_attribute 30, 1
  11              		.eabi_attribute 34, 0
  12              		.eabi_attribute 18, 4
  13              		.thumb
  14              		.syntax unified
  15              		.file	"system.c"
  16              		.text
  17              	.Ltext0:
  18              		.cfi_sections	.debug_frame
  19              		.section	.text.sys_set_device_mode,"ax",%progbits
  20              		.align	2
  21              		.global	sys_set_device_mode
  22              		.code	16
  23              		.thumb_func
  24              		.type	sys_set_device_mode, %function
  25              	sys_set_device_mode:
  26              	.LFB32:
  27              		.file 1 "..\\src\\system\\system.c"
   1:..\src\system/system.c **** /**
   2:..\src\system/system.c ****  * @file system.c
   3:..\src\system/system.c ****  *
   4:..\src\system/system.c ****  * @brief @{Support functions for boot-loader and flash updates.@}
   5:..\src\system/system.c ****  */
   6:..\src\system/system.c **** 
   7:..\src\system/system.c **** /*
   8:..\src\system/system.c ****  * Copyright (2014-2018), Cypress Semiconductor Corporation or a subsidiary of
   9:..\src\system/system.c ****  * Cypress Semiconductor Corporation. All rights reserved.
  10:..\src\system/system.c ****  *
  11:..\src\system/system.c ****  * This software, including source code, documentation and related materials
  12:..\src\system/system.c ****  * (“Software”), is owned by Cypress Semiconductor Corporation or one of its
  13:..\src\system/system.c ****  * subsidiaries (“Cypress”) and is protected by and subject to worldwide patent
  14:..\src\system/system.c ****  * protection (United States and foreign), United States copyright laws and
  15:..\src\system/system.c ****  * international treaty provisions. Therefore, you may use this Software only
  16:..\src\system/system.c ****  * as provided in the license agreement accompanying the software package from
  17:..\src\system/system.c ****  * which you obtained this Software (“EULA”).
  18:..\src\system/system.c ****  *
  19:..\src\system/system.c ****  * If no EULA applies, Cypress hereby grants you a personal, nonexclusive,
  20:..\src\system/system.c ****  * non-transferable license to copy, modify, and compile the Software source
  21:..\src\system/system.c ****  * code solely for use in connection with Cypress’s integrated circuit
  22:..\src\system/system.c ****  * products. Any reproduction, modification, translation, compilation, or
  23:..\src\system/system.c ****  * representation of this Software except as specified above is prohibited
  24:..\src\system/system.c ****  * without the express written permission of Cypress. Disclaimer: THIS SOFTWARE
  25:..\src\system/system.c ****  * IS PROVIDED AS-IS, WITH NO WARRANTY OF ANY KIND, EXPRESS OR IMPLIED,
  26:..\src\system/system.c ****  * INCLUDING, BUT NOT LIMITED TO, NONINFRINGEMENT, IMPLIED WARRANTIES OF
  27:..\src\system/system.c ****  * MERCHANTABILITY AND FITNESS FOR A PARTICULAR PURPOSE. Cypress reserves the
  28:..\src\system/system.c ****  * right to make changes to the Software without notice. Cypress does not
  29:..\src\system/system.c ****  * assume any liability arising out of the application or use of the Software
  30:..\src\system/system.c ****  * or any product or circuit described in the Software. Cypress does not
ARM GAS  e:\temp\cczRWvrZ.s 			page 2


  31:..\src\system/system.c ****  * authorize its products for use in any products where a malfunction or
  32:..\src\system/system.c ****  * failure of the Cypress product may reasonably be expected to result in
  33:..\src\system/system.c ****  * significant property damage, injury or death (“High Risk Product”). By
  34:..\src\system/system.c ****  * including Cypress’s product in a High Risk Product, the manufacturer of such
  35:..\src\system/system.c ****  * system or application assumes all risk of such use and in doing so agrees to
  36:..\src\system/system.c ****  * indemnify Cypress against all liability.
  37:..\src\system/system.c ****  */
  38:..\src\system/system.c **** 
  39:..\src\system/system.c **** #include "stdbool.h"
  40:..\src\system/system.c **** #include "stdint.h"
  41:..\src\system/system.c **** #include "config.h"
  42:..\src\system/system.c **** #include "flash_config.h"
  43:..\src\system/system.c **** #include "status.h"
  44:..\src\system/system.c **** #include "boot.h"
  45:..\src\system/system.c **** #include "ccgx_regs.h"
  46:..\src\system/system.c **** #include "system.h"
  47:..\src\system/system.c **** 
  48:..\src\system/system.c **** /* Variable representing the current firmware mode. */
  49:..\src\system/system.c **** sys_fw_mode_t gl_active_fw = SYS_FW_MODE_INVALID;
  50:..\src\system/system.c **** 
  51:..\src\system/system.c **** /* Invalid FW Version. */
  52:..\src\system/system.c **** uint8 gl_invalid_version[8] = {0};
  53:..\src\system/system.c **** 
  54:..\src\system/system.c **** void sys_set_device_mode(sys_fw_mode_t fw_mode)
  55:..\src\system/system.c **** {
  28              		.loc 1 55 0
  29              		.cfi_startproc
  30              		@ args = 0, pretend = 0, frame = 0
  31              		@ frame_needed = 0, uses_anonymous_args = 0
  32              		@ link register save eliminated.
  33              	.LVL0:
  56:..\src\system/system.c ****     gl_active_fw = fw_mode;
  34              		.loc 1 56 0
  35 0000 014B     		ldr	r3, .L2
  36 0002 1870     		strb	r0, [r3]
  57:..\src\system/system.c **** }    
  37              		.loc 1 57 0
  38              		@ sp needed
  39 0004 7047     		bx	lr
  40              	.L3:
  41 0006 C046     		.align	2
  42              	.L2:
  43 0008 00000000 		.word	.LANCHOR0
  44              		.cfi_endproc
  45              	.LFE32:
  46              		.size	sys_set_device_mode, .-sys_set_device_mode
  47              		.section	.text.sys_get_device_mode,"ax",%progbits
  48              		.align	2
  49              		.global	sys_get_device_mode
  50              		.code	16
  51              		.thumb_func
  52              		.type	sys_get_device_mode, %function
  53              	sys_get_device_mode:
  54              	.LFB33:
  58:..\src\system/system.c **** 
  59:..\src\system/system.c **** sys_fw_mode_t sys_get_device_mode(void)
  60:..\src\system/system.c **** {
ARM GAS  e:\temp\cczRWvrZ.s 			page 3


  55              		.loc 1 60 0
  56              		.cfi_startproc
  57              		@ args = 0, pretend = 0, frame = 0
  58              		@ frame_needed = 0, uses_anonymous_args = 0
  59              		@ link register save eliminated.
  61:..\src\system/system.c **** #if (CCG_BOOT == 1)
  62:..\src\system/system.c ****     return SYS_FW_MODE_BOOTLOADER;
  63:..\src\system/system.c **** #else /* Firmware */
  64:..\src\system/system.c ****     return gl_active_fw;
  60              		.loc 1 64 0
  61 0000 014B     		ldr	r3, .L5
  62 0002 1878     		ldrb	r0, [r3]
  65:..\src\system/system.c **** #endif /* CCG_BOOT */
  66:..\src\system/system.c **** }
  63              		.loc 1 66 0
  64              		@ sp needed
  65 0004 7047     		bx	lr
  66              	.L6:
  67 0006 C046     		.align	2
  68              	.L5:
  69 0008 00000000 		.word	.LANCHOR0
  70              		.cfi_endproc
  71              	.LFE33:
  72              		.size	sys_get_device_mode, .-sys_get_device_mode
  73              		.section	.text.sys_get_boot_version,"ax",%progbits
  74              		.align	2
  75              		.global	sys_get_boot_version
  76              		.code	16
  77              		.thumb_func
  78              		.type	sys_get_boot_version, %function
  79              	sys_get_boot_version:
  80              	.LFB34:
  67:..\src\system/system.c **** 
  68:..\src\system/system.c **** #if !CCG_FIRMWARE_APP_ONLY
  69:..\src\system/system.c **** static uint8_t* sys_get_fw_version(sys_fw_metadata_t *fw_metadata)
  70:..\src\system/system.c **** {
  71:..\src\system/system.c ****     /*
  72:..\src\system/system.c ****      * FW stores its version at an offset of CY_PD_FW_VERSION_OFFSET
  73:..\src\system/system.c ****      * from its start address. Read the version from that location.
  74:..\src\system/system.c ****      * The start address of FW is determined from the boot_last_row
  75:..\src\system/system.c ****      * field of the FW metadata.
  76:..\src\system/system.c ****      */
  77:..\src\system/system.c ****     uint32 addr = ((fw_metadata->boot_last_row << CCG_FLASH_ROW_SHIFT_NUM)
  78:..\src\system/system.c ****             + CCG_FLASH_ROW_SIZE + SYS_FW_VERSION_OFFSET);
  79:..\src\system/system.c ****     return (uint8 *)addr;
  80:..\src\system/system.c **** }
  81:..\src\system/system.c **** #endif /* CCG_FIRMWARE_APP_ONLY */
  82:..\src\system/system.c **** 
  83:..\src\system/system.c **** uint8_t* sys_get_boot_version(void)
  84:..\src\system/system.c **** {
  81              		.loc 1 84 0
  82              		.cfi_startproc
  83              		@ args = 0, pretend = 0, frame = 0
  84              		@ frame_needed = 0, uses_anonymous_args = 0
  85              		@ link register save eliminated.
  85:..\src\system/system.c ****     return (uint8_t *)SYS_BOOT_VERSION_ADDRESS;
  86:..\src\system/system.c **** }
ARM GAS  e:\temp\cczRWvrZ.s 			page 4


  86              		.loc 1 86 0
  87 0000 E020     		movs	r0, #224
  88              		@ sp needed
  89 0002 7047     		bx	lr
  90              		.cfi_endproc
  91              	.LFE34:
  92              		.size	sys_get_boot_version, .-sys_get_boot_version
  93              		.section	.text.sys_get_img1_fw_version,"ax",%progbits
  94              		.align	2
  95              		.global	sys_get_img1_fw_version
  96              		.code	16
  97              		.thumb_func
  98              		.type	sys_get_img1_fw_version, %function
  99              	sys_get_img1_fw_version:
 100              	.LFB35:
  87:..\src\system/system.c **** 
  88:..\src\system/system.c **** uint8_t* sys_get_img1_fw_version(void)
  89:..\src\system/system.c **** {
 101              		.loc 1 89 0
 102              		.cfi_startproc
 103              		@ args = 0, pretend = 0, frame = 0
 104              		@ frame_needed = 0, uses_anonymous_args = 0
 105              		@ link register save eliminated.
  90:..\src\system/system.c **** #if !CCG_FIRMWARE_APP_ONLY
  91:..\src\system/system.c ****     /* Check if Image 1 is valid. */
  92:..\src\system/system.c ****     if (get_boot_mode_reason().status.fw1_invalid == 0)
  93:..\src\system/system.c ****     {
  94:..\src\system/system.c ****         return sys_get_fw_version (gl_img1_fw_metadata);        
  95:..\src\system/system.c ****     }
  96:..\src\system/system.c ****     else
  97:..\src\system/system.c ****     {
  98:..\src\system/system.c ****         return gl_invalid_version;
  99:..\src\system/system.c ****     }
 100:..\src\system/system.c **** #else
 101:..\src\system/system.c ****     return gl_invalid_version;
 102:..\src\system/system.c **** #endif /* CCG_FIRMWARE_APP_ONLY */
 103:..\src\system/system.c **** }
 106              		.loc 1 103 0
 107 0000 0048     		ldr	r0, .L9
 108              		@ sp needed
 109 0002 7047     		bx	lr
 110              	.L10:
 111              		.align	2
 112              	.L9:
 113 0004 00000000 		.word	.LANCHOR1
 114              		.cfi_endproc
 115              	.LFE35:
 116              		.size	sys_get_img1_fw_version, .-sys_get_img1_fw_version
 117              		.section	.text.sys_get_img2_fw_version,"ax",%progbits
 118              		.align	2
 119              		.global	sys_get_img2_fw_version
 120              		.code	16
 121              		.thumb_func
 122              		.type	sys_get_img2_fw_version, %function
 123              	sys_get_img2_fw_version:
 124              	.LFB36:
 104:..\src\system/system.c **** 
ARM GAS  e:\temp\cczRWvrZ.s 			page 5


 105:..\src\system/system.c **** #if (!CCG_DUALAPP_DISABLE)    
 106:..\src\system/system.c **** uint8_t* sys_get_img2_fw_version(void)
 107:..\src\system/system.c **** {
 125              		.loc 1 107 0
 126              		.cfi_startproc
 127              		@ args = 0, pretend = 0, frame = 0
 128              		@ frame_needed = 0, uses_anonymous_args = 0
 129              		@ link register save eliminated.
 108:..\src\system/system.c **** #if !CCG_FIRMWARE_APP_ONLY
 109:..\src\system/system.c ****     /* Check if Image 2 is valid. */
 110:..\src\system/system.c ****     if (get_boot_mode_reason().status.fw2_invalid == 0)
 111:..\src\system/system.c ****     {
 112:..\src\system/system.c ****         return sys_get_fw_version (gl_img2_fw_metadata);
 113:..\src\system/system.c ****     }
 114:..\src\system/system.c ****     else
 115:..\src\system/system.c ****     {
 116:..\src\system/system.c ****         return gl_invalid_version;
 117:..\src\system/system.c ****     }
 118:..\src\system/system.c **** #else
 119:..\src\system/system.c ****     return gl_invalid_version;
 120:..\src\system/system.c **** #endif /* CCG_FIRMWARE_APP_ONLY */
 121:..\src\system/system.c **** }
 130              		.loc 1 121 0
 131 0000 0048     		ldr	r0, .L12
 132              		@ sp needed
 133 0002 7047     		bx	lr
 134              	.L13:
 135              		.align	2
 136              	.L12:
 137 0004 00000000 		.word	.LANCHOR1
 138              		.cfi_endproc
 139              	.LFE36:
 140              		.size	sys_get_img2_fw_version, .-sys_get_img2_fw_version
 141              		.section	.text.sys_get_fw_img1_start_addr,"ax",%progbits
 142              		.align	2
 143              		.global	sys_get_fw_img1_start_addr
 144              		.code	16
 145              		.thumb_func
 146              		.type	sys_get_fw_img1_start_addr, %function
 147              	sys_get_fw_img1_start_addr:
 148              	.LFB37:
 122:..\src\system/system.c **** #endif /* (!CCG_DUALAPP_DISABLE) */
 123:..\src\system/system.c **** 
 124:..\src\system/system.c **** uint32_t sys_get_fw_img1_start_addr(void)
 125:..\src\system/system.c **** {
 149              		.loc 1 125 0
 150              		.cfi_startproc
 151              		@ args = 0, pretend = 0, frame = 0
 152              		@ frame_needed = 0, uses_anonymous_args = 0
 153              		@ link register save eliminated.
 126:..\src\system/system.c **** #if !CCG_FIRMWARE_APP_ONLY
 127:..\src\system/system.c ****     /* Check if Image 1 is valid. */
 128:..\src\system/system.c ****     if (get_boot_mode_reason().status.fw1_invalid != 1)
 129:..\src\system/system.c ****     {        
 130:..\src\system/system.c ****         return ((gl_img1_fw_metadata->boot_last_row << CCG_FLASH_ROW_SHIFT_NUM)
 131:..\src\system/system.c ****                 + CCG_FLASH_ROW_SIZE);
 132:..\src\system/system.c ****     }
ARM GAS  e:\temp\cczRWvrZ.s 			page 6


 133:..\src\system/system.c ****     else
 134:..\src\system/system.c ****     {
 135:..\src\system/system.c ****         /* Image 1 is inavlid. Can't use MD Row info. Use Boot last row info
 136:..\src\system/system.c ****          * from flash configuration and response. */
 137:..\src\system/system.c ****         return ((CCG_BOOT_LOADER_LAST_ROW << CCG_FLASH_ROW_SHIFT_NUM)
 138:..\src\system/system.c ****                 + CCG_FLASH_ROW_SIZE);
 139:..\src\system/system.c ****     }
 140:..\src\system/system.c **** #else
 141:..\src\system/system.c ****     return SYS_INVALID_FW_START_ADDR;
 142:..\src\system/system.c **** #endif /* CCG_FIRMWARE_APP_ONLY */
 143:..\src\system/system.c **** }
 154              		.loc 1 143 0
 155 0000 0020     		movs	r0, #0
 156              		@ sp needed
 157 0002 7047     		bx	lr
 158              		.cfi_endproc
 159              	.LFE37:
 160              		.size	sys_get_fw_img1_start_addr, .-sys_get_fw_img1_start_addr
 161              		.section	.text.sys_get_fw_img2_start_addr,"ax",%progbits
 162              		.align	2
 163              		.global	sys_get_fw_img2_start_addr
 164              		.code	16
 165              		.thumb_func
 166              		.type	sys_get_fw_img2_start_addr, %function
 167              	sys_get_fw_img2_start_addr:
 168              	.LFB38:
 144:..\src\system/system.c **** 
 145:..\src\system/system.c **** #if (!CCG_DUALAPP_DISABLE) 
 146:..\src\system/system.c **** uint32_t sys_get_fw_img2_start_addr(void)
 147:..\src\system/system.c **** {
 169              		.loc 1 147 0
 170              		.cfi_startproc
 171              		@ args = 0, pretend = 0, frame = 0
 172              		@ frame_needed = 0, uses_anonymous_args = 0
 173              		@ link register save eliminated.
 148:..\src\system/system.c **** #if !CCG_FIRMWARE_APP_ONLY
 149:..\src\system/system.c ****     /* Check if Image 2 is valid. */
 150:..\src\system/system.c ****     if (get_boot_mode_reason().status.fw2_invalid != 1)
 151:..\src\system/system.c ****     {
 152:..\src\system/system.c ****         return ((gl_img2_fw_metadata->boot_last_row << CCG_FLASH_ROW_SHIFT_NUM)
 153:..\src\system/system.c ****                 + CCG_FLASH_ROW_SIZE);
 154:..\src\system/system.c ****     }
 155:..\src\system/system.c ****     else
 156:..\src\system/system.c ****     {
 157:..\src\system/system.c ****         /* Image 2 is inavlid. Can't use MD Row info. Use last row FW1 info info
 158:..\src\system/system.c ****          * from flash configuration and response. */
 159:..\src\system/system.c ****         return ((CCG_IMG1_LAST_FLASH_ROW_NUM << CCG_FLASH_ROW_SHIFT_NUM)
 160:..\src\system/system.c ****                 + CCG_FLASH_ROW_SIZE);
 161:..\src\system/system.c ****     }
 162:..\src\system/system.c **** #else
 163:..\src\system/system.c ****     return SYS_INVALID_FW_START_ADDR;
 164:..\src\system/system.c **** #endif /* CCG_FIRMWARE_APP_ONLY */
 165:..\src\system/system.c **** }
 174              		.loc 1 165 0
 175 0000 0020     		movs	r0, #0
 176              		@ sp needed
 177 0002 7047     		bx	lr
ARM GAS  e:\temp\cczRWvrZ.s 			page 7


 178              		.cfi_endproc
 179              	.LFE38:
 180              		.size	sys_get_fw_img2_start_addr, .-sys_get_fw_img2_start_addr
 181              		.section	.text.sys_get_recent_fw_image,"ax",%progbits
 182              		.align	2
 183              		.global	sys_get_recent_fw_image
 184              		.code	16
 185              		.thumb_func
 186              		.type	sys_get_recent_fw_image, %function
 187              	sys_get_recent_fw_image:
 188              	.LFB39:
 166:..\src\system/system.c **** 
 167:..\src\system/system.c **** uint8_t sys_get_recent_fw_image(void)
 168:..\src\system/system.c **** {
 189              		.loc 1 168 0
 190              		.cfi_startproc
 191              		@ args = 0, pretend = 0, frame = 0
 192              		@ frame_needed = 0, uses_anonymous_args = 0
 193 0000 30B5     		push	{r4, r5, lr}
 194              		.cfi_def_cfa_offset 12
 195              		.cfi_offset 4, -12
 196              		.cfi_offset 5, -8
 197              		.cfi_offset 14, -4
 169:..\src\system/system.c **** #if (APP_PRIORITY_FEATURE_ENABLE == 1)
 170:..\src\system/system.c ****     /* Read APP Priority field to determine which image gets the priority. */
 171:..\src\system/system.c ****     uint8_t app_priority;
 172:..\src\system/system.c ****     app_priority = *((uint8_t *)(CCG_APP_PRIORITY_ROW_NUM <<
 173:..\src\system/system.c ****             CCG_FLASH_ROW_SHIFT_NUM));
 174:..\src\system/system.c ****     if (app_priority == 0x00)
 175:..\src\system/system.c ****     {
 176:..\src\system/system.c ****         if(gl_img2_fw_metadata->boot_seq >= gl_img1_fw_metadata->boot_seq)
 177:..\src\system/system.c ****             return SYS_FW_MODE_FWIMAGE_2;
 178:..\src\system/system.c ****         else
 179:..\src\system/system.c ****             return SYS_FW_MODE_FWIMAGE_1;
 180:..\src\system/system.c ****     }
 181:..\src\system/system.c ****     else if (app_priority == 0x01)
 182:..\src\system/system.c ****     {
 183:..\src\system/system.c ****         return SYS_FW_MODE_FWIMAGE_1;
 184:..\src\system/system.c ****     }
 185:..\src\system/system.c ****     else
 186:..\src\system/system.c ****     {
 187:..\src\system/system.c ****         return SYS_FW_MODE_FWIMAGE_2;
 188:..\src\system/system.c ****     }  
 189:..\src\system/system.c **** #else /* !APP_PRIORITY_FEATURE_ENABLE */
 190:..\src\system/system.c **** 
 191:..\src\system/system.c ****     /* Prioritize FW2 over FW1 for CCG4, for compatibility with ES10 boot-loader. */
 192:..\src\system/system.c ****     if(gl_img2_fw_metadata->boot_seq >= gl_img1_fw_metadata->boot_seq)
 198              		.loc 1 192 0
 199 0002 104B     		ldr	r3, .L19
 200 0004 1868     		ldr	r0, [r3]
 201 0006 017F     		ldrb	r1, [r0, #28]
 202 0008 437F     		ldrb	r3, [r0, #29]
 203 000a 1B02     		lsls	r3, r3, #8
 204 000c 0B43     		orrs	r3, r1
 205 000e 1A00     		movs	r2, r3
 206 0010 847F     		ldrb	r4, [r0, #30]
 207 0012 2404     		lsls	r4, r4, #16
ARM GAS  e:\temp\cczRWvrZ.s 			page 8


 208 0014 2300     		movs	r3, r4
 209 0016 1343     		orrs	r3, r2
 210 0018 C47F     		ldrb	r4, [r0, #31]
 211 001a 2406     		lsls	r4, r4, #24
 212 001c 1C43     		orrs	r4, r3
 213 001e 0A4B     		ldr	r3, .L19+4
 214 0020 1D68     		ldr	r5, [r3]
 215 0022 287F     		ldrb	r0, [r5, #28]
 216 0024 6A7F     		ldrb	r2, [r5, #29]
 217 0026 1202     		lsls	r2, r2, #8
 218 0028 0243     		orrs	r2, r0
 219 002a AB7F     		ldrb	r3, [r5, #30]
 220 002c 1B04     		lsls	r3, r3, #16
 221 002e 1343     		orrs	r3, r2
 222 0030 1A00     		movs	r2, r3
 223 0032 EB7F     		ldrb	r3, [r5, #31]
 224 0034 1B06     		lsls	r3, r3, #24
 225 0036 1343     		orrs	r3, r2
 226 0038 9C42     		cmp	r4, r3
 227 003a 01D3     		bcc	.L18
 193:..\src\system/system.c ****         return SYS_FW_MODE_FWIMAGE_2;
 228              		.loc 1 193 0
 229 003c 0220     		movs	r0, #2
 230 003e 00E0     		b	.L17
 231              	.L18:
 194:..\src\system/system.c ****     else
 195:..\src\system/system.c ****         return SYS_FW_MODE_FWIMAGE_1;
 232              		.loc 1 195 0
 233 0040 0120     		movs	r0, #1
 234              	.L17:
 196:..\src\system/system.c **** 
 197:..\src\system/system.c **** #endif /* APP_PRIORITY_FEATURE_ENABLE */   
 198:..\src\system/system.c **** }
 235              		.loc 1 198 0
 236              		@ sp needed
 237 0042 30BD     		pop	{r4, r5, pc}
 238              	.L20:
 239              		.align	2
 240              	.L19:
 241 0044 00000000 		.word	gl_img2_fw_metadata
 242 0048 00000000 		.word	gl_img1_fw_metadata
 243              		.cfi_endproc
 244              	.LFE39:
 245              		.size	sys_get_recent_fw_image, .-sys_get_recent_fw_image
 246              		.section	.text.sys_get_silicon_id,"ax",%progbits
 247              		.align	2
 248              		.global	sys_get_silicon_id
 249              		.code	16
 250              		.thumb_func
 251              		.type	sys_get_silicon_id, %function
 252              	sys_get_silicon_id:
 253              	.LFB40:
 199:..\src\system/system.c **** #endif /* (!CCG_DUALAPP_DISABLE) */
 200:..\src\system/system.c **** 
 201:..\src\system/system.c **** void sys_get_silicon_id(uint32_t *silicon_id)
 202:..\src\system/system.c **** {
 254              		.loc 1 202 0
ARM GAS  e:\temp\cczRWvrZ.s 			page 9


 255              		.cfi_startproc
 256              		@ args = 0, pretend = 0, frame = 0
 257              		@ frame_needed = 0, uses_anonymous_args = 0
 258              		@ link register save eliminated.
 259              	.LVL1:
 203:..\src\system/system.c ****     /* Read Silicon ID. */
 204:..\src\system/system.c ****     *silicon_id = SFLASH->silicon_id;
 260              		.loc 1 204 0
 261 0000 9123     		movs	r3, #145
 262 0002 9B00     		lsls	r3, r3, #2
 263 0004 014A     		ldr	r2, .L22
 264 0006 D358     		ldr	r3, [r2, r3]
 265 0008 0360     		str	r3, [r0]
 205:..\src\system/system.c **** }
 266              		.loc 1 205 0
 267              		@ sp needed
 268 000a 7047     		bx	lr
 269              	.L23:
 270              		.align	2
 271              	.L22:
 272 000c 00F0FF0F 		.word	268431360
 273              		.cfi_endproc
 274              	.LFE40:
 275              		.size	sys_get_silicon_id, .-sys_get_silicon_id
 276              		.section	.text.get_silicon_revision,"ax",%progbits
 277              		.align	2
 278              		.global	get_silicon_revision
 279              		.code	16
 280              		.thumb_func
 281              		.type	get_silicon_revision, %function
 282              	get_silicon_revision:
 283              	.LFB41:
 206:..\src\system/system.c **** 
 207:..\src\system/system.c **** uint8_t get_silicon_revision(void)
 208:..\src\system/system.c **** {
 284              		.loc 1 208 0
 285              		.cfi_startproc
 286              		@ args = 0, pretend = 0, frame = 0
 287              		@ frame_needed = 0, uses_anonymous_args = 0
 288              		@ link register save eliminated.
 209:..\src\system/system.c **** 
 210:..\src\system/system.c ****     uint8_t srev;
 211:..\src\system/system.c ****     /* Silicon revision is stored in core-sight tables.
 212:..\src\system/system.c ****      * Major revision = ROMTABLE_PID2(7:4)
 213:..\src\system/system.c ****      * Minor revision = ROMTABLE_PID3(7:4) */
 214:..\src\system/system.c ****     srev = CY_GET_REG32 (CYREG_ROMTABLE_PID2) & 0xF0;
 289              		.loc 1 214 0
 290 0000 054B     		ldr	r3, .L25
 291 0002 1A68     		ldr	r2, [r3]
 292 0004 0F20     		movs	r0, #15
 293 0006 8243     		bics	r2, r0
 294 0008 D2B2     		uxtb	r2, r2
 295              	.LVL2:
 215:..\src\system/system.c ****     srev |= ((CY_GET_REG32 (CYREG_ROMTABLE_PID3)) & 0xF0) >> 4;
 296              		.loc 1 215 0
 297 000a 044B     		ldr	r3, .L25+4
 298 000c 1B68     		ldr	r3, [r3]
ARM GAS  e:\temp\cczRWvrZ.s 			page 10


 299 000e 1B09     		lsrs	r3, r3, #4
 300 0010 1840     		ands	r0, r3
 301 0012 1043     		orrs	r0, r2
 302              	.LVL3:
 216:..\src\system/system.c ****     return srev;
 217:..\src\system/system.c **** }
 303              		.loc 1 217 0
 304              		@ sp needed
 305 0014 7047     		bx	lr
 306              	.L26:
 307 0016 C046     		.align	2
 308              	.L25:
 309 0018 E80F00F0 		.word	-268431384
 310 001c EC0F00F0 		.word	-268431380
 311              		.cfi_endproc
 312              	.LFE41:
 313              		.size	get_silicon_revision, .-get_silicon_revision
 314              		.section	.text.sys_get_custom_info_addr,"ax",%progbits
 315              		.align	2
 316              		.global	sys_get_custom_info_addr
 317              		.code	16
 318              		.thumb_func
 319              		.type	sys_get_custom_info_addr, %function
 320              	sys_get_custom_info_addr:
 321              	.LFB42:
 218:..\src\system/system.c **** 
 219:..\src\system/system.c **** uint32_t sys_get_custom_info_addr(void)
 220:..\src\system/system.c **** {
 322              		.loc 1 220 0
 323              		.cfi_startproc
 324              		@ args = 0, pretend = 0, frame = 0
 325              		@ frame_needed = 0, uses_anonymous_args = 0
 326 0000 10B5     		push	{r4, lr}
 327              		.cfi_def_cfa_offset 8
 328              		.cfi_offset 4, -8
 329              		.cfi_offset 14, -4
 221:..\src\system/system.c ****     uint32_t addr;
 222:..\src\system/system.c **** 
 223:..\src\system/system.c ****     /* Get FW start address based on FW image. */
 224:..\src\system/system.c **** #if (CCG_DUALAPP_DISABLE)
 225:..\src\system/system.c ****     addr = sys_get_fw_img1_start_addr();
 226:..\src\system/system.c **** #else /* (!CCG_DUALAPP_DISABLE) */
 227:..\src\system/system.c ****     if (sys_get_device_mode() == SYS_FW_MODE_FWIMAGE_1)
 330              		.loc 1 227 0
 331 0002 FFF7FEFF 		bl	sys_get_device_mode
 332              	.LVL4:
 333 0006 0128     		cmp	r0, #1
 334 0008 02D1     		bne	.L28
 228:..\src\system/system.c ****     {
 229:..\src\system/system.c ****         addr = sys_get_fw_img1_start_addr ();
 335              		.loc 1 229 0
 336 000a FFF7FEFF 		bl	sys_get_fw_img1_start_addr
 337              	.LVL5:
 338 000e 01E0     		b	.L29
 339              	.LVL6:
 340              	.L28:
 230:..\src\system/system.c ****     }
ARM GAS  e:\temp\cczRWvrZ.s 			page 11


 231:..\src\system/system.c ****     else
 232:..\src\system/system.c ****     {
 233:..\src\system/system.c ****         addr = sys_get_fw_img2_start_addr ();
 341              		.loc 1 233 0
 342 0010 FFF7FEFF 		bl	sys_get_fw_img2_start_addr
 343              	.LVL7:
 344              	.L29:
 234:..\src\system/system.c ****     }
 235:..\src\system/system.c **** #endif /* (!CCG_DUALAPP_DISABLE) */
 236:..\src\system/system.c **** 
 237:..\src\system/system.c ****     return (addr + SYS_FW_CUSTOM_INFO_OFFSET);
 345              		.loc 1 237 0
 346 0014 C030     		adds	r0, r0, #192
 347              	.LVL8:
 238:..\src\system/system.c **** }
 348              		.loc 1 238 0
 349              		@ sp needed
 350 0016 10BD     		pop	{r4, pc}
 351              		.cfi_endproc
 352              	.LFE42:
 353              		.size	sys_get_custom_info_addr, .-sys_get_custom_info_addr
 354              		.section	.text.sys_get_bcdDevice_version,"ax",%progbits
 355              		.align	2
 356              		.global	sys_get_bcdDevice_version
 357              		.code	16
 358              		.thumb_func
 359              		.type	sys_get_bcdDevice_version, %function
 360              	sys_get_bcdDevice_version:
 361              	.LFB43:
 239:..\src\system/system.c **** 
 240:..\src\system/system.c **** uint16_t sys_get_bcdDevice_version(uint32_t ver_addr)
 241:..\src\system/system.c **** {
 362              		.loc 1 241 0
 363              		.cfi_startproc
 364              		@ args = 0, pretend = 0, frame = 0
 365              		@ frame_needed = 0, uses_anonymous_args = 0
 366              		@ link register save eliminated.
 367              	.LVL9:
 368 0000 0300     		movs	r3, r0
 242:..\src\system/system.c ****     /*     
 243:..\src\system/system.c ****      * bcdDevice version is defined and derived from FW version as follows:
 244:..\src\system/system.c ****      * Bit 0:3   = FW_MINOR_VERSION
 245:..\src\system/system.c ****      * Bit 4:6   = FW_MAJOR_VERSION (lower 3 bits)
 246:..\src\system/system.c ****      * Bit 7:13  = APP_EXT_CIR_NUM (lower 7 bits)
 247:..\src\system/system.c ****      * Bit 14:15 = APP_MAJOR_VERSION (lower 2 bits)
 248:..\src\system/system.c ****      * FW version is stored at a fixed offset in FLASH in this format:
 249:..\src\system/system.c ****      * 4 Byte BASE_VERSION, 4 Byte APP_VERSION
 250:..\src\system/system.c ****      */
 251:..\src\system/system.c ****     
 252:..\src\system/system.c ****     uint8_t base_major_minor = *((uint8_t *)(ver_addr + 3));
 369              		.loc 1 252 0
 370 0002 C278     		ldrb	r2, [r0, #3]
 371              	.LVL10:
 253:..\src\system/system.c ****     uint8_t app_cir_num = *((uint8_t *)(ver_addr + 6));
 372              		.loc 1 253 0
 373 0004 8079     		ldrb	r0, [r0, #6]
 374              	.LVL11:
ARM GAS  e:\temp\cczRWvrZ.s 			page 12


 254:..\src\system/system.c ****     uint8_t app_major_minor = *((uint8_t *)(ver_addr + 7));
 375              		.loc 1 254 0
 376 0006 DB79     		ldrb	r3, [r3, #7]
 377              	.LVL12:
 255:..\src\system/system.c ****     
 256:..\src\system/system.c ****     return ((base_major_minor & 0x7F) | ((app_cir_num & 0x7F) << 7)
 378              		.loc 1 256 0
 379 0008 C001     		lsls	r0, r0, #7
 380              	.LVL13:
 381 000a 7F21     		movs	r1, #127
 382 000c 1140     		ands	r1, r2
 383 000e FE22     		movs	r2, #254
 384              	.LVL14:
 385 0010 9201     		lsls	r2, r2, #6
 386 0012 1040     		ands	r0, r2
 387 0014 0843     		orrs	r0, r1
 388 0016 1B09     		lsrs	r3, r3, #4
 389              	.LVL15:
 390 0018 9B03     		lsls	r3, r3, #14
 391 001a 1843     		orrs	r0, r3
 392 001c 80B2     		uxth	r0, r0
 257:..\src\system/system.c ****         | ((app_major_minor & 0x30) << 10));
 258:..\src\system/system.c **** }
 393              		.loc 1 258 0
 394              		@ sp needed
 395 001e 7047     		bx	lr
 396              		.cfi_endproc
 397              	.LFE43:
 398              		.size	sys_get_bcdDevice_version, .-sys_get_bcdDevice_version
 399              		.global	gl_invalid_version
 400              		.global	gl_active_fw
 401              		.data
 402              		.set	.LANCHOR0,. + 0
 403              		.type	gl_active_fw, %object
 404              		.size	gl_active_fw, 1
 405              	gl_active_fw:
 406 0000 03       		.byte	3
 407              		.bss
 408              		.align	2
 409              		.set	.LANCHOR1,. + 0
 410              		.type	gl_invalid_version, %object
 411              		.size	gl_invalid_version, 8
 412              	gl_invalid_version:
 413 0000 00000000 		.space	8
 413      00000000 
 414              		.text
 415              	.Letext0:
 416              		.file 2 "e:\\cypress\\psoc creator\\4.2\\psoc creator\\import\\gnu\\arm\\5.4.1\\arm-none-eabi\\inc
 417              		.file 3 "e:\\cypress\\psoc creator\\4.2\\psoc creator\\import\\gnu\\arm\\5.4.1\\arm-none-eabi\\inc
 418              		.file 4 "Generated_Source\\PSoC4/cytypes.h"
 419              		.file 5 "..\\src\\system\\system.h"
 420              		.file 6 "..\\src\\system\\boot.h"
 421              		.file 7 "..\\src\\system\\ccg5_regs.h"