ARM GAS  e:\temp\ccI9ZFAz.s 			page 1


   1              		.syntax unified
   2              		.cpu cortex-m0
   3              		.fpu softvfp
   4              		.eabi_attribute 20, 1
   5              		.eabi_attribute 21, 1
   6              		.eabi_attribute 23, 3
   7              		.eabi_attribute 24, 1
   8              		.eabi_attribute 25, 1
   9              		.eabi_attribute 26, 1
  10              		.eabi_attribute 30, 1
  11              		.eabi_attribute 34, 0
  12              		.eabi_attribute 18, 4
  13              		.thumb
  14              		.syntax unified
  15              		.file	"utils.c"
  16              		.text
  17              	.Ltext0:
  18              		.cfi_sections	.debug_frame
  19              		.section	.text.mem_calculate_byte_checksum,"ax",%progbits
  20              		.align	2
  21              		.global	mem_calculate_byte_checksum
  22              		.code	16
  23              		.thumb_func
  24              		.type	mem_calculate_byte_checksum, %function
  25              	mem_calculate_byte_checksum:
  26              	.LFB0:
  27              		.file 1 "..\\src\\system\\utils.c"
   1:..\src\system/utils.c **** /**
   2:..\src\system/utils.c ****  * @file utils.c
   3:..\src\system/utils.c ****  *
   4:..\src\system/utils.c ****  * @brief @{General utility functions for the CCGx firmware stack.@}
   5:..\src\system/utils.c ****  */
   6:..\src\system/utils.c **** 
   7:..\src\system/utils.c **** /*
   8:..\src\system/utils.c ****  * Copyright (2014-2018), Cypress Semiconductor Corporation or a subsidiary of
   9:..\src\system/utils.c ****  * Cypress Semiconductor Corporation. All rights reserved.
  10:..\src\system/utils.c ****  *
  11:..\src\system/utils.c ****  * This software, including source code, documentation and related materials
  12:..\src\system/utils.c ****  * (“Software”), is owned by Cypress Semiconductor Corporation or one of its
  13:..\src\system/utils.c ****  * subsidiaries (“Cypress”) and is protected by and subject to worldwide patent
  14:..\src\system/utils.c ****  * protection (United States and foreign), United States copyright laws and
  15:..\src\system/utils.c ****  * international treaty provisions. Therefore, you may use this Software only
  16:..\src\system/utils.c ****  * as provided in the license agreement accompanying the software package from
  17:..\src\system/utils.c ****  * which you obtained this Software (“EULA”).
  18:..\src\system/utils.c ****  *
  19:..\src\system/utils.c ****  * If no EULA applies, Cypress hereby grants you a personal, nonexclusive,
  20:..\src\system/utils.c ****  * non-transferable license to copy, modify, and compile the Software source
  21:..\src\system/utils.c ****  * code solely for use in connection with Cypress’s integrated circuit
  22:..\src\system/utils.c ****  * products. Any reproduction, modification, translation, compilation, or
  23:..\src\system/utils.c ****  * representation of this Software except as specified above is prohibited
  24:..\src\system/utils.c ****  * without the express written permission of Cypress. Disclaimer: THIS SOFTWARE
  25:..\src\system/utils.c ****  * IS PROVIDED AS-IS, WITH NO WARRANTY OF ANY KIND, EXPRESS OR IMPLIED,
  26:..\src\system/utils.c ****  * INCLUDING, BUT NOT LIMITED TO, NONINFRINGEMENT, IMPLIED WARRANTIES OF
  27:..\src\system/utils.c ****  * MERCHANTABILITY AND FITNESS FOR A PARTICULAR PURPOSE. Cypress reserves the
  28:..\src\system/utils.c ****  * right to make changes to the Software without notice. Cypress does not
  29:..\src\system/utils.c ****  * assume any liability arising out of the application or use of the Software
  30:..\src\system/utils.c ****  * or any product or circuit described in the Software. Cypress does not
ARM GAS  e:\temp\ccI9ZFAz.s 			page 2


  31:..\src\system/utils.c ****  * authorize its products for use in any products where a malfunction or
  32:..\src\system/utils.c ****  * failure of the Cypress product may reasonably be expected to result in
  33:..\src\system/utils.c ****  * significant property damage, injury or death (“High Risk Product”). By
  34:..\src\system/utils.c ****  * including Cypress’s product in a High Risk Product, the manufacturer of such
  35:..\src\system/utils.c ****  * system or application assumes all risk of such use and in doing so agrees to
  36:..\src\system/utils.c ****  * indemnify Cypress against all liability.
  37:..\src\system/utils.c ****  */
  38:..\src\system/utils.c **** 
  39:..\src\system/utils.c **** #include "stddef.h"
  40:..\src\system/utils.c **** #include "utils.h"
  41:..\src\system/utils.c **** 
  42:..\src\system/utils.c **** /* The constant used for CRC-16 calculation. */
  43:..\src\system/utils.c **** #define CRC16_XOR_VALUE       (0xA001u)
  44:..\src\system/utils.c **** 
  45:..\src\system/utils.c **** uint8_t mem_calculate_byte_checksum(uint8_t *ptr, uint32_t size)
  46:..\src\system/utils.c **** {
  28              		.loc 1 46 0
  29              		.cfi_startproc
  30              		@ args = 0, pretend = 0, frame = 0
  31              		@ frame_needed = 0, uses_anonymous_args = 0
  32              	.LVL0:
  33 0000 10B5     		push	{r4, lr}
  34              		.cfi_def_cfa_offset 8
  35              		.cfi_offset 4, -8
  36              		.cfi_offset 14, -4
  37              	.LVL1:
  47:..\src\system/utils.c ****     uint8_t checksum = 0;
  48:..\src\system/utils.c ****     uint32_t index;
  49:..\src\system/utils.c **** 
  50:..\src\system/utils.c ****     if ((ptr == NULL) || (size == 0))
  38              		.loc 1 50 0
  39 0002 0028     		cmp	r0, #0
  40 0004 0DD0     		beq	.L5
  41              		.loc 1 50 0 is_stmt 0 discriminator 1
  42 0006 0029     		cmp	r1, #0
  43 0008 0DD0     		beq	.L6
  44 000a 0022     		movs	r2, #0
  45 000c 0023     		movs	r3, #0
  46 000e 03E0     		b	.L3
  47              	.LVL2:
  48              	.L4:
  51:..\src\system/utils.c ****     {
  52:..\src\system/utils.c ****         return checksum;
  53:..\src\system/utils.c ****     }
  54:..\src\system/utils.c **** 
  55:..\src\system/utils.c ****     /* Calculate the binary sum of all the data. */
  56:..\src\system/utils.c ****     for (index = 0; index < size; index++)
  57:..\src\system/utils.c ****     {
  58:..\src\system/utils.c ****         checksum += ptr[index];
  49              		.loc 1 58 0 is_stmt 1 discriminator 3
  50 0010 845C     		ldrb	r4, [r0, r2]
  51 0012 1B19     		adds	r3, r3, r4
  52              	.LVL3:
  53 0014 DBB2     		uxtb	r3, r3
  54              	.LVL4:
  56:..\src\system/utils.c ****     {
  55              		.loc 1 56 0 discriminator 3
ARM GAS  e:\temp\ccI9ZFAz.s 			page 3


  56 0016 0132     		adds	r2, r2, #1
  57              	.LVL5:
  58              	.L3:
  56:..\src\system/utils.c ****     {
  59              		.loc 1 56 0 is_stmt 0 discriminator 1
  60 0018 8A42     		cmp	r2, r1
  61 001a F9D3     		bcc	.L4
  59:..\src\system/utils.c ****     }
  60:..\src\system/utils.c **** 
  61:..\src\system/utils.c ****     /* Return the 2's complement of the binary sum. */
  62:..\src\system/utils.c ****     return ((uint8_t)(1u) + (uint8_t)(~checksum));
  62              		.loc 1 62 0 is_stmt 1
  63 001c 5842     		rsbs	r0, r3, #0
  64              	.LVL6:
  65 001e C0B2     		uxtb	r0, r0
  66 0020 02E0     		b	.L2
  67              	.LVL7:
  68              	.L5:
  52:..\src\system/utils.c ****     }
  69              		.loc 1 52 0
  70 0022 0020     		movs	r0, #0
  71              	.LVL8:
  72 0024 00E0     		b	.L2
  73              	.LVL9:
  74              	.L6:
  75 0026 0020     		movs	r0, #0
  76              	.LVL10:
  77              	.L2:
  63:..\src\system/utils.c **** }
  78              		.loc 1 63 0
  79              		@ sp needed
  80 0028 10BD     		pop	{r4, pc}
  81              		.cfi_endproc
  82              	.LFE0:
  83              		.size	mem_calculate_byte_checksum, .-mem_calculate_byte_checksum
  84 002a C046     		.section	.text.mem_calculate_word_checksum,"ax",%progbits
  85              		.align	2
  86              		.global	mem_calculate_word_checksum
  87              		.code	16
  88              		.thumb_func
  89              		.type	mem_calculate_word_checksum, %function
  90              	mem_calculate_word_checksum:
  91              	.LFB1:
  64:..\src\system/utils.c **** 
  65:..\src\system/utils.c **** uint16_t mem_calculate_word_checksum(uint16_t *ptr, uint32_t size)
  66:..\src\system/utils.c **** {
  92              		.loc 1 66 0
  93              		.cfi_startproc
  94              		@ args = 0, pretend = 0, frame = 0
  95              		@ frame_needed = 0, uses_anonymous_args = 0
  96              	.LVL11:
  97 0000 10B5     		push	{r4, lr}
  98              		.cfi_def_cfa_offset 8
  99              		.cfi_offset 4, -8
 100              		.cfi_offset 14, -4
 101              	.LVL12:
  67:..\src\system/utils.c ****     uint16_t checksum = 0;
ARM GAS  e:\temp\ccI9ZFAz.s 			page 4


  68:..\src\system/utils.c ****     uint32_t index;
  69:..\src\system/utils.c **** 
  70:..\src\system/utils.c ****     if ((ptr == NULL) || (size == 0))
 102              		.loc 1 70 0
 103 0002 0028     		cmp	r0, #0
 104 0004 0ED0     		beq	.L11
 105              		.loc 1 70 0 is_stmt 0 discriminator 1
 106 0006 0029     		cmp	r1, #0
 107 0008 0ED0     		beq	.L12
 108 000a 0022     		movs	r2, #0
 109 000c 0023     		movs	r3, #0
 110 000e 04E0     		b	.L9
 111              	.LVL13:
 112              	.L10:
  71:..\src\system/utils.c ****     {
  72:..\src\system/utils.c ****         return checksum;
  73:..\src\system/utils.c ****     }
  74:..\src\system/utils.c **** 
  75:..\src\system/utils.c ****     /* Calculate the binary sum of all the data. */
  76:..\src\system/utils.c ****     for (index = 0; index < size; index++)
  77:..\src\system/utils.c ****     {
  78:..\src\system/utils.c ****         checksum += ptr[index];
 113              		.loc 1 78 0 is_stmt 1 discriminator 3
 114 0010 5400     		lsls	r4, r2, #1
 115 0012 245A     		ldrh	r4, [r4, r0]
 116 0014 1B19     		adds	r3, r3, r4
 117              	.LVL14:
 118 0016 9BB2     		uxth	r3, r3
 119              	.LVL15:
  76:..\src\system/utils.c ****     {
 120              		.loc 1 76 0 discriminator 3
 121 0018 0132     		adds	r2, r2, #1
 122              	.LVL16:
 123              	.L9:
  76:..\src\system/utils.c ****     {
 124              		.loc 1 76 0 is_stmt 0 discriminator 1
 125 001a 8A42     		cmp	r2, r1
 126 001c F8D3     		bcc	.L10
  79:..\src\system/utils.c ****     }
  80:..\src\system/utils.c **** 
  81:..\src\system/utils.c ****     /* Return the 2's complement of the binary sum. */
  82:..\src\system/utils.c ****     return ((uint16_t)(1u) + (uint16_t)(~checksum));
 127              		.loc 1 82 0 is_stmt 1
 128 001e 5842     		rsbs	r0, r3, #0
 129              	.LVL17:
 130 0020 80B2     		uxth	r0, r0
 131 0022 02E0     		b	.L8
 132              	.LVL18:
 133              	.L11:
  72:..\src\system/utils.c ****     }
 134              		.loc 1 72 0
 135 0024 0020     		movs	r0, #0
 136              	.LVL19:
 137 0026 00E0     		b	.L8
 138              	.LVL20:
 139              	.L12:
 140 0028 0020     		movs	r0, #0
ARM GAS  e:\temp\ccI9ZFAz.s 			page 5


 141              	.LVL21:
 142              	.L8:
  83:..\src\system/utils.c **** }
 143              		.loc 1 83 0
 144              		@ sp needed
 145 002a 10BD     		pop	{r4, pc}
 146              		.cfi_endproc
 147              	.LFE1:
 148              		.size	mem_calculate_word_checksum, .-mem_calculate_word_checksum
 149              		.section	.text.mem_calculate_dword_checksum,"ax",%progbits
 150              		.align	2
 151              		.global	mem_calculate_dword_checksum
 152              		.code	16
 153              		.thumb_func
 154              		.type	mem_calculate_dword_checksum, %function
 155              	mem_calculate_dword_checksum:
 156              	.LFB2:
  84:..\src\system/utils.c **** 
  85:..\src\system/utils.c **** uint32_t mem_calculate_dword_checksum(uint32_t *ptr, uint32_t size)
  86:..\src\system/utils.c **** {
 157              		.loc 1 86 0
 158              		.cfi_startproc
 159              		@ args = 0, pretend = 0, frame = 0
 160              		@ frame_needed = 0, uses_anonymous_args = 0
 161              	.LVL22:
 162 0000 10B5     		push	{r4, lr}
 163              		.cfi_def_cfa_offset 8
 164              		.cfi_offset 4, -8
 165              		.cfi_offset 14, -4
 166              	.LVL23:
  87:..\src\system/utils.c ****     uint32_t index;
  88:..\src\system/utils.c ****     uint32_t checksum = 0;
  89:..\src\system/utils.c **** 
  90:..\src\system/utils.c ****     if ((ptr == NULL) || (size == 0))
 167              		.loc 1 90 0
 168 0002 0028     		cmp	r0, #0
 169 0004 0CD0     		beq	.L17
 170              		.loc 1 90 0 is_stmt 0 discriminator 1
 171 0006 0029     		cmp	r1, #0
 172 0008 0CD0     		beq	.L18
 173 000a 0022     		movs	r2, #0
 174 000c 0023     		movs	r3, #0
 175 000e 03E0     		b	.L15
 176              	.LVL24:
 177              	.L16:
  91:..\src\system/utils.c ****     {
  92:..\src\system/utils.c ****         return checksum;
  93:..\src\system/utils.c ****     }
  94:..\src\system/utils.c **** 
  95:..\src\system/utils.c ****     /* Calculate the binary sum of all the data. */
  96:..\src\system/utils.c ****     for (index = 0; index < size; index++)
  97:..\src\system/utils.c ****     {
  98:..\src\system/utils.c ****         checksum += ptr[index];
 178              		.loc 1 98 0 is_stmt 1 discriminator 3
 179 0010 9C00     		lsls	r4, r3, #2
 180 0012 2458     		ldr	r4, [r4, r0]
 181 0014 1219     		adds	r2, r2, r4
ARM GAS  e:\temp\ccI9ZFAz.s 			page 6


 182              	.LVL25:
  96:..\src\system/utils.c ****     {
 183              		.loc 1 96 0 discriminator 3
 184 0016 0133     		adds	r3, r3, #1
 185              	.LVL26:
 186              	.L15:
  96:..\src\system/utils.c ****     {
 187              		.loc 1 96 0 is_stmt 0 discriminator 1
 188 0018 8B42     		cmp	r3, r1
 189 001a F9D3     		bcc	.L16
  99:..\src\system/utils.c ****     }
 100:..\src\system/utils.c **** 
 101:..\src\system/utils.c ****     /* Return the 2's complement of the binary sum. */
 102:..\src\system/utils.c ****     return ((uint32_t)(1u) + (uint32_t)(~checksum));
 190              		.loc 1 102 0 is_stmt 1
 191 001c 5042     		rsbs	r0, r2, #0
 192              	.LVL27:
 193 001e 02E0     		b	.L14
 194              	.LVL28:
 195              	.L17:
  92:..\src\system/utils.c ****     }
 196              		.loc 1 92 0
 197 0020 0020     		movs	r0, #0
 198              	.LVL29:
 199 0022 00E0     		b	.L14
 200              	.LVL30:
 201              	.L18:
 202 0024 0020     		movs	r0, #0
 203              	.LVL31:
 204              	.L14:
 103:..\src\system/utils.c **** }
 205              		.loc 1 103 0
 206              		@ sp needed
 207 0026 10BD     		pop	{r4, pc}
 208              		.cfi_endproc
 209              	.LFE2:
 210              		.size	mem_calculate_dword_checksum, .-mem_calculate_dword_checksum
 211              		.section	.text.crc16,"ax",%progbits
 212              		.align	2
 213              		.global	crc16
 214              		.code	16
 215              		.thumb_func
 216              		.type	crc16, %function
 217              	crc16:
 218              	.LFB3:
 104:..\src\system/utils.c **** 
 105:..\src\system/utils.c **** uint16_t crc16(uint16_t crc, uint8_t data)
 106:..\src\system/utils.c **** {
 219              		.loc 1 106 0
 220              		.cfi_startproc
 221              		@ args = 0, pretend = 0, frame = 0
 222              		@ frame_needed = 0, uses_anonymous_args = 0
 223              		@ link register save eliminated.
 224              	.LVL32:
 107:..\src\system/utils.c ****     int i = 8;
 108:..\src\system/utils.c **** 
 109:..\src\system/utils.c ****     crc ^= data;
ARM GAS  e:\temp\ccI9ZFAz.s 			page 7


 225              		.loc 1 109 0
 226 0000 4840     		eors	r0, r1
 227              	.LVL33:
 107:..\src\system/utils.c ****     int i = 8;
 228              		.loc 1 107 0
 229 0002 0823     		movs	r3, #8
 230              	.LVL34:
 231              	.L22:
 110:..\src\system/utils.c ****     do
 111:..\src\system/utils.c ****     {
 112:..\src\system/utils.c ****         if (crc & 1) 
 232              		.loc 1 112 0
 233 0004 C207     		lsls	r2, r0, #31
 234 0006 04D5     		bpl	.L20
 113:..\src\system/utils.c ****         {
 114:..\src\system/utils.c ****             crc = (crc >> 1) ^ CRC16_XOR_VALUE;
 235              		.loc 1 114 0
 236 0008 4008     		lsrs	r0, r0, #1
 237              	.LVL35:
 238 000a 0449     		ldr	r1, .L23
 239 000c 4840     		eors	r0, r1
 240 000e 80B2     		uxth	r0, r0
 241              	.LVL36:
 242 0010 00E0     		b	.L21
 243              	.L20:
 115:..\src\system/utils.c ****         } 
 116:..\src\system/utils.c ****         else 
 117:..\src\system/utils.c ****         {
 118:..\src\system/utils.c ****             crc = (crc >> 1);
 244              		.loc 1 118 0
 245 0012 4008     		lsrs	r0, r0, #1
 246              	.LVL37:
 247              	.L21:
 119:..\src\system/utils.c ****         }
 120:..\src\system/utils.c ****     } while(--i);
 248              		.loc 1 120 0
 249 0014 013B     		subs	r3, r3, #1
 250              	.LVL38:
 251 0016 002B     		cmp	r3, #0
 252 0018 F4D1     		bne	.L22
 121:..\src\system/utils.c ****     
 122:..\src\system/utils.c ****     return crc;
 123:..\src\system/utils.c **** }
 253              		.loc 1 123 0
 254              		@ sp needed
 255 001a 7047     		bx	lr
 256              	.L24:
 257              		.align	2
 258              	.L23:
 259 001c 01A0FFFF 		.word	-24575
 260              		.cfi_endproc
 261              	.LFE3:
 262              		.size	crc16, .-crc16
 263              		.section	.text.mem_copy_word,"ax",%progbits
 264              		.align	2
 265              		.global	mem_copy_word
 266              		.code	16
ARM GAS  e:\temp\ccI9ZFAz.s 			page 8


 267              		.thumb_func
 268              		.type	mem_copy_word, %function
 269              	mem_copy_word:
 270              	.LFB4:
 124:..\src\system/utils.c **** 
 125:..\src\system/utils.c **** void mem_copy_word(uint32_t* dest, const uint32_t* source, uint32_t size)
 126:..\src\system/utils.c **** {
 271              		.loc 1 126 0
 272              		.cfi_startproc
 273              		@ args = 0, pretend = 0, frame = 0
 274              		@ frame_needed = 0, uses_anonymous_args = 0
 275              	.LVL39:
 276 0000 30B5     		push	{r4, r5, lr}
 277              		.cfi_def_cfa_offset 12
 278              		.cfi_offset 4, -12
 279              		.cfi_offset 5, -8
 280              		.cfi_offset 14, -4
 281              	.LVL40:
 127:..\src\system/utils.c ****     uint32_t i;
 128:..\src\system/utils.c ****     for(i = 0 ; i < size; i++)
 282              		.loc 1 128 0
 283 0002 0023     		movs	r3, #0
 284 0004 03E0     		b	.L26
 285              	.LVL41:
 286              	.L27:
 129:..\src\system/utils.c ****     {
 130:..\src\system/utils.c ****         dest[i] = source[i];
 287              		.loc 1 130 0 discriminator 3
 288 0006 9C00     		lsls	r4, r3, #2
 289 0008 0D59     		ldr	r5, [r1, r4]
 290 000a 0551     		str	r5, [r0, r4]
 128:..\src\system/utils.c ****     {
 291              		.loc 1 128 0 discriminator 3
 292 000c 0133     		adds	r3, r3, #1
 293              	.LVL42:
 294              	.L26:
 128:..\src\system/utils.c ****     {
 295              		.loc 1 128 0 is_stmt 0 discriminator 1
 296 000e 9342     		cmp	r3, r2
 297 0010 F9D3     		bcc	.L27
 131:..\src\system/utils.c ****     }
 132:..\src\system/utils.c **** }
 298              		.loc 1 132 0 is_stmt 1
 299              		@ sp needed
 300 0012 30BD     		pop	{r4, r5, pc}
 301              		.cfi_endproc
 302              	.LFE4:
 303              		.size	mem_copy_word, .-mem_copy_word
 304              		.text
 305              	.Letext0:
 306              		.file 2 "e:\\cypress\\psoc creator\\4.2\\psoc creator\\import\\gnu\\arm\\5.4.1\\arm-none-eabi\\inc
 307              		.file 3 "e:\\cypress\\psoc creator\\4.2\\psoc creator\\import\\gnu\\arm\\5.4.1\\arm-none-eabi\\inc