ARM GAS  e:\temp\ccmBVIl7.s 			page 1


   1              		.syntax unified
   2              		.cpu cortex-m0
   3              		.fpu softvfp
   4              		.eabi_attribute 20, 1
   5              		.eabi_attribute 21, 1
   6              		.eabi_attribute 23, 3
   7              		.eabi_attribute 24, 1
   8              		.eabi_attribute 25, 1
   9              		.eabi_attribute 26, 1
  10              		.eabi_attribute 30, 1
  11              		.eabi_attribute 34, 0
  12              		.eabi_attribute 18, 4
  13              		.thumb
  14              		.syntax unified
  15              		.file	"vdm.c"
  16              		.text
  17              	.Ltext0:
  18              		.cfi_sections	.debug_frame
  19              		.section	.text.vdm_data_init,"ax",%progbits
  20              		.align	2
  21              		.global	vdm_data_init
  22              		.code	16
  23              		.thumb_func
  24              		.type	vdm_data_init, %function
  25              	vdm_data_init:
  26              	.LFB32:
  27              		.file 1 "..\\src\\app\\vdm.c"
   1:..\src\app/vdm.c **** /**
   2:..\src\app/vdm.c ****  * @file vdm.c
   3:..\src\app/vdm.c ****  *
   4:..\src\app/vdm.c ****  * @brief @{Vendor Defined Message (VDM) handler source file.@}
   5:..\src\app/vdm.c ****  *
   6:..\src\app/vdm.c ****  *******************************************************************************
   7:..\src\app/vdm.c ****  *
   8:..\src\app/vdm.c ****  * Copyright (2014-2018), Cypress Semiconductor Corporation or a subsidiary of
   9:..\src\app/vdm.c ****  * Cypress Semiconductor Corporation. All rights reserved.
  10:..\src\app/vdm.c ****  *
  11:..\src\app/vdm.c ****  * This software, including source code, documentation and related materials
  12:..\src\app/vdm.c ****  * (“Software”), is owned by Cypress Semiconductor Corporation or one of its
  13:..\src\app/vdm.c ****  * subsidiaries (“Cypress”) and is protected by and subject to worldwide patent
  14:..\src\app/vdm.c ****  * protection (United States and foreign), United States copyright laws and
  15:..\src\app/vdm.c ****  * international treaty provisions. Therefore, you may use this Software only
  16:..\src\app/vdm.c ****  * as provided in the license agreement accompanying the software package from
  17:..\src\app/vdm.c ****  * which you obtained this Software (“EULA”).
  18:..\src\app/vdm.c ****  *
  19:..\src\app/vdm.c ****  * If no EULA applies, Cypress hereby grants you a personal, nonexclusive,
  20:..\src\app/vdm.c ****  * non-transferable license to copy, modify, and compile the Software source
  21:..\src\app/vdm.c ****  * code solely for use in connection with Cypress’s integrated circuit
  22:..\src\app/vdm.c ****  * products. Any reproduction, modification, translation, compilation, or
  23:..\src\app/vdm.c ****  * representation of this Software except as specified above is prohibited
  24:..\src\app/vdm.c ****  * without the express written permission of Cypress. Disclaimer: THIS SOFTWARE
  25:..\src\app/vdm.c ****  * IS PROVIDED AS-IS, WITH NO WARRANTY OF ANY KIND, EXPRESS OR IMPLIED,
  26:..\src\app/vdm.c ****  * INCLUDING, BUT NOT LIMITED TO, NONINFRINGEMENT, IMPLIED WARRANTIES OF
  27:..\src\app/vdm.c ****  * MERCHANTABILITY AND FITNESS FOR A PARTICULAR PURPOSE. Cypress reserves the
  28:..\src\app/vdm.c ****  * right to make changes to the Software without notice. Cypress does not
  29:..\src\app/vdm.c ****  * assume any liability arising out of the application or use of the Software
  30:..\src\app/vdm.c ****  * or any product or circuit described in the Software. Cypress does not
ARM GAS  e:\temp\ccmBVIl7.s 			page 2


  31:..\src\app/vdm.c ****  * authorize its products for use in any products where a malfunction or
  32:..\src\app/vdm.c ****  * failure of the Cypress product may reasonably be expected to result in
  33:..\src\app/vdm.c ****  * significant property damage, injury or death (“High Risk Product”). By
  34:..\src\app/vdm.c ****  * including Cypress’s product in a High Risk Product, the manufacturer of such
  35:..\src\app/vdm.c ****  * system or application assumes all risk of such use and in doing so agrees to
  36:..\src\app/vdm.c ****  * indemnify Cypress against all liability.
  37:..\src\app/vdm.c ****  */
  38:..\src\app/vdm.c **** 
  39:..\src\app/vdm.c **** #include <config.h>
  40:..\src\app/vdm.c **** #include <timer.h>
  41:..\src\app/vdm.c **** #include <vdm.h>
  42:..\src\app/vdm.c **** #include <pd.h>
  43:..\src\app/vdm.c **** #include <dpm.h>
  44:..\src\app/vdm.c **** #include <app.h>
  45:..\src\app/vdm.c **** #include <vdm_task_mngr.h>
  46:..\src\app/vdm.c **** #include <alt_modes_mngr.h>
  47:..\src\app/vdm.c **** #include <intel_vid.h>
  48:..\src\app/vdm.c **** #include <hpi.h>
  49:..\src\app/vdm.c **** #if DP_GPIO_CONFIG_SELECT
  50:..\src\app/vdm.c **** #include <dp_sid.h>
  51:..\src\app/vdm.c **** #endif /* DP_GPIO_CONFIG_SELECT */
  52:..\src\app/vdm.c **** 
  53:..\src\app/vdm.c **** #if (FLASHING_MODE_PD_ENABLE == 1)
  54:..\src\app/vdm.c **** #include <flash.h>
  55:..\src\app/vdm.c **** #include <uvdm.h>
  56:..\src\app/vdm.c **** #endif /* FLASHING_MODE_PD_ENABLE */
  57:..\src\app/vdm.c **** 
  58:..\src\app/vdm.c **** /* Stores Discover ID response VDO count */
  59:..\src\app/vdm.c **** static uint8_t  gl_vdm_id_vdo_cnt[NO_OF_TYPEC_PORTS];
  60:..\src\app/vdm.c **** 
  61:..\src\app/vdm.c **** /* Stores Discover SVID response VDO count */
  62:..\src\app/vdm.c **** static uint8_t  gl_vdm_svid_vdo_cnt[NO_OF_TYPEC_PORTS];
  63:..\src\app/vdm.c **** 
  64:..\src\app/vdm.c **** /* Stores Discover Modes response VDO count */
  65:..\src\app/vdm.c **** static uint16_t gl_vdm_mode_data_len[NO_OF_TYPEC_PORTS];
  66:..\src\app/vdm.c **** 
  67:..\src\app/vdm.c **** /* Stores pointer to Discover ID response data */
  68:..\src\app/vdm.c **** static pd_do_t *gl_vdm_id_vdo_p[NO_OF_TYPEC_PORTS];
  69:..\src\app/vdm.c **** 
  70:..\src\app/vdm.c **** /* Stores pointer to Discover SVID response data */
  71:..\src\app/vdm.c **** static pd_do_t *gl_vdm_svid_vdo_p[NO_OF_TYPEC_PORTS];
  72:..\src\app/vdm.c **** 
  73:..\src\app/vdm.c **** /* Stores pointer to Discover Modes response data */
  74:..\src\app/vdm.c **** static uint8_t *gl_vdm_mode_data_p[NO_OF_TYPEC_PORTS];
  75:..\src\app/vdm.c **** 
  76:..\src\app/vdm.c **** #if (FLASH_ENABLE_NB_MODE == 1) && (FLASHING_MODE_PD_ENABLE == 1)
  77:..\src\app/vdm.c **** vdm_resp_cbk_t gl_vdm_resp_cbk = NULL;
  78:..\src\app/vdm.c **** /*
  79:..\src\app/vdm.c ****  * In Non-Blocking Flash Write Scenario, this is the callback
  80:..\src\app/vdm.c ****  * invoked by Flash Module after Flash row write completes.
  81:..\src\app/vdm.c ****  * This should be used to send back the VDM response.
  82:..\src\app/vdm.c ****  *
  83:..\src\app/vdm.c ****  * @param NONE
  84:..\src\app/vdm.c ****  * @param NONE
  85:..\src\app/vdm.c ****  */
  86:..\src\app/vdm.c **** void uvdm_nb_flash_write_cb(flash_write_status_t write_status)
  87:..\src\app/vdm.c **** {
ARM GAS  e:\temp\ccmBVIl7.s 			page 3


  88:..\src\app/vdm.c ****     /* Non-Blocking Flashing is supported only for CCG3. Hence the port index is
  89:..\src\app/vdm.c ****      * fixed to 0.*/
  90:..\src\app/vdm.c ****     app_status_t* app_stat = app_get_status(0);
  91:..\src\app/vdm.c **** 
  92:..\src\app/vdm.c ****     /* Response should be sent out only if Flash write was not aborted. */
  93:..\src\app/vdm.c ****     if (write_status == FLASH_WRITE_COMPLETE)
  94:..\src\app/vdm.c ****     {
  95:..\src\app/vdm.c ****         app_stat->vdm_resp.resp_buf[UVDM_HEADER_INDEX].val =
  96:..\src\app/vdm.c ****             ((get_pd_config()->flashing_vid << 16) |
  97:..\src\app/vdm.c ****             (CMD_TYPE_RESP_ACK << 11) | (uvdm_get_cur_nb_cmd ()));
  98:..\src\app/vdm.c ****         app_stat->vdm_resp.resp_buf[UVDM_RESPONSE_VDO_INDEX].val =
  99:..\src\app/vdm.c ****             (CCG_STAT_SUCCESS + CCG_STATUS_CODE_OFFSET);
 100:..\src\app/vdm.c **** 
 101:..\src\app/vdm.c ****         app_stat->vdm_resp.do_count = 2;
 102:..\src\app/vdm.c ****         /* Ignore Unstructured VDM */
 103:..\src\app/vdm.c ****         app_stat->vdm_resp.no_resp = VDM_AMS_RESP_READY;
 104:..\src\app/vdm.c ****         gl_vdm_resp_cbk (0, &app_stat->vdm_resp);
 105:..\src\app/vdm.c ****     }
 106:..\src\app/vdm.c **** 
 107:..\src\app/vdm.c ****     uvdm_reset_nb_cmd_state ();
 108:..\src\app/vdm.c **** }
 109:..\src\app/vdm.c **** #else
 110:..\src\app/vdm.c **** void *uvdm_nb_flash_write_cb = NULL;
 111:..\src\app/vdm.c **** #endif /* (FLASH_ENABLE_NB_MODE == 1) && (FLASHING_MODE_PD_ENABLE == 1) */
 112:..\src\app/vdm.c **** 
 113:..\src\app/vdm.c **** /* Store VDM information from the config table in the RAM variables. */
 114:..\src\app/vdm.c **** void vdm_data_init(uint8_t port)
 115:..\src\app/vdm.c **** {
  28              		.loc 1 115 0
  29              		.cfi_startproc
  30              		@ args = 0, pretend = 0, frame = 0
  31              		@ frame_needed = 0, uses_anonymous_args = 0
  32              	.LVL0:
  33 0000 70B5     		push	{r4, r5, r6, lr}
  34              		.cfi_def_cfa_offset 16
  35              		.cfi_offset 4, -16
  36              		.cfi_offset 5, -12
  37              		.cfi_offset 6, -8
  38              		.cfi_offset 14, -4
  39 0002 0400     		movs	r4, r0
  40              	.LVL1:
 116:..\src\app/vdm.c ****     uint16_t size = 0;
 117:..\src\app/vdm.c **** 
 118:..\src\app/vdm.c ****     /* Calculate the number of VDOs in the D_ID response. */
 119:..\src\app/vdm.c ****     size = get_pd_port_config(port)->id_vdm_length;
  41              		.loc 1 119 0
  42 0004 FFF7FEFF 		bl	get_pd_port_config
  43              	.LVL2:
  44 0008 4388     		ldrh	r3, [r0, #2]
  45              	.LVL3:
 120:..\src\app/vdm.c ****     /* Subtract 4 bytes for the header and reduce to number of VDOs. */
 121:..\src\app/vdm.c ****     if (size > 4)
  46              		.loc 1 121 0
  47 000a 042B     		cmp	r3, #4
  48 000c 04D9     		bls	.L2
 122:..\src\app/vdm.c ****         gl_vdm_id_vdo_cnt[port] = (uint8_t)((size - 4) >> 2);
  49              		.loc 1 122 0
ARM GAS  e:\temp\ccmBVIl7.s 			page 4


  50 000e 043B     		subs	r3, r3, #4
  51              	.LVL4:
  52 0010 9B10     		asrs	r3, r3, #2
  53              	.LVL5:
  54 0012 204A     		ldr	r2, .L6
  55 0014 1355     		strb	r3, [r2, r4]
  56              	.LVL6:
  57 0016 02E0     		b	.L3
  58              	.LVL7:
  59              	.L2:
 123:..\src\app/vdm.c ****     else
 124:..\src\app/vdm.c ****         gl_vdm_id_vdo_cnt[port] = 0;
  60              		.loc 1 124 0
  61 0018 0022     		movs	r2, #0
  62 001a 1E4B     		ldr	r3, .L6
  63              	.LVL8:
  64 001c 1A55     		strb	r2, [r3, r4]
  65              	.LVL9:
  66              	.L3:
 125:..\src\app/vdm.c **** 
 126:..\src\app/vdm.c ****     /* Update the D_ID response pointer. */
 127:..\src\app/vdm.c ****     gl_vdm_id_vdo_p[port] = (pd_do_t *)(((uint8_t *)get_pd_config ()) +
  67              		.loc 1 127 0
  68 001e FFF7FEFF 		bl	get_pd_config
  69              	.LVL10:
  70 0022 0500     		movs	r5, r0
 128:..\src\app/vdm.c ****             get_pd_port_config(port)->id_vdm_offset + 4);
  71              		.loc 1 128 0
  72 0024 2000     		movs	r0, r4
  73 0026 FFF7FEFF 		bl	get_pd_port_config
  74              	.LVL11:
  75 002a 0088     		ldrh	r0, [r0]
  76 002c 0430     		adds	r0, r0, #4
 127:..\src\app/vdm.c ****             get_pd_port_config(port)->id_vdm_offset + 4);
  77              		.loc 1 127 0
  78 002e 2818     		adds	r0, r5, r0
  79 0030 A300     		lsls	r3, r4, #2
  80 0032 184A     		ldr	r2, .L6
  81 0034 D318     		adds	r3, r2, r3
  82 0036 5860     		str	r0, [r3, #4]
 129:..\src\app/vdm.c **** 
 130:..\src\app/vdm.c ****     /* Calculate the number of VDOs in the D_SVID response. */
 131:..\src\app/vdm.c ****     size = get_pd_port_config(port)->svid_vdm_length;
  83              		.loc 1 131 0
  84 0038 2000     		movs	r0, r4
  85 003a FFF7FEFF 		bl	get_pd_port_config
  86              	.LVL12:
  87 003e C388     		ldrh	r3, [r0, #6]
  88              	.LVL13:
 132:..\src\app/vdm.c ****     /* Subtract 4 bytes for the header and reduce to number of VDOs. */
 133:..\src\app/vdm.c ****     if (size > 4)
  89              		.loc 1 133 0
  90 0040 042B     		cmp	r3, #4
  91 0042 05D9     		bls	.L4
 134:..\src\app/vdm.c ****         gl_vdm_svid_vdo_cnt[port] = (uint8_t)((size - 4) >> 2);
  92              		.loc 1 134 0
  93 0044 043B     		subs	r3, r3, #4
ARM GAS  e:\temp\ccmBVIl7.s 			page 5


  94              	.LVL14:
  95 0046 9B10     		asrs	r3, r3, #2
  96              	.LVL15:
  97 0048 124A     		ldr	r2, .L6
  98 004a 1219     		adds	r2, r2, r4
  99 004c 1373     		strb	r3, [r2, #12]
 100              	.LVL16:
 101 004e 03E0     		b	.L5
 102              	.LVL17:
 103              	.L4:
 135:..\src\app/vdm.c ****     else
 136:..\src\app/vdm.c ****         gl_vdm_svid_vdo_cnt[port] = 0;
 104              		.loc 1 136 0
 105 0050 104B     		ldr	r3, .L6
 106              	.LVL18:
 107 0052 1B19     		adds	r3, r3, r4
 108 0054 0022     		movs	r2, #0
 109 0056 1A73     		strb	r2, [r3, #12]
 110              	.LVL19:
 111              	.L5:
 137:..\src\app/vdm.c **** 
 138:..\src\app/vdm.c ****     /* Update the D_SVID response pointer. */
 139:..\src\app/vdm.c ****     gl_vdm_svid_vdo_p[port] = (pd_do_t *)(((uint8_t *)get_pd_config ()) +
 112              		.loc 1 139 0
 113 0058 FFF7FEFF 		bl	get_pd_config
 114              	.LVL20:
 115 005c 0500     		movs	r5, r0
 140:..\src\app/vdm.c ****             get_pd_port_config(port)->svid_vdm_offset + 4);
 116              		.loc 1 140 0
 117 005e 2000     		movs	r0, r4
 118 0060 FFF7FEFF 		bl	get_pd_port_config
 119              	.LVL21:
 120 0064 8088     		ldrh	r0, [r0, #4]
 121 0066 0430     		adds	r0, r0, #4
 139:..\src\app/vdm.c ****             get_pd_port_config(port)->svid_vdm_offset + 4);
 122              		.loc 1 139 0
 123 0068 2818     		adds	r0, r5, r0
 124 006a 0A4E     		ldr	r6, .L6
 125 006c A500     		lsls	r5, r4, #2
 126 006e 7519     		adds	r5, r6, r5
 127 0070 2861     		str	r0, [r5, #16]
 141:..\src\app/vdm.c **** 
 142:..\src\app/vdm.c ****     /* Store the D_MODE response length from configuration table. */
 143:..\src\app/vdm.c ****     gl_vdm_mode_data_len[port] = get_pd_port_config(port)->mode_vdm_length;
 128              		.loc 1 143 0
 129 0072 2000     		movs	r0, r4
 130 0074 FFF7FEFF 		bl	get_pd_port_config
 131              	.LVL22:
 132 0078 4289     		ldrh	r2, [r0, #10]
 133 007a 6300     		lsls	r3, r4, #1
 134 007c F318     		adds	r3, r6, r3
 135 007e 1A83     		strh	r2, [r3, #24]
 144:..\src\app/vdm.c **** 
 145:..\src\app/vdm.c ****     /* Store pointer to the D_MODE responses. */
 146:..\src\app/vdm.c ****     gl_vdm_mode_data_p[port] = (uint8_t *)(get_pd_config ()) +
 136              		.loc 1 146 0
 137 0080 FFF7FEFF 		bl	get_pd_config
ARM GAS  e:\temp\ccmBVIl7.s 			page 6


 138              	.LVL23:
 139 0084 0600     		movs	r6, r0
 147:..\src\app/vdm.c ****         get_pd_port_config(port)->mode_vdm_offset;
 140              		.loc 1 147 0
 141 0086 2000     		movs	r0, r4
 142 0088 FFF7FEFF 		bl	get_pd_port_config
 143              	.LVL24:
 144 008c 0089     		ldrh	r0, [r0, #8]
 146:..\src\app/vdm.c ****         get_pd_port_config(port)->mode_vdm_offset;
 145              		.loc 1 146 0
 146 008e 3018     		adds	r0, r6, r0
 147 0090 E861     		str	r0, [r5, #28]
 148:..\src\app/vdm.c **** }
 148              		.loc 1 148 0
 149              		@ sp needed
 150 0092 70BD     		pop	{r4, r5, r6, pc}
 151              	.L7:
 152              		.align	2
 153              	.L6:
 154 0094 00000000 		.word	.LANCHOR0
 155              		.cfi_endproc
 156              	.LFE32:
 157              		.size	vdm_data_init, .-vdm_data_init
 158              		.section	.text.vdm_update_svid_resp,"ax",%progbits
 159              		.align	2
 160              		.global	vdm_update_svid_resp
 161              		.code	16
 162              		.thumb_func
 163              		.type	vdm_update_svid_resp, %function
 164              	vdm_update_svid_resp:
 165              	.LFB33:
 149:..\src\app/vdm.c **** 
 150:..\src\app/vdm.c **** void vdm_update_svid_resp(uint8_t port, uint8_t svid_vdo_cnt, uint8_t *svid_vdo_p)
 151:..\src\app/vdm.c **** {
 166              		.loc 1 151 0
 167              		.cfi_startproc
 168              		@ args = 0, pretend = 0, frame = 0
 169              		@ frame_needed = 0, uses_anonymous_args = 0
 170              	.LVL25:
 171 0000 10B5     		push	{r4, lr}
 172              		.cfi_def_cfa_offset 8
 173              		.cfi_offset 4, -8
 174              		.cfi_offset 14, -4
 152:..\src\app/vdm.c ****     if (port < NO_OF_TYPEC_PORTS)
 175              		.loc 1 152 0
 176 0002 0128     		cmp	r0, #1
 177 0004 05D8     		bhi	.L8
 153:..\src\app/vdm.c ****     {
 154:..\src\app/vdm.c ****         gl_vdm_svid_vdo_cnt[port]  = svid_vdo_cnt;
 178              		.loc 1 154 0
 179 0006 034B     		ldr	r3, .L10
 180 0008 1C18     		adds	r4, r3, r0
 181 000a 2173     		strb	r1, [r4, #12]
 155:..\src\app/vdm.c ****         gl_vdm_svid_vdo_p[port]    = (pd_do_t *)svid_vdo_p;
 182              		.loc 1 155 0
 183 000c 8000     		lsls	r0, r0, #2
 184              	.LVL26:
ARM GAS  e:\temp\ccmBVIl7.s 			page 7


 185 000e 1818     		adds	r0, r3, r0
 186 0010 0261     		str	r2, [r0, #16]
 187              	.L8:
 156:..\src\app/vdm.c ****     }
 157:..\src\app/vdm.c **** }
 188              		.loc 1 157 0
 189              		@ sp needed
 190 0012 10BD     		pop	{r4, pc}
 191              	.L11:
 192              		.align	2
 193              	.L10:
 194 0014 00000000 		.word	.LANCHOR0
 195              		.cfi_endproc
 196              	.LFE33:
 197              		.size	vdm_update_svid_resp, .-vdm_update_svid_resp
 198              		.section	.text.vdm_update_data,"ax",%progbits
 199              		.align	2
 200              		.global	vdm_update_data
 201              		.code	16
 202              		.thumb_func
 203              		.type	vdm_update_data, %function
 204              	vdm_update_data:
 205              	.LFB34:
 158:..\src\app/vdm.c **** 
 159:..\src\app/vdm.c **** void vdm_update_data(uint8_t port, uint8_t id_vdo_cnt, uint8_t *id_vdo_p,
 160:..\src\app/vdm.c ****         uint8_t svid_vdo_cnt, uint8_t *svid_vdo_p, uint16_t mode_resp_len, uint8_t *mode_resp_p)
 161:..\src\app/vdm.c **** {
 206              		.loc 1 161 0
 207              		.cfi_startproc
 208              		@ args = 12, pretend = 0, frame = 0
 209              		@ frame_needed = 0, uses_anonymous_args = 0
 210              	.LVL27:
 211 0000 70B5     		push	{r4, r5, r6, lr}
 212              		.cfi_def_cfa_offset 16
 213              		.cfi_offset 4, -16
 214              		.cfi_offset 5, -12
 215              		.cfi_offset 6, -8
 216              		.cfi_offset 14, -4
 217 0002 04AC     		add	r4, sp, #16
 218              	.LVL28:
 219 0004 40CC     		ldmia	r4!, {r6}
 220              	.LVL29:
 221 0006 2588     		ldrh	r5, [r4]
 162:..\src\app/vdm.c ****     if (port < NO_OF_TYPEC_PORTS)
 222              		.loc 1 162 0
 223 0008 0128     		cmp	r0, #1
 224 000a 0CD8     		bhi	.L12
 163:..\src\app/vdm.c ****     {
 164:..\src\app/vdm.c ****         gl_vdm_id_vdo_cnt[port]    = id_vdo_cnt;
 225              		.loc 1 164 0
 226 000c 064C     		ldr	r4, .L14
 227              	.LVL30:
 228 000e 2154     		strb	r1, [r4, r0]
 165:..\src\app/vdm.c ****         gl_vdm_id_vdo_p[port]      = (pd_do_t *)id_vdo_p;
 229              		.loc 1 165 0
 230 0010 8100     		lsls	r1, r0, #2
 231              	.LVL31:
ARM GAS  e:\temp\ccmBVIl7.s 			page 8


 232 0012 6118     		adds	r1, r4, r1
 233 0014 4A60     		str	r2, [r1, #4]
 166:..\src\app/vdm.c ****         gl_vdm_svid_vdo_cnt[port]  = svid_vdo_cnt;
 234              		.loc 1 166 0
 235 0016 2218     		adds	r2, r4, r0
 236              	.LVL32:
 237 0018 1373     		strb	r3, [r2, #12]
 167:..\src\app/vdm.c ****         gl_vdm_svid_vdo_p[port]    = (pd_do_t *)svid_vdo_p;
 238              		.loc 1 167 0
 239 001a 0E61     		str	r6, [r1, #16]
 168:..\src\app/vdm.c ****         gl_vdm_mode_data_len[port] = mode_resp_len;
 240              		.loc 1 168 0
 241 001c 4000     		lsls	r0, r0, #1
 242              	.LVL33:
 243 001e 2018     		adds	r0, r4, r0
 244 0020 0583     		strh	r5, [r0, #24]
 169:..\src\app/vdm.c ****         gl_vdm_mode_data_p[port]   = mode_resp_p;
 245              		.loc 1 169 0
 246 0022 069B     		ldr	r3, [sp, #24]
 247              	.LVL34:
 248 0024 CB61     		str	r3, [r1, #28]
 249              	.LVL35:
 250              	.L12:
 170:..\src\app/vdm.c ****     }
 171:..\src\app/vdm.c **** }
 251              		.loc 1 171 0
 252              		@ sp needed
 253 0026 70BD     		pop	{r4, r5, r6, pc}
 254              	.L15:
 255              		.align	2
 256              	.L14:
 257 0028 00000000 		.word	.LANCHOR0
 258              		.cfi_endproc
 259              	.LFE34:
 260              		.size	vdm_update_data, .-vdm_update_data
 261              		.section	.text.get_modes_vdo_info,"ax",%progbits
 262              		.align	2
 263              		.global	get_modes_vdo_info
 264              		.code	16
 265              		.thumb_func
 266              		.type	get_modes_vdo_info, %function
 267              	get_modes_vdo_info:
 268              	.LFB35:
 172:..\src\app/vdm.c **** 
 173:..\src\app/vdm.c **** bool get_modes_vdo_info(uint8_t port, uint16_t svid, pd_do_t **temp_p, uint8_t *no_of_vdo)
 174:..\src\app/vdm.c **** {
 269              		.loc 1 174 0
 270              		.cfi_startproc
 271              		@ args = 0, pretend = 0, frame = 0
 272              		@ frame_needed = 0, uses_anonymous_args = 0
 273              	.LVL36:
 274 0000 F0B5     		push	{r4, r5, r6, r7, lr}
 275              		.cfi_def_cfa_offset 20
 276              		.cfi_offset 4, -20
 277              		.cfi_offset 5, -16
 278              		.cfi_offset 6, -12
 279              		.cfi_offset 7, -8
ARM GAS  e:\temp\ccmBVIl7.s 			page 9


 280              		.cfi_offset 14, -4
 175:..\src\app/vdm.c ****     uint8_t d_mode_resp_size_total;
 176:..\src\app/vdm.c ****     uint8_t d_mode_resp_size;
 177:..\src\app/vdm.c ****     pd_do_t *header;
 178:..\src\app/vdm.c ****     uint8_t* resp_p = gl_vdm_mode_data_p[port];
 281              		.loc 1 178 0
 282 0002 0E4D     		ldr	r5, .L22
 283 0004 8400     		lsls	r4, r0, #2
 284 0006 2C19     		adds	r4, r5, r4
 285 0008 E469     		ldr	r4, [r4, #28]
 286              	.LVL37:
 179:..\src\app/vdm.c **** 
 180:..\src\app/vdm.c ****     /* Parse all responses based on SVID */
 181:..\src\app/vdm.c ****     d_mode_resp_size_total = gl_vdm_mode_data_len[port];
 287              		.loc 1 181 0
 288 000a 4000     		lsls	r0, r0, #1
 289              	.LVL38:
 290 000c 2818     		adds	r0, r5, r0
 291 000e 007E     		ldrb	r0, [r0, #24]
 292              	.LVL39:
 182:..\src\app/vdm.c **** 
 183:..\src\app/vdm.c ****     /* If size is less than or equal to 4, return NACK. */
 184:..\src\app/vdm.c ****     if (d_mode_resp_size_total <= 4)
 293              		.loc 1 184 0
 294 0010 0428     		cmp	r0, #4
 295 0012 0ED8     		bhi	.L18
 296 0014 10E0     		b	.L21
 297              	.L20:
 185:..\src\app/vdm.c ****     {
 186:..\src\app/vdm.c ****         return false;
 187:..\src\app/vdm.c ****     }
 188:..\src\app/vdm.c **** 
 189:..\src\app/vdm.c ****     while (d_mode_resp_size_total)
 190:..\src\app/vdm.c ****     {
 191:..\src\app/vdm.c ****         /* Get the size of packet. */
 192:..\src\app/vdm.c ****         d_mode_resp_size = *resp_p;
 298              		.loc 1 192 0
 299 0016 2578     		ldrb	r5, [r4]
 300              	.LVL40:
 193:..\src\app/vdm.c **** 
 194:..\src\app/vdm.c ****         /* Read the SVID from header. */
 195:..\src\app/vdm.c ****         header = (pd_do_t *)(resp_p + 4);
 301              		.loc 1 195 0
 302 0018 271D     		adds	r7, r4, #4
 303              	.LVL41:
 196:..\src\app/vdm.c ****         if (header->std_vdm_hdr.svid == svid)
 304              		.loc 1 196 0
 305 001a E688     		ldrh	r6, [r4, #6]
 306 001c 8E42     		cmp	r6, r1
 307 001e 05D1     		bne	.L19
 197:..\src\app/vdm.c ****         {
 198:..\src\app/vdm.c ****             *no_of_vdo = ((d_mode_resp_size-4) >> 2);
 308              		.loc 1 198 0
 309 0020 281F     		subs	r0, r5, #4
 310              	.LVL42:
 311 0022 8010     		asrs	r0, r0, #2
 312 0024 1870     		strb	r0, [r3]
ARM GAS  e:\temp\ccmBVIl7.s 			page 10


 199:..\src\app/vdm.c ****             *temp_p = header;
 313              		.loc 1 199 0
 314 0026 1760     		str	r7, [r2]
 200:..\src\app/vdm.c ****             return true;
 315              		.loc 1 200 0
 316 0028 0120     		movs	r0, #1
 317 002a 06E0     		b	.L17
 318              	.LVL43:
 319              	.L19:
 201:..\src\app/vdm.c ****         }
 202:..\src\app/vdm.c ****         /* Move to next packet. */
 203:..\src\app/vdm.c ****         resp_p += d_mode_resp_size;
 320              		.loc 1 203 0
 321 002c 6419     		adds	r4, r4, r5
 322              	.LVL44:
 204:..\src\app/vdm.c ****         d_mode_resp_size_total -= d_mode_resp_size;
 323              		.loc 1 204 0
 324 002e 401B     		subs	r0, r0, r5
 325              	.LVL45:
 326 0030 C0B2     		uxtb	r0, r0
 327              	.LVL46:
 328              	.L18:
 189:..\src\app/vdm.c ****     {
 329              		.loc 1 189 0
 330 0032 0028     		cmp	r0, #0
 331 0034 EFD1     		bne	.L20
 332 0036 00E0     		b	.L17
 333              	.L21:
 186:..\src\app/vdm.c ****     }
 334              		.loc 1 186 0
 335 0038 0020     		movs	r0, #0
 336              	.LVL47:
 337              	.L17:
 205:..\src\app/vdm.c ****     }
 206:..\src\app/vdm.c ****     return false;
 207:..\src\app/vdm.c **** }
 338              		.loc 1 207 0
 339              		@ sp needed
 340              	.LVL48:
 341 003a F0BD     		pop	{r4, r5, r6, r7, pc}
 342              	.L23:
 343              		.align	2
 344              	.L22:
 345 003c 00000000 		.word	.LANCHOR0
 346              		.cfi_endproc
 347              	.LFE35:
 348              		.size	get_modes_vdo_info, .-get_modes_vdo_info
 349              		.section	.text.eval_vdm,"ax",%progbits
 350              		.align	2
 351              		.global	eval_vdm
 352              		.code	16
 353              		.thumb_func
 354              		.type	eval_vdm, %function
 355              	eval_vdm:
 356              	.LFB36:
 208:..\src\app/vdm.c **** 
 209:..\src\app/vdm.c **** void eval_vdm(uint8_t port, const pd_packet_t *vdm, vdm_resp_cbk_t vdm_resp_handler)
ARM GAS  e:\temp\ccmBVIl7.s 			page 11


 210:..\src\app/vdm.c **** {
 357              		.loc 1 210 0
 358              		.cfi_startproc
 359              		@ args = 0, pretend = 0, frame = 8
 360              		@ frame_needed = 0, uses_anonymous_args = 0
 361              	.LVL49:
 362 0000 F0B5     		push	{r4, r5, r6, r7, lr}
 363              		.cfi_def_cfa_offset 20
 364              		.cfi_offset 4, -20
 365              		.cfi_offset 5, -16
 366              		.cfi_offset 6, -12
 367              		.cfi_offset 7, -8
 368              		.cfi_offset 14, -4
 369 0002 5F46     		mov	r7, fp
 370 0004 5646     		mov	r6, r10
 371 0006 4D46     		mov	r5, r9
 372 0008 4446     		mov	r4, r8
 373 000a F0B4     		push	{r4, r5, r6, r7}
 374              		.cfi_def_cfa_offset 36
 375              		.cfi_offset 8, -36
 376              		.cfi_offset 9, -32
 377              		.cfi_offset 10, -28
 378              		.cfi_offset 11, -24
 379 000c 83B0     		sub	sp, sp, #12
 380              		.cfi_def_cfa_offset 48
 381 000e 0500     		movs	r5, r0
 382 0010 0E00     		movs	r6, r1
 383 0012 1700     		movs	r7, r2
 211:..\src\app/vdm.c ****     app_status_t* app_stat = app_get_status(port);
 384              		.loc 1 211 0
 385 0014 FFF7FEFF 		bl	app_get_status
 386              	.LVL50:
 387 0018 0400     		movs	r4, r0
 388              	.LVL51:
 212:..\src\app/vdm.c ****     pd_do_t* dobj;
 213:..\src\app/vdm.c ****     uint8_t i, count;
 214:..\src\app/vdm.c ****     bool eval_rslt ;
 215:..\src\app/vdm.c **** #if CCG_PD_REV3_ENABLE
 216:..\src\app/vdm.c ****     bool pd3_live = false;
 217:..\src\app/vdm.c **** #endif
 218:..\src\app/vdm.c **** 
 219:..\src\app/vdm.c **** #if (FLASHING_MODE_PD_ENABLE == 1)
 220:..\src\app/vdm.c **** #if (FLASH_ENABLE_NB_MODE == 1)
 221:..\src\app/vdm.c ****     gl_vdm_resp_cbk = vdm_resp_handler;
 222:..\src\app/vdm.c **** #endif /* FLASH_ENABLE_NB_MODE */
 223:..\src\app/vdm.c ****     uvdm_response_state_t response_state = UVDM_NOT_HANDLED;
 224:..\src\app/vdm.c **** #endif /* FLASHING_MODE_PD_ENABLE */
 225:..\src\app/vdm.c **** 
 226:..\src\app/vdm.c **** #if CCG_PD_REV3_ENABLE
 227:..\src\app/vdm.c ****     if (dpm_get_info(port)->spec_rev_sop_live >= PD_REV3)
 389              		.loc 1 227 0
 390 001a 2800     		movs	r0, r5
 391              	.LVL52:
 392 001c FFF7FEFF 		bl	dpm_get_info
 393              	.LVL53:
 394 0020 9423     		movs	r3, #148
 395 0022 C35C     		ldrb	r3, [r0, r3]
ARM GAS  e:\temp\ccmBVIl7.s 			page 12


 396 0024 012B     		cmp	r3, #1
 397 0026 02D8     		bhi	.L51
 216:..\src\app/vdm.c **** #endif
 398              		.loc 1 216 0
 399 0028 0023     		movs	r3, #0
 400 002a 9846     		mov	r8, r3
 401 002c 01E0     		b	.L25
 402              	.L51:
 228:..\src\app/vdm.c ****         pd3_live = true;
 403              		.loc 1 228 0
 404 002e 0123     		movs	r3, #1
 405 0030 9846     		mov	r8, r3
 406              	.L25:
 407              	.LVL54:
 229:..\src\app/vdm.c **** #endif
 230:..\src\app/vdm.c **** 
 231:..\src\app/vdm.c ****     /* By Default assume we will respond */
 232:..\src\app/vdm.c ****     app_stat->vdm_resp.no_resp = VDM_AMS_RESP_READY;
 408              		.loc 1 232 0
 409 0032 0022     		movs	r2, #0
 410 0034 2D23     		movs	r3, #45
 411 0036 E254     		strb	r2, [r4, r3]
 233:..\src\app/vdm.c **** 
 234:..\src\app/vdm.c ****     if (
 235:..\src\app/vdm.c ****             (vdm->dat[VDM_HEADER_IDX].std_vdm_hdr.vdm_type == VDM_TYPE_STRUCTURED) &&
 412              		.loc 1 235 0
 413 0038 3289     		ldrh	r2, [r6, #8]
 414 003a 944B     		ldr	r3, .L52
 415 003c 1340     		ands	r3, r2
 234:..\src\app/vdm.c ****             (vdm->dat[VDM_HEADER_IDX].std_vdm_hdr.vdm_type == VDM_TYPE_STRUCTURED) &&
 416              		.loc 1 234 0
 417 003e 8022     		movs	r2, #128
 418 0040 1202     		lsls	r2, r2, #8
 419 0042 9342     		cmp	r3, r2
 420 0044 00D0     		beq	.LCB403
 421 0046 08E1     		b	.L26	@long jump
 422              	.LCB403:
 236:..\src\app/vdm.c ****             (vdm->dat[VDM_HEADER_IDX].std_vdm_hdr.cmd_type == CMD_TYPE_INITIATOR)
 237:..\src\app/vdm.c ****        )
 238:..\src\app/vdm.c ****     {
 239:..\src\app/vdm.c ****         /* Copy received VDM Header data to VDM response Header*/
 240:..\src\app/vdm.c ****         app_stat->vdm_resp.resp_buf[VDM_HEADER_IDX].val = vdm->dat[VDM_HEADER_IDX].val;
 423              		.loc 1 240 0
 424 0048 B368     		ldr	r3, [r6, #8]
 425 004a 2361     		str	r3, [r4, #16]
 241:..\src\app/vdm.c **** 
 242:..\src\app/vdm.c **** #if CCG_PD_REV3_ENABLE
 243:..\src\app/vdm.c ****         /* Use the minimum VDM version from among the partner's revision and the live revision. */
 244:..\src\app/vdm.c ****         app_stat->vdm_version = GET_MIN (app_stat->vdm_version, vdm->dat[VDM_HEADER_IDX].std_vdm_hd
 426              		.loc 1 244 0
 427 004c 3A23     		movs	r3, #58
 428 004e E15C     		ldrb	r1, [r4, r3]
 429 0050 737A     		ldrb	r3, [r6, #9]
 430 0052 5B06     		lsls	r3, r3, #25
 431 0054 9B0F     		lsrs	r3, r3, #30
 432 0056 1A1C     		adds	r2, r3, #0
 433 0058 DBB2     		uxtb	r3, r3
ARM GAS  e:\temp\ccmBVIl7.s 			page 13


 434 005a 8B42     		cmp	r3, r1
 435 005c 00D9     		bls	.L27
 436 005e 0A1C     		adds	r2, r1, #0
 437              	.L27:
 438 0060 D1B2     		uxtb	r1, r2
 439 0062 3A23     		movs	r3, #58
 440 0064 E254     		strb	r2, [r4, r3]
 245:..\src\app/vdm.c **** #endif
 246:..\src\app/vdm.c **** 
 247:..\src\app/vdm.c ****         /* Set a NAK response by default. */
 248:..\src\app/vdm.c ****         app_stat->vdm_resp.do_count = 1 ;
 441              		.loc 1 248 0
 442 0066 0122     		movs	r2, #1
 443 0068 0E3B     		subs	r3, r3, #14
 444 006a E254     		strb	r2, [r4, r3]
 249:..\src\app/vdm.c ****         app_stat->vdm_resp.resp_buf[VDM_HEADER_IDX].std_vdm_hdr.cmd_type = CMD_TYPE_RESP_NAK;
 445              		.loc 1 249 0
 446 006c 237C     		ldrb	r3, [r4, #16]
 447 006e 3E32     		adds	r2, r2, #62
 448 0070 1340     		ands	r3, r2
 449 0072 BF3A     		subs	r2, r2, #191
 450 0074 1343     		orrs	r3, r2
 451 0076 2374     		strb	r3, [r4, #16]
 250:..\src\app/vdm.c **** #if MUX_DELAY_EN
 251:..\src\app/vdm.c ****         /* Save pointer to VDM response handler and set appropriate flag */
 252:..\src\app/vdm.c ****         app_stat->is_vdm_pending = true;
 253:..\src\app/vdm.c ****         app_stat->vdm_resp_cbk = vdm_resp_handler;
 254:..\src\app/vdm.c **** #endif /* MUX_DELAY_EN */
 255:..\src\app/vdm.c **** #if (!CCG_PD_REV3_ENABLE)
 256:..\src\app/vdm.c ****         if(gl_dpm_port_type[port] == PRT_TYPE_UFP)
 257:..\src\app/vdm.c **** #else
 258:..\src\app/vdm.c ****         if ((gl_dpm_port_type[port] == PRT_TYPE_UFP) || (pd3_live))
 452              		.loc 1 258 0
 453 0078 854B     		ldr	r3, .L52+4
 454 007a 5B5D     		ldrb	r3, [r3, r5]
 455 007c 002B     		cmp	r3, #0
 456 007e 03D0     		beq	.L28
 457              		.loc 1 258 0 is_stmt 0 discriminator 1
 458 0080 4346     		mov	r3, r8
 459 0082 002B     		cmp	r3, #0
 460 0084 00D1     		bne	.LCB438
 461 0086 CDE0     		b	.L29	@long jump
 462              	.LCB438:
 463              	.L28:
 259:..\src\app/vdm.c **** #endif /* !CCG_PD_REV3_ENABLE */
 260:..\src\app/vdm.c ****         {
 261:..\src\app/vdm.c ****             /* VDM Commands (D_ID -- EXIT_MODE) should be NAKd if VDO Count in VDM
 262:..\src\app/vdm.c ****              * command is more than one. */
 263:..\src\app/vdm.c ****             if (vdm->len == 1)
 464              		.loc 1 263 0 is_stmt 1
 465 0088 7378     		ldrb	r3, [r6, #1]
 466 008a 012B     		cmp	r3, #1
 467 008c 00D0     		beq	.LCB442
 468 008e A0E0     		b	.L30	@long jump
 469              	.LCB442:
 264:..\src\app/vdm.c ****             {
 265:..\src\app/vdm.c ****                 switch(vdm->dat[VDM_HEADER_IDX].std_vdm_hdr.cmd)
ARM GAS  e:\temp\ccmBVIl7.s 			page 14


 470              		.loc 1 265 0
 471 0090 337A     		ldrb	r3, [r6, #8]
 472 0092 DB06     		lsls	r3, r3, #27
 473 0094 DB0E     		lsrs	r3, r3, #27
 474 0096 062B     		cmp	r3, #6
 475 0098 00D9     		bls	.LCB448
 476 009a 9AE0     		b	.L30	@long jump
 477              	.LCB448:
 478 009c 9B00     		lsls	r3, r3, #2
 479 009e 7D4A     		ldr	r2, .L52+8
 480 00a0 D358     		ldr	r3, [r2, r3]
 481 00a2 9F46     		mov	pc, r3
 482              		.section	.rodata
 483              		.align	2
 484              	.L32:
 485 0000 D2010000 		.word	.L30
 486 0004 A4000000 		.word	.L31
 487 0008 10010000 		.word	.L33
 488 000c 62010000 		.word	.L34
 489 0010 A8010000 		.word	.L35
 490 0014 BA010000 		.word	.L36
 491 0018 CC010000 		.word	.L37
 492              		.section	.text.eval_vdm
 493              	.L31:
 266:..\src\app/vdm.c ****                 {
 267:..\src\app/vdm.c ****                     case VDM_CMD_DSC_IDENTITY:
 268:..\src\app/vdm.c ****                         count = gl_vdm_id_vdo_cnt[port];
 494              		.loc 1 268 0
 495 00a4 7C4B     		ldr	r3, .L52+12
 496 00a6 5B5D     		ldrb	r3, [r3, r5]
 497 00a8 9A46     		mov	r10, r3
 498 00aa 6B46     		mov	r3, sp
 499 00ac 5246     		mov	r2, r10
 500 00ae DA70     		strb	r2, [r3, #3]
 269:..\src\app/vdm.c ****                         if((vdm->dat[VDM_HEADER_IDX].std_vdm_hdr.svid ==  STD_SVID) && (count != 0)
 501              		.loc 1 269 0
 502 00b0 7289     		ldrh	r2, [r6, #10]
 503 00b2 FF23     		movs	r3, #255
 504 00b4 1B02     		lsls	r3, r3, #8
 505 00b6 9A42     		cmp	r2, r3
 506 00b8 00D0     		beq	.LCB470
 507 00ba 8AE0     		b	.L30	@long jump
 508              	.LCB470:
 509              		.loc 1 269 0 is_stmt 0 discriminator 1
 510 00bc 5346     		mov	r3, r10
 511 00be 002B     		cmp	r3, #0
 512 00c0 00D1     		bne	.LCB473
 513 00c2 86E0     		b	.L30	@long jump
 514              	.LCB473:
 270:..\src\app/vdm.c ****                         {
 271:..\src\app/vdm.c ****                             app_stat->vdm_resp.do_count = count;
 515              		.loc 1 271 0 is_stmt 1
 516 00c4 2C23     		movs	r3, #44
 517 00c6 5246     		mov	r2, r10
 518 00c8 E254     		strb	r2, [r4, r3]
 272:..\src\app/vdm.c ****                             dobj = gl_vdm_id_vdo_p[port];
 519              		.loc 1 272 0
ARM GAS  e:\temp\ccmBVIl7.s 			page 15


 520 00ca AB00     		lsls	r3, r5, #2
 521 00cc 724A     		ldr	r2, .L52+12
 522 00ce D318     		adds	r3, r2, r3
 523 00d0 5B68     		ldr	r3, [r3, #4]
 524 00d2 9946     		mov	r9, r3
 525 00d4 0193     		str	r3, [sp, #4]
 526              	.LVL55:
 273:..\src\app/vdm.c ****                             for(i = 0 ; i < count; i++)
 527              		.loc 1 273 0
 528 00d6 0023     		movs	r3, #0
 529 00d8 0BE0     		b	.L38
 530              	.LVL56:
 531              	.L39:
 274:..\src\app/vdm.c ****                             {
 275:..\src\app/vdm.c ****                                 app_stat->vdm_resp.resp_buf[i] = dobj[i];
 532              		.loc 1 275 0 discriminator 3
 533 00da 9A00     		lsls	r2, r3, #2
 534 00dc 9446     		mov	ip, r2
 535 00de 1A1D     		adds	r2, r3, #4
 536 00e0 9200     		lsls	r2, r2, #2
 537 00e2 9346     		mov	fp, r2
 538 00e4 4A46     		mov	r2, r9
 539 00e6 6046     		mov	r0, ip
 540 00e8 1258     		ldr	r2, [r2, r0]
 541 00ea 5846     		mov	r0, fp
 542 00ec 0251     		str	r2, [r0, r4]
 273:..\src\app/vdm.c ****                             for(i = 0 ; i < count; i++)
 543              		.loc 1 273 0 discriminator 3
 544 00ee 0133     		adds	r3, r3, #1
 545              	.LVL57:
 546 00f0 DBB2     		uxtb	r3, r3
 547              	.LVL58:
 548              	.L38:
 273:..\src\app/vdm.c ****                             for(i = 0 ; i < count; i++)
 549              		.loc 1 273 0 is_stmt 0 discriminator 1
 550 00f2 5345     		cmp	r3, r10
 551 00f4 F1D3     		bcc	.L39
 276:..\src\app/vdm.c ****                             }
 277:..\src\app/vdm.c **** 
 278:..\src\app/vdm.c **** #if (CCG_PD_REV3_ENABLE)
 279:..\src\app/vdm.c ****                             /* Mask Product Type (DFP) field when VDM version is 1.0. */
 280:..\src\app/vdm.c ****                             if (app_stat->vdm_version == 0)
 552              		.loc 1 280 0 is_stmt 1
 553 00f6 0029     		cmp	r1, #0
 554 00f8 03D1     		bne	.L40
 281:..\src\app/vdm.c ****                             {
 282:..\src\app/vdm.c ****                                 app_stat->vdm_resp.resp_buf[VDO_START_IDX].std_id_hdr.prod_type_dfp
 555              		.loc 1 282 0
 556 00fa E28A     		ldrh	r2, [r4, #22]
 557 00fc 674B     		ldr	r3, .L52+16
 558              	.LVL59:
 559 00fe 1340     		ands	r3, r2
 560 0100 E382     		strh	r3, [r4, #22]
 561              	.L40:
 283:..\src\app/vdm.c ****                             }
 284:..\src\app/vdm.c **** #else /* !CCG_PD_REV3_ENABLE */
 285:..\src\app/vdm.c ****                             app_stat->vdm_resp.resp_buf[VDO_START_IDX].std_id_hdr.rsvd1 = 0;
ARM GAS  e:\temp\ccmBVIl7.s 			page 16


 286:..\src\app/vdm.c **** #endif /* CCG_PD_REV3_ENABLE */
 287:..\src\app/vdm.c **** 
 288:..\src\app/vdm.c ****                             /* Set VDM Response ACKed */
 289:..\src\app/vdm.c ****                             app_stat->vdm_resp.resp_buf[VDM_HEADER_IDX].std_vdm_hdr.cmd_type = CMD_
 562              		.loc 1 289 0
 563 0102 237C     		ldrb	r3, [r4, #16]
 564 0104 3F22     		movs	r2, #63
 565 0106 1A40     		ands	r2, r3
 566 0108 4023     		movs	r3, #64
 567 010a 1343     		orrs	r3, r2
 568 010c 2374     		strb	r3, [r4, #16]
 569 010e 60E0     		b	.L30
 570              	.L33:
 290:..\src\app/vdm.c ****                         }
 291:..\src\app/vdm.c ****                         break;
 292:..\src\app/vdm.c ****                     case VDM_CMD_DSC_SVIDS:
 293:..\src\app/vdm.c ****                         count = gl_vdm_svid_vdo_cnt[port];
 571              		.loc 1 293 0
 572 0110 614B     		ldr	r3, .L52+12
 573 0112 5B19     		adds	r3, r3, r5
 574 0114 197B     		ldrb	r1, [r3, #12]
 575 0116 6B46     		mov	r3, sp
 576 0118 D970     		strb	r1, [r3, #3]
 294:..\src\app/vdm.c ****                         if((vdm->dat[VDM_HEADER_IDX].std_vdm_hdr.svid == STD_SVID) && (count != 0))
 577              		.loc 1 294 0
 578 011a 7289     		ldrh	r2, [r6, #10]
 579 011c FF23     		movs	r3, #255
 580 011e 1B02     		lsls	r3, r3, #8
 581 0120 9A42     		cmp	r2, r3
 582 0122 56D1     		bne	.L30
 583              		.loc 1 294 0 is_stmt 0 discriminator 1
 584 0124 0029     		cmp	r1, #0
 585 0126 54D0     		beq	.L30
 295:..\src\app/vdm.c ****                         {
 296:..\src\app/vdm.c ****                             app_stat->vdm_resp.do_count = count;
 586              		.loc 1 296 0 is_stmt 1
 587 0128 2C23     		movs	r3, #44
 588 012a E154     		strb	r1, [r4, r3]
 297:..\src\app/vdm.c ****                             dobj = gl_vdm_svid_vdo_p[port];
 589              		.loc 1 297 0
 590 012c AB00     		lsls	r3, r5, #2
 591 012e 5A4A     		ldr	r2, .L52+12
 592 0130 D318     		adds	r3, r2, r3
 593 0132 1B69     		ldr	r3, [r3, #16]
 594 0134 9C46     		mov	ip, r3
 595 0136 0193     		str	r3, [sp, #4]
 596              	.LVL60:
 298:..\src\app/vdm.c ****                             for(i = 0 ; i < count; i++)
 597              		.loc 1 298 0
 598 0138 0023     		movs	r3, #0
 599 013a 09E0     		b	.L41
 600              	.LVL61:
 601              	.L42:
 299:..\src\app/vdm.c ****                             {
 300:..\src\app/vdm.c ****                                 app_stat->vdm_resp.resp_buf[i] = dobj[i];
 602              		.loc 1 300 0 discriminator 3
 603 013c 9800     		lsls	r0, r3, #2
ARM GAS  e:\temp\ccmBVIl7.s 			page 17


 604 013e 1A1D     		adds	r2, r3, #4
 605 0140 9200     		lsls	r2, r2, #2
 606 0142 9146     		mov	r9, r2
 607 0144 6246     		mov	r2, ip
 608 0146 1258     		ldr	r2, [r2, r0]
 609 0148 4846     		mov	r0, r9
 610 014a 0251     		str	r2, [r0, r4]
 298:..\src\app/vdm.c ****                             for(i = 0 ; i < count; i++)
 611              		.loc 1 298 0 discriminator 3
 612 014c 0133     		adds	r3, r3, #1
 613              	.LVL62:
 614 014e DBB2     		uxtb	r3, r3
 615              	.LVL63:
 616              	.L41:
 298:..\src\app/vdm.c ****                             for(i = 0 ; i < count; i++)
 617              		.loc 1 298 0 is_stmt 0 discriminator 1
 618 0150 8B42     		cmp	r3, r1
 619 0152 F3D3     		bcc	.L42
 301:..\src\app/vdm.c ****                             }
 302:..\src\app/vdm.c ****                             /* Set VDM Response ACKed */
 303:..\src\app/vdm.c ****                             app_stat->vdm_resp.resp_buf[VDM_HEADER_IDX].std_vdm_hdr.cmd_type = CMD_
 620              		.loc 1 303 0 is_stmt 1
 621 0154 237C     		ldrb	r3, [r4, #16]
 622              	.LVL64:
 623 0156 3F22     		movs	r2, #63
 624 0158 1A40     		ands	r2, r3
 625 015a 4023     		movs	r3, #64
 626 015c 1343     		orrs	r3, r2
 627 015e 2374     		strb	r3, [r4, #16]
 628 0160 37E0     		b	.L30
 629              	.L34:
 304:..\src\app/vdm.c ****                         }
 305:..\src\app/vdm.c ****                         break;
 306:..\src\app/vdm.c ****                     case VDM_CMD_DSC_MODES:
 307:..\src\app/vdm.c ****                         eval_rslt = get_modes_vdo_info (port, vdm->dat[VDM_HEADER_IDX].std_vdm_hdr.
 630              		.loc 1 307 0
 631 0162 7189     		ldrh	r1, [r6, #10]
 632 0164 6B46     		mov	r3, sp
 633 0166 0333     		adds	r3, r3, #3
 634 0168 01AA     		add	r2, sp, #4
 635 016a 2800     		movs	r0, r5
 636 016c FFF7FEFF 		bl	get_modes_vdo_info
 637              	.LVL65:
 308:..\src\app/vdm.c ****                             &dobj, &count);
 309:..\src\app/vdm.c ****                         if (eval_rslt == true)
 638              		.loc 1 309 0
 639 0170 0028     		cmp	r0, #0
 640 0172 2ED0     		beq	.L30
 310:..\src\app/vdm.c ****                         {
 311:..\src\app/vdm.c ****                             app_stat->vdm_resp.do_count = count;
 641              		.loc 1 311 0
 642 0174 6B46     		mov	r3, sp
 643 0176 0333     		adds	r3, r3, #3
 644 0178 1B78     		ldrb	r3, [r3]
 645 017a 9C46     		mov	ip, r3
 646 017c 2C23     		movs	r3, #44
 647 017e 6246     		mov	r2, ip
ARM GAS  e:\temp\ccmBVIl7.s 			page 18


 648 0180 E254     		strb	r2, [r4, r3]
 649              	.LVL66:
 312:..\src\app/vdm.c ****                             for (i = 0; i < count; i++)
 650              		.loc 1 312 0
 651 0182 0023     		movs	r3, #0
 652 0184 07E0     		b	.L43
 653              	.LVL67:
 654              	.L44:
 313:..\src\app/vdm.c ****                             {
 314:..\src\app/vdm.c ****                                 app_stat->vdm_resp.resp_buf[i] = dobj[i];
 655              		.loc 1 314 0 discriminator 3
 656 0186 9900     		lsls	r1, r3, #2
 657 0188 1A1D     		adds	r2, r3, #4
 658 018a 9200     		lsls	r2, r2, #2
 659 018c 0198     		ldr	r0, [sp, #4]
 660 018e 4158     		ldr	r1, [r0, r1]
 661 0190 1151     		str	r1, [r2, r4]
 312:..\src\app/vdm.c ****                             for (i = 0; i < count; i++)
 662              		.loc 1 312 0 discriminator 3
 663 0192 0133     		adds	r3, r3, #1
 664              	.LVL68:
 665 0194 DBB2     		uxtb	r3, r3
 666              	.LVL69:
 667              	.L43:
 312:..\src\app/vdm.c ****                             for (i = 0; i < count; i++)
 668              		.loc 1 312 0 is_stmt 0 discriminator 1
 669 0196 6345     		cmp	r3, ip
 670 0198 F5D3     		bcc	.L44
 315:..\src\app/vdm.c ****                             }
 316:..\src\app/vdm.c **** #if DP_GPIO_CONFIG_SELECT
 317:..\src\app/vdm.c ****                             /*
 318:..\src\app/vdm.c ****                              * For GPIO based DP Pin configuration selection, update the
 319:..\src\app/vdm.c ****                              * response based on GPIO status.
 320:..\src\app/vdm.c ****                              */
 321:..\src\app/vdm.c ****                             if (vdm->dat[VDM_HEADER_IDX].std_vdm_hdr.svid == DP_SVID)
 322:..\src\app/vdm.c ****                             {
 323:..\src\app/vdm.c ****                                 app_stat->vdm_resp.resp_buf[1].std_dp_vdo.dfp_d_pin = dp_sink_get_p
 324:..\src\app/vdm.c ****                             }
 325:..\src\app/vdm.c **** #endif /* DP_GPIO_CONFIG_SELECT */
 326:..\src\app/vdm.c ****                             /* Set VDM Response ACKed */
 327:..\src\app/vdm.c ****                             app_stat->vdm_resp.resp_buf[VDM_HEADER_IDX].std_vdm_hdr.cmd_type = CMD_
 671              		.loc 1 327 0 is_stmt 1
 672 019a 237C     		ldrb	r3, [r4, #16]
 673              	.LVL70:
 674 019c 3F22     		movs	r2, #63
 675 019e 1A40     		ands	r2, r3
 676 01a0 4023     		movs	r3, #64
 677 01a2 1343     		orrs	r3, r2
 678 01a4 2374     		strb	r3, [r4, #16]
 679 01a6 14E0     		b	.L30
 680              	.L35:
 328:..\src\app/vdm.c ****                         }
 329:..\src\app/vdm.c ****                         break;
 330:..\src\app/vdm.c ****                     case VDM_CMD_ENTER_MODE:
 331:..\src\app/vdm.c **** #if CCG_HPI_PD_ENABLE
 332:..\src\app/vdm.c ****                         if (hpi_is_vdm_ec_ctrl_enabled (port))
 681              		.loc 1 332 0
ARM GAS  e:\temp\ccmBVIl7.s 			page 19


 682 01a8 2800     		movs	r0, r5
 683 01aa FFF7FEFF 		bl	hpi_is_vdm_ec_ctrl_enabled
 684              	.LVL71:
 685 01ae 0028     		cmp	r0, #0
 686 01b0 0FD0     		beq	.L30
 333:..\src\app/vdm.c ****                         {
 334:..\src\app/vdm.c ****                             app_stat->vdm_resp.no_resp = VDM_AMS_RESP_FROM_EC;
 687              		.loc 1 334 0
 688 01b2 0222     		movs	r2, #2
 689 01b4 2D23     		movs	r3, #45
 690 01b6 E254     		strb	r2, [r4, r3]
 691 01b8 0BE0     		b	.L30
 692              	.L36:
 335:..\src\app/vdm.c ****                         }
 336:..\src\app/vdm.c **** #endif /* CCG_HPI_PD_ENABLE */
 337:..\src\app/vdm.c ****                         break;
 338:..\src\app/vdm.c **** 
 339:..\src\app/vdm.c ****                     case VDM_CMD_EXIT_MODE:
 340:..\src\app/vdm.c **** #if CCG_HPI_PD_ENABLE
 341:..\src\app/vdm.c ****                         if (hpi_is_vdm_ec_ctrl_enabled (port))
 693              		.loc 1 341 0
 694 01ba 2800     		movs	r0, r5
 695 01bc FFF7FEFF 		bl	hpi_is_vdm_ec_ctrl_enabled
 696              	.LVL72:
 697 01c0 0028     		cmp	r0, #0
 698 01c2 06D0     		beq	.L30
 342:..\src\app/vdm.c ****                         {
 343:..\src\app/vdm.c ****                             app_stat->vdm_resp.no_resp = VDM_AMS_RESP_FROM_EC;
 699              		.loc 1 343 0
 700 01c4 0222     		movs	r2, #2
 701 01c6 2D23     		movs	r3, #45
 702 01c8 E254     		strb	r2, [r4, r3]
 703 01ca 02E0     		b	.L30
 704              	.L37:
 344:..\src\app/vdm.c ****                         }
 345:..\src\app/vdm.c **** #endif /* CCG_HPI_PD_ENABLE */
 346:..\src\app/vdm.c ****                         break;
 347:..\src\app/vdm.c **** 
 348:..\src\app/vdm.c ****                     case VDM_CMD_ATTENTION:
 349:..\src\app/vdm.c ****                         /* Ignore Attention VDM */
 350:..\src\app/vdm.c ****                         app_stat->vdm_resp.no_resp = VDM_AMS_RESP_NOT_REQ;
 705              		.loc 1 350 0
 706 01cc 0122     		movs	r2, #1
 707 01ce 2D23     		movs	r3, #45
 708 01d0 E254     		strb	r2, [r4, r3]
 709              	.L30:
 351:..\src\app/vdm.c ****                         break;
 352:..\src\app/vdm.c ****                     default:
 353:..\src\app/vdm.c ****                         break;
 354:..\src\app/vdm.c ****                 }
 355:..\src\app/vdm.c ****             }
 356:..\src\app/vdm.c **** 
 357:..\src\app/vdm.c ****             /* Under PD2, handle VDMs based on VDM manager functionality. */
 358:..\src\app/vdm.c **** #if CCG_PD_REV3_ENABLE
 359:..\src\app/vdm.c ****             if (!pd3_live)
 710              		.loc 1 359 0
 711 01d2 4346     		mov	r3, r8
ARM GAS  e:\temp\ccmBVIl7.s 			page 20


 712 01d4 002B     		cmp	r3, #0
 713 01d6 35D0     		beq	.L45
 360:..\src\app/vdm.c **** #endif /* CCG_PD_REV3_ENABLE */
 361:..\src\app/vdm.c ****             {
 362:..\src\app/vdm.c **** #if UFP_ALT_MODE_SUPP
 363:..\src\app/vdm.c ****                 if (
 364:..\src\app/vdm.c ****                         (vdm->dat[VDM_HEADER_IDX].std_vdm_hdr.svid != STD_SVID) &&
 365:..\src\app/vdm.c ****                         (vdm->dat[VDM_HEADER_IDX].std_vdm_hdr.cmd != VDM_CMD_ATTENTION)
 366:..\src\app/vdm.c ****                    )
 367:..\src\app/vdm.c ****                 {
 368:..\src\app/vdm.c ****                     /* If DFP cmd processed success */
 369:..\src\app/vdm.c ****                     if (eval_rec_vdm(port, vdm))
 370:..\src\app/vdm.c ****                     {
 371:..\src\app/vdm.c ****                         /* Set VDM Response ACKed */
 372:..\src\app/vdm.c ****                         app_stat->vdm_resp.resp_buf[VDM_HEADER_IDX].std_vdm_hdr.cmd_type = CMD_TYPE
 373:..\src\app/vdm.c ****                     }
 374:..\src\app/vdm.c ****                 }
 375:..\src\app/vdm.c **** #endif /* UFP_ALT_MODE_SUPP */
 376:..\src\app/vdm.c ****             }
 377:..\src\app/vdm.c **** #if CCG_PD_REV3_ENABLE
 378:..\src\app/vdm.c ****             else
 379:..\src\app/vdm.c ****             {
 380:..\src\app/vdm.c **** #if ((DFP_ALT_MODE_SUPP) || (UFP_ALT_MODE_SUPP))
 381:..\src\app/vdm.c ****                 if (gl_dpm_port_type[port] != PRT_TYPE_UFP)
 714              		.loc 1 381 0
 715 01d8 2D4B     		ldr	r3, .L52+4
 716 01da 5B5D     		ldrb	r3, [r3, r5]
 717 01dc 002B     		cmp	r3, #0
 718 01de 14D0     		beq	.L46
 382:..\src\app/vdm.c ****                 {
 383:..\src\app/vdm.c ****                     if ((vdm->dat[VDM_HEADER_IDX].std_vdm_hdr.cmd == VDM_CMD_ENTER_MODE) ||
 719              		.loc 1 383 0
 720 01e0 337A     		ldrb	r3, [r6, #8]
 721 01e2 1F22     		movs	r2, #31
 722 01e4 1340     		ands	r3, r2
 723 01e6 1A1F     		subs	r2, r3, #4
 724 01e8 D2B2     		uxtb	r2, r2
 725 01ea 012A     		cmp	r2, #1
 726 01ec 03D8     		bhi	.L47
 384:..\src\app/vdm.c ****                             (vdm->dat[VDM_HEADER_IDX].std_vdm_hdr.cmd == VDM_CMD_EXIT_MODE))
 385:..\src\app/vdm.c ****                     {
 386:..\src\app/vdm.c ****                         app_stat->vdm_resp.no_resp = VDM_AMS_RESP_NOT_REQ;
 727              		.loc 1 386 0
 728 01ee 0122     		movs	r2, #1
 729 01f0 2D23     		movs	r3, #45
 730 01f2 E254     		strb	r2, [r4, r3]
 731 01f4 26E0     		b	.L45
 732              	.L47:
 387:..\src\app/vdm.c ****                     }
 388:..\src\app/vdm.c ****                     else
 389:..\src\app/vdm.c ****                     {
 390:..\src\app/vdm.c ****                         if (vdm->dat[VDM_HEADER_IDX].std_vdm_hdr.cmd == VDM_CMD_ATTENTION)
 733              		.loc 1 390 0
 734 01f6 062B     		cmp	r3, #6
 735 01f8 02D1     		bne	.L48
 391:..\src\app/vdm.c ****                         {
 392:..\src\app/vdm.c ****                             app_stat->vdm_resp.no_resp = VDM_AMS_RESP_NOT_REQ;
ARM GAS  e:\temp\ccmBVIl7.s 			page 21


 736              		.loc 1 392 0
 737 01fa 0122     		movs	r2, #1
 738 01fc 2733     		adds	r3, r3, #39
 739 01fe E254     		strb	r2, [r4, r3]
 740              	.L48:
 393:..\src\app/vdm.c ****                         }
 394:..\src\app/vdm.c ****                         eval_rec_vdm(port, vdm);
 741              		.loc 1 394 0
 742 0200 3100     		movs	r1, r6
 743 0202 2800     		movs	r0, r5
 744 0204 FFF7FEFF 		bl	eval_rec_vdm
 745              	.LVL73:
 746 0208 1CE0     		b	.L45
 747              	.L46:
 395:..\src\app/vdm.c ****                     }
 396:..\src\app/vdm.c ****                 }
 397:..\src\app/vdm.c ****                 else
 398:..\src\app/vdm.c ****                 {
 399:..\src\app/vdm.c ****                     /* If received cmd processed success */
 400:..\src\app/vdm.c ****                     if (eval_rec_vdm(port, vdm) == true)
 748              		.loc 1 400 0
 749 020a 3100     		movs	r1, r6
 750 020c 2800     		movs	r0, r5
 751 020e FFF7FEFF 		bl	eval_rec_vdm
 752              	.LVL74:
 753 0212 0028     		cmp	r0, #0
 754 0214 16D0     		beq	.L45
 401:..\src\app/vdm.c ****                     {
 402:..\src\app/vdm.c ****                         /* Set VDM Response ACKed */
 403:..\src\app/vdm.c ****                         app_stat->vdm_resp.resp_buf[VDM_HEADER_IDX].std_vdm_hdr.cmd_type = CMD_TYPE
 755              		.loc 1 403 0
 756 0216 237C     		ldrb	r3, [r4, #16]
 757 0218 3F22     		movs	r2, #63
 758 021a 1340     		ands	r3, r2
 759 021c 4022     		movs	r2, #64
 760 021e 1343     		orrs	r3, r2
 761 0220 2374     		strb	r3, [r4, #16]
 762 0222 0FE0     		b	.L45
 763              	.L29:
 404:..\src\app/vdm.c ****                     }
 405:..\src\app/vdm.c ****                 }
 406:..\src\app/vdm.c **** #endif /* (DFP_ALT_MODE_SUPP) || (UFP_ALT_MODE_SUPP) */
 407:..\src\app/vdm.c ****             }
 408:..\src\app/vdm.c **** #endif /* CCG_PD_REV3_ENABLE */
 409:..\src\app/vdm.c ****         }
 410:..\src\app/vdm.c ****         else
 411:..\src\app/vdm.c ****         {
 412:..\src\app/vdm.c **** #if DFP_ALT_MODE_SUPP
 413:..\src\app/vdm.c ****             if ((vdm->dat[VDM_HEADER_IDX].std_vdm_hdr.cmd == VDM_CMD_ATTENTION) && (app_stat->vdm_t
 764              		.loc 1 413 0
 765 0224 337A     		ldrb	r3, [r6, #8]
 766 0226 1F22     		movs	r2, #31
 767 0228 1340     		ands	r3, r2
 768 022a 062B     		cmp	r3, #6
 769 022c 07D1     		bne	.L49
 770              		.loc 1 413 0 is_stmt 0 discriminator 1
 771 022e 3233     		adds	r3, r3, #50
ARM GAS  e:\temp\ccmBVIl7.s 			page 22


 772 0230 E35C     		ldrb	r3, [r4, r3]
 773 0232 012B     		cmp	r3, #1
 774 0234 03D1     		bne	.L49
 414:..\src\app/vdm.c ****             {
 415:..\src\app/vdm.c ****                 /* evaluate attention VDM */
 416:..\src\app/vdm.c ****                 eval_rec_vdm(port, vdm);
 775              		.loc 1 416 0 is_stmt 1
 776 0236 3100     		movs	r1, r6
 777 0238 2800     		movs	r0, r5
 778 023a FFF7FEFF 		bl	eval_rec_vdm
 779              	.LVL75:
 780              	.L49:
 417:..\src\app/vdm.c ****             }
 418:..\src\app/vdm.c **** #endif /* DFP_ALT_MODE_SUPP */
 419:..\src\app/vdm.c **** 
 420:..\src\app/vdm.c ****             /* No response to VDMs received on PD 2.0 connection while in DFP state. */
 421:..\src\app/vdm.c ****             app_stat->vdm_resp.no_resp = VDM_AMS_RESP_NOT_REQ;
 781              		.loc 1 421 0
 782 023e 0122     		movs	r2, #1
 783 0240 2D23     		movs	r3, #45
 784 0242 E254     		strb	r2, [r4, r3]
 785              	.L45:
 422:..\src\app/vdm.c ****         }
 423:..\src\app/vdm.c **** 
 424:..\src\app/vdm.c ****         /* Set the VDM version for the response. */
 425:..\src\app/vdm.c ****         app_stat->vdm_resp.resp_buf[VDM_HEADER_IDX].std_vdm_hdr.st_ver = app_stat->vdm_version;
 786              		.loc 1 425 0
 787 0244 3A23     		movs	r3, #58
 788 0246 E35C     		ldrb	r3, [r4, r3]
 789 0248 0322     		movs	r2, #3
 790 024a 1340     		ands	r3, r2
 791 024c 5A01     		lsls	r2, r3, #5
 792 024e 637C     		ldrb	r3, [r4, #17]
 793 0250 6021     		movs	r1, #96
 794 0252 8B43     		bics	r3, r1
 795 0254 1343     		orrs	r3, r2
 796 0256 6374     		strb	r3, [r4, #17]
 797 0258 0DE0     		b	.L50
 798              	.L26:
 426:..\src\app/vdm.c ****     }
 427:..\src\app/vdm.c ****     else
 428:..\src\app/vdm.c ****     {
 429:..\src\app/vdm.c **** #if (FLASHING_MODE_PD_ENABLE == 1)
 430:..\src\app/vdm.c ****         /* Pass the VDM to U_VDM handler */
 431:..\src\app/vdm.c ****         response_state = uvdm_handle_cmd ((uint32_t *)(&vdm->hdr), &dobj, &count,
 432:..\src\app/vdm.c ****             uvdm_nb_flash_write_cb);
 433:..\src\app/vdm.c ****         /* Response is ready. Notify PD. */
 434:..\src\app/vdm.c ****         if (response_state == UVDM_HANDLED_RESPONSE_READY)
 435:..\src\app/vdm.c ****         {
 436:..\src\app/vdm.c ****             app_stat->vdm_resp.do_count = count;
 437:..\src\app/vdm.c ****             for (i = 0; i < count; i++)
 438:..\src\app/vdm.c ****             {
 439:..\src\app/vdm.c ****                 app_stat->vdm_resp.resp_buf[i] = dobj[i];
 440:..\src\app/vdm.c ****             }
 441:..\src\app/vdm.c ****         }
 442:..\src\app/vdm.c ****         /* No response to UVDM. */
 443:..\src\app/vdm.c ****         else if (response_state == UVDM_HANDLED_NO_RESPONSE)
ARM GAS  e:\temp\ccmBVIl7.s 			page 23


 444:..\src\app/vdm.c ****         {
 445:..\src\app/vdm.c ****            /* Ignore Unstructured VDM response. */
 446:..\src\app/vdm.c ****             app_stat->vdm_resp.no_resp = VDM_AMS_RESP_FROM_EC;
 447:..\src\app/vdm.c ****         }
 448:..\src\app/vdm.c ****         /* UVDM not recognized by default UVDM handler. */
 449:..\src\app/vdm.c ****         else if (response_state == UVDM_NOT_HANDLED)
 450:..\src\app/vdm.c ****         {
 451:..\src\app/vdm.c ****             /*
 452:..\src\app/vdm.c ****              * This is the default implementation to handle UVDM commands which are
 453:..\src\app/vdm.c ****              * not recognized by CY UVDM handler. User can update this with custom
 454:..\src\app/vdm.c ****              * handlers.
 455:..\src\app/vdm.c ****              */
 456:..\src\app/vdm.c **** 
 457:..\src\app/vdm.c ****             /* If SVID is Flashing VID, respond with NAK. */
 458:..\src\app/vdm.c ****             if (vdm->dat[VDM_HEADER_IDX].std_vdm_hdr.svid ==
 459:..\src\app/vdm.c ****                 get_pd_config()->flashing_vid)
 460:..\src\app/vdm.c ****             {
 461:..\src\app/vdm.c ****                 app_stat->vdm_resp.resp_buf[VDM_HEADER_IDX].val =
 462:..\src\app/vdm.c ****                     vdm->dat[VDM_HEADER_IDX].val;
 463:..\src\app/vdm.c ****                 app_stat->vdm_resp.resp_buf[VDM_HEADER_IDX].ustd_vdm_hdr.cmd_type
 464:..\src\app/vdm.c ****                     = CMD_TYPE_RESP_NAK;
 465:..\src\app/vdm.c ****                 app_stat->vdm_resp.do_count = 1;
 466:..\src\app/vdm.c ****             }
 467:..\src\app/vdm.c ****             else
 468:..\src\app/vdm.c ****             {
 469:..\src\app/vdm.c ****                 /* Invoke non-CY UVDM handlers here. */
 470:..\src\app/vdm.c **** #if QC_4_0_ENABLE
 471:..\src\app/vdm.c ****                 /* QC 4.0 UVDM handling. */
 472:..\src\app/vdm.c ****                 response_state = uvdm_qc_4_0_handler(port, (uint32_t *)(&vdm->hdr),
 473:..\src\app/vdm.c ****                     &dobj, &count);
 474:..\src\app/vdm.c ****                 if (response_state == UVDM_HANDLED_RESPONSE_READY)
 475:..\src\app/vdm.c ****                 {
 476:..\src\app/vdm.c ****                     app_stat->vdm_resp.do_count = count;
 477:..\src\app/vdm.c ****                     for (i = 0; i < count; i++)
 478:..\src\app/vdm.c ****                     {
 479:..\src\app/vdm.c ****                         app_stat->vdm_resp.resp_buf[i] = dobj[i];
 480:..\src\app/vdm.c ****                     }
 481:..\src\app/vdm.c ****                 }
 482:..\src\app/vdm.c ****                 /* No response to UVDM. */
 483:..\src\app/vdm.c ****                 else if (response_state == UVDM_HANDLED_NO_RESPONSE)
 484:..\src\app/vdm.c ****                 {
 485:..\src\app/vdm.c ****                    /* Ignore Unstructured VDM response. */
 486:..\src\app/vdm.c ****                     app_stat->vdm_resp.no_resp = VDM_AMS_RESP_FROM_EC;
 487:..\src\app/vdm.c ****                 }
 488:..\src\app/vdm.c **** #endif /* QC_4_0_ENABLE */
 489:..\src\app/vdm.c **** 
 490:..\src\app/vdm.c ****                 if (response_state == UVDM_NOT_HANDLED)
 491:..\src\app/vdm.c ****                 {
 492:..\src\app/vdm.c **** 
 493:..\src\app/vdm.c ****                     /*
 494:..\src\app/vdm.c ****                      * SVID is not Recognized. Ignore if PD contract is PD 2.0.
 495:..\src\app/vdm.c ****                      * Send Not_Supported if Contract is PD 3.0.
 496:..\src\app/vdm.c ****                      */
 497:..\src\app/vdm.c **** 
 498:..\src\app/vdm.c ****                     /* No VDM response required. */
 499:..\src\app/vdm.c ****                     app_stat->vdm_resp.no_resp = VDM_AMS_RESP_NOT_REQ;
 500:..\src\app/vdm.c **** #if CCG_PD_REV3_ENABLE
ARM GAS  e:\temp\ccmBVIl7.s 			page 24


 501:..\src\app/vdm.c ****                     if (pd3_live)
 502:..\src\app/vdm.c ****                     {
 503:..\src\app/vdm.c ****                         /* PD 3.0 Contract: Respond with Not_Supported. */
 504:..\src\app/vdm.c ****                         app_stat->vdm_resp.no_resp = VDM_AMS_RESP_NOT_SUPP;
 505:..\src\app/vdm.c ****                     }
 506:..\src\app/vdm.c **** #endif /* CCG_PD_REV3_ENABLE */
 507:..\src\app/vdm.c ****                 }
 508:..\src\app/vdm.c ****             }
 509:..\src\app/vdm.c ****         }
 510:..\src\app/vdm.c ****         /* UVDM handled but response will be sent later. */
 511:..\src\app/vdm.c ****         else
 512:..\src\app/vdm.c ****         {
 513:..\src\app/vdm.c ****             /* Ignore. */
 514:..\src\app/vdm.c ****             return;
 515:..\src\app/vdm.c ****         }
 516:..\src\app/vdm.c **** #else /* (FLASHING_MODE_PD_ENABLE != 1) */
 517:..\src\app/vdm.c ****   #if UVDM_SUPP
 518:..\src\app/vdm.c ****         if (gl_dpm_port_type[port] == PRT_TYPE_UFP)
 519:..\src\app/vdm.c ****         {
 520:..\src\app/vdm.c ****             if (eval_rec_vdm(port, vdm) == false)
 521:..\src\app/vdm.c ****             {
 522:..\src\app/vdm.c ****                 /* If UVDM not successed then ignore this UVDM */
 523:..\src\app/vdm.c ****                 app_stat->vdm_resp.no_resp = VDM_AMS_RESP_FROM_EC;
 524:..\src\app/vdm.c ****             }
 525:..\src\app/vdm.c ****         }
 526:..\src\app/vdm.c ****   #else /* !UVDM_SUPP */
 527:..\src\app/vdm.c **** 
 528:..\src\app/vdm.c ****         /* Set response type as Wait for EC to allow the response to be sent at a later time. */
 529:..\src\app/vdm.c ****         app_stat->vdm_resp.no_resp = VDM_AMS_RESP_FROM_EC;
 799              		.loc 1 529 0
 800 025a 0222     		movs	r2, #2
 801 025c 2D23     		movs	r3, #45
 802 025e E254     		strb	r2, [r4, r3]
 530:..\src\app/vdm.c **** 
 531:..\src\app/vdm.c ****     #if (CCG_PD_REV3_ENABLE)
 532:..\src\app/vdm.c ****       #if (CCG_HPI_PD_ENABLE)
 533:..\src\app/vdm.c ****         if (!hpi_is_vdm_ec_ctrl_enabled (port))
 803              		.loc 1 533 0
 804 0260 2800     		movs	r0, r5
 805 0262 FFF7FEFF 		bl	hpi_is_vdm_ec_ctrl_enabled
 806              	.LVL76:
 807 0266 0028     		cmp	r0, #0
 808 0268 05D1     		bne	.L50
 534:..\src\app/vdm.c ****       #endif /* (CCG_HPI_PD_ENABLE) */
 535:..\src\app/vdm.c ****         {
 536:..\src\app/vdm.c ****             if (pd3_live)
 809              		.loc 1 536 0
 810 026a 4346     		mov	r3, r8
 811 026c 002B     		cmp	r3, #0
 812 026e 02D0     		beq	.L50
 537:..\src\app/vdm.c ****             {
 538:..\src\app/vdm.c ****                 /* PD 3.0 Contract: Respond with Not_Supported. */
 539:..\src\app/vdm.c ****                 app_stat->vdm_resp.no_resp = VDM_AMS_RESP_NOT_SUPP;
 813              		.loc 1 539 0
 814 0270 0322     		movs	r2, #3
 815 0272 2D23     		movs	r3, #45
 816 0274 E254     		strb	r2, [r4, r3]
ARM GAS  e:\temp\ccmBVIl7.s 			page 25


 817              	.L50:
 540:..\src\app/vdm.c ****             }
 541:..\src\app/vdm.c ****         }
 542:..\src\app/vdm.c ****     #endif /* (CCG_PD_REV3_ENABLE) */
 543:..\src\app/vdm.c **** 
 544:..\src\app/vdm.c ****   #endif /* UVDM_SUPP */
 545:..\src\app/vdm.c **** #endif /* FLASHING_MODE_PD_ENABLE */
 546:..\src\app/vdm.c ****     }
 547:..\src\app/vdm.c **** 
 548:..\src\app/vdm.c **** #if MUX_DELAY_EN
 549:..\src\app/vdm.c ****     /* Send VDM response only when MUX is idle or alt mode response is NACK */
 550:..\src\app/vdm.c ****     if (
 551:..\src\app/vdm.c ****             (app_stat->vdm_resp.resp_buf[VDM_HEADER_IDX].std_vdm_hdr.cmd_type != CMD_TYPE_RESP_ACK)
 552:..\src\app/vdm.c ****             (app_stat->is_mux_busy == false)
 553:..\src\app/vdm.c ****        )
 554:..\src\app/vdm.c ****     {
 555:..\src\app/vdm.c ****         vdm_resp_handler(port, &app_stat->vdm_resp);
 556:..\src\app/vdm.c ****         app_stat->is_vdm_pending = false;
 557:..\src\app/vdm.c ****     }
 558:..\src\app/vdm.c **** #else
 559:..\src\app/vdm.c ****     vdm_resp_handler(port, &app_stat->vdm_resp);
 818              		.loc 1 559 0
 819 0276 2100     		movs	r1, r4
 820 0278 1031     		adds	r1, r1, #16
 821 027a 2800     		movs	r0, r5
 822 027c B847     		blx	r7
 823              	.LVL77:
 560:..\src\app/vdm.c **** #endif /* MUX_DELAY_EN */
 561:..\src\app/vdm.c **** }
 824              		.loc 1 561 0
 825 027e 03B0     		add	sp, sp, #12
 826              		@ sp needed
 827              	.LVL78:
 828              	.LVL79:
 829              	.LVL80:
 830              	.LVL81:
 831 0280 3CBC     		pop	{r2, r3, r4, r5}
 832 0282 9046     		mov	r8, r2
 833 0284 9946     		mov	r9, r3
 834 0286 A246     		mov	r10, r4
 835 0288 AB46     		mov	fp, r5
 836 028a F0BD     		pop	{r4, r5, r6, r7, pc}
 837              	.L53:
 838              		.align	2
 839              	.L52:
 840 028c C080FFFF 		.word	-32576
 841 0290 00000000 		.word	gl_dpm_port_type
 842 0294 00000000 		.word	.L32
 843 0298 00000000 		.word	.LANCHOR0
 844 029c 7FFCFFFF 		.word	-897
 845              		.cfi_endproc
 846              	.LFE36:
 847              		.size	eval_vdm, .-eval_vdm
 848              		.global	uvdm_nb_flash_write_cb
 849              		.bss
 850              		.align	2
 851              		.set	.LANCHOR0,. + 0
ARM GAS  e:\temp\ccmBVIl7.s 			page 26


 852              		.type	gl_vdm_id_vdo_cnt, %object
 853              		.size	gl_vdm_id_vdo_cnt, 2
 854              	gl_vdm_id_vdo_cnt:
 855 0000 0000     		.space	2
 856 0002 0000     		.space	2
 857              		.type	gl_vdm_id_vdo_p, %object
 858              		.size	gl_vdm_id_vdo_p, 8
 859              	gl_vdm_id_vdo_p:
 860 0004 00000000 		.space	8
 860      00000000 
 861              		.type	gl_vdm_svid_vdo_cnt, %object
 862              		.size	gl_vdm_svid_vdo_cnt, 2
 863              	gl_vdm_svid_vdo_cnt:
 864 000c 0000     		.space	2
 865 000e 0000     		.space	2
 866              		.type	gl_vdm_svid_vdo_p, %object
 867              		.size	gl_vdm_svid_vdo_p, 8
 868              	gl_vdm_svid_vdo_p:
 869 0010 00000000 		.space	8
 869      00000000 
 870              		.type	gl_vdm_mode_data_len, %object
 871              		.size	gl_vdm_mode_data_len, 4
 872              	gl_vdm_mode_data_len:
 873 0018 00000000 		.space	4
 874              		.type	gl_vdm_mode_data_p, %object
 875              		.size	gl_vdm_mode_data_p, 8
 876              	gl_vdm_mode_data_p:
 877 001c 00000000 		.space	8
 877      00000000 
 878              		.type	uvdm_nb_flash_write_cb, %object
 879              		.size	uvdm_nb_flash_write_cb, 4
 880              	uvdm_nb_flash_write_cb:
 881 0024 00000000 		.space	4
 882              		.text
 883              	.Letext0:
 884              		.file 2 "e:\\cypress\\psoc creator\\4.2\\psoc creator\\import\\gnu\\arm\\5.4.1\\arm-none-eabi\\inc
 885              		.file 3 "e:\\cypress\\psoc creator\\4.2\\psoc creator\\import\\gnu\\arm\\5.4.1\\arm-none-eabi\\inc
 886              		.file 4 "..\\src\\pd_common/pd.h"
 887              		.file 5 "..\\src\\app\\alt_mode/alt_mode_hw.h"
 888              		.file 6 "..\\src\\app/app.h"
 889              		.file 7 "..\\src\\pd_common/dpm.h"
 890              		.file 8 "..\\src\\hpiss/hpi.h"
 891              		.file 9 "..\\src\\app\\alt_mode/alt_modes_mngr.h"