ARM GAS  e:\temp\ccdoSeHU.s 			page 1


   1              		.syntax unified
   2              		.cpu cortex-m0
   3              		.fpu softvfp
   4              		.eabi_attribute 20, 1
   5              		.eabi_attribute 21, 1
   6              		.eabi_attribute 23, 3
   7              		.eabi_attribute 24, 1
   8              		.eabi_attribute 25, 1
   9              		.eabi_attribute 26, 1
  10              		.eabi_attribute 30, 1
  11              		.eabi_attribute 34, 0
  12              		.eabi_attribute 18, 4
  13              		.thumb
  14              		.syntax unified
  15              		.file	"vdm_task_mngr.c"
  16              		.text
  17              	.Ltext0:
  18              		.cfi_sections	.debug_frame
  19              		.section	.text.is_svid_stored,"ax",%progbits
  20              		.align	2
  21              		.code	16
  22              		.thumb_func
  23              		.type	is_svid_stored, %function
  24              	is_svid_stored:
  25              	.LFB40:
  26              		.file 1 "..\\src\\app\\alt_mode\\vdm_task_mngr.c"
   1:..\src\app\alt_mode/vdm_task_mngr.c **** /**
   2:..\src\app\alt_mode/vdm_task_mngr.c ****  * @file vdm_task_mngr.c
   3:..\src\app\alt_mode/vdm_task_mngr.c ****  *
   4:..\src\app\alt_mode/vdm_task_mngr.c ****  * @brief @{VDM task manager source file.@}
   5:..\src\app\alt_mode/vdm_task_mngr.c ****  *
   6:..\src\app\alt_mode/vdm_task_mngr.c ****  *******************************************************************************
   7:..\src\app\alt_mode/vdm_task_mngr.c ****  *
   8:..\src\app\alt_mode/vdm_task_mngr.c ****  * Copyright (2014-2018), Cypress Semiconductor Corporation or a subsidiary of
   9:..\src\app\alt_mode/vdm_task_mngr.c ****  * Cypress Semiconductor Corporation. All rights reserved.
  10:..\src\app\alt_mode/vdm_task_mngr.c ****  *
  11:..\src\app\alt_mode/vdm_task_mngr.c ****  * This software, including source code, documentation and related materials
  12:..\src\app\alt_mode/vdm_task_mngr.c ****  * (“Software”), is owned by Cypress Semiconductor Corporation or one of its
  13:..\src\app\alt_mode/vdm_task_mngr.c ****  * subsidiaries (“Cypress”) and is protected by and subject to worldwide patent
  14:..\src\app\alt_mode/vdm_task_mngr.c ****  * protection (United States and foreign), United States copyright laws and
  15:..\src\app\alt_mode/vdm_task_mngr.c ****  * international treaty provisions. Therefore, you may use this Software only
  16:..\src\app\alt_mode/vdm_task_mngr.c ****  * as provided in the license agreement accompanying the software package from
  17:..\src\app\alt_mode/vdm_task_mngr.c ****  * which you obtained this Software (“EULA”).
  18:..\src\app\alt_mode/vdm_task_mngr.c ****  *
  19:..\src\app\alt_mode/vdm_task_mngr.c ****  * If no EULA applies, Cypress hereby grants you a personal, nonexclusive,
  20:..\src\app\alt_mode/vdm_task_mngr.c ****  * non-transferable license to copy, modify, and compile the Software source
  21:..\src\app\alt_mode/vdm_task_mngr.c ****  * code solely for use in connection with Cypress’s integrated circuit
  22:..\src\app\alt_mode/vdm_task_mngr.c ****  * products. Any reproduction, modification, translation, compilation, or
  23:..\src\app\alt_mode/vdm_task_mngr.c ****  * representation of this Software except as specified above is prohibited
  24:..\src\app\alt_mode/vdm_task_mngr.c ****  * without the express written permission of Cypress. Disclaimer: THIS SOFTWARE
  25:..\src\app\alt_mode/vdm_task_mngr.c ****  * IS PROVIDED AS-IS, WITH NO WARRANTY OF ANY KIND, EXPRESS OR IMPLIED,
  26:..\src\app\alt_mode/vdm_task_mngr.c ****  * INCLUDING, BUT NOT LIMITED TO, NONINFRINGEMENT, IMPLIED WARRANTIES OF
  27:..\src\app\alt_mode/vdm_task_mngr.c ****  * MERCHANTABILITY AND FITNESS FOR A PARTICULAR PURPOSE. Cypress reserves the
  28:..\src\app\alt_mode/vdm_task_mngr.c ****  * right to make changes to the Software without notice. Cypress does not
  29:..\src\app\alt_mode/vdm_task_mngr.c ****  * assume any liability arising out of the application or use of the Software
  30:..\src\app\alt_mode/vdm_task_mngr.c ****  * or any product or circuit described in the Software. Cypress does not
  31:..\src\app\alt_mode/vdm_task_mngr.c ****  * authorize its products for use in any products where a malfunction or
ARM GAS  e:\temp\ccdoSeHU.s 			page 2


  32:..\src\app\alt_mode/vdm_task_mngr.c ****  * failure of the Cypress product may reasonably be expected to result in
  33:..\src\app\alt_mode/vdm_task_mngr.c ****  * significant property damage, injury or death (“High Risk Product”). By
  34:..\src\app\alt_mode/vdm_task_mngr.c ****  * including Cypress’s product in a High Risk Product, the manufacturer of such
  35:..\src\app\alt_mode/vdm_task_mngr.c ****  * system or application assumes all risk of such use and in doing so agrees to
  36:..\src\app\alt_mode/vdm_task_mngr.c ****  * indemnify Cypress against all liability.
  37:..\src\app\alt_mode/vdm_task_mngr.c ****  */
  38:..\src\app\alt_mode/vdm_task_mngr.c **** 
  39:..\src\app\alt_mode/vdm_task_mngr.c **** #include <vdm.h>
  40:..\src\app\alt_mode/vdm_task_mngr.c **** #include <pd.h>
  41:..\src\app\alt_mode/vdm_task_mngr.c **** #include <dpm.h>
  42:..\src\app\alt_mode/vdm_task_mngr.c **** #include <timer.h>
  43:..\src\app\alt_mode/vdm_task_mngr.c **** #include <app.h>
  44:..\src\app\alt_mode/vdm_task_mngr.c **** #include <alt_mode_hw.h>
  45:..\src\app\alt_mode/vdm_task_mngr.c **** #include <hpi.h>
  46:..\src\app\alt_mode/vdm_task_mngr.c **** #if ((DFP_ALT_MODE_SUPP) || (UFP_ALT_MODE_SUPP))
  47:..\src\app\alt_mode/vdm_task_mngr.c **** #include <vdm_task_mngr.h>
  48:..\src\app\alt_mode/vdm_task_mngr.c **** #include <alt_modes_mngr.h>
  49:..\src\app\alt_mode/vdm_task_mngr.c **** 
  50:..\src\app\alt_mode/vdm_task_mngr.c **** /**
  51:..\src\app\alt_mode/vdm_task_mngr.c ****  * @typedef vdm_task_status_t
  52:..\src\app\alt_mode/vdm_task_mngr.c ****  * @brief struct to hold vdm manager status
  53:..\src\app\alt_mode/vdm_task_mngr.c ****  */
  54:..\src\app\alt_mode/vdm_task_mngr.c **** typedef struct
  55:..\src\app\alt_mode/vdm_task_mngr.c **** {
  56:..\src\app\alt_mode/vdm_task_mngr.c ****     /* Current VDM manager state */
  57:..\src\app\alt_mode/vdm_task_mngr.c ****     vdm_task_t      vdm_task;
  58:..\src\app\alt_mode/vdm_task_mngr.c ****     /* Current VDM manager event */
  59:..\src\app\alt_mode/vdm_task_mngr.c ****     vdm_evt_t       vdm_evt;
  60:..\src\app\alt_mode/vdm_task_mngr.c ****     /* Info about cable, device/AMA */
  61:..\src\app\alt_mode/vdm_task_mngr.c ****     atch_tgt_info_t atch_tgt;
  62:..\src\app\alt_mode/vdm_task_mngr.c ****     /* Struct with received/sent VDM info */
  63:..\src\app\alt_mode/vdm_task_mngr.c ****     vdm_msg_info_t  vdm_msg;
  64:..\src\app\alt_mode/vdm_task_mngr.c ****     /* Sent/received VDM retry counters */
  65:..\src\app\alt_mode/vdm_task_mngr.c ****     uint8_t         rec_retry_cnt;
  66:..\src\app\alt_mode/vdm_task_mngr.c ****     /* Holds svid index if we have more than one Disc SVID response */
  67:..\src\app\alt_mode/vdm_task_mngr.c ****     uint8_t         svid_idx;
  68:..\src\app\alt_mode/vdm_task_mngr.c ****     /* Holds count of D_SVID requests sent. */
  69:..\src\app\alt_mode/vdm_task_mngr.c ****     uint8_t         dsvid_cnt;
  70:..\src\app\alt_mode/vdm_task_mngr.c **** }vdm_task_status_t;
  71:..\src\app\alt_mode/vdm_task_mngr.c **** 
  72:..\src\app\alt_mode/vdm_task_mngr.c **** #if VDM_RESP_QUERY_SUPPORTED
  73:..\src\app\alt_mode/vdm_task_mngr.c **** 
  74:..\src\app\alt_mode/vdm_task_mngr.c **** #define MAX_DISC_ID_RESP_LEN    (MAX_NO_OF_DO)
  75:..\src\app\alt_mode/vdm_task_mngr.c **** #define MAX_DISC_SVID_RESP_LEN  (18u)
  76:..\src\app\alt_mode/vdm_task_mngr.c **** 
  77:..\src\app\alt_mode/vdm_task_mngr.c **** /* Array to store the D_ID response received from the port partner. */
  78:..\src\app\alt_mode/vdm_task_mngr.c **** static uint32_t vdm_disc_id_resp[NO_OF_TYPEC_PORTS][MAX_DISC_ID_RESP_LEN];
  79:..\src\app\alt_mode/vdm_task_mngr.c **** static uint8_t  vdm_disc_id_resp_len[NO_OF_TYPEC_PORTS];
  80:..\src\app\alt_mode/vdm_task_mngr.c **** 
  81:..\src\app\alt_mode/vdm_task_mngr.c **** /* Array to store the D_SVID response received from the port partner. */
  82:..\src\app\alt_mode/vdm_task_mngr.c **** static uint32_t vdm_disc_svid_resp[NO_OF_TYPEC_PORTS][MAX_DISC_SVID_RESP_LEN];
  83:..\src\app\alt_mode/vdm_task_mngr.c **** static uint8_t  vdm_disc_svid_resp_len[NO_OF_TYPEC_PORTS];
  84:..\src\app\alt_mode/vdm_task_mngr.c **** 
  85:..\src\app\alt_mode/vdm_task_mngr.c **** #endif /* VDM_RESP_QUERY_SUPPORTED */
  86:..\src\app\alt_mode/vdm_task_mngr.c **** 
  87:..\src\app\alt_mode/vdm_task_mngr.c **** /* Main structure to hold variables for VDM task manager */
  88:..\src\app\alt_mode/vdm_task_mngr.c **** vdm_task_status_t vdm_stat[NO_OF_TYPEC_PORTS];
ARM GAS  e:\temp\ccdoSeHU.s 			page 3


  89:..\src\app\alt_mode/vdm_task_mngr.c **** 
  90:..\src\app\alt_mode/vdm_task_mngr.c **** /* Init VDM task mngr */
  91:..\src\app\alt_mode/vdm_task_mngr.c **** static vdm_task_t vdm_task_mngr_init(uint8_t port);
  92:..\src\app\alt_mode/vdm_task_mngr.c **** 
  93:..\src\app\alt_mode/vdm_task_mngr.c **** #if ((DFP_ALT_MODE_SUPP) || (UFP_MODE_DISC_ENABLE))
  94:..\src\app\alt_mode/vdm_task_mngr.c **** /* Discover ID cmd handler */
  95:..\src\app\alt_mode/vdm_task_mngr.c **** static vdm_task_t vdm_task_mng_disc_id(uint8_t port, vdm_evt_t vdm_evt);
  96:..\src\app\alt_mode/vdm_task_mngr.c **** /* Discovery SVID cmd handler */
  97:..\src\app\alt_mode/vdm_task_mngr.c **** static vdm_task_t vdm_task_mng_disc_svid(uint8_t port, vdm_evt_t vdm_evt);
  98:..\src\app\alt_mode/vdm_task_mngr.c **** #endif /* ((DFP_ALT_MODE_SUPP) || (UFP_MODE_DISC_ENABLE)) */
  99:..\src\app\alt_mode/vdm_task_mngr.c **** 
 100:..\src\app\alt_mode/vdm_task_mngr.c **** /* Sets recevied VDM response command as failed */
 101:..\src\app\alt_mode/vdm_task_mngr.c **** static void set_vdm_failed(uint8_t port, fail_status_t fail_stat);
 102:..\src\app\alt_mode/vdm_task_mngr.c **** /* Check VDM retries */
 103:..\src\app\alt_mode/vdm_task_mngr.c **** static bool vdm_retry_check(uint8_t port, fail_status_t fail_stat);
 104:..\src\app\alt_mode/vdm_task_mngr.c **** /* Parses received VDM resp to vdm_msg_info_t struct */
 105:..\src\app\alt_mode/vdm_task_mngr.c **** static uint8_t parse_vdm(uint8_t port, const pd_packet_t* rec_vdm);
 106:..\src\app\alt_mode/vdm_task_mngr.c **** /* Callback function for sent VDM */
 107:..\src\app\alt_mode/vdm_task_mngr.c **** static void vdm_rec_cbk(uint8_t port, resp_status_t status, const pd_packet_t *rec_vdm);
 108:..\src\app\alt_mode/vdm_task_mngr.c **** /* Function to send VDM */
 109:..\src\app\alt_mode/vdm_task_mngr.c **** static vdm_task_t send_vdm(uint8_t port);
 110:..\src\app\alt_mode/vdm_task_mngr.c **** /* Checks if VDM mngr is enabled */
 111:..\src\app\alt_mode/vdm_task_mngr.c **** static bool is_vdm_mngr_enabled(uint8_t port);
 112:..\src\app\alt_mode/vdm_task_mngr.c **** /* Returns pointer to vdm_msg_info_t struct */
 113:..\src\app\alt_mode/vdm_task_mngr.c **** static vdm_msg_info_t* get_msg(uint8_t port);
 114:..\src\app\alt_mode/vdm_task_mngr.c **** /* Composes vdm_msg_info_t data to dpm_pd_cmd_buf_t struct */
 115:..\src\app\alt_mode/vdm_task_mngr.c **** static uint8_t compose_vdm(uint8_t port);
 116:..\src\app\alt_mode/vdm_task_mngr.c **** /* Reset vdm mngr info */
 117:..\src\app\alt_mode/vdm_task_mngr.c **** static void reset_vdm_mngr(uint8_t port);
 118:..\src\app\alt_mode/vdm_task_mngr.c **** 
 119:..\src\app\alt_mode/vdm_task_mngr.c **** /* VDM field set/get functions. */
 120:..\src\app\alt_mode/vdm_task_mngr.c **** vdm_evt_t get_evt(uint8_t port);
 121:..\src\app\alt_mode/vdm_task_mngr.c **** vdm_task_t get_task(uint8_t port);
 122:..\src\app\alt_mode/vdm_task_mngr.c **** void set_task(uint8_t port, vdm_task_t task);
 123:..\src\app\alt_mode/vdm_task_mngr.c **** void set_evt(uint8_t port, vdm_evt_t evt);
 124:..\src\app\alt_mode/vdm_task_mngr.c **** 
 125:..\src\app\alt_mode/vdm_task_mngr.c **** /**
 126:..\src\app\alt_mode/vdm_task_mngr.c ****    @typedef cable_dp_reset_state_t
 127:..\src\app\alt_mode/vdm_task_mngr.c ****    @brief Enumeration tracking current cable (SOP'') soft reset state.
 128:..\src\app\alt_mode/vdm_task_mngr.c ****  */
 129:..\src\app\alt_mode/vdm_task_mngr.c **** typedef enum {
 130:..\src\app\alt_mode/vdm_task_mngr.c ****     CABLE_DP_RESET_IDLE = 0,    /**< No Cable (SOP'') reset state. */
 131:..\src\app\alt_mode/vdm_task_mngr.c ****     CABLE_DP_RESET_WAIT,        /**< Waiting for response from cable (SOP'') soft reset. */
 132:..\src\app\alt_mode/vdm_task_mngr.c ****     CABLE_DP_RESET_RETRY,       /**< Cable soft reset (SOP'') to be attempted. */
 133:..\src\app\alt_mode/vdm_task_mngr.c ****     CABLE_DP_RESET_DONE         /**< Cable soft reset (SOP'') has been completed. */
 134:..\src\app\alt_mode/vdm_task_mngr.c **** } cable_dp_reset_state_t;
 135:..\src\app\alt_mode/vdm_task_mngr.c **** 
 136:..\src\app\alt_mode/vdm_task_mngr.c **** /* Maximum number of EMCA SOFT_RESET attempts to be made. */
 137:..\src\app\alt_mode/vdm_task_mngr.c **** #define MAX_EMCA_DP_RESET_COUNT         (3u)
 138:..\src\app\alt_mode/vdm_task_mngr.c **** 
 139:..\src\app\alt_mode/vdm_task_mngr.c **** static cable_dp_reset_state_t vdm_emca_rst_state[NO_OF_TYPEC_PORTS] = {
 140:..\src\app\alt_mode/vdm_task_mngr.c ****     CABLE_DP_RESET_IDLE
 141:..\src\app\alt_mode/vdm_task_mngr.c **** #if (NO_OF_TYPEC_PORTS > 1)
 142:..\src\app\alt_mode/vdm_task_mngr.c ****     ,
 143:..\src\app\alt_mode/vdm_task_mngr.c ****     CABLE_DP_RESET_IDLE
 144:..\src\app\alt_mode/vdm_task_mngr.c **** #endif /* (NO_OF_TYPEC_PORTS > 1) */
 145:..\src\app\alt_mode/vdm_task_mngr.c **** };
ARM GAS  e:\temp\ccdoSeHU.s 			page 4


 146:..\src\app\alt_mode/vdm_task_mngr.c **** 
 147:..\src\app\alt_mode/vdm_task_mngr.c **** static uint8_t vdm_emca_rst_count[NO_OF_TYPEC_PORTS] = {
 148:..\src\app\alt_mode/vdm_task_mngr.c ****     0
 149:..\src\app\alt_mode/vdm_task_mngr.c **** #if (NO_OF_TYPEC_PORTS > 1)
 150:..\src\app\alt_mode/vdm_task_mngr.c ****     ,
 151:..\src\app\alt_mode/vdm_task_mngr.c ****     0
 152:..\src\app\alt_mode/vdm_task_mngr.c **** #endif /* (NO_OF_TYPEC_PORTS > 1) */
 153:..\src\app\alt_mode/vdm_task_mngr.c **** };
 154:..\src\app\alt_mode/vdm_task_mngr.c **** 
 155:..\src\app\alt_mode/vdm_task_mngr.c **** void enable_vdm_task_mngr(uint8_t port)
 156:..\src\app\alt_mode/vdm_task_mngr.c **** {
 157:..\src\app\alt_mode/vdm_task_mngr.c ****     /* If the VDM Task is already running, do nothing. */
 158:..\src\app\alt_mode/vdm_task_mngr.c ****     if (app_get_status(port)->vdm_task_en == false)
 159:..\src\app\alt_mode/vdm_task_mngr.c ****     {
 160:..\src\app\alt_mode/vdm_task_mngr.c ****         set_task(port, VDM_TASK_INIT);
 161:..\src\app\alt_mode/vdm_task_mngr.c ****         app_get_status(port)->vdm_task_en = true;
 162:..\src\app\alt_mode/vdm_task_mngr.c ****         app_get_status(port)->vdm_prcs_failed = false;
 163:..\src\app\alt_mode/vdm_task_mngr.c ****     }
 164:..\src\app\alt_mode/vdm_task_mngr.c **** }
 165:..\src\app\alt_mode/vdm_task_mngr.c **** 
 166:..\src\app\alt_mode/vdm_task_mngr.c **** static vdm_task_t vdm_task_mngr_init(uint8_t port)
 167:..\src\app\alt_mode/vdm_task_mngr.c **** {
 168:..\src\app\alt_mode/vdm_task_mngr.c ****     vdm_task_t ret = VDM_TASK_EXIT;
 169:..\src\app\alt_mode/vdm_task_mngr.c **** 
 170:..\src\app\alt_mode/vdm_task_mngr.c ****     /* Reset vdm mngr info */
 171:..\src\app\alt_mode/vdm_task_mngr.c ****     reset_vdm_mngr(port);
 172:..\src\app\alt_mode/vdm_task_mngr.c ****     set_evt(port, VDM_EVT_RUN);
 173:..\src\app\alt_mode/vdm_task_mngr.c **** 
 174:..\src\app\alt_mode/vdm_task_mngr.c **** #if CCG4_DOCK
 175:..\src\app\alt_mode/vdm_task_mngr.c ****     if (gl_dpm_port_type[port] != PRT_TYPE_UFP)
 176:..\src\app\alt_mode/vdm_task_mngr.c ****     {
 177:..\src\app\alt_mode/vdm_task_mngr.c ****         /* in CCG4 Dock US is UFP only, so it should not init D_ID */
 178:..\src\app\alt_mode/vdm_task_mngr.c ****         if(port == 0u) return VDM_TASK_EXIT;
 179:..\src\app\alt_mode/vdm_task_mngr.c ****     }
 180:..\src\app\alt_mode/vdm_task_mngr.c **** #endif /* CCG4_DOCK */
 181:..\src\app\alt_mode/vdm_task_mngr.c **** 
 182:..\src\app\alt_mode/vdm_task_mngr.c ****     if (get_alt_mode_numb(port) != false)
 183:..\src\app\alt_mode/vdm_task_mngr.c ****     {
 184:..\src\app\alt_mode/vdm_task_mngr.c ****         /* Check if current data role is DFP */
 185:..\src\app\alt_mode/vdm_task_mngr.c ****         if (gl_dpm_port_type[port] != PRT_TYPE_UFP)
 186:..\src\app\alt_mode/vdm_task_mngr.c ****         {
 187:..\src\app\alt_mode/vdm_task_mngr.c ****             ret = VDM_TASK_DISC_ID;
 188:..\src\app\alt_mode/vdm_task_mngr.c ****     }
 189:..\src\app\alt_mode/vdm_task_mngr.c ****         else
 190:..\src\app\alt_mode/vdm_task_mngr.c ****         {
 191:..\src\app\alt_mode/vdm_task_mngr.c ****             ret = VDM_TASK_REG_ATCH_TGT_INFO;
 192:..\src\app\alt_mode/vdm_task_mngr.c ****         }
 193:..\src\app\alt_mode/vdm_task_mngr.c ****     }
 194:..\src\app\alt_mode/vdm_task_mngr.c **** 
 195:..\src\app\alt_mode/vdm_task_mngr.c ****     return ret;
 196:..\src\app\alt_mode/vdm_task_mngr.c **** 
 197:..\src\app\alt_mode/vdm_task_mngr.c **** }
 198:..\src\app\alt_mode/vdm_task_mngr.c **** 
 199:..\src\app\alt_mode/vdm_task_mngr.c **** bool is_vdm_task_idle(uint8_t port)
 200:..\src\app\alt_mode/vdm_task_mngr.c **** {
 201:..\src\app\alt_mode/vdm_task_mngr.c ****     /*
 202:..\src\app\alt_mode/vdm_task_mngr.c ****        If VDM manager is enabled, check
ARM GAS  e:\temp\ccdoSeHU.s 			page 5


 203:..\src\app\alt_mode/vdm_task_mngr.c ****        1. Whether BUSY timer is running.
 204:..\src\app\alt_mode/vdm_task_mngr.c ****        2. Whether the ALT mode tasks are idle.
 205:..\src\app\alt_mode/vdm_task_mngr.c ****      */
 206:..\src\app\alt_mode/vdm_task_mngr.c ****     return !(is_vdm_mngr_enabled (port) &&
 207:..\src\app\alt_mode/vdm_task_mngr.c ****             ((timer_is_running (port, APP_VDM_BUSY_TIMER)) ||
 208:..\src\app\alt_mode/vdm_task_mngr.c ****              (get_task(port) != VDM_TASK_ALT_MODE) ||
 209:..\src\app\alt_mode/vdm_task_mngr.c ****              (is_alt_mode_mngr_idle(port) == false))
 210:..\src\app\alt_mode/vdm_task_mngr.c ****             );
 211:..\src\app\alt_mode/vdm_task_mngr.c **** }
 212:..\src\app\alt_mode/vdm_task_mngr.c **** 
 213:..\src\app\alt_mode/vdm_task_mngr.c **** void vdm_task_mngr(uint8_t port)
 214:..\src\app\alt_mode/vdm_task_mngr.c **** {
 215:..\src\app\alt_mode/vdm_task_mngr.c ****     /* The VDM task enabled check is performed by the caller. */
 216:..\src\app\alt_mode/vdm_task_mngr.c ****     if (
 217:..\src\app\alt_mode/vdm_task_mngr.c ****             (timer_is_running(port, APP_VDM_BUSY_TIMER) == true)
 218:..\src\app\alt_mode/vdm_task_mngr.c **** #if MUX_DELAY_EN			
 219:..\src\app\alt_mode/vdm_task_mngr.c **** 			|| (app_get_status(port)->is_mux_busy != false)
 220:..\src\app\alt_mode/vdm_task_mngr.c **** #endif /* MUX_DELAY_EN */			
 221:..\src\app\alt_mode/vdm_task_mngr.c ****        )
 222:..\src\app\alt_mode/vdm_task_mngr.c ****     {
 223:..\src\app\alt_mode/vdm_task_mngr.c ****         return;
 224:..\src\app\alt_mode/vdm_task_mngr.c ****     }
 225:..\src\app\alt_mode/vdm_task_mngr.c **** 
 226:..\src\app\alt_mode/vdm_task_mngr.c ****     /* Get current vdm task */
 227:..\src\app\alt_mode/vdm_task_mngr.c ****     switch (get_task(port))
 228:..\src\app\alt_mode/vdm_task_mngr.c ****     {
 229:..\src\app\alt_mode/vdm_task_mngr.c ****         case VDM_TASK_WAIT:
 230:..\src\app\alt_mode/vdm_task_mngr.c ****             break;
 231:..\src\app\alt_mode/vdm_task_mngr.c **** 
 232:..\src\app\alt_mode/vdm_task_mngr.c ****         case VDM_TASK_INIT:
 233:..\src\app\alt_mode/vdm_task_mngr.c ****             set_task(port, vdm_task_mngr_init(port));
 234:..\src\app\alt_mode/vdm_task_mngr.c ****             break;
 235:..\src\app\alt_mode/vdm_task_mngr.c **** 
 236:..\src\app\alt_mode/vdm_task_mngr.c **** #if ((DFP_ALT_MODE_SUPP) || (UFP_MODE_DISC_ENABLE))
 237:..\src\app\alt_mode/vdm_task_mngr.c ****         case VDM_TASK_DISC_ID:
 238:..\src\app\alt_mode/vdm_task_mngr.c ****             set_task(port, vdm_task_mng_disc_id(port, get_evt(port)));
 239:..\src\app\alt_mode/vdm_task_mngr.c ****             break;
 240:..\src\app\alt_mode/vdm_task_mngr.c **** 
 241:..\src\app\alt_mode/vdm_task_mngr.c ****         case VDM_TASK_DISC_SVID:
 242:..\src\app\alt_mode/vdm_task_mngr.c ****             set_task(port, vdm_task_mng_disc_svid(port, get_evt(port)));
 243:..\src\app\alt_mode/vdm_task_mngr.c ****             break;
 244:..\src\app\alt_mode/vdm_task_mngr.c **** #endif /* ((DFP_ALT_MODE_SUPP) || (UFP_MODE_DISC_ENABLE)) */
 245:..\src\app\alt_mode/vdm_task_mngr.c **** 
 246:..\src\app\alt_mode/vdm_task_mngr.c ****         case VDM_TASK_SEND_MSG:
 247:..\src\app\alt_mode/vdm_task_mngr.c ****             compose_vdm(port);
 248:..\src\app\alt_mode/vdm_task_mngr.c ****             set_task(port, send_vdm(port));
 249:..\src\app\alt_mode/vdm_task_mngr.c ****             break;
 250:..\src\app\alt_mode/vdm_task_mngr.c **** 
 251:..\src\app\alt_mode/vdm_task_mngr.c ****         case VDM_TASK_REG_ATCH_TGT_INFO:
 252:..\src\app\alt_mode/vdm_task_mngr.c ****             set_task(port, reg_alt_mode_mngr(port, &vdm_stat[port].atch_tgt, get_msg(port)));
 253:..\src\app\alt_mode/vdm_task_mngr.c ****             set_evt(port, VDM_EVT_RUN);
 254:..\src\app\alt_mode/vdm_task_mngr.c ****             break;
 255:..\src\app\alt_mode/vdm_task_mngr.c **** 
 256:..\src\app\alt_mode/vdm_task_mngr.c ****         case VDM_TASK_ALT_MODE:
 257:..\src\app\alt_mode/vdm_task_mngr.c ****             set_task(port, vdm_task_mngr_alt_mode_process(port, get_evt(port)));
 258:..\src\app\alt_mode/vdm_task_mngr.c ****             if ((get_task(port) == VDM_TASK_SEND_MSG) || (get_task(port) == VDM_TASK_ALT_MODE))
 259:..\src\app\alt_mode/vdm_task_mngr.c ****             {
ARM GAS  e:\temp\ccdoSeHU.s 			page 6


 260:..\src\app\alt_mode/vdm_task_mngr.c ****                 set_evt(port, VDM_EVT_RUN);
 261:..\src\app\alt_mode/vdm_task_mngr.c ****             }
 262:..\src\app\alt_mode/vdm_task_mngr.c ****             break;
 263:..\src\app\alt_mode/vdm_task_mngr.c **** 
 264:..\src\app\alt_mode/vdm_task_mngr.c ****         case VDM_TASK_EXIT:
 265:..\src\app\alt_mode/vdm_task_mngr.c ****             vdm_task_mngr_deinit(port);
 266:..\src\app\alt_mode/vdm_task_mngr.c ****             app_get_status(port)->vdm_prcs_failed = true;
 267:..\src\app\alt_mode/vdm_task_mngr.c ****             break;
 268:..\src\app\alt_mode/vdm_task_mngr.c **** 
 269:..\src\app\alt_mode/vdm_task_mngr.c ****         default:
 270:..\src\app\alt_mode/vdm_task_mngr.c ****             return;
 271:..\src\app\alt_mode/vdm_task_mngr.c **** 
 272:..\src\app\alt_mode/vdm_task_mngr.c ****     }
 273:..\src\app\alt_mode/vdm_task_mngr.c **** }
 274:..\src\app\alt_mode/vdm_task_mngr.c **** 
 275:..\src\app\alt_mode/vdm_task_mngr.c **** static bool vdm_retry_check(uint8_t port, fail_status_t fail_stat)
 276:..\src\app\alt_mode/vdm_task_mngr.c **** {
 277:..\src\app\alt_mode/vdm_task_mngr.c ****     (vdm_stat[port].rec_retry_cnt)++;
 278:..\src\app\alt_mode/vdm_task_mngr.c **** 
 279:..\src\app\alt_mode/vdm_task_mngr.c ****     /* If we don't receive response more than rec_retry_cnt notify that fail */
 280:..\src\app\alt_mode/vdm_task_mngr.c ****     if (vdm_stat[port].rec_retry_cnt > MAX_RETRY_CNT)
 281:..\src\app\alt_mode/vdm_task_mngr.c ****     {
 282:..\src\app\alt_mode/vdm_task_mngr.c ****         set_vdm_failed(port, fail_stat);
 283:..\src\app\alt_mode/vdm_task_mngr.c ****         return false;
 284:..\src\app\alt_mode/vdm_task_mngr.c ****     }
 285:..\src\app\alt_mode/vdm_task_mngr.c ****     /* Try to send msg again */
 286:..\src\app\alt_mode/vdm_task_mngr.c ****     set_task(port, VDM_TASK_SEND_MSG);
 287:..\src\app\alt_mode/vdm_task_mngr.c ****     /* Start a timer to delay the retry attempt. */
 288:..\src\app\alt_mode/vdm_task_mngr.c ****     timer_start(port, APP_VDM_BUSY_TIMER, APP_VDM_FAIL_RETRY_PERIOD, NULL);
 289:..\src\app\alt_mode/vdm_task_mngr.c ****     return true;
 290:..\src\app\alt_mode/vdm_task_mngr.c **** }
 291:..\src\app\alt_mode/vdm_task_mngr.c **** 
 292:..\src\app\alt_mode/vdm_task_mngr.c **** static void set_vdm_failed(uint8_t port, fail_status_t fail_stat)
 293:..\src\app\alt_mode/vdm_task_mngr.c **** {
 294:..\src\app\alt_mode/vdm_task_mngr.c ****     /* Reset retry counters */
 295:..\src\app\alt_mode/vdm_task_mngr.c ****     vdm_stat[port].rec_retry_cnt = 0;
 296:..\src\app\alt_mode/vdm_task_mngr.c ****     set_evt(port, VDM_EVT_FAIL);
 297:..\src\app\alt_mode/vdm_task_mngr.c ****     /* Set failed and save failed command */
 298:..\src\app\alt_mode/vdm_task_mngr.c ****     get_msg(port)->VDM_HDR.cmd = get_vdm_buff(port)->cmd_do->std_vdm_hdr.cmd;
 299:..\src\app\alt_mode/vdm_task_mngr.c ****     /* Save Failure code in the object position field */
 300:..\src\app\alt_mode/vdm_task_mngr.c ****     get_msg(port)->VDM_HDR.obj_pos = (uint32_t)fail_stat;
 301:..\src\app\alt_mode/vdm_task_mngr.c **** }
 302:..\src\app\alt_mode/vdm_task_mngr.c **** 
 303:..\src\app\alt_mode/vdm_task_mngr.c **** /* Received VDM callback */
 304:..\src\app\alt_mode/vdm_task_mngr.c **** static void vdm_rec_cbk(uint8_t port, resp_status_t status, const pd_packet_t* rec_vdm)
 305:..\src\app\alt_mode/vdm_task_mngr.c **** {
 306:..\src\app\alt_mode/vdm_task_mngr.c ****     uint32_t response;
 307:..\src\app\alt_mode/vdm_task_mngr.c ****     bool     run_task_flag = false;
 308:..\src\app\alt_mode/vdm_task_mngr.c **** 
 309:..\src\app\alt_mode/vdm_task_mngr.c ****     /* If response ACK */
 310:..\src\app\alt_mode/vdm_task_mngr.c ****     if (status == RES_RCVD)
 311:..\src\app\alt_mode/vdm_task_mngr.c ****     {
 312:..\src\app\alt_mode/vdm_task_mngr.c ****         /* Handle Standard VDM */
 313:..\src\app\alt_mode/vdm_task_mngr.c ****         if (rec_vdm->dat[VDM_HEADER_IDX].std_vdm_hdr.vdm_type == VDM_TYPE_STRUCTURED)
 314:..\src\app\alt_mode/vdm_task_mngr.c ****         {
 315:..\src\app\alt_mode/vdm_task_mngr.c ****             response = rec_vdm->dat[VDM_HEADER_IDX].std_vdm_hdr.cmd_type;
 316:..\src\app\alt_mode/vdm_task_mngr.c **** 
ARM GAS  e:\temp\ccdoSeHU.s 			page 7


 317:..\src\app\alt_mode/vdm_task_mngr.c **** #if CCG_PD_REV3_ENABLE
 318:..\src\app\alt_mode/vdm_task_mngr.c ****             if (rec_vdm->sop == SOP)
 319:..\src\app\alt_mode/vdm_task_mngr.c ****             {
 320:..\src\app\alt_mode/vdm_task_mngr.c ****                 app_get_status(port)->vdm_version =
 321:..\src\app\alt_mode/vdm_task_mngr.c ****                     GET_MIN (app_get_status(port)->vdm_version, rec_vdm->dat[VDM_HEADER_IDX].std_vd
 322:..\src\app\alt_mode/vdm_task_mngr.c ****             }
 323:..\src\app\alt_mode/vdm_task_mngr.c **** #endif /* CCG_PD_REV3_ENABLE */
 324:..\src\app\alt_mode/vdm_task_mngr.c **** 
 325:..\src\app\alt_mode/vdm_task_mngr.c ****             /* Actual response received. */
 326:..\src\app\alt_mode/vdm_task_mngr.c ****             switch (response)
 327:..\src\app\alt_mode/vdm_task_mngr.c ****             {
 328:..\src\app\alt_mode/vdm_task_mngr.c ****                 case CMD_TYPE_RESP_ACK:
 329:..\src\app\alt_mode/vdm_task_mngr.c ****                     {
 330:..\src\app\alt_mode/vdm_task_mngr.c ****                         /* Check if received response is expected. */
 331:..\src\app\alt_mode/vdm_task_mngr.c ****                         if ((rec_vdm->dat[VDM_HEADER_IDX].std_vdm_hdr.cmd) ==
 332:..\src\app\alt_mode/vdm_task_mngr.c ****                                 (get_vdm_buff(port)->cmd_do[VDM_HEADER_IDX].std_vdm_hdr.cmd))
 333:..\src\app\alt_mode/vdm_task_mngr.c ****                         {
 334:..\src\app\alt_mode/vdm_task_mngr.c ****                             parse_vdm(port, rec_vdm);
 335:..\src\app\alt_mode/vdm_task_mngr.c ****                             set_evt(port, VDM_EVT_EVAL);
 336:..\src\app\alt_mode/vdm_task_mngr.c **** 
 337:..\src\app\alt_mode/vdm_task_mngr.c ****                             /* Reset timer counter when ACK. */
 338:..\src\app\alt_mode/vdm_task_mngr.c ****                             vdm_stat[port].rec_retry_cnt = 0;
 339:..\src\app\alt_mode/vdm_task_mngr.c ****                         }
 340:..\src\app\alt_mode/vdm_task_mngr.c ****                         else
 341:..\src\app\alt_mode/vdm_task_mngr.c ****                         {
 342:..\src\app\alt_mode/vdm_task_mngr.c ****                             /* Set failed and save failed command */
 343:..\src\app\alt_mode/vdm_task_mngr.c ****                             set_vdm_failed(port, TIMEOUT);
 344:..\src\app\alt_mode/vdm_task_mngr.c ****                         }
 345:..\src\app\alt_mode/vdm_task_mngr.c **** 
 346:..\src\app\alt_mode/vdm_task_mngr.c ****                         /* Continue the state machine operation. */
 347:..\src\app\alt_mode/vdm_task_mngr.c ****                         run_task_flag = true;
 348:..\src\app\alt_mode/vdm_task_mngr.c ****                     }
 349:..\src\app\alt_mode/vdm_task_mngr.c ****                     break;
 350:..\src\app\alt_mode/vdm_task_mngr.c **** 
 351:..\src\app\alt_mode/vdm_task_mngr.c ****                 case CMD_TYPE_RESP_BUSY:
 352:..\src\app\alt_mode/vdm_task_mngr.c ****                     /* Target is BUSY. */
 353:..\src\app\alt_mode/vdm_task_mngr.c ****                     {
 354:..\src\app\alt_mode/vdm_task_mngr.c ****                         /* Check if command should be retried. We always have to continue task exec
 355:..\src\app\alt_mode/vdm_task_mngr.c ****                         vdm_stat[port].rec_retry_cnt++;
 356:..\src\app\alt_mode/vdm_task_mngr.c ****                         if (vdm_stat[port].rec_retry_cnt > MAX_RETRY_CNT)
 357:..\src\app\alt_mode/vdm_task_mngr.c ****                         {
 358:..\src\app\alt_mode/vdm_task_mngr.c ****                             set_vdm_failed(port, BUSY);
 359:..\src\app\alt_mode/vdm_task_mngr.c ****                             run_task_flag = true;
 360:..\src\app\alt_mode/vdm_task_mngr.c ****                         }
 361:..\src\app\alt_mode/vdm_task_mngr.c ****                         else
 362:..\src\app\alt_mode/vdm_task_mngr.c ****                         {
 363:..\src\app\alt_mode/vdm_task_mngr.c ****                             /* Try to send msg again */
 364:..\src\app\alt_mode/vdm_task_mngr.c ****                             set_task(port, VDM_TASK_SEND_MSG);
 365:..\src\app\alt_mode/vdm_task_mngr.c ****                             /* Start a timer. Command will be retried when timer expires. */
 366:..\src\app\alt_mode/vdm_task_mngr.c ****                             timer_start(port, APP_VDM_BUSY_TIMER, APP_VDM_BUSY_TIMER_PERIOD, NULL);
 367:..\src\app\alt_mode/vdm_task_mngr.c ****                         }
 368:..\src\app\alt_mode/vdm_task_mngr.c ****                     }
 369:..\src\app\alt_mode/vdm_task_mngr.c ****                     break;
 370:..\src\app\alt_mode/vdm_task_mngr.c ****                 default:
 371:..\src\app\alt_mode/vdm_task_mngr.c ****                     /* Target NAK-ed the message. */
 372:..\src\app\alt_mode/vdm_task_mngr.c ****                     {
 373:..\src\app\alt_mode/vdm_task_mngr.c ****                         /* Notify manager with failed event */
ARM GAS  e:\temp\ccdoSeHU.s 			page 8


 374:..\src\app\alt_mode/vdm_task_mngr.c ****                         set_vdm_failed(port, NACK);
 375:..\src\app\alt_mode/vdm_task_mngr.c ****                         run_task_flag = true;
 376:..\src\app\alt_mode/vdm_task_mngr.c ****                     }
 377:..\src\app\alt_mode/vdm_task_mngr.c ****                     break;
 378:..\src\app\alt_mode/vdm_task_mngr.c ****             }
 379:..\src\app\alt_mode/vdm_task_mngr.c ****         }
 380:..\src\app\alt_mode/vdm_task_mngr.c ****         /* Handle UVDM */
 381:..\src\app\alt_mode/vdm_task_mngr.c ****         else
 382:..\src\app\alt_mode/vdm_task_mngr.c ****         {
 383:..\src\app\alt_mode/vdm_task_mngr.c ****             parse_vdm(port, rec_vdm);
 384:..\src\app\alt_mode/vdm_task_mngr.c ****             set_evt(port, VDM_EVT_EVAL);
 385:..\src\app\alt_mode/vdm_task_mngr.c ****             /* Reset timer counter when ACK */
 386:..\src\app\alt_mode/vdm_task_mngr.c ****             vdm_stat[port].rec_retry_cnt = 0;
 387:..\src\app\alt_mode/vdm_task_mngr.c ****             run_task_flag = true;
 388:..\src\app\alt_mode/vdm_task_mngr.c ****         }
 389:..\src\app\alt_mode/vdm_task_mngr.c ****     }
 390:..\src\app\alt_mode/vdm_task_mngr.c ****     /* Attention related handler */
 391:..\src\app\alt_mode/vdm_task_mngr.c ****     else if (get_msg(port)->VDM_HDR.cmd == VDM_CMD_ATTENTION)
 392:..\src\app\alt_mode/vdm_task_mngr.c ****     {
 393:..\src\app\alt_mode/vdm_task_mngr.c ****         /* This statement need to notify alt mode that Attention VDM was successfuly sent */
 394:..\src\app\alt_mode/vdm_task_mngr.c ****         if ((status == CMD_SENT) && (get_task(port) == VDM_TASK_WAIT))
 395:..\src\app\alt_mode/vdm_task_mngr.c ****         {
 396:..\src\app\alt_mode/vdm_task_mngr.c ****             /* Start a timer. Command will be retried when timer expires. */
 397:..\src\app\alt_mode/vdm_task_mngr.c ****             timer_stop(port, APP_VDM_BUSY_TIMER);
 398:..\src\app\alt_mode/vdm_task_mngr.c ****             set_evt(port, VDM_EVT_EVAL);
 399:..\src\app\alt_mode/vdm_task_mngr.c ****             /* Reset retry counter */
 400:..\src\app\alt_mode/vdm_task_mngr.c ****             vdm_stat[port].rec_retry_cnt = 0;
 401:..\src\app\alt_mode/vdm_task_mngr.c ****             /* Continue the state machine operation. */
 402:..\src\app\alt_mode/vdm_task_mngr.c ****             run_task_flag = true;
 403:..\src\app\alt_mode/vdm_task_mngr.c ****         }
 404:..\src\app\alt_mode/vdm_task_mngr.c ****         else if (status == SEQ_ABORTED)
 405:..\src\app\alt_mode/vdm_task_mngr.c ****         {
 406:..\src\app\alt_mode/vdm_task_mngr.c ****             /* Try to send msg again */
 407:..\src\app\alt_mode/vdm_task_mngr.c ****             run_task_flag = true;
 408:..\src\app\alt_mode/vdm_task_mngr.c ****         }
 409:..\src\app\alt_mode/vdm_task_mngr.c ****     }
 410:..\src\app\alt_mode/vdm_task_mngr.c ****     else
 411:..\src\app\alt_mode/vdm_task_mngr.c ****     {
 412:..\src\app\alt_mode/vdm_task_mngr.c ****         /* Good CRC not received or no response (maybe corrupted packet). */
 413:..\src\app\alt_mode/vdm_task_mngr.c ****         if ((status == CMD_FAILED) || (status == RES_TIMEOUT))
 414:..\src\app\alt_mode/vdm_task_mngr.c ****         {
 415:..\src\app\alt_mode/vdm_task_mngr.c ****             /* Check for retries. If failure persists after all retries, go to exit. */
 416:..\src\app\alt_mode/vdm_task_mngr.c ****             if (vdm_retry_check (port, (fail_status_t)status) == false)
 417:..\src\app\alt_mode/vdm_task_mngr.c ****             {
 418:..\src\app\alt_mode/vdm_task_mngr.c ****                 run_task_flag = true;
 419:..\src\app\alt_mode/vdm_task_mngr.c ****             }
 420:..\src\app\alt_mode/vdm_task_mngr.c ****         }
 421:..\src\app\alt_mode/vdm_task_mngr.c ****         else
 422:..\src\app\alt_mode/vdm_task_mngr.c ****         {
 423:..\src\app\alt_mode/vdm_task_mngr.c ****             if (status == SEQ_ABORTED)
 424:..\src\app\alt_mode/vdm_task_mngr.c ****             {
 425:..\src\app\alt_mode/vdm_task_mngr.c ****                 /* Try to send msg again */
 426:..\src\app\alt_mode/vdm_task_mngr.c ****                 set_task(port, VDM_TASK_SEND_MSG);
 427:..\src\app\alt_mode/vdm_task_mngr.c ****             }
 428:..\src\app\alt_mode/vdm_task_mngr.c ****         }
 429:..\src\app\alt_mode/vdm_task_mngr.c ****     }
 430:..\src\app\alt_mode/vdm_task_mngr.c **** 
ARM GAS  e:\temp\ccdoSeHU.s 			page 9


 431:..\src\app\alt_mode/vdm_task_mngr.c ****     /* Check if we need run any task */
 432:..\src\app\alt_mode/vdm_task_mngr.c ****     if (run_task_flag == true)
 433:..\src\app\alt_mode/vdm_task_mngr.c ****     {
 434:..\src\app\alt_mode/vdm_task_mngr.c **** #if ((DFP_ALT_MODE_SUPP) || (UFP_MODE_DISC_ENABLE))
 435:..\src\app\alt_mode/vdm_task_mngr.c ****         switch (vdm_stat[port].vdm_msg.VDM_HDR.cmd)
 436:..\src\app\alt_mode/vdm_task_mngr.c ****         {
 437:..\src\app\alt_mode/vdm_task_mngr.c ****             case VDM_CMD_DSC_IDENTITY:
 438:..\src\app\alt_mode/vdm_task_mngr.c ****                 set_task(port, VDM_TASK_DISC_ID);
 439:..\src\app\alt_mode/vdm_task_mngr.c ****                 break;
 440:..\src\app\alt_mode/vdm_task_mngr.c ****             case VDM_CMD_DSC_SVIDS:
 441:..\src\app\alt_mode/vdm_task_mngr.c ****                 set_task(port, VDM_TASK_DISC_SVID);
 442:..\src\app\alt_mode/vdm_task_mngr.c ****                 break;
 443:..\src\app\alt_mode/vdm_task_mngr.c ****             default:
 444:..\src\app\alt_mode/vdm_task_mngr.c ****                 set_task(port, VDM_TASK_ALT_MODE);
 445:..\src\app\alt_mode/vdm_task_mngr.c ****                 break;
 446:..\src\app\alt_mode/vdm_task_mngr.c ****         }
 447:..\src\app\alt_mode/vdm_task_mngr.c **** #else /* ((DFP_ALT_MODE_SUPP) || (UFP_MODE_DISC_ENABLE)) */
 448:..\src\app\alt_mode/vdm_task_mngr.c ****         set_task(port, VDM_TASK_ALT_MODE);
 449:..\src\app\alt_mode/vdm_task_mngr.c **** #endif /* ((DFP_ALT_MODE_SUPP) || (UFP_MODE_DISC_ENABLE)) */
 450:..\src\app\alt_mode/vdm_task_mngr.c ****     }
 451:..\src\app\alt_mode/vdm_task_mngr.c **** }
 452:..\src\app\alt_mode/vdm_task_mngr.c **** 
 453:..\src\app\alt_mode/vdm_task_mngr.c **** #if ((DFP_ALT_MODE_SUPP) || (UFP_MODE_DISC_ENABLE))
 454:..\src\app\alt_mode/vdm_task_mngr.c **** 
 455:..\src\app\alt_mode/vdm_task_mngr.c **** static vdm_task_t vdm_task_mng_disc_id(uint8_t port, vdm_evt_t vdm_evt)
 456:..\src\app\alt_mode/vdm_task_mngr.c **** {
 457:..\src\app\alt_mode/vdm_task_mngr.c ****     vdm_msg_info_t *msg_p  = get_msg (port);
 458:..\src\app\alt_mode/vdm_task_mngr.c ****     vdm_task_t ret         = VDM_TASK_EXIT;
 459:..\src\app\alt_mode/vdm_task_mngr.c ****     const dpm_status_t *dpm_stat = dpm_get_info(port);
 460:..\src\app\alt_mode/vdm_task_mngr.c **** 
 461:..\src\app\alt_mode/vdm_task_mngr.c **** #if ((CCG_PD_REV3_ENABLE) && (UFP_ALT_MODE_SUPP) && (UFP_MODE_DISC_ENABLE))
 462:..\src\app\alt_mode/vdm_task_mngr.c ****     bool pd3_ufp = ((bool)(dpm_get_info(port)->spec_rev_sop_live >= PD_REV3) &&
 463:..\src\app\alt_mode/vdm_task_mngr.c ****             (gl_dpm_port_type[port] == PRT_TYPE_UFP));
 464:..\src\app\alt_mode/vdm_task_mngr.c **** #endif
 465:..\src\app\alt_mode/vdm_task_mngr.c **** 
 466:..\src\app\alt_mode/vdm_task_mngr.c ****     switch (vdm_evt)
 467:..\src\app\alt_mode/vdm_task_mngr.c ****     {
 468:..\src\app\alt_mode/vdm_task_mngr.c ****         case VDM_EVT_RUN:
 469:..\src\app\alt_mode/vdm_task_mngr.c ****             /* Form Discover ID VDM packet. */
 470:..\src\app\alt_mode/vdm_task_mngr.c ****             msg_p->vdm_header.val   = NO_DATA;
 471:..\src\app\alt_mode/vdm_task_mngr.c ****             msg_p->VDM_HDR.svid     = STD_SVID;
 472:..\src\app\alt_mode/vdm_task_mngr.c ****             msg_p->VDM_HDR.cmd      = VDM_CMD_DSC_IDENTITY;
 473:..\src\app\alt_mode/vdm_task_mngr.c ****             msg_p->vdo_numb         = NO_DATA;
 474:..\src\app\alt_mode/vdm_task_mngr.c ****             msg_p->sop_type         = SOP;
 475:..\src\app\alt_mode/vdm_task_mngr.c ****             msg_p->VDM_HDR.vdm_type = VDM_TYPE_STRUCTURED;
 476:..\src\app\alt_mode/vdm_task_mngr.c ****             ret                     = VDM_TASK_SEND_MSG;
 477:..\src\app\alt_mode/vdm_task_mngr.c ****             break;
 478:..\src\app\alt_mode/vdm_task_mngr.c **** 
 479:..\src\app\alt_mode/vdm_task_mngr.c ****             /* Evaluate received response */
 480:..\src\app\alt_mode/vdm_task_mngr.c ****         case VDM_EVT_EVAL:
 481:..\src\app\alt_mode/vdm_task_mngr.c ****             /* Check is current port date role DFP */
 482:..\src\app\alt_mode/vdm_task_mngr.c ****             if (gl_dpm_port_type[port] != PRT_TYPE_UFP)
 483:..\src\app\alt_mode/vdm_task_mngr.c ****             {
 484:..\src\app\alt_mode/vdm_task_mngr.c **** #if VDM_RESP_QUERY_SUPPORTED
 485:..\src\app\alt_mode/vdm_task_mngr.c ****                 /* Store the D_ID response received. */
 486:..\src\app\alt_mode/vdm_task_mngr.c ****                 vdm_disc_id_resp[port][0] = msg_p->vdm_header.val;
 487:..\src\app\alt_mode/vdm_task_mngr.c ****                 memcpy ((uint8_t *)&vdm_disc_id_resp[port][1], (uint8_t *)msg_p->vdo, msg_p->vdo_nu
ARM GAS  e:\temp\ccdoSeHU.s 			page 10


 488:..\src\app\alt_mode/vdm_task_mngr.c ****                 vdm_disc_id_resp_len[port] = msg_p->vdo_numb + 1;
 489:..\src\app\alt_mode/vdm_task_mngr.c **** #endif /* VDM_RESP_QUERY_SUPPORTED */
 490:..\src\app\alt_mode/vdm_task_mngr.c **** 
 491:..\src\app\alt_mode/vdm_task_mngr.c ****                 /* Set svid idx to zero before start DISC SVID */
 492:..\src\app\alt_mode/vdm_task_mngr.c ****                 vdm_stat[port].svid_idx  = NO_DATA;
 493:..\src\app\alt_mode/vdm_task_mngr.c ****                 vdm_stat[port].dsvid_cnt = 0;
 494:..\src\app\alt_mode/vdm_task_mngr.c **** 
 495:..\src\app\alt_mode/vdm_task_mngr.c ****                 /* Copy ID header to info struct */
 496:..\src\app\alt_mode/vdm_task_mngr.c ****                 vdm_stat[port].atch_tgt.ama_vdo.val = msg_p->vdo[PD_DISC_ID_AMA_VDO_IDX].val;
 497:..\src\app\alt_mode/vdm_task_mngr.c ****                 /* Copy AMA VDO to info struct */
 498:..\src\app\alt_mode/vdm_task_mngr.c ****                 vdm_stat[port].atch_tgt.tgt_id_header.val = msg_p->vdo[VDO_START_IDX - 1].val;
 499:..\src\app\alt_mode/vdm_task_mngr.c **** 
 500:..\src\app\alt_mode/vdm_task_mngr.c ****                 /* If AMA and cable (if present) do not need Vconn, disable VConn. */
 501:..\src\app\alt_mode/vdm_task_mngr.c ****                 if (
 502:..\src\app\alt_mode/vdm_task_mngr.c ****                         (dpm_stat->vconn_retain == 0) &&
 503:..\src\app\alt_mode/vdm_task_mngr.c ****                         ((msg_p->vdo[VDO_START_IDX - 1].std_id_hdr.prod_type != PROD_TYPE_AMA) ||
 504:..\src\app\alt_mode/vdm_task_mngr.c ****                             (msg_p->vdo[PD_DISC_ID_AMA_VDO_IDX].std_ama_vdo.vcon_req == 0)) &&
 505:..\src\app\alt_mode/vdm_task_mngr.c ****                         ((dpm_stat->emca_present == false) ||
 506:..\src\app\alt_mode/vdm_task_mngr.c ****                          (dpm_stat->cbl_vdo.std_cbl_vdo.cbl_term == CBL_TERM_BOTH_PAS_VCONN_NOT_REQ
 507:..\src\app\alt_mode/vdm_task_mngr.c ****                    )
 508:..\src\app\alt_mode/vdm_task_mngr.c ****                 {
 509:..\src\app\alt_mode/vdm_task_mngr.c ****                     vconn_disable(port, dpm_stat->rev_pol);
 510:..\src\app\alt_mode/vdm_task_mngr.c ****                 }
 511:..\src\app\alt_mode/vdm_task_mngr.c **** 
 512:..\src\app\alt_mode/vdm_task_mngr.c ****                 /* If alt modes not supported. */
 513:..\src\app\alt_mode/vdm_task_mngr.c ****                 if (msg_p->vdo[VDO_START_IDX - 1].std_id_hdr.mod_support == false)
 514:..\src\app\alt_mode/vdm_task_mngr.c ****                 {
 515:..\src\app\alt_mode/vdm_task_mngr.c ****                     break;
 516:..\src\app\alt_mode/vdm_task_mngr.c ****                 }
 517:..\src\app\alt_mode/vdm_task_mngr.c **** 
 518:..\src\app\alt_mode/vdm_task_mngr.c ****                 /* Send Disc SVID cmd */
 519:..\src\app\alt_mode/vdm_task_mngr.c ****                 set_evt(port, VDM_EVT_RUN);
 520:..\src\app\alt_mode/vdm_task_mngr.c ****                 ret = VDM_TASK_DISC_SVID;
 521:..\src\app\alt_mode/vdm_task_mngr.c ****             }
 522:..\src\app\alt_mode/vdm_task_mngr.c **** 
 523:..\src\app\alt_mode/vdm_task_mngr.c **** #if ((CCG_PD_REV3_ENABLE) && (UFP_ALT_MODE_SUPP) && (UFP_MODE_DISC_ENABLE))
 524:..\src\app\alt_mode/vdm_task_mngr.c ****             /* Check is current port date role UFP */
 525:..\src\app\alt_mode/vdm_task_mngr.c ****             if (pd3_ufp)
 526:..\src\app\alt_mode/vdm_task_mngr.c ****             {
 527:..\src\app\alt_mode/vdm_task_mngr.c ****                 /* Send Disc SVID cmd */
 528:..\src\app\alt_mode/vdm_task_mngr.c ****                 set_evt(port, VDM_EVT_RUN);
 529:..\src\app\alt_mode/vdm_task_mngr.c ****                 ret = VDM_TASK_DISC_SVID;
 530:..\src\app\alt_mode/vdm_task_mngr.c ****             }
 531:..\src\app\alt_mode/vdm_task_mngr.c **** #endif /* (CCG_PD_REV3_ENABLE) && (UFP_ALT_MODE_SUPP) && (UFP_MODE_DISC_ENABLE) */
 532:..\src\app\alt_mode/vdm_task_mngr.c ****             break;
 533:..\src\app\alt_mode/vdm_task_mngr.c **** 
 534:..\src\app\alt_mode/vdm_task_mngr.c **** #if ((CCG_PD_REV3_ENABLE) && (UFP_ALT_MODE_SUPP) && (UFP_MODE_DISC_ENABLE))
 535:..\src\app\alt_mode/vdm_task_mngr.c ****         case VDM_EVT_FAIL:
 536:..\src\app\alt_mode/vdm_task_mngr.c ****             /* Check is current port date role UFP */
 537:..\src\app\alt_mode/vdm_task_mngr.c ****             if (pd3_ufp)
 538:..\src\app\alt_mode/vdm_task_mngr.c ****             {
 539:..\src\app\alt_mode/vdm_task_mngr.c ****                 /* Send Disc SVID cmd */
 540:..\src\app\alt_mode/vdm_task_mngr.c ****                 set_evt(port, VDM_EVT_RUN);
 541:..\src\app\alt_mode/vdm_task_mngr.c ****                 ret = VDM_TASK_DISC_SVID;
 542:..\src\app\alt_mode/vdm_task_mngr.c ****             }
 543:..\src\app\alt_mode/vdm_task_mngr.c **** #endif /* (CCG_PD_REV3_ENABLE) && (UFP_ALT_MODE_SUPP) && (UFP_MODE_DISC_ENABLE) */
 544:..\src\app\alt_mode/vdm_task_mngr.c **** 
ARM GAS  e:\temp\ccdoSeHU.s 			page 11


 545:..\src\app\alt_mode/vdm_task_mngr.c ****         default:
 546:..\src\app\alt_mode/vdm_task_mngr.c ****             break;
 547:..\src\app\alt_mode/vdm_task_mngr.c ****     }
 548:..\src\app\alt_mode/vdm_task_mngr.c **** 
 549:..\src\app\alt_mode/vdm_task_mngr.c ****     return ret;
 550:..\src\app\alt_mode/vdm_task_mngr.c **** }
 551:..\src\app\alt_mode/vdm_task_mngr.c **** 
 552:..\src\app\alt_mode/vdm_task_mngr.c **** /* Checks if input SVID already saved. */
 553:..\src\app\alt_mode/vdm_task_mngr.c **** static bool is_svid_stored(uint16_t *svid_arr, uint16_t svid)
 554:..\src\app\alt_mode/vdm_task_mngr.c **** {
  27              		.loc 1 554 0
  28              		.cfi_startproc
  29              		@ args = 0, pretend = 0, frame = 0
  30              		@ frame_needed = 0, uses_anonymous_args = 0
  31              		@ link register save eliminated.
  32              	.LVL0:
 555:..\src\app\alt_mode/vdm_task_mngr.c ****     uint8_t  idx;
 556:..\src\app\alt_mode/vdm_task_mngr.c **** 
 557:..\src\app\alt_mode/vdm_task_mngr.c ****     /* Go through all SVIDs and compare with input SVID */
 558:..\src\app\alt_mode/vdm_task_mngr.c ****     for (idx = 0; idx < MAX_SVID_VDO_SUPP; idx++)
  33              		.loc 1 558 0
  34 0000 0023     		movs	r3, #0
  35 0002 05E0     		b	.L2
  36              	.LVL1:
  37              	.L4:
 559:..\src\app\alt_mode/vdm_task_mngr.c ****     {
 560:..\src\app\alt_mode/vdm_task_mngr.c ****         /* If input SVID already saved */
 561:..\src\app\alt_mode/vdm_task_mngr.c ****         if (svid_arr[idx] == svid)
  38              		.loc 1 561 0
  39 0004 5A00     		lsls	r2, r3, #1
  40 0006 125A     		ldrh	r2, [r2, r0]
  41 0008 8A42     		cmp	r2, r1
  42 000a 05D0     		beq	.L5
 558:..\src\app\alt_mode/vdm_task_mngr.c ****     {
  43              		.loc 1 558 0 discriminator 2
  44 000c 0133     		adds	r3, r3, #1
  45              	.LVL2:
  46 000e DBB2     		uxtb	r3, r3
  47              	.LVL3:
  48              	.L2:
 558:..\src\app\alt_mode/vdm_task_mngr.c ****     {
  49              		.loc 1 558 0 is_stmt 0 discriminator 1
  50 0010 032B     		cmp	r3, #3
  51 0012 F7D9     		bls	.L4
 562:..\src\app\alt_mode/vdm_task_mngr.c ****         {
 563:..\src\app\alt_mode/vdm_task_mngr.c ****             return true;
 564:..\src\app\alt_mode/vdm_task_mngr.c ****         }
 565:..\src\app\alt_mode/vdm_task_mngr.c ****     }
 566:..\src\app\alt_mode/vdm_task_mngr.c **** 
 567:..\src\app\alt_mode/vdm_task_mngr.c ****     return false;
  52              		.loc 1 567 0 is_stmt 1
  53 0014 0020     		movs	r0, #0
  54              	.LVL4:
  55 0016 00E0     		b	.L3
  56              	.LVL5:
  57              	.L5:
 563:..\src\app\alt_mode/vdm_task_mngr.c ****         }
ARM GAS  e:\temp\ccdoSeHU.s 			page 12


  58              		.loc 1 563 0
  59 0018 0120     		movs	r0, #1
  60              	.LVL6:
  61              	.L3:
 568:..\src\app\alt_mode/vdm_task_mngr.c **** }
  62              		.loc 1 568 0
  63              		@ sp needed
  64 001a 7047     		bx	lr
  65              		.cfi_endproc
  66              	.LFE40:
  67              		.size	is_svid_stored, .-is_svid_stored
  68              		.section	.text.sop_dp_soft_reset_cb,"ax",%progbits
  69              		.align	2
  70              		.code	16
  71              		.thumb_func
  72              		.type	sop_dp_soft_reset_cb, %function
  73              	sop_dp_soft_reset_cb:
  74              	.LFB46:
 569:..\src\app\alt_mode/vdm_task_mngr.c **** 
 570:..\src\app\alt_mode/vdm_task_mngr.c **** /*
 571:..\src\app\alt_mode/vdm_task_mngr.c ****    This function saves received Discover SVID resp,
 572:..\src\app\alt_mode/vdm_task_mngr.c ****    returns true if a NULL SVID was received.
 573:..\src\app\alt_mode/vdm_task_mngr.c ****  */
 574:..\src\app\alt_mode/vdm_task_mngr.c **** static bool save_svids(uint8_t port, uint16_t *svid_arr, uint8_t max_svid)
 575:..\src\app\alt_mode/vdm_task_mngr.c **** {
 576:..\src\app\alt_mode/vdm_task_mngr.c ****     uint8_t         idx, vdo_count;
 577:..\src\app\alt_mode/vdm_task_mngr.c ****     uint16_t        svid;
 578:..\src\app\alt_mode/vdm_task_mngr.c ****     uint8_t         svid_idx = vdm_stat[port].svid_idx;
 579:..\src\app\alt_mode/vdm_task_mngr.c ****     bool            retval   = false;
 580:..\src\app\alt_mode/vdm_task_mngr.c ****     vdm_msg_info_t  *msg_p   = get_msg (port);
 581:..\src\app\alt_mode/vdm_task_mngr.c **** 
 582:..\src\app\alt_mode/vdm_task_mngr.c ****     /* Compare received SVIDs with supported SVIDs */
 583:..\src\app\alt_mode/vdm_task_mngr.c ****     vdo_count = msg_p->vdo_numb;
 584:..\src\app\alt_mode/vdm_task_mngr.c **** 
 585:..\src\app\alt_mode/vdm_task_mngr.c ****     /* Stop further discovery if this response does not have the maximum no. of DOs. */
 586:..\src\app\alt_mode/vdm_task_mngr.c ****     if (vdo_count < (MAX_NO_OF_DO - 1))
 587:..\src\app\alt_mode/vdm_task_mngr.c ****     {
 588:..\src\app\alt_mode/vdm_task_mngr.c ****         retval = true;
 589:..\src\app\alt_mode/vdm_task_mngr.c ****     }
 590:..\src\app\alt_mode/vdm_task_mngr.c **** 
 591:..\src\app\alt_mode/vdm_task_mngr.c ****     for (idx = 0; idx < (vdo_count * 2); idx++)
 592:..\src\app\alt_mode/vdm_task_mngr.c ****     {
 593:..\src\app\alt_mode/vdm_task_mngr.c ****         if ((idx & 1) == 0)
 594:..\src\app\alt_mode/vdm_task_mngr.c ****         {
 595:..\src\app\alt_mode/vdm_task_mngr.c ****             /* Upper half of the DO. */
 596:..\src\app\alt_mode/vdm_task_mngr.c ****             svid = msg_p->vdo[idx >> 1].val >> 16u;
 597:..\src\app\alt_mode/vdm_task_mngr.c ****         }
 598:..\src\app\alt_mode/vdm_task_mngr.c ****         else
 599:..\src\app\alt_mode/vdm_task_mngr.c ****         {
 600:..\src\app\alt_mode/vdm_task_mngr.c ****             /* Lower half of the DO. */
 601:..\src\app\alt_mode/vdm_task_mngr.c ****             svid = msg_p->vdo[idx >> 1].val & 0xFFFFu;
 602:..\src\app\alt_mode/vdm_task_mngr.c ****         }
 603:..\src\app\alt_mode/vdm_task_mngr.c **** 
 604:..\src\app\alt_mode/vdm_task_mngr.c ****         if (svid_idx < (max_svid - 1))
 605:..\src\app\alt_mode/vdm_task_mngr.c ****         {
 606:..\src\app\alt_mode/vdm_task_mngr.c ****             /* Stop on NULL SVID. */
 607:..\src\app\alt_mode/vdm_task_mngr.c ****             if (svid == NO_DATA)
ARM GAS  e:\temp\ccdoSeHU.s 			page 13


 608:..\src\app\alt_mode/vdm_task_mngr.c ****             {
 609:..\src\app\alt_mode/vdm_task_mngr.c ****                 retval = true;
 610:..\src\app\alt_mode/vdm_task_mngr.c ****             }
 611:..\src\app\alt_mode/vdm_task_mngr.c ****             else
 612:..\src\app\alt_mode/vdm_task_mngr.c ****             {
 613:..\src\app\alt_mode/vdm_task_mngr.c ****                 /* If SVID not saved previously then save */
 614:..\src\app\alt_mode/vdm_task_mngr.c ****                 if (is_svid_stored(svid_arr, svid) == false)
 615:..\src\app\alt_mode/vdm_task_mngr.c ****                 {
 616:..\src\app\alt_mode/vdm_task_mngr.c **** #if SAVE_SUPP_SVID_ONLY
 617:..\src\app\alt_mode/vdm_task_mngr.c ****                     if (is_svid_supported(svid, port) != false)
 618:..\src\app\alt_mode/vdm_task_mngr.c **** #endif /* SAVE_SUPP_SVID_ONLY */
 619:..\src\app\alt_mode/vdm_task_mngr.c ****                     {
 620:..\src\app\alt_mode/vdm_task_mngr.c ****                         svid_arr[svid_idx] = svid;
 621:..\src\app\alt_mode/vdm_task_mngr.c ****                         svid_idx++;
 622:..\src\app\alt_mode/vdm_task_mngr.c ****                     }
 623:..\src\app\alt_mode/vdm_task_mngr.c ****                 }
 624:..\src\app\alt_mode/vdm_task_mngr.c ****             }
 625:..\src\app\alt_mode/vdm_task_mngr.c ****         }
 626:..\src\app\alt_mode/vdm_task_mngr.c ****         else
 627:..\src\app\alt_mode/vdm_task_mngr.c ****         {
 628:..\src\app\alt_mode/vdm_task_mngr.c ****             /* Cannot continue as we have no more space. */
 629:..\src\app\alt_mode/vdm_task_mngr.c ****             retval = true;
 630:..\src\app\alt_mode/vdm_task_mngr.c ****             break;
 631:..\src\app\alt_mode/vdm_task_mngr.c ****         }
 632:..\src\app\alt_mode/vdm_task_mngr.c ****     }
 633:..\src\app\alt_mode/vdm_task_mngr.c **** 
 634:..\src\app\alt_mode/vdm_task_mngr.c ****     /* Set zero after last SVID in info */
 635:..\src\app\alt_mode/vdm_task_mngr.c ****     svid_arr[svid_idx] = NO_DATA;
 636:..\src\app\alt_mode/vdm_task_mngr.c ****     vdm_stat[port].svid_idx = svid_idx;
 637:..\src\app\alt_mode/vdm_task_mngr.c **** 
 638:..\src\app\alt_mode/vdm_task_mngr.c ****     /* Terminate discovery after MAX_DISC_SVID_COUNT attempts. */
 639:..\src\app\alt_mode/vdm_task_mngr.c ****     vdm_stat[port].dsvid_cnt++;
 640:..\src\app\alt_mode/vdm_task_mngr.c ****     if (vdm_stat[port].dsvid_cnt >= MAX_DISC_SVID_COUNT)
 641:..\src\app\alt_mode/vdm_task_mngr.c ****         retval = true;
 642:..\src\app\alt_mode/vdm_task_mngr.c **** 
 643:..\src\app\alt_mode/vdm_task_mngr.c ****     return retval;
 644:..\src\app\alt_mode/vdm_task_mngr.c **** }
 645:..\src\app\alt_mode/vdm_task_mngr.c **** 
 646:..\src\app\alt_mode/vdm_task_mngr.c **** static void set_disc_svid_param (uint8_t port, uint8_t sop)
 647:..\src\app\alt_mode/vdm_task_mngr.c **** {
 648:..\src\app\alt_mode/vdm_task_mngr.c ****     vdm_msg_info_t *msg_p = get_msg (port);
 649:..\src\app\alt_mode/vdm_task_mngr.c **** 
 650:..\src\app\alt_mode/vdm_task_mngr.c ****     msg_p->vdm_header.val   = NO_DATA;
 651:..\src\app\alt_mode/vdm_task_mngr.c ****     msg_p->VDM_HDR.svid     = STD_SVID;
 652:..\src\app\alt_mode/vdm_task_mngr.c ****     msg_p->VDM_HDR.cmd      = VDM_CMD_DSC_SVIDS;
 653:..\src\app\alt_mode/vdm_task_mngr.c ****     msg_p->VDM_HDR.obj_pos  = NO_DATA;
 654:..\src\app\alt_mode/vdm_task_mngr.c ****     msg_p->sop_type         = sop;
 655:..\src\app\alt_mode/vdm_task_mngr.c ****     msg_p->vdo_numb         = NO_DATA;
 656:..\src\app\alt_mode/vdm_task_mngr.c ****     msg_p->VDM_HDR.vdm_type = VDM_TYPE_STRUCTURED;
 657:..\src\app\alt_mode/vdm_task_mngr.c **** }
 658:..\src\app\alt_mode/vdm_task_mngr.c **** 
 659:..\src\app\alt_mode/vdm_task_mngr.c **** static vdm_task_t vdm_task_mng_disc_svid(uint8_t port, vdm_evt_t vdm_evt)
 660:..\src\app\alt_mode/vdm_task_mngr.c **** {
 661:..\src\app\alt_mode/vdm_task_mngr.c ****     vdm_task_t ret               = VDM_TASK_EXIT;
 662:..\src\app\alt_mode/vdm_task_mngr.c ****     const dpm_status_t *dpm_stat = dpm_get_info(port);
 663:..\src\app\alt_mode/vdm_task_mngr.c ****     vdm_msg_info_t *msg_p        = get_msg (port);
 664:..\src\app\alt_mode/vdm_task_mngr.c **** #if VDM_RESP_QUERY_SUPPORTED
ARM GAS  e:\temp\ccdoSeHU.s 			page 14


 665:..\src\app\alt_mode/vdm_task_mngr.c ****     uint32_t tmp;
 666:..\src\app\alt_mode/vdm_task_mngr.c **** #endif /* VDM_RESP_QUERY_SUPPORTED */
 667:..\src\app\alt_mode/vdm_task_mngr.c **** 
 668:..\src\app\alt_mode/vdm_task_mngr.c **** #if ((CCG_PD_REV3_ENABLE) && (UFP_ALT_MODE_SUPP) && (UFP_MODE_DISC_ENABLE))
 669:..\src\app\alt_mode/vdm_task_mngr.c ****     bool pd3_ufp = ((bool)(dpm_stat->spec_rev_sop_live >= PD_REV3) &&
 670:..\src\app\alt_mode/vdm_task_mngr.c ****             (gl_dpm_port_type[port] == PRT_TYPE_UFP));
 671:..\src\app\alt_mode/vdm_task_mngr.c **** #endif
 672:..\src\app\alt_mode/vdm_task_mngr.c **** 
 673:..\src\app\alt_mode/vdm_task_mngr.c ****     switch (vdm_evt)
 674:..\src\app\alt_mode/vdm_task_mngr.c ****     {
 675:..\src\app\alt_mode/vdm_task_mngr.c ****         case VDM_EVT_RUN:
 676:..\src\app\alt_mode/vdm_task_mngr.c ****             /* Form Discover SVID VDM packet */
 677:..\src\app\alt_mode/vdm_task_mngr.c ****             set_disc_svid_param (port, SOP);
 678:..\src\app\alt_mode/vdm_task_mngr.c ****             ret = VDM_TASK_SEND_MSG;
 679:..\src\app\alt_mode/vdm_task_mngr.c ****             break;
 680:..\src\app\alt_mode/vdm_task_mngr.c **** 
 681:..\src\app\alt_mode/vdm_task_mngr.c ****         case VDM_EVT_EVAL:
 682:..\src\app\alt_mode/vdm_task_mngr.c ****             /* Check is current port date role DFP */
 683:..\src\app\alt_mode/vdm_task_mngr.c ****             if (gl_dpm_port_type[port] != PRT_TYPE_UFP)
 684:..\src\app\alt_mode/vdm_task_mngr.c ****             {
 685:..\src\app\alt_mode/vdm_task_mngr.c ****                 /* For attached target response */
 686:..\src\app\alt_mode/vdm_task_mngr.c ****                 if (msg_p->sop_type == (uint8_t)SOP)
 687:..\src\app\alt_mode/vdm_task_mngr.c ****                 {
 688:..\src\app\alt_mode/vdm_task_mngr.c **** #if VDM_RESP_QUERY_SUPPORTED
 689:..\src\app\alt_mode/vdm_task_mngr.c ****                     if (vdm_stat[port].svid_idx == 0)
 690:..\src\app\alt_mode/vdm_task_mngr.c ****                     {
 691:..\src\app\alt_mode/vdm_task_mngr.c ****                         /* Save the DISC_SVID response. */
 692:..\src\app\alt_mode/vdm_task_mngr.c ****                         vdm_disc_svid_resp[port][0] = msg_p->vdm_header.val;
 693:..\src\app\alt_mode/vdm_task_mngr.c ****                         memcpy ((uint8_t *)&vdm_disc_svid_resp[port][1], (uint8_t *)msg_p->vdo, msg
 694:..\src\app\alt_mode/vdm_task_mngr.c ****                         vdm_disc_svid_resp_len[port] = msg_p->vdo_numb + 1;
 695:..\src\app\alt_mode/vdm_task_mngr.c ****                     }
 696:..\src\app\alt_mode/vdm_task_mngr.c ****                     else
 697:..\src\app\alt_mode/vdm_task_mngr.c ****                     {
 698:..\src\app\alt_mode/vdm_task_mngr.c ****                         /* Save the incremental DISC_SVID response. */
 699:..\src\app\alt_mode/vdm_task_mngr.c ****                         tmp = GET_MIN (msg_p->vdo_numb, MAX_DISC_SVID_RESP_LEN - vdm_disc_svid_resp
 700:..\src\app\alt_mode/vdm_task_mngr.c ****                         memcpy ((uint8_t *)&vdm_disc_svid_resp[port][vdm_disc_svid_resp_len[port]],
 701:..\src\app\alt_mode/vdm_task_mngr.c ****                                 tmp * sizeof (uint32_t));
 702:..\src\app\alt_mode/vdm_task_mngr.c ****                         vdm_disc_svid_resp_len[port] += tmp;
 703:..\src\app\alt_mode/vdm_task_mngr.c ****                     }
 704:..\src\app\alt_mode/vdm_task_mngr.c **** #endif /* VDM_RESP_QUERY_SUPPORTED */
 705:..\src\app\alt_mode/vdm_task_mngr.c **** 
 706:..\src\app\alt_mode/vdm_task_mngr.c ****                     if (msg_p->vdo[0].val == NONE_VDO)
 707:..\src\app\alt_mode/vdm_task_mngr.c ****                     {
 708:..\src\app\alt_mode/vdm_task_mngr.c ****                         /* No SVID supported */
 709:..\src\app\alt_mode/vdm_task_mngr.c ****                         break;
 710:..\src\app\alt_mode/vdm_task_mngr.c ****                     }
 711:..\src\app\alt_mode/vdm_task_mngr.c **** 
 712:..\src\app\alt_mode/vdm_task_mngr.c ****                     /* Save received SVIDs and check if a NULL SVID was received. */
 713:..\src\app\alt_mode/vdm_task_mngr.c ****                     if (save_svids (port, vdm_stat[port].atch_tgt.tgt_svid, MAX_SVID_VDO_SUPP) != f
 714:..\src\app\alt_mode/vdm_task_mngr.c ****                     {
 715:..\src\app\alt_mode/vdm_task_mngr.c ****                         /* If cable was detected and supports alternate modes, send SOP' disc svid 
 716:..\src\app\alt_mode/vdm_task_mngr.c ****                         if ((dpm_stat->emca_present != false) &&
 717:..\src\app\alt_mode/vdm_task_mngr.c ****                                 (dpm_stat->cbl_mode_en != false))
 718:..\src\app\alt_mode/vdm_task_mngr.c ****                         {
 719:..\src\app\alt_mode/vdm_task_mngr.c ****                             if (
 720:..\src\app\alt_mode/vdm_task_mngr.c ****                                     (dpm_stat->vconn_logical)
 721:..\src\app\alt_mode/vdm_task_mngr.c ****                             #if VCONN_OCP_ENABLE
ARM GAS  e:\temp\ccdoSeHU.s 			page 15


 722:..\src\app\alt_mode/vdm_task_mngr.c ****                                     && ((app_get_status(port)->fault_status & APP_PORT_VCONN_FAULT_
 723:..\src\app\alt_mode/vdm_task_mngr.c ****                             #endif /* VCONN_OCP_ENABLE */
 724:..\src\app\alt_mode/vdm_task_mngr.c ****                                )
 725:..\src\app\alt_mode/vdm_task_mngr.c ****                             {
 726:..\src\app\alt_mode/vdm_task_mngr.c ****                                 if (!vconn_is_present (port))
 727:..\src\app\alt_mode/vdm_task_mngr.c ****                                 {
 728:..\src\app\alt_mode/vdm_task_mngr.c ****                                     /*
 729:..\src\app\alt_mode/vdm_task_mngr.c ****                                      * We are VConn source and VConn is off. Enable and apply a del
 730:..\src\app\alt_mode/vdm_task_mngr.c ****                                      * the EMCA power up.
 731:..\src\app\alt_mode/vdm_task_mngr.c ****                                      */
 732:..\src\app\alt_mode/vdm_task_mngr.c ****                                     vconn_enable (port, dpm_stat->rev_pol);
 733:..\src\app\alt_mode/vdm_task_mngr.c **** 
 734:..\src\app\alt_mode/vdm_task_mngr.c ****                                     /* Start a timer to delay the retry attempt. */
 735:..\src\app\alt_mode/vdm_task_mngr.c ****                                     timer_start(port, APP_VDM_BUSY_TIMER, APP_CABLE_POWER_UP_DELAY,
 736:..\src\app\alt_mode/vdm_task_mngr.c ****                                 }
 737:..\src\app\alt_mode/vdm_task_mngr.c **** 
 738:..\src\app\alt_mode/vdm_task_mngr.c ****                                 vdm_stat[port].svid_idx  = 0;
 739:..\src\app\alt_mode/vdm_task_mngr.c ****                                 vdm_stat[port].dsvid_cnt = 0;
 740:..\src\app\alt_mode/vdm_task_mngr.c ****                                 set_disc_svid_param (port, SOP_PRIME);
 741:..\src\app\alt_mode/vdm_task_mngr.c ****                                 ret = VDM_TASK_SEND_MSG;
 742:..\src\app\alt_mode/vdm_task_mngr.c ****                             }
 743:..\src\app\alt_mode/vdm_task_mngr.c ****                             else
 744:..\src\app\alt_mode/vdm_task_mngr.c ****                             {
 745:..\src\app\alt_mode/vdm_task_mngr.c ****                                 /*
 746:..\src\app\alt_mode/vdm_task_mngr.c ****                                  * We are not VConn source. This should not happen as stack will en
 747:..\src\app\alt_mode/vdm_task_mngr.c ****                                  * we are VConn source. Skip SOP' checks in the unlikely case where
 748:..\src\app\alt_mode/vdm_task_mngr.c ****                                  * happens.
 749:..\src\app\alt_mode/vdm_task_mngr.c ****                                  */
 750:..\src\app\alt_mode/vdm_task_mngr.c ****                                 set_evt(port, VDM_EVT_RUN);
 751:..\src\app\alt_mode/vdm_task_mngr.c ****                                 ret = VDM_TASK_REG_ATCH_TGT_INFO;
 752:..\src\app\alt_mode/vdm_task_mngr.c ****                             }
 753:..\src\app\alt_mode/vdm_task_mngr.c ****                         }
 754:..\src\app\alt_mode/vdm_task_mngr.c ****                         else
 755:..\src\app\alt_mode/vdm_task_mngr.c ****                         {
 756:..\src\app\alt_mode/vdm_task_mngr.c ****                             /* Goto register info in alt modes mngr */
 757:..\src\app\alt_mode/vdm_task_mngr.c ****                             set_evt(port, VDM_EVT_RUN);
 758:..\src\app\alt_mode/vdm_task_mngr.c ****                             ret = VDM_TASK_REG_ATCH_TGT_INFO;
 759:..\src\app\alt_mode/vdm_task_mngr.c ****                         }
 760:..\src\app\alt_mode/vdm_task_mngr.c ****                     }
 761:..\src\app\alt_mode/vdm_task_mngr.c ****                     else
 762:..\src\app\alt_mode/vdm_task_mngr.c ****                     {
 763:..\src\app\alt_mode/vdm_task_mngr.c ****                         /* If not all SVID received, ask for the next set of SVIDs. */
 764:..\src\app\alt_mode/vdm_task_mngr.c ****                         set_disc_svid_param (port, SOP);
 765:..\src\app\alt_mode/vdm_task_mngr.c ****                         ret = VDM_TASK_SEND_MSG;
 766:..\src\app\alt_mode/vdm_task_mngr.c ****                     }
 767:..\src\app\alt_mode/vdm_task_mngr.c ****                 }
 768:..\src\app\alt_mode/vdm_task_mngr.c ****                 /* For cable response */
 769:..\src\app\alt_mode/vdm_task_mngr.c ****                 else
 770:..\src\app\alt_mode/vdm_task_mngr.c ****                 {
 771:..\src\app\alt_mode/vdm_task_mngr.c ****                     /* If the EMCA returned any DOs, save the content. */
 772:..\src\app\alt_mode/vdm_task_mngr.c ****                     if ((msg_p->vdo[VDO_START_IDX - 1].val != NONE_VDO) &&
 773:..\src\app\alt_mode/vdm_task_mngr.c ****                             (save_svids(port, vdm_stat[port].atch_tgt.cbl_svid, MAX_CABLE_SVID_SUPP
 774:..\src\app\alt_mode/vdm_task_mngr.c ****                     {
 775:..\src\app\alt_mode/vdm_task_mngr.c ****                         /* If not all SVID received, ask for the next set of SVIDs. */
 776:..\src\app\alt_mode/vdm_task_mngr.c ****                         set_disc_svid_param (port, SOP_PRIME);
 777:..\src\app\alt_mode/vdm_task_mngr.c ****                         ret = VDM_TASK_SEND_MSG;
 778:..\src\app\alt_mode/vdm_task_mngr.c ****                     }
ARM GAS  e:\temp\ccdoSeHU.s 			page 16


 779:..\src\app\alt_mode/vdm_task_mngr.c ****                     else
 780:..\src\app\alt_mode/vdm_task_mngr.c ****                     {
 781:..\src\app\alt_mode/vdm_task_mngr.c ****                         /*
 782:..\src\app\alt_mode/vdm_task_mngr.c ****                            If EMCA did not support any SVIDs of interest and does not require VConn
 783:..\src\app\alt_mode/vdm_task_mngr.c ****                            we can disable VConn.
 784:..\src\app\alt_mode/vdm_task_mngr.c ****                          */
 785:..\src\app\alt_mode/vdm_task_mngr.c ****                         if (vdm_stat[port].atch_tgt.cbl_svid[0] == NO_DATA)
 786:..\src\app\alt_mode/vdm_task_mngr.c ****                         {
 787:..\src\app\alt_mode/vdm_task_mngr.c ****                             if (
 788:..\src\app\alt_mode/vdm_task_mngr.c ****                                     (dpm_stat->vconn_retain == 0) &&
 789:..\src\app\alt_mode/vdm_task_mngr.c ****                                     (dpm_stat->cbl_vdo.std_cbl_vdo.cbl_term == CBL_TERM_BOTH_PAS_VC
 790:..\src\app\alt_mode/vdm_task_mngr.c ****                                )
 791:..\src\app\alt_mode/vdm_task_mngr.c ****                             {
 792:..\src\app\alt_mode/vdm_task_mngr.c ****                                 vconn_disable(port, dpm_stat->rev_pol);
 793:..\src\app\alt_mode/vdm_task_mngr.c ****                             }
 794:..\src\app\alt_mode/vdm_task_mngr.c ****                         }
 795:..\src\app\alt_mode/vdm_task_mngr.c **** 
 796:..\src\app\alt_mode/vdm_task_mngr.c ****                         /* Move to the next step. */
 797:..\src\app\alt_mode/vdm_task_mngr.c ****                         set_evt(port, VDM_EVT_RUN);
 798:..\src\app\alt_mode/vdm_task_mngr.c ****                         ret = VDM_TASK_REG_ATCH_TGT_INFO;
 799:..\src\app\alt_mode/vdm_task_mngr.c ****                     }
 800:..\src\app\alt_mode/vdm_task_mngr.c ****                 }
 801:..\src\app\alt_mode/vdm_task_mngr.c ****             }
 802:..\src\app\alt_mode/vdm_task_mngr.c **** 
 803:..\src\app\alt_mode/vdm_task_mngr.c **** #if ((CCG_PD_REV3_ENABLE) && (UFP_ALT_MODE_SUPP) && (UFP_MODE_DISC_ENABLE))
 804:..\src\app\alt_mode/vdm_task_mngr.c ****             /* Check is current port date role UFP */
 805:..\src\app\alt_mode/vdm_task_mngr.c ****             if (pd3_ufp)
 806:..\src\app\alt_mode/vdm_task_mngr.c ****             {
 807:..\src\app\alt_mode/vdm_task_mngr.c ****                 /* Send Disc SVID cmd */
 808:..\src\app\alt_mode/vdm_task_mngr.c ****                 set_evt(port, VDM_EVT_RUN);
 809:..\src\app\alt_mode/vdm_task_mngr.c ****                 ret = VDM_TASK_REG_ATCH_TGT_INFO;
 810:..\src\app\alt_mode/vdm_task_mngr.c ****             }
 811:..\src\app\alt_mode/vdm_task_mngr.c **** #endif /* (CCG_PD_REV3_ENABLE) && (UFP_ALT_MODE_SUPP) && (UFP_MODE_DISC_ENABLE) */
 812:..\src\app\alt_mode/vdm_task_mngr.c ****             break;
 813:..\src\app\alt_mode/vdm_task_mngr.c **** 
 814:..\src\app\alt_mode/vdm_task_mngr.c ****         case VDM_EVT_FAIL:
 815:..\src\app\alt_mode/vdm_task_mngr.c ****             /* If cable SVID fails */
 816:..\src\app\alt_mode/vdm_task_mngr.c ****             if (msg_p->sop_type == (uint8_t)SOP_PRIME)
 817:..\src\app\alt_mode/vdm_task_mngr.c ****             {
 818:..\src\app\alt_mode/vdm_task_mngr.c ****                 set_evt(port, VDM_EVT_RUN);
 819:..\src\app\alt_mode/vdm_task_mngr.c ****                 ret = VDM_TASK_REG_ATCH_TGT_INFO;
 820:..\src\app\alt_mode/vdm_task_mngr.c ****             }
 821:..\src\app\alt_mode/vdm_task_mngr.c ****             break;
 822:..\src\app\alt_mode/vdm_task_mngr.c **** 
 823:..\src\app\alt_mode/vdm_task_mngr.c ****         default:
 824:..\src\app\alt_mode/vdm_task_mngr.c ****             break;
 825:..\src\app\alt_mode/vdm_task_mngr.c ****     }
 826:..\src\app\alt_mode/vdm_task_mngr.c **** 
 827:..\src\app\alt_mode/vdm_task_mngr.c ****     return ret;
 828:..\src\app\alt_mode/vdm_task_mngr.c **** }
 829:..\src\app\alt_mode/vdm_task_mngr.c **** 
 830:..\src\app\alt_mode/vdm_task_mngr.c **** #endif /* ((DFP_ALT_MODE_SUPP) || (UFP_MODE_DISC_ENABLE)) */
 831:..\src\app\alt_mode/vdm_task_mngr.c **** 
 832:..\src\app\alt_mode/vdm_task_mngr.c **** static void reset_vdm_mngr(uint8_t port)
 833:..\src\app\alt_mode/vdm_task_mngr.c **** {
 834:..\src\app\alt_mode/vdm_task_mngr.c ****     vdm_stat[port].rec_retry_cnt = NO_DATA;
 835:..\src\app\alt_mode/vdm_task_mngr.c ****     vdm_stat[port].svid_idx      = NO_DATA;
ARM GAS  e:\temp\ccdoSeHU.s 			page 17


 836:..\src\app\alt_mode/vdm_task_mngr.c ****     vdm_stat[port].dsvid_cnt     = NO_DATA;
 837:..\src\app\alt_mode/vdm_task_mngr.c ****     /* Clear arrays which hold SVIDs */
 838:..\src\app\alt_mode/vdm_task_mngr.c ****     memset(&vdm_stat[port].atch_tgt, NO_DATA, sizeof(atch_tgt_info_t));
 839:..\src\app\alt_mode/vdm_task_mngr.c ****     /* Store the pointer to the cable VDO discovered by PD stack. */
 840:..\src\app\alt_mode/vdm_task_mngr.c ****     vdm_stat[port].atch_tgt.cbl_vdo = &(dpm_get_info(port)->cbl_vdo);
 841:..\src\app\alt_mode/vdm_task_mngr.c ****     /* Clear the SOP'' reset state. */
 842:..\src\app\alt_mode/vdm_task_mngr.c ****     vdm_emca_rst_state[port] = CABLE_DP_RESET_IDLE;
 843:..\src\app\alt_mode/vdm_task_mngr.c ****     vdm_emca_rst_count[port] = 0;
 844:..\src\app\alt_mode/vdm_task_mngr.c **** 
 845:..\src\app\alt_mode/vdm_task_mngr.c ****     /* Stop the VDM task delay timer. */
 846:..\src\app\alt_mode/vdm_task_mngr.c ****     timer_stop(port, APP_VDM_BUSY_TIMER);
 847:..\src\app\alt_mode/vdm_task_mngr.c **** 
 848:..\src\app\alt_mode/vdm_task_mngr.c **** #if VDM_RESP_QUERY_SUPPORTED
 849:..\src\app\alt_mode/vdm_task_mngr.c ****     vdm_disc_id_resp_len[port] = 0;
 850:..\src\app\alt_mode/vdm_task_mngr.c ****     memset ((uint8_t *)&vdm_disc_id_resp[port], 0, MAX_NO_OF_DO * sizeof (uint32_t));
 851:..\src\app\alt_mode/vdm_task_mngr.c ****     vdm_disc_svid_resp_len[port] = 0;
 852:..\src\app\alt_mode/vdm_task_mngr.c ****     memset ((uint8_t *)&vdm_disc_svid_resp[port], 0, MAX_DISC_SVID_RESP_LEN * sizeof (uint32_t));
 853:..\src\app\alt_mode/vdm_task_mngr.c **** #endif /* VDM_RESP_QUERY_SUPPORTED */
 854:..\src\app\alt_mode/vdm_task_mngr.c **** }
 855:..\src\app\alt_mode/vdm_task_mngr.c **** 
 856:..\src\app\alt_mode/vdm_task_mngr.c **** void vdm_task_mngr_deinit(uint8_t port)
 857:..\src\app\alt_mode/vdm_task_mngr.c **** {
 858:..\src\app\alt_mode/vdm_task_mngr.c ****     /* CDT 247011 re-fix */
 859:..\src\app\alt_mode/vdm_task_mngr.c ****     app_get_status(port)->vdm_prcs_failed = false;
 860:..\src\app\alt_mode/vdm_task_mngr.c ****     /* If VDM task is not active, no need to go through the rest of the steps. */
 861:..\src\app\alt_mode/vdm_task_mngr.c ****     if (app_get_status(port)->vdm_task_en != false)
 862:..\src\app\alt_mode/vdm_task_mngr.c ****     {
 863:..\src\app\alt_mode/vdm_task_mngr.c ****         reset_vdm_mngr(port);
 864:..\src\app\alt_mode/vdm_task_mngr.c ****         app_get_status(port)->vdm_task_en = false;
 865:..\src\app\alt_mode/vdm_task_mngr.c ****         app_get_status(port)->alt_mode_entered = false;
 866:..\src\app\alt_mode/vdm_task_mngr.c ****         /* Exit from alt mode manager */
 867:..\src\app\alt_mode/vdm_task_mngr.c ****         vdm_task_mngr_alt_mode_process(port, VDM_EVT_EXIT);
 868:..\src\app\alt_mode/vdm_task_mngr.c ****         /* Deinit App HW */
 869:..\src\app\alt_mode/vdm_task_mngr.c ****         alt_mode_hw_deinit(port);
 870:..\src\app\alt_mode/vdm_task_mngr.c ****     }
 871:..\src\app\alt_mode/vdm_task_mngr.c **** }
 872:..\src\app\alt_mode/vdm_task_mngr.c **** 
 873:..\src\app\alt_mode/vdm_task_mngr.c **** static void sop_dp_soft_reset_cb(uint8_t port, resp_status_t resp, const pd_packet_t *pkt_ptr)
 874:..\src\app\alt_mode/vdm_task_mngr.c **** {
  75              		.loc 1 874 0
  76              		.cfi_startproc
  77              		@ args = 0, pretend = 0, frame = 0
  78              		@ frame_needed = 0, uses_anonymous_args = 0
  79              		@ link register save eliminated.
  80              	.LVL7:
 875:..\src\app\alt_mode/vdm_task_mngr.c ****     switch (resp)
  81              		.loc 1 875 0
  82 0000 0329     		cmp	r1, #3
  83 0002 14D0     		beq	.L6
  84 0004 0429     		cmp	r1, #4
  85 0006 03D1     		bne	.L11
 876:..\src\app\alt_mode/vdm_task_mngr.c ****     {
 877:..\src\app\alt_mode/vdm_task_mngr.c ****         case CMD_SENT:
 878:..\src\app\alt_mode/vdm_task_mngr.c ****             /* Do nothing. */
 879:..\src\app\alt_mode/vdm_task_mngr.c ****             break;
 880:..\src\app\alt_mode/vdm_task_mngr.c **** 
 881:..\src\app\alt_mode/vdm_task_mngr.c ****         case RES_RCVD:
ARM GAS  e:\temp\ccdoSeHU.s 			page 18


 882:..\src\app\alt_mode/vdm_task_mngr.c ****             /* Proceed with rest of alternate mode state machine. */
 883:..\src\app\alt_mode/vdm_task_mngr.c ****             vdm_emca_rst_state[port] = CABLE_DP_RESET_DONE;
  86              		.loc 1 883 0
  87 0008 0322     		movs	r2, #3
  88              	.LVL8:
  89 000a 094B     		ldr	r3, .L12
  90 000c 1A54     		strb	r2, [r3, r0]
 884:..\src\app\alt_mode/vdm_task_mngr.c ****             break;
  91              		.loc 1 884 0
  92 000e 0EE0     		b	.L6
  93              	.LVL9:
  94              	.L11:
 885:..\src\app\alt_mode/vdm_task_mngr.c **** 
 886:..\src\app\alt_mode/vdm_task_mngr.c ****         default:
 887:..\src\app\alt_mode/vdm_task_mngr.c ****             /* Retry the cable SOFT_RESET. */
 888:..\src\app\alt_mode/vdm_task_mngr.c ****             vdm_emca_rst_count[port]++;
  95              		.loc 1 888 0
  96 0010 074A     		ldr	r2, .L12
  97              	.LVL10:
  98 0012 1218     		adds	r2, r2, r0
  99 0014 1379     		ldrb	r3, [r2, #4]
 100 0016 0133     		adds	r3, r3, #1
 101 0018 DBB2     		uxtb	r3, r3
 102 001a 1371     		strb	r3, [r2, #4]
 889:..\src\app\alt_mode/vdm_task_mngr.c ****             if (vdm_emca_rst_count[port] >= MAX_EMCA_DP_RESET_COUNT)
 103              		.loc 1 889 0
 104 001c 022B     		cmp	r3, #2
 105 001e 03D9     		bls	.L10
 890:..\src\app\alt_mode/vdm_task_mngr.c ****             {
 891:..\src\app\alt_mode/vdm_task_mngr.c ****                 vdm_emca_rst_state[port] = CABLE_DP_RESET_DONE;
 106              		.loc 1 891 0
 107 0020 0322     		movs	r2, #3
 108 0022 034B     		ldr	r3, .L12
 109 0024 1A54     		strb	r2, [r3, r0]
 110 0026 02E0     		b	.L6
 111              	.L10:
 892:..\src\app\alt_mode/vdm_task_mngr.c ****             }
 893:..\src\app\alt_mode/vdm_task_mngr.c ****             else
 894:..\src\app\alt_mode/vdm_task_mngr.c ****             {
 895:..\src\app\alt_mode/vdm_task_mngr.c ****                 vdm_emca_rst_state[port] = CABLE_DP_RESET_RETRY;
 112              		.loc 1 895 0
 113 0028 0222     		movs	r2, #2
 114 002a 014B     		ldr	r3, .L12
 115 002c 1A54     		strb	r2, [r3, r0]
 116              	.L6:
 896:..\src\app\alt_mode/vdm_task_mngr.c ****             }
 897:..\src\app\alt_mode/vdm_task_mngr.c ****             break;
 898:..\src\app\alt_mode/vdm_task_mngr.c ****     }
 899:..\src\app\alt_mode/vdm_task_mngr.c **** }
 117              		.loc 1 899 0
 118              		@ sp needed
 119 002e 7047     		bx	lr
 120              	.L13:
 121              		.align	2
 122              	.L12:
 123 0030 00000000 		.word	.LANCHOR0
 124              		.cfi_endproc
ARM GAS  e:\temp\ccdoSeHU.s 			page 19


 125              	.LFE46:
 126              		.size	sop_dp_soft_reset_cb, .-sop_dp_soft_reset_cb
 127              		.section	.text.get_msg,"ax",%progbits
 128              		.align	2
 129              		.code	16
 130              		.thumb_func
 131              		.type	get_msg, %function
 132              	get_msg:
 133              	.LFB56:
 900:..\src\app\alt_mode/vdm_task_mngr.c **** 
 901:..\src\app\alt_mode/vdm_task_mngr.c **** static void send_sop_dp_soft_reset(uint8_t port)
 902:..\src\app\alt_mode/vdm_task_mngr.c **** {
 903:..\src\app\alt_mode/vdm_task_mngr.c ****     dpm_pd_cmd_buf_t dpm_cmd_param;
 904:..\src\app\alt_mode/vdm_task_mngr.c ****     ccg_status_t     api_stat;
 905:..\src\app\alt_mode/vdm_task_mngr.c **** 
 906:..\src\app\alt_mode/vdm_task_mngr.c ****     dpm_cmd_param.cmd_sop      = SOP_DPRIME;
 907:..\src\app\alt_mode/vdm_task_mngr.c ****     dpm_cmd_param.no_of_cmd_do = 0;
 908:..\src\app\alt_mode/vdm_task_mngr.c ****     dpm_cmd_param.dat_ptr      = 0;
 909:..\src\app\alt_mode/vdm_task_mngr.c ****     dpm_cmd_param.timeout      = 15;
 910:..\src\app\alt_mode/vdm_task_mngr.c **** 
 911:..\src\app\alt_mode/vdm_task_mngr.c ****     api_stat = dpm_pd_command (port, DPM_CMD_SEND_SOFT_RESET_EMCA, &dpm_cmd_param, sop_dp_soft_rese
 912:..\src\app\alt_mode/vdm_task_mngr.c ****     switch (api_stat)
 913:..\src\app\alt_mode/vdm_task_mngr.c ****     {
 914:..\src\app\alt_mode/vdm_task_mngr.c ****         case CCG_STAT_SUCCESS:
 915:..\src\app\alt_mode/vdm_task_mngr.c ****             /* Wait for the cable SOFT_RESET response. */
 916:..\src\app\alt_mode/vdm_task_mngr.c ****             vdm_emca_rst_state[port] = CABLE_DP_RESET_WAIT;
 917:..\src\app\alt_mode/vdm_task_mngr.c ****             break;
 918:..\src\app\alt_mode/vdm_task_mngr.c **** 
 919:..\src\app\alt_mode/vdm_task_mngr.c ****         case CCG_STAT_BUSY:
 920:..\src\app\alt_mode/vdm_task_mngr.c ****         case CCG_STAT_NOT_READY:
 921:..\src\app\alt_mode/vdm_task_mngr.c ****             /* Need to retry the command. */
 922:..\src\app\alt_mode/vdm_task_mngr.c ****             vdm_emca_rst_state[port] = CABLE_DP_RESET_RETRY;
 923:..\src\app\alt_mode/vdm_task_mngr.c ****             break;
 924:..\src\app\alt_mode/vdm_task_mngr.c **** 
 925:..\src\app\alt_mode/vdm_task_mngr.c ****         default:
 926:..\src\app\alt_mode/vdm_task_mngr.c ****             /* Connection state changed. Abort the Cable SOFT_RESET process. */
 927:..\src\app\alt_mode/vdm_task_mngr.c ****             vdm_emca_rst_state[port] = CABLE_DP_RESET_DONE;
 928:..\src\app\alt_mode/vdm_task_mngr.c ****             break;
 929:..\src\app\alt_mode/vdm_task_mngr.c ****     }
 930:..\src\app\alt_mode/vdm_task_mngr.c **** }
 931:..\src\app\alt_mode/vdm_task_mngr.c **** 
 932:..\src\app\alt_mode/vdm_task_mngr.c **** /* Fill DPM cmd buffer with properly VDM info */
 933:..\src\app\alt_mode/vdm_task_mngr.c **** static uint8_t compose_vdm(uint8_t port)
 934:..\src\app\alt_mode/vdm_task_mngr.c **** {
 935:..\src\app\alt_mode/vdm_task_mngr.c ****     uint8_t           idx;
 936:..\src\app\alt_mode/vdm_task_mngr.c ****     dpm_pd_cmd_buf_t  *vdm_buf = get_vdm_buff(port);
 937:..\src\app\alt_mode/vdm_task_mngr.c ****     vdm_msg_info_t    *msg_p   = get_msg(port);
 938:..\src\app\alt_mode/vdm_task_mngr.c **** 
 939:..\src\app\alt_mode/vdm_task_mngr.c ****     vdm_buf->cmd_sop                = msg_p->sop_type;
 940:..\src\app\alt_mode/vdm_task_mngr.c ****     vdm_buf->no_of_cmd_do           = msg_p->vdo_numb + VDO_START_IDX;
 941:..\src\app\alt_mode/vdm_task_mngr.c ****     vdm_buf->cmd_do[VDM_HEADER_IDX] = msg_p->vdm_header;
 942:..\src\app\alt_mode/vdm_task_mngr.c **** 
 943:..\src\app\alt_mode/vdm_task_mngr.c ****     if (msg_p->VDM_HDR.vdm_type == VDM_TYPE_STRUCTURED)
 944:..\src\app\alt_mode/vdm_task_mngr.c ****     {
 945:..\src\app\alt_mode/vdm_task_mngr.c ****         msg_p->VDM_HDR.cmd_type    = CMD_TYPE_INITIATOR;
 946:..\src\app\alt_mode/vdm_task_mngr.c **** 
 947:..\src\app\alt_mode/vdm_task_mngr.c ****         if (vdm_buf->cmd_sop == SOP)
ARM GAS  e:\temp\ccdoSeHU.s 			page 20


 948:..\src\app\alt_mode/vdm_task_mngr.c ****         {
 949:..\src\app\alt_mode/vdm_task_mngr.c ****             vdm_buf->cmd_do[VDM_HEADER_IDX].std_vdm_hdr.st_ver = app_get_status(port)->vdm_version;
 950:..\src\app\alt_mode/vdm_task_mngr.c ****         }
 951:..\src\app\alt_mode/vdm_task_mngr.c ****         else
 952:..\src\app\alt_mode/vdm_task_mngr.c ****         {
 953:..\src\app\alt_mode/vdm_task_mngr.c ****             vdm_buf->cmd_do[VDM_HEADER_IDX].std_vdm_hdr.st_ver = dpm_get_info(port)->cbl_vdm_versio
 954:..\src\app\alt_mode/vdm_task_mngr.c ****         }
 955:..\src\app\alt_mode/vdm_task_mngr.c **** 
 956:..\src\app\alt_mode/vdm_task_mngr.c ****         /* Set exceptions for Enter/Exit mode cmd period */
 957:..\src\app\alt_mode/vdm_task_mngr.c ****         switch (msg_p->VDM_HDR.cmd)
 958:..\src\app\alt_mode/vdm_task_mngr.c ****         {
 959:..\src\app\alt_mode/vdm_task_mngr.c ****             case VDM_CMD_ENTER_MODE:
 960:..\src\app\alt_mode/vdm_task_mngr.c ****                 vdm_buf->timeout = PD_VDM_ENTER_MODE_RESPONSE_TIMER_PERIOD;
 961:..\src\app\alt_mode/vdm_task_mngr.c ****                 break;
 962:..\src\app\alt_mode/vdm_task_mngr.c ****             case VDM_CMD_EXIT_MODE:
 963:..\src\app\alt_mode/vdm_task_mngr.c ****                 vdm_buf->timeout = PD_VDM_EXIT_MODE_RESPONSE_TIMER_PERIOD;
 964:..\src\app\alt_mode/vdm_task_mngr.c ****                 break;
 965:..\src\app\alt_mode/vdm_task_mngr.c ****             case VDM_CMD_ATTENTION:
 966:..\src\app\alt_mode/vdm_task_mngr.c ****                 /* No timeout required for attention messages. */
 967:..\src\app\alt_mode/vdm_task_mngr.c ****                 vdm_buf->timeout = NO_DATA;
 968:..\src\app\alt_mode/vdm_task_mngr.c ****                 break;
 969:..\src\app\alt_mode/vdm_task_mngr.c ****             default:
 970:..\src\app\alt_mode/vdm_task_mngr.c ****                 vdm_buf->timeout = PD_VDM_RESPONSE_TIMER_PERIOD;
 971:..\src\app\alt_mode/vdm_task_mngr.c ****                 break;
 972:..\src\app\alt_mode/vdm_task_mngr.c ****         }
 973:..\src\app\alt_mode/vdm_task_mngr.c ****     }
 974:..\src\app\alt_mode/vdm_task_mngr.c ****     /* Handle UVDM */
 975:..\src\app\alt_mode/vdm_task_mngr.c ****     else
 976:..\src\app\alt_mode/vdm_task_mngr.c ****     {
 977:..\src\app\alt_mode/vdm_task_mngr.c ****         vdm_buf->timeout = PD_VDM_RESPONSE_TIMER_PERIOD;
 978:..\src\app\alt_mode/vdm_task_mngr.c ****     }
 979:..\src\app\alt_mode/vdm_task_mngr.c **** 
 980:..\src\app\alt_mode/vdm_task_mngr.c ****     /* Copy VDOs to send buffer */
 981:..\src\app\alt_mode/vdm_task_mngr.c ****     if (msg_p->vdo_numb > NO_DATA)
 982:..\src\app\alt_mode/vdm_task_mngr.c ****     {
 983:..\src\app\alt_mode/vdm_task_mngr.c ****         for (idx = 0; idx < msg_p->vdo_numb; idx++)
 984:..\src\app\alt_mode/vdm_task_mngr.c ****         {
 985:..\src\app\alt_mode/vdm_task_mngr.c ****             vdm_buf->cmd_do[idx + VDO_START_IDX].val = msg_p->vdo[idx].val;
 986:..\src\app\alt_mode/vdm_task_mngr.c ****         }
 987:..\src\app\alt_mode/vdm_task_mngr.c ****     }
 988:..\src\app\alt_mode/vdm_task_mngr.c **** 
 989:..\src\app\alt_mode/vdm_task_mngr.c ****     return true;
 990:..\src\app\alt_mode/vdm_task_mngr.c **** }
 991:..\src\app\alt_mode/vdm_task_mngr.c **** 
 992:..\src\app\alt_mode/vdm_task_mngr.c **** /* Parse received VDM and save info in  */
 993:..\src\app\alt_mode/vdm_task_mngr.c **** static uint8_t parse_vdm(uint8_t port, const pd_packet_t* rec_vdm)
 994:..\src\app\alt_mode/vdm_task_mngr.c **** {
 995:..\src\app\alt_mode/vdm_task_mngr.c ****     uint8_t vdo_idx;
 996:..\src\app\alt_mode/vdm_task_mngr.c ****     vdm_msg_info_t *msg_p  = get_msg (port);
 997:..\src\app\alt_mode/vdm_task_mngr.c **** 
 998:..\src\app\alt_mode/vdm_task_mngr.c ****     msg_p->vdm_header = rec_vdm->dat[VDM_HEADER_IDX];
 999:..\src\app\alt_mode/vdm_task_mngr.c ****     msg_p->vdo_numb   = (rec_vdm->len - VDO_START_IDX);
1000:..\src\app\alt_mode/vdm_task_mngr.c ****     msg_p->sop_type   = rec_vdm->sop;
1001:..\src\app\alt_mode/vdm_task_mngr.c **** 
1002:..\src\app\alt_mode/vdm_task_mngr.c ****     /* If VDO is present in received VDM */
1003:..\src\app\alt_mode/vdm_task_mngr.c ****     if (rec_vdm->len > VDO_START_IDX)
1004:..\src\app\alt_mode/vdm_task_mngr.c ****     {
ARM GAS  e:\temp\ccdoSeHU.s 			page 21


1005:..\src\app\alt_mode/vdm_task_mngr.c ****         for (vdo_idx = 0; vdo_idx < rec_vdm->len; vdo_idx++)
1006:..\src\app\alt_mode/vdm_task_mngr.c ****         {
1007:..\src\app\alt_mode/vdm_task_mngr.c ****             msg_p->vdo[vdo_idx].val = rec_vdm->dat[vdo_idx + VDO_START_IDX].val;
1008:..\src\app\alt_mode/vdm_task_mngr.c ****         }
1009:..\src\app\alt_mode/vdm_task_mngr.c ****     }
1010:..\src\app\alt_mode/vdm_task_mngr.c **** 
1011:..\src\app\alt_mode/vdm_task_mngr.c ****     return true;
1012:..\src\app\alt_mode/vdm_task_mngr.c **** }
1013:..\src\app\alt_mode/vdm_task_mngr.c **** 
1014:..\src\app\alt_mode/vdm_task_mngr.c **** static vdm_task_t send_vdm(uint8_t port)
1015:..\src\app\alt_mode/vdm_task_mngr.c **** {
1016:..\src\app\alt_mode/vdm_task_mngr.c ****     if ((gl_dpm_port_type[port] == PRT_TYPE_DFP) && (get_vdm_buff(port)->cmd_sop == SOP_DPRIME))
1017:..\src\app\alt_mode/vdm_task_mngr.c ****     {
1018:..\src\app\alt_mode/vdm_task_mngr.c ****         switch (vdm_emca_rst_state[port])
1019:..\src\app\alt_mode/vdm_task_mngr.c ****         {
1020:..\src\app\alt_mode/vdm_task_mngr.c ****             /* If SOP'' SOFT RESET has not been done or a retry is pending, try to send it. */
1021:..\src\app\alt_mode/vdm_task_mngr.c ****             case CABLE_DP_RESET_IDLE:
1022:..\src\app\alt_mode/vdm_task_mngr.c ****             case CABLE_DP_RESET_RETRY:
1023:..\src\app\alt_mode/vdm_task_mngr.c ****                 send_sop_dp_soft_reset(port);
1024:..\src\app\alt_mode/vdm_task_mngr.c ****                 /* Intentional fall-through. */
1025:..\src\app\alt_mode/vdm_task_mngr.c **** 
1026:..\src\app\alt_mode/vdm_task_mngr.c ****             case CABLE_DP_RESET_WAIT:
1027:..\src\app\alt_mode/vdm_task_mngr.c ****                 return VDM_TASK_SEND_MSG;
1028:..\src\app\alt_mode/vdm_task_mngr.c **** 
1029:..\src\app\alt_mode/vdm_task_mngr.c ****             default:
1030:..\src\app\alt_mode/vdm_task_mngr.c ****                 /* EMCA SOFT_RESET done. We can proceed. */
1031:..\src\app\alt_mode/vdm_task_mngr.c ****                 break;
1032:..\src\app\alt_mode/vdm_task_mngr.c ****         }
1033:..\src\app\alt_mode/vdm_task_mngr.c ****     }
1034:..\src\app\alt_mode/vdm_task_mngr.c **** 
1035:..\src\app\alt_mode/vdm_task_mngr.c ****     app_get_status(port)->vdm_retry_pending = (vdm_stat[port].rec_retry_cnt != MAX_RETRY_CNT);
1036:..\src\app\alt_mode/vdm_task_mngr.c ****     if (dpm_pd_command (port, DPM_CMD_SEND_VDM, get_vdm_buff(port), vdm_rec_cbk) == CCG_STAT_SUCCES
1037:..\src\app\alt_mode/vdm_task_mngr.c ****     {
1038:..\src\app\alt_mode/vdm_task_mngr.c ****         return VDM_TASK_WAIT;
1039:..\src\app\alt_mode/vdm_task_mngr.c ****     }
1040:..\src\app\alt_mode/vdm_task_mngr.c **** 
1041:..\src\app\alt_mode/vdm_task_mngr.c ****     /* If fails - try to send VDM again */
1042:..\src\app\alt_mode/vdm_task_mngr.c ****     return VDM_TASK_SEND_MSG;
1043:..\src\app\alt_mode/vdm_task_mngr.c **** }
1044:..\src\app\alt_mode/vdm_task_mngr.c **** 
1045:..\src\app\alt_mode/vdm_task_mngr.c **** #if ((CCG_PD_REV3_ENABLE) && (UFP_ALT_MODE_SUPP) && (UFP_MODE_DISC_ENABLE))
1046:..\src\app\alt_mode/vdm_task_mngr.c **** bool is_ufp_disc_started(uint8_t port)
1047:..\src\app\alt_mode/vdm_task_mngr.c **** {
1048:..\src\app\alt_mode/vdm_task_mngr.c ****     if (is_vdm_task_idle(port) == true)
1049:..\src\app\alt_mode/vdm_task_mngr.c ****     {
1050:..\src\app\alt_mode/vdm_task_mngr.c ****         /* Set VDM Task to send DISC ID VDM */
1051:..\src\app\alt_mode/vdm_task_mngr.c ****         set_task(port, VDM_TASK_DISC_ID);
1052:..\src\app\alt_mode/vdm_task_mngr.c ****         set_evt(port, VDM_EVT_RUN);
1053:..\src\app\alt_mode/vdm_task_mngr.c ****         return true;
1054:..\src\app\alt_mode/vdm_task_mngr.c ****     }
1055:..\src\app\alt_mode/vdm_task_mngr.c **** 
1056:..\src\app\alt_mode/vdm_task_mngr.c ****     return false;
1057:..\src\app\alt_mode/vdm_task_mngr.c **** }
1058:..\src\app\alt_mode/vdm_task_mngr.c **** #endif /* (CCG_PD_REV3_ENABLE) && (UFP_ALT_MODE_SUPP) && (UFP_MODE_DISC_ENABLE) */
1059:..\src\app\alt_mode/vdm_task_mngr.c **** 
1060:..\src\app\alt_mode/vdm_task_mngr.c **** bool is_vdm_mngr_enabled(uint8_t port)
1061:..\src\app\alt_mode/vdm_task_mngr.c **** {
ARM GAS  e:\temp\ccdoSeHU.s 			page 22


1062:..\src\app\alt_mode/vdm_task_mngr.c ****     return (bool)app_get_status(port)->vdm_task_en;
1063:..\src\app\alt_mode/vdm_task_mngr.c **** }
1064:..\src\app\alt_mode/vdm_task_mngr.c **** 
1065:..\src\app\alt_mode/vdm_task_mngr.c **** vdm_evt_t get_evt(uint8_t port)
1066:..\src\app\alt_mode/vdm_task_mngr.c **** {
1067:..\src\app\alt_mode/vdm_task_mngr.c ****     return vdm_stat[port].vdm_evt;
1068:..\src\app\alt_mode/vdm_task_mngr.c **** }
1069:..\src\app\alt_mode/vdm_task_mngr.c **** 
1070:..\src\app\alt_mode/vdm_task_mngr.c **** vdm_task_t get_task(uint8_t port)
1071:..\src\app\alt_mode/vdm_task_mngr.c **** {
1072:..\src\app\alt_mode/vdm_task_mngr.c ****     return vdm_stat[port].vdm_task;
1073:..\src\app\alt_mode/vdm_task_mngr.c **** }
1074:..\src\app\alt_mode/vdm_task_mngr.c **** 
1075:..\src\app\alt_mode/vdm_task_mngr.c **** void set_task(uint8_t port, vdm_task_t task)
1076:..\src\app\alt_mode/vdm_task_mngr.c **** {
1077:..\src\app\alt_mode/vdm_task_mngr.c ****     vdm_stat[port].vdm_task = task;
1078:..\src\app\alt_mode/vdm_task_mngr.c **** }
1079:..\src\app\alt_mode/vdm_task_mngr.c **** 
1080:..\src\app\alt_mode/vdm_task_mngr.c **** void set_evt(uint8_t port, vdm_evt_t evt)
1081:..\src\app\alt_mode/vdm_task_mngr.c **** {
1082:..\src\app\alt_mode/vdm_task_mngr.c ****     vdm_stat[port].vdm_evt = evt;
1083:..\src\app\alt_mode/vdm_task_mngr.c **** }
1084:..\src\app\alt_mode/vdm_task_mngr.c **** 
1085:..\src\app\alt_mode/vdm_task_mngr.c **** static vdm_msg_info_t* get_msg(uint8_t port)
1086:..\src\app\alt_mode/vdm_task_mngr.c **** {
 134              		.loc 1 1086 0
 135              		.cfi_startproc
 136              		@ args = 0, pretend = 0, frame = 0
 137              		@ frame_needed = 0, uses_anonymous_args = 0
 138              		@ link register save eliminated.
 139              	.LVL11:
1087:..\src\app\alt_mode/vdm_task_mngr.c ****     return &vdm_stat[port].vdm_msg;
 140              		.loc 1 1087 0
 141 0000 C300     		lsls	r3, r0, #3
 142 0002 1818     		adds	r0, r3, r0
 143              	.LVL12:
 144 0004 C300     		lsls	r3, r0, #3
 145 0006 2033     		adds	r3, r3, #32
 146 0008 0148     		ldr	r0, .L15
 147 000a 1818     		adds	r0, r3, r0
1088:..\src\app\alt_mode/vdm_task_mngr.c **** }
 148              		.loc 1 1088 0
 149              		@ sp needed
 150 000c 7047     		bx	lr
 151              	.L16:
 152 000e C046     		.align	2
 153              	.L15:
 154 0010 00000000 		.word	vdm_stat
 155              		.cfi_endproc
 156              	.LFE56:
 157              		.size	get_msg, .-get_msg
 158              		.section	.text.set_disc_svid_param,"ax",%progbits
 159              		.align	2
 160              		.code	16
 161              		.thumb_func
 162              		.type	set_disc_svid_param, %function
 163              	set_disc_svid_param:
ARM GAS  e:\temp\ccdoSeHU.s 			page 23


 164              	.LFB42:
 647:..\src\app\alt_mode/vdm_task_mngr.c ****     vdm_msg_info_t *msg_p = get_msg (port);
 165              		.loc 1 647 0
 166              		.cfi_startproc
 167              		@ args = 0, pretend = 0, frame = 0
 168              		@ frame_needed = 0, uses_anonymous_args = 0
 169              	.LVL13:
 170 0000 10B5     		push	{r4, lr}
 171              		.cfi_def_cfa_offset 8
 172              		.cfi_offset 4, -8
 173              		.cfi_offset 14, -4
 174 0002 0C00     		movs	r4, r1
 648:..\src\app\alt_mode/vdm_task_mngr.c **** 
 175              		.loc 1 648 0
 176 0004 FFF7FEFF 		bl	get_msg
 177              	.LVL14:
 651:..\src\app\alt_mode/vdm_task_mngr.c ****     msg_p->VDM_HDR.cmd      = VDM_CMD_DSC_SVIDS;
 178              		.loc 1 651 0
 179 0008 054B     		ldr	r3, .L18
 180 000a 4380     		strh	r3, [r0, #2]
 652:..\src\app\alt_mode/vdm_task_mngr.c ****     msg_p->VDM_HDR.obj_pos  = NO_DATA;
 181              		.loc 1 652 0
 182 000c 0333     		adds	r3, r3, #3
 183 000e FF33     		adds	r3, r3, #255
 184 0010 0370     		strb	r3, [r0]
 654:..\src\app\alt_mode/vdm_task_mngr.c ****     msg_p->vdo_numb         = NO_DATA;
 185              		.loc 1 654 0
 186 0012 0471     		strb	r4, [r0, #4]
 655:..\src\app\alt_mode/vdm_task_mngr.c ****     msg_p->VDM_HDR.vdm_type = VDM_TYPE_STRUCTURED;
 187              		.loc 1 655 0
 188 0014 0023     		movs	r3, #0
 189 0016 4371     		strb	r3, [r0, #5]
 656:..\src\app\alt_mode/vdm_task_mngr.c **** }
 190              		.loc 1 656 0
 191 0018 803B     		subs	r3, r3, #128
 192 001a 4370     		strb	r3, [r0, #1]
 657:..\src\app\alt_mode/vdm_task_mngr.c **** 
 193              		.loc 1 657 0
 194              		@ sp needed
 195 001c 10BD     		pop	{r4, pc}
 196              	.L19:
 197 001e C046     		.align	2
 198              	.L18:
 199 0020 00FFFFFF 		.word	-256
 200              		.cfi_endproc
 201              	.LFE42:
 202              		.size	set_disc_svid_param, .-set_disc_svid_param
 203              		.section	.text.parse_vdm,"ax",%progbits
 204              		.align	2
 205              		.code	16
 206              		.thumb_func
 207              		.type	parse_vdm, %function
 208              	parse_vdm:
 209              	.LFB49:
 994:..\src\app\alt_mode/vdm_task_mngr.c ****     uint8_t vdo_idx;
 210              		.loc 1 994 0
 211              		.cfi_startproc
ARM GAS  e:\temp\ccdoSeHU.s 			page 24


 212              		@ args = 0, pretend = 0, frame = 0
 213              		@ frame_needed = 0, uses_anonymous_args = 0
 214              	.LVL15:
 215 0000 10B5     		push	{r4, lr}
 216              		.cfi_def_cfa_offset 8
 217              		.cfi_offset 4, -8
 218              		.cfi_offset 14, -4
 219 0002 0C00     		movs	r4, r1
 996:..\src\app\alt_mode/vdm_task_mngr.c **** 
 220              		.loc 1 996 0
 221 0004 FFF7FEFF 		bl	get_msg
 222              	.LVL16:
 998:..\src\app\alt_mode/vdm_task_mngr.c ****     msg_p->vdo_numb   = (rec_vdm->len - VDO_START_IDX);
 223              		.loc 1 998 0
 224 0008 A368     		ldr	r3, [r4, #8]
 225 000a 0360     		str	r3, [r0]
 999:..\src\app\alt_mode/vdm_task_mngr.c ****     msg_p->sop_type   = rec_vdm->sop;
 226              		.loc 1 999 0
 227 000c 6378     		ldrb	r3, [r4, #1]
 228 000e 013B     		subs	r3, r3, #1
 229 0010 4371     		strb	r3, [r0, #5]
1000:..\src\app\alt_mode/vdm_task_mngr.c **** 
 230              		.loc 1 1000 0
 231 0012 2378     		ldrb	r3, [r4]
 232 0014 0371     		strb	r3, [r0, #4]
1003:..\src\app\alt_mode/vdm_task_mngr.c ****     {
 233              		.loc 1 1003 0
 234 0016 6378     		ldrb	r3, [r4, #1]
 235 0018 012B     		cmp	r3, #1
 236 001a 09D8     		bhi	.L24
 237 001c 0CE0     		b	.L22
 238              	.LVL17:
 239              	.L23:
1007:..\src\app\alt_mode/vdm_task_mngr.c ****         }
 240              		.loc 1 1007 0 discriminator 3
 241 001e 591C     		adds	r1, r3, #1
 242 0020 DA1C     		adds	r2, r3, #3
 243 0022 9200     		lsls	r2, r2, #2
 244 0024 1259     		ldr	r2, [r2, r4]
 245 0026 0233     		adds	r3, r3, #2
 246              	.LVL18:
 247 0028 9B00     		lsls	r3, r3, #2
 248 002a 1A50     		str	r2, [r3, r0]
1005:..\src\app\alt_mode/vdm_task_mngr.c ****         {
 249              		.loc 1 1005 0 discriminator 3
 250 002c CBB2     		uxtb	r3, r1
 251              	.LVL19:
 252 002e 00E0     		b	.L21
 253              	.LVL20:
 254              	.L24:
 255 0030 0023     		movs	r3, #0
 256              	.L21:
 257              	.LVL21:
1005:..\src\app\alt_mode/vdm_task_mngr.c ****         {
 258              		.loc 1 1005 0 is_stmt 0 discriminator 1
 259 0032 6278     		ldrb	r2, [r4, #1]
 260 0034 9342     		cmp	r3, r2
ARM GAS  e:\temp\ccdoSeHU.s 			page 25


 261 0036 F2D3     		bcc	.L23
 262              	.LVL22:
 263              	.L22:
1012:..\src\app\alt_mode/vdm_task_mngr.c **** 
 264              		.loc 1 1012 0 is_stmt 1
 265 0038 0120     		movs	r0, #1
 266              	.LVL23:
 267              		@ sp needed
 268              	.LVL24:
 269 003a 10BD     		pop	{r4, pc}
 270              		.cfi_endproc
 271              	.LFE49:
 272              		.size	parse_vdm, .-parse_vdm
 273              		.section	.text.is_vdm_mngr_enabled,"ax",%progbits
 274              		.align	2
 275              		.code	16
 276              		.thumb_func
 277              		.type	is_vdm_mngr_enabled, %function
 278              	is_vdm_mngr_enabled:
 279              	.LFB51:
1061:..\src\app\alt_mode/vdm_task_mngr.c ****     return (bool)app_get_status(port)->vdm_task_en;
 280              		.loc 1 1061 0
 281              		.cfi_startproc
 282              		@ args = 0, pretend = 0, frame = 0
 283              		@ frame_needed = 0, uses_anonymous_args = 0
 284              	.LVL25:
 285 0000 10B5     		push	{r4, lr}
 286              		.cfi_def_cfa_offset 8
 287              		.cfi_offset 4, -8
 288              		.cfi_offset 14, -4
1062:..\src\app\alt_mode/vdm_task_mngr.c **** }
 289              		.loc 1 1062 0
 290 0002 FFF7FEFF 		bl	app_get_status
 291              	.LVL26:
 292 0006 3823     		movs	r3, #56
 293 0008 C05C     		ldrb	r0, [r0, r3]
 294 000a 431E     		subs	r3, r0, #1
 295 000c 9841     		sbcs	r0, r0, r3
 296 000e C0B2     		uxtb	r0, r0
1063:..\src\app\alt_mode/vdm_task_mngr.c **** 
 297              		.loc 1 1063 0
 298              		@ sp needed
 299 0010 10BD     		pop	{r4, pc}
 300              		.cfi_endproc
 301              	.LFE51:
 302              		.size	is_vdm_mngr_enabled, .-is_vdm_mngr_enabled
 303 0012 C046     		.section	.text.reset_vdm_mngr,"ax",%progbits
 304              		.align	2
 305              		.code	16
 306              		.thumb_func
 307              		.type	reset_vdm_mngr, %function
 308              	reset_vdm_mngr:
 309              	.LFB44:
 833:..\src\app\alt_mode/vdm_task_mngr.c ****     vdm_stat[port].rec_retry_cnt = NO_DATA;
 310              		.loc 1 833 0
 311              		.cfi_startproc
 312              		@ args = 0, pretend = 0, frame = 0
ARM GAS  e:\temp\ccdoSeHU.s 			page 26


 313              		@ frame_needed = 0, uses_anonymous_args = 0
 314              	.LVL27:
 315 0000 F0B5     		push	{r4, r5, r6, r7, lr}
 316              		.cfi_def_cfa_offset 20
 317              		.cfi_offset 4, -20
 318              		.cfi_offset 5, -16
 319              		.cfi_offset 6, -12
 320              		.cfi_offset 7, -8
 321              		.cfi_offset 14, -4
 322 0002 4746     		mov	r7, r8
 323 0004 80B4     		push	{r7}
 324              		.cfi_def_cfa_offset 24
 325              		.cfi_offset 8, -24
 326 0006 0400     		movs	r4, r0
 834:..\src\app\alt_mode/vdm_task_mngr.c ****     vdm_stat[port].svid_idx      = NO_DATA;
 327              		.loc 1 834 0
 328 0008 C700     		lsls	r7, r0, #3
 329 000a 3A18     		adds	r2, r7, r0
 330 000c D300     		lsls	r3, r2, #3
 331 000e 1B4D     		ldr	r5, .L27
 332 0010 ED18     		adds	r5, r5, r3
 333 0012 2B00     		movs	r3, r5
 334 0014 4433     		adds	r3, r3, #68
 335 0016 0026     		movs	r6, #0
 336 0018 1E70     		strb	r6, [r3]
 835:..\src\app\alt_mode/vdm_task_mngr.c ****     vdm_stat[port].dsvid_cnt     = NO_DATA;
 337              		.loc 1 835 0
 338 001a 0133     		adds	r3, r3, #1
 339 001c 1E70     		strb	r6, [r3]
 836:..\src\app\alt_mode/vdm_task_mngr.c ****     /* Clear arrays which hold SVIDs */
 340              		.loc 1 836 0
 341 001e 0133     		adds	r3, r3, #1
 342 0020 1E70     		strb	r6, [r3]
 838:..\src\app\alt_mode/vdm_task_mngr.c ****     /* Store the pointer to the cable VDO discovered by PD stack. */
 343              		.loc 1 838 0
 344 0022 281D     		adds	r0, r5, #4
 345              	.LVL28:
 346 0024 1C22     		movs	r2, #28
 347 0026 0021     		movs	r1, #0
 348 0028 FFF7FEFF 		bl	memset
 349              	.LVL29:
 840:..\src\app\alt_mode/vdm_task_mngr.c ****     /* Clear the SOP'' reset state. */
 350              		.loc 1 840 0
 351 002c 2000     		movs	r0, r4
 352 002e FFF7FEFF 		bl	dpm_get_info
 353              	.LVL30:
 354 0032 B830     		adds	r0, r0, #184
 355 0034 E860     		str	r0, [r5, #12]
 842:..\src\app\alt_mode/vdm_task_mngr.c ****     vdm_emca_rst_count[port] = 0;
 356              		.loc 1 842 0
 357 0036 124D     		ldr	r5, .L27+4
 358 0038 2E55     		strb	r6, [r5, r4]
 843:..\src\app\alt_mode/vdm_task_mngr.c **** 
 359              		.loc 1 843 0
 360 003a 2B19     		adds	r3, r5, r4
 361 003c 9846     		mov	r8, r3
 362 003e 1E71     		strb	r6, [r3, #4]
ARM GAS  e:\temp\ccdoSeHU.s 			page 27


 846:..\src\app\alt_mode/vdm_task_mngr.c **** 
 363              		.loc 1 846 0
 364 0040 2821     		movs	r1, #40
 365 0042 2000     		movs	r0, r4
 366 0044 FFF7FEFF 		bl	timer_stop
 367              	.LVL31:
 849:..\src\app\alt_mode/vdm_task_mngr.c ****     memset ((uint8_t *)&vdm_disc_id_resp[port], 0, MAX_NO_OF_DO * sizeof (uint32_t));
 368              		.loc 1 849 0
 369 0048 4346     		mov	r3, r8
 370 004a 1E72     		strb	r6, [r3, #8]
 850:..\src\app\alt_mode/vdm_task_mngr.c ****     vdm_disc_svid_resp_len[port] = 0;
 371              		.loc 1 850 0
 372 004c 2A00     		movs	r2, r5
 373 004e 0C32     		adds	r2, r2, #12
 374 0050 3B1B     		subs	r3, r7, r4
 375 0052 9800     		lsls	r0, r3, #2
 376 0054 1018     		adds	r0, r2, r0
 377 0056 1C22     		movs	r2, #28
 378 0058 0021     		movs	r1, #0
 379 005a FFF7FEFF 		bl	memset
 380              	.LVL32:
 851:..\src\app\alt_mode/vdm_task_mngr.c ****     memset ((uint8_t *)&vdm_disc_svid_resp[port], 0, MAX_DISC_SVID_RESP_LEN * sizeof (uint32_t));
 381              		.loc 1 851 0
 382 005e 4423     		movs	r3, #68
 383 0060 4246     		mov	r2, r8
 384 0062 D654     		strb	r6, [r2, r3]
 852:..\src\app\alt_mode/vdm_task_mngr.c **** #endif /* VDM_RESP_QUERY_SUPPORTED */
 385              		.loc 1 852 0
 386 0064 2B00     		movs	r3, r5
 387 0066 4833     		adds	r3, r3, #72
 388 0068 3C19     		adds	r4, r7, r4
 389 006a E000     		lsls	r0, r4, #3
 390 006c 1818     		adds	r0, r3, r0
 391 006e 4822     		movs	r2, #72
 392 0070 0021     		movs	r1, #0
 393 0072 FFF7FEFF 		bl	memset
 394              	.LVL33:
 854:..\src\app\alt_mode/vdm_task_mngr.c **** 
 395              		.loc 1 854 0
 396              		@ sp needed
 397 0076 04BC     		pop	{r2}
 398 0078 9046     		mov	r8, r2
 399 007a F0BD     		pop	{r4, r5, r6, r7, pc}
 400              	.L28:
 401              		.align	2
 402              	.L27:
 403 007c 00000000 		.word	vdm_stat
 404 0080 00000000 		.word	.LANCHOR0
 405              		.cfi_endproc
 406              	.LFE44:
 407              		.size	reset_vdm_mngr, .-reset_vdm_mngr
 408              		.section	.text.save_svids,"ax",%progbits
 409              		.align	2
 410              		.code	16
 411              		.thumb_func
 412              		.type	save_svids, %function
 413              	save_svids:
ARM GAS  e:\temp\ccdoSeHU.s 			page 28


 414              	.LFB41:
 575:..\src\app\alt_mode/vdm_task_mngr.c ****     uint8_t         idx, vdo_count;
 415              		.loc 1 575 0
 416              		.cfi_startproc
 417              		@ args = 0, pretend = 0, frame = 8
 418              		@ frame_needed = 0, uses_anonymous_args = 0
 419              	.LVL34:
 420 0000 F0B5     		push	{r4, r5, r6, r7, lr}
 421              		.cfi_def_cfa_offset 20
 422              		.cfi_offset 4, -20
 423              		.cfi_offset 5, -16
 424              		.cfi_offset 6, -12
 425              		.cfi_offset 7, -8
 426              		.cfi_offset 14, -4
 427 0002 5F46     		mov	r7, fp
 428 0004 5646     		mov	r6, r10
 429 0006 4D46     		mov	r5, r9
 430 0008 4446     		mov	r4, r8
 431 000a F0B4     		push	{r4, r5, r6, r7}
 432              		.cfi_def_cfa_offset 36
 433              		.cfi_offset 8, -36
 434              		.cfi_offset 9, -32
 435              		.cfi_offset 10, -28
 436              		.cfi_offset 11, -24
 437 000c 83B0     		sub	sp, sp, #12
 438              		.cfi_def_cfa_offset 48
 439 000e 8346     		mov	fp, r0
 440 0010 0191     		str	r1, [sp, #4]
 441 0012 9246     		mov	r10, r2
 578:..\src\app\alt_mode/vdm_task_mngr.c ****     bool            retval   = false;
 442              		.loc 1 578 0
 443 0014 C200     		lsls	r2, r0, #3
 444              	.LVL35:
 445 0016 5A44     		add	r2, r2, fp
 446 0018 D300     		lsls	r3, r2, #3
 447 001a 324A     		ldr	r2, .L42
 448 001c D318     		adds	r3, r2, r3
 449 001e 4533     		adds	r3, r3, #69
 450 0020 1E78     		ldrb	r6, [r3]
 451              	.LVL36:
 580:..\src\app\alt_mode/vdm_task_mngr.c **** 
 452              		.loc 1 580 0
 453 0022 FFF7FEFF 		bl	get_msg
 454              	.LVL37:
 455 0026 0700     		movs	r7, r0
 456              	.LVL38:
 583:..\src\app\alt_mode/vdm_task_mngr.c **** 
 457              		.loc 1 583 0
 458 0028 4379     		ldrb	r3, [r0, #5]
 459 002a 9846     		mov	r8, r3
 460              	.LVL39:
 586:..\src\app\alt_mode/vdm_task_mngr.c ****     {
 461              		.loc 1 586 0
 462 002c 052B     		cmp	r3, #5
 463 002e 02D9     		bls	.L38
 579:..\src\app\alt_mode/vdm_task_mngr.c ****     vdm_msg_info_t  *msg_p   = get_msg (port);
 464              		.loc 1 579 0
ARM GAS  e:\temp\ccdoSeHU.s 			page 29


 465 0030 0023     		movs	r3, #0
 466              	.LVL40:
 467 0032 9946     		mov	r9, r3
 468 0034 01E0     		b	.L30
 469              	.LVL41:
 470              	.L38:
 588:..\src\app\alt_mode/vdm_task_mngr.c ****     }
 471              		.loc 1 588 0
 472 0036 0123     		movs	r3, #1
 473              	.LVL42:
 474 0038 9946     		mov	r9, r3
 475              	.L30:
 609:..\src\app\alt_mode/vdm_task_mngr.c ****             }
 476              		.loc 1 609 0 discriminator 1
 477 003a 0024     		movs	r4, #0
 478 003c 27E0     		b	.L31
 479              	.LVL43:
 480              	.L36:
 593:..\src\app\alt_mode/vdm_task_mngr.c ****         {
 481              		.loc 1 593 0
 482 003e E307     		lsls	r3, r4, #31
 483 0040 05D4     		bmi	.L32
 596:..\src\app\alt_mode/vdm_task_mngr.c ****         }
 484              		.loc 1 596 0
 485 0042 6308     		lsrs	r3, r4, #1
 486 0044 0233     		adds	r3, r3, #2
 487 0046 9B00     		lsls	r3, r3, #2
 488 0048 DD59     		ldr	r5, [r3, r7]
 489 004a 2D0C     		lsrs	r5, r5, #16
 490              	.LVL44:
 491 004c 03E0     		b	.L33
 492              	.LVL45:
 493              	.L32:
 601:..\src\app\alt_mode/vdm_task_mngr.c ****         }
 494              		.loc 1 601 0
 495 004e 6308     		lsrs	r3, r4, #1
 496 0050 0233     		adds	r3, r3, #2
 497 0052 9B00     		lsls	r3, r3, #2
 498 0054 FD5A     		ldrh	r5, [r7, r3]
 499              	.LVL46:
 500              	.L33:
 604:..\src\app\alt_mode/vdm_task_mngr.c ****         {
 501              		.loc 1 604 0
 502 0056 5346     		mov	r3, r10
 503 0058 013B     		subs	r3, r3, #1
 504 005a 9E42     		cmp	r6, r3
 505 005c 1CDA     		bge	.L39
 607:..\src\app\alt_mode/vdm_task_mngr.c ****             {
 506              		.loc 1 607 0
 507 005e 002D     		cmp	r5, #0
 508 0060 11D0     		beq	.L40
 614:..\src\app\alt_mode/vdm_task_mngr.c ****                 {
 509              		.loc 1 614 0
 510 0062 2900     		movs	r1, r5
 511 0064 0198     		ldr	r0, [sp, #4]
 512 0066 FFF7FEFF 		bl	is_svid_stored
 513              	.LVL47:
ARM GAS  e:\temp\ccdoSeHU.s 			page 30


 514 006a 0028     		cmp	r0, #0
 515 006c 0DD1     		bne	.L35
 617:..\src\app\alt_mode/vdm_task_mngr.c **** #endif /* SAVE_SUPP_SVID_ONLY */
 516              		.loc 1 617 0
 517 006e 5946     		mov	r1, fp
 518 0070 2800     		movs	r0, r5
 519 0072 FFF7FEFF 		bl	is_svid_supported
 520              	.LVL48:
 521 0076 0028     		cmp	r0, #0
 522 0078 07D0     		beq	.L35
 620:..\src\app\alt_mode/vdm_task_mngr.c ****                         svid_idx++;
 523              		.loc 1 620 0
 524 007a 7300     		lsls	r3, r6, #1
 525 007c 019A     		ldr	r2, [sp, #4]
 526 007e D552     		strh	r5, [r2, r3]
 621:..\src\app\alt_mode/vdm_task_mngr.c ****                     }
 527              		.loc 1 621 0
 528 0080 0136     		adds	r6, r6, #1
 529              	.LVL49:
 530 0082 F6B2     		uxtb	r6, r6
 531              	.LVL50:
 532 0084 01E0     		b	.L35
 533              	.L40:
 609:..\src\app\alt_mode/vdm_task_mngr.c ****             }
 534              		.loc 1 609 0
 535 0086 0123     		movs	r3, #1
 536 0088 9946     		mov	r9, r3
 537              	.LVL51:
 538              	.L35:
 591:..\src\app\alt_mode/vdm_task_mngr.c ****     {
 539              		.loc 1 591 0 discriminator 2
 540 008a 0134     		adds	r4, r4, #1
 541              	.LVL52:
 542 008c E4B2     		uxtb	r4, r4
 543              	.LVL53:
 544              	.L31:
 591:..\src\app\alt_mode/vdm_task_mngr.c ****     {
 545              		.loc 1 591 0 is_stmt 0 discriminator 1
 546 008e 4346     		mov	r3, r8
 547 0090 5B00     		lsls	r3, r3, #1
 548 0092 9C42     		cmp	r4, r3
 549 0094 D3DB     		blt	.L36
 550 0096 01E0     		b	.L34
 551              	.LVL54:
 552              	.L39:
 629:..\src\app\alt_mode/vdm_task_mngr.c ****             break;
 553              		.loc 1 629 0 is_stmt 1
 554 0098 0123     		movs	r3, #1
 555 009a 9946     		mov	r9, r3
 556              	.LVL55:
 557              	.L34:
 635:..\src\app\alt_mode/vdm_task_mngr.c ****     vdm_stat[port].svid_idx = svid_idx;
 558              		.loc 1 635 0
 559 009c 7300     		lsls	r3, r6, #1
 560 009e 019A     		ldr	r2, [sp, #4]
 561 00a0 D218     		adds	r2, r2, r3
 562 00a2 0023     		movs	r3, #0
ARM GAS  e:\temp\ccdoSeHU.s 			page 31


 563 00a4 1380     		strh	r3, [r2]
 636:..\src\app\alt_mode/vdm_task_mngr.c **** 
 564              		.loc 1 636 0
 565 00a6 0F48     		ldr	r0, .L42
 566 00a8 5B46     		mov	r3, fp
 567 00aa DB00     		lsls	r3, r3, #3
 568 00ac 5A46     		mov	r2, fp
 569 00ae 9918     		adds	r1, r3, r2
 570 00b0 CA00     		lsls	r2, r1, #3
 571 00b2 8218     		adds	r2, r0, r2
 572 00b4 1100     		movs	r1, r2
 573 00b6 4531     		adds	r1, r1, #69
 574 00b8 0E70     		strb	r6, [r1]
 639:..\src\app\alt_mode/vdm_task_mngr.c ****     if (vdm_stat[port].dsvid_cnt >= MAX_DISC_SVID_COUNT)
 575              		.loc 1 639 0
 576 00ba 4632     		adds	r2, r2, #70
 577 00bc 1278     		ldrb	r2, [r2]
 578 00be 0132     		adds	r2, r2, #1
 579 00c0 D2B2     		uxtb	r2, r2
 580 00c2 5B44     		add	r3, r3, fp
 581 00c4 D900     		lsls	r1, r3, #3
 582 00c6 4118     		adds	r1, r0, r1
 583 00c8 4631     		adds	r1, r1, #70
 584 00ca 0A70     		strb	r2, [r1]
 640:..\src\app\alt_mode/vdm_task_mngr.c ****         retval = true;
 585              		.loc 1 640 0
 586 00cc 092A     		cmp	r2, #9
 587 00ce 01D9     		bls	.L37
 641:..\src\app\alt_mode/vdm_task_mngr.c **** 
 588              		.loc 1 641 0
 589 00d0 0123     		movs	r3, #1
 590 00d2 9946     		mov	r9, r3
 591              	.LVL56:
 592              	.L37:
 644:..\src\app\alt_mode/vdm_task_mngr.c **** 
 593              		.loc 1 644 0
 594 00d4 4846     		mov	r0, r9
 595 00d6 03B0     		add	sp, sp, #12
 596              		@ sp needed
 597              	.LVL57:
 598              	.LVL58:
 599              	.LVL59:
 600              	.LVL60:
 601              	.LVL61:
 602 00d8 3CBC     		pop	{r2, r3, r4, r5}
 603 00da 9046     		mov	r8, r2
 604 00dc 9946     		mov	r9, r3
 605 00de A246     		mov	r10, r4
 606 00e0 AB46     		mov	fp, r5
 607 00e2 F0BD     		pop	{r4, r5, r6, r7, pc}
 608              	.L43:
 609              		.align	2
 610              	.L42:
 611 00e4 00000000 		.word	vdm_stat
 612              		.cfi_endproc
 613              	.LFE41:
 614              		.size	save_svids, .-save_svids
ARM GAS  e:\temp\ccdoSeHU.s 			page 32


 615              		.section	.text.compose_vdm,"ax",%progbits
 616              		.align	2
 617              		.code	16
 618              		.thumb_func
 619              		.type	compose_vdm, %function
 620              	compose_vdm:
 621              	.LFB48:
 934:..\src\app\alt_mode/vdm_task_mngr.c ****     uint8_t           idx;
 622              		.loc 1 934 0
 623              		.cfi_startproc
 624              		@ args = 0, pretend = 0, frame = 0
 625              		@ frame_needed = 0, uses_anonymous_args = 0
 626              	.LVL62:
 627 0000 70B5     		push	{r4, r5, r6, lr}
 628              		.cfi_def_cfa_offset 16
 629              		.cfi_offset 4, -16
 630              		.cfi_offset 5, -12
 631              		.cfi_offset 6, -8
 632              		.cfi_offset 14, -4
 633 0002 0600     		movs	r6, r0
 936:..\src\app\alt_mode/vdm_task_mngr.c ****     vdm_msg_info_t    *msg_p   = get_msg(port);
 634              		.loc 1 936 0
 635 0004 FFF7FEFF 		bl	get_vdm_buff
 636              	.LVL63:
 637 0008 0500     		movs	r5, r0
 638              	.LVL64:
 937:..\src\app\alt_mode/vdm_task_mngr.c **** 
 639              		.loc 1 937 0
 640 000a 3000     		movs	r0, r6
 641              	.LVL65:
 642 000c FFF7FEFF 		bl	get_msg
 643              	.LVL66:
 644 0010 0400     		movs	r4, r0
 645              	.LVL67:
 939:..\src\app\alt_mode/vdm_task_mngr.c ****     vdm_buf->no_of_cmd_do           = msg_p->vdo_numb + VDO_START_IDX;
 646              		.loc 1 939 0
 647 0012 0379     		ldrb	r3, [r0, #4]
 648 0014 2B70     		strb	r3, [r5]
 940:..\src\app\alt_mode/vdm_task_mngr.c ****     vdm_buf->cmd_do[VDM_HEADER_IDX] = msg_p->vdm_header;
 649              		.loc 1 940 0
 650 0016 4379     		ldrb	r3, [r0, #5]
 651 0018 0133     		adds	r3, r3, #1
 652 001a 2B71     		strb	r3, [r5, #4]
 941:..\src\app\alt_mode/vdm_task_mngr.c **** 
 653              		.loc 1 941 0
 654 001c 0368     		ldr	r3, [r0]
 655 001e 2B61     		str	r3, [r5, #16]
 943:..\src\app\alt_mode/vdm_task_mngr.c ****     {
 656              		.loc 1 943 0
 657 0020 4378     		ldrb	r3, [r0, #1]
 658 0022 7F22     		movs	r2, #127
 659 0024 9343     		bics	r3, r2
 660 0026 36D0     		beq	.L45
 945:..\src\app\alt_mode/vdm_task_mngr.c **** 
 661              		.loc 1 945 0
 662 0028 0378     		ldrb	r3, [r0]
 663 002a 403A     		subs	r2, r2, #64
ARM GAS  e:\temp\ccdoSeHU.s 			page 33


 664 002c 1340     		ands	r3, r2
 665 002e 0370     		strb	r3, [r0]
 947:..\src\app\alt_mode/vdm_task_mngr.c ****         {
 666              		.loc 1 947 0
 667 0030 2B78     		ldrb	r3, [r5]
 668 0032 002B     		cmp	r3, #0
 669 0034 0DD1     		bne	.L46
 949:..\src\app\alt_mode/vdm_task_mngr.c ****         }
 670              		.loc 1 949 0
 671 0036 3000     		movs	r0, r6
 672              	.LVL68:
 673 0038 FFF7FEFF 		bl	app_get_status
 674              	.LVL69:
 675 003c 3A23     		movs	r3, #58
 676 003e C35C     		ldrb	r3, [r0, r3]
 677 0040 0322     		movs	r2, #3
 678 0042 1340     		ands	r3, r2
 679 0044 5A01     		lsls	r2, r3, #5
 680 0046 6B7C     		ldrb	r3, [r5, #17]
 681 0048 6021     		movs	r1, #96
 682 004a 8B43     		bics	r3, r1
 683 004c 1343     		orrs	r3, r2
 684 004e 6B74     		strb	r3, [r5, #17]
 685 0050 0CE0     		b	.L47
 686              	.LVL70:
 687              	.L46:
 953:..\src\app\alt_mode/vdm_task_mngr.c ****         }
 688              		.loc 1 953 0
 689 0052 3000     		movs	r0, r6
 690              	.LVL71:
 691 0054 FFF7FEFF 		bl	dpm_get_info
 692              	.LVL72:
 693 0058 7C23     		movs	r3, #124
 694 005a C35C     		ldrb	r3, [r0, r3]
 695 005c 0322     		movs	r2, #3
 696 005e 1340     		ands	r3, r2
 697 0060 5A01     		lsls	r2, r3, #5
 698 0062 6B7C     		ldrb	r3, [r5, #17]
 699 0064 6021     		movs	r1, #96
 700 0066 8B43     		bics	r3, r1
 701 0068 1343     		orrs	r3, r2
 702 006a 6B74     		strb	r3, [r5, #17]
 703              	.L47:
 957:..\src\app\alt_mode/vdm_task_mngr.c ****         {
 704              		.loc 1 957 0
 705 006c 2378     		ldrb	r3, [r4]
 706 006e DB06     		lsls	r3, r3, #27
 707 0070 DB0E     		lsrs	r3, r3, #27
 708 0072 052B     		cmp	r3, #5
 709 0074 06D0     		beq	.L49
 710 0076 062B     		cmp	r3, #6
 711 0078 07D0     		beq	.L50
 712 007a 042B     		cmp	r3, #4
 713 007c 08D1     		bne	.L57
 960:..\src\app\alt_mode/vdm_task_mngr.c ****                 break;
 714              		.loc 1 960 0
 715 007e 2933     		adds	r3, r3, #41
ARM GAS  e:\temp\ccdoSeHU.s 			page 34


 716 0080 2B73     		strb	r3, [r5, #12]
 961:..\src\app\alt_mode/vdm_task_mngr.c ****             case VDM_CMD_EXIT_MODE:
 717              		.loc 1 961 0
 718 0082 0AE0     		b	.L52
 719              	.L49:
 963:..\src\app\alt_mode/vdm_task_mngr.c ****                 break;
 720              		.loc 1 963 0
 721 0084 2D23     		movs	r3, #45
 722 0086 2B73     		strb	r3, [r5, #12]
 964:..\src\app\alt_mode/vdm_task_mngr.c ****             case VDM_CMD_ATTENTION:
 723              		.loc 1 964 0
 724 0088 07E0     		b	.L52
 725              	.L50:
 967:..\src\app\alt_mode/vdm_task_mngr.c ****                 break;
 726              		.loc 1 967 0
 727 008a 0023     		movs	r3, #0
 728 008c 2B73     		strb	r3, [r5, #12]
 968:..\src\app\alt_mode/vdm_task_mngr.c ****             default:
 729              		.loc 1 968 0
 730 008e 04E0     		b	.L52
 731              	.L57:
 970:..\src\app\alt_mode/vdm_task_mngr.c ****                 break;
 732              		.loc 1 970 0
 733 0090 1923     		movs	r3, #25
 734 0092 2B73     		strb	r3, [r5, #12]
 971:..\src\app\alt_mode/vdm_task_mngr.c ****         }
 735              		.loc 1 971 0
 736 0094 01E0     		b	.L52
 737              	.LVL73:
 738              	.L45:
 977:..\src\app\alt_mode/vdm_task_mngr.c ****     }
 739              		.loc 1 977 0
 740 0096 1923     		movs	r3, #25
 741 0098 2B73     		strb	r3, [r5, #12]
 742              	.LVL74:
 743              	.L52:
 981:..\src\app\alt_mode/vdm_task_mngr.c ****     {
 744              		.loc 1 981 0
 745 009a 6379     		ldrb	r3, [r4, #5]
 746 009c 002B     		cmp	r3, #0
 747 009e 09D1     		bne	.L56
 748 00a0 0CE0     		b	.L54
 749              	.LVL75:
 750              	.L55:
 985:..\src\app\alt_mode/vdm_task_mngr.c ****         }
 751              		.loc 1 985 0 discriminator 3
 752 00a2 591C     		adds	r1, r3, #1
 753 00a4 9A1C     		adds	r2, r3, #2
 754 00a6 9200     		lsls	r2, r2, #2
 755 00a8 1259     		ldr	r2, [r2, r4]
 756 00aa 0533     		adds	r3, r3, #5
 757              	.LVL76:
 758 00ac 9B00     		lsls	r3, r3, #2
 759 00ae 5A51     		str	r2, [r3, r5]
 983:..\src\app\alt_mode/vdm_task_mngr.c ****         {
 760              		.loc 1 983 0 discriminator 3
 761 00b0 CBB2     		uxtb	r3, r1
ARM GAS  e:\temp\ccdoSeHU.s 			page 35


 762              	.LVL77:
 763 00b2 00E0     		b	.L53
 764              	.LVL78:
 765              	.L56:
 766 00b4 0023     		movs	r3, #0
 767              	.L53:
 768              	.LVL79:
 983:..\src\app\alt_mode/vdm_task_mngr.c ****         {
 769              		.loc 1 983 0 is_stmt 0 discriminator 1
 770 00b6 6279     		ldrb	r2, [r4, #5]
 771 00b8 9342     		cmp	r3, r2
 772 00ba F2D3     		bcc	.L55
 773              	.LVL80:
 774              	.L54:
 990:..\src\app\alt_mode/vdm_task_mngr.c **** 
 775              		.loc 1 990 0 is_stmt 1
 776 00bc 0120     		movs	r0, #1
 777              		@ sp needed
 778              	.LVL81:
 779              	.LVL82:
 780 00be 70BD     		pop	{r4, r5, r6, pc}
 781              		.cfi_endproc
 782              	.LFE48:
 783              		.size	compose_vdm, .-compose_vdm
 784              		.section	.text.send_sop_dp_soft_reset,"ax",%progbits
 785              		.align	2
 786              		.code	16
 787              		.thumb_func
 788              		.type	send_sop_dp_soft_reset, %function
 789              	send_sop_dp_soft_reset:
 790              	.LFB47:
 902:..\src\app\alt_mode/vdm_task_mngr.c ****     dpm_pd_cmd_buf_t dpm_cmd_param;
 791              		.loc 1 902 0
 792              		.cfi_startproc
 793              		@ args = 0, pretend = 0, frame = 48
 794              		@ frame_needed = 0, uses_anonymous_args = 0
 795              	.LVL83:
 796 0000 10B5     		push	{r4, lr}
 797              		.cfi_def_cfa_offset 8
 798              		.cfi_offset 4, -8
 799              		.cfi_offset 14, -4
 800 0002 8CB0     		sub	sp, sp, #48
 801              		.cfi_def_cfa_offset 56
 802 0004 0400     		movs	r4, r0
 906:..\src\app\alt_mode/vdm_task_mngr.c ****     dpm_cmd_param.no_of_cmd_do = 0;
 803              		.loc 1 906 0
 804 0006 01AA     		add	r2, sp, #4
 805 0008 0223     		movs	r3, #2
 806 000a 1370     		strb	r3, [r2]
 907:..\src\app\alt_mode/vdm_task_mngr.c ****     dpm_cmd_param.dat_ptr      = 0;
 807              		.loc 1 907 0
 808 000c 0023     		movs	r3, #0
 809 000e 1371     		strb	r3, [r2, #4]
 908:..\src\app\alt_mode/vdm_task_mngr.c ****     dpm_cmd_param.timeout      = 15;
 810              		.loc 1 908 0
 811 0010 9360     		str	r3, [r2, #8]
 909:..\src\app\alt_mode/vdm_task_mngr.c **** 
ARM GAS  e:\temp\ccdoSeHU.s 			page 36


 812              		.loc 1 909 0
 813 0012 0F33     		adds	r3, r3, #15
 814 0014 1373     		strb	r3, [r2, #12]
 911:..\src\app\alt_mode/vdm_task_mngr.c ****     switch (api_stat)
 815              		.loc 1 911 0
 816 0016 0C4B     		ldr	r3, .L64
 817 0018 0821     		movs	r1, #8
 818 001a FFF7FEFF 		bl	dpm_pd_command
 819              	.LVL84:
 912:..\src\app\alt_mode/vdm_task_mngr.c ****     {
 820              		.loc 1 912 0
 821 001e 0028     		cmp	r0, #0
 822 0020 05D0     		beq	.L60
 823 0022 0CDB     		blt	.L59
 824 0024 0E38     		subs	r0, r0, #14
 825              	.LVL85:
 826 0026 C0B2     		uxtb	r0, r0
 827 0028 0128     		cmp	r0, #1
 828 002a 04D9     		bls	.L63
 829 002c 07E0     		b	.L59
 830              	.LVL86:
 831              	.L60:
 916:..\src\app\alt_mode/vdm_task_mngr.c ****             break;
 832              		.loc 1 916 0
 833 002e 0122     		movs	r2, #1
 834 0030 064B     		ldr	r3, .L64+4
 835 0032 1A55     		strb	r2, [r3, r4]
 917:..\src\app\alt_mode/vdm_task_mngr.c **** 
 836              		.loc 1 917 0
 837 0034 06E0     		b	.L58
 838              	.LVL87:
 839              	.L63:
 922:..\src\app\alt_mode/vdm_task_mngr.c ****             break;
 840              		.loc 1 922 0
 841 0036 0222     		movs	r2, #2
 842 0038 044B     		ldr	r3, .L64+4
 843 003a 1A55     		strb	r2, [r3, r4]
 923:..\src\app\alt_mode/vdm_task_mngr.c **** 
 844              		.loc 1 923 0
 845 003c 02E0     		b	.L58
 846              	.L59:
 927:..\src\app\alt_mode/vdm_task_mngr.c ****             break;
 847              		.loc 1 927 0
 848 003e 0322     		movs	r2, #3
 849 0040 024B     		ldr	r3, .L64+4
 850 0042 1A55     		strb	r2, [r3, r4]
 851              	.L58:
 930:..\src\app\alt_mode/vdm_task_mngr.c **** 
 852              		.loc 1 930 0
 853 0044 0CB0     		add	sp, sp, #48
 854              		@ sp needed
 855 0046 10BD     		pop	{r4, pc}
 856              	.L65:
 857              		.align	2
 858              	.L64:
 859 0048 00000000 		.word	sop_dp_soft_reset_cb
 860 004c 00000000 		.word	.LANCHOR0
ARM GAS  e:\temp\ccdoSeHU.s 			page 37


 861              		.cfi_endproc
 862              	.LFE47:
 863              		.size	send_sop_dp_soft_reset, .-send_sop_dp_soft_reset
 864              		.section	.text.send_vdm,"ax",%progbits
 865              		.align	2
 866              		.code	16
 867              		.thumb_func
 868              		.type	send_vdm, %function
 869              	send_vdm:
 870              	.LFB50:
1015:..\src\app\alt_mode/vdm_task_mngr.c ****     if ((gl_dpm_port_type[port] == PRT_TYPE_DFP) && (get_vdm_buff(port)->cmd_sop == SOP_DPRIME))
 871              		.loc 1 1015 0
 872              		.cfi_startproc
 873              		@ args = 0, pretend = 0, frame = 0
 874              		@ frame_needed = 0, uses_anonymous_args = 0
 875              	.LVL88:
 876 0000 10B5     		push	{r4, lr}
 877              		.cfi_def_cfa_offset 8
 878              		.cfi_offset 4, -8
 879              		.cfi_offset 14, -4
 880 0002 0400     		movs	r4, r0
1016:..\src\app\alt_mode/vdm_task_mngr.c ****     {
 881              		.loc 1 1016 0
 882 0004 1A4B     		ldr	r3, .L72
 883 0006 1B5C     		ldrb	r3, [r3, r0]
 884 0008 012B     		cmp	r3, #1
 885 000a 11D1     		bne	.L67
1016:..\src\app\alt_mode/vdm_task_mngr.c ****     {
 886              		.loc 1 1016 0 is_stmt 0 discriminator 1
 887 000c FFF7FEFF 		bl	get_vdm_buff
 888              	.LVL89:
 889 0010 0378     		ldrb	r3, [r0]
 890 0012 022B     		cmp	r3, #2
 891 0014 0CD1     		bne	.L67
1018:..\src\app\alt_mode/vdm_task_mngr.c ****         {
 892              		.loc 1 1018 0 is_stmt 1
 893 0016 174B     		ldr	r3, .L72+4
 894 0018 1B5D     		ldrb	r3, [r3, r4]
 895 001a 012B     		cmp	r3, #1
 896 001c 23D0     		beq	.L70
 897 001e 002B     		cmp	r3, #0
 898 0020 01D0     		beq	.L69
 899 0022 022B     		cmp	r3, #2
 900 0024 04D1     		bne	.L67
 901              	.L69:
1023:..\src\app\alt_mode/vdm_task_mngr.c ****                 /* Intentional fall-through. */
 902              		.loc 1 1023 0
 903 0026 2000     		movs	r0, r4
 904 0028 FFF7FEFF 		bl	send_sop_dp_soft_reset
 905              	.LVL90:
1027:..\src\app\alt_mode/vdm_task_mngr.c **** 
 906              		.loc 1 1027 0
 907 002c 0620     		movs	r0, #6
 908 002e 1DE0     		b	.L68
 909              	.L67:
1035:..\src\app\alt_mode/vdm_task_mngr.c ****     if (dpm_pd_command (port, DPM_CMD_SEND_VDM, get_vdm_buff(port), vdm_rec_cbk) == CCG_STAT_SUCCES
 910              		.loc 1 1035 0
ARM GAS  e:\temp\ccdoSeHU.s 			page 38


 911 0030 2000     		movs	r0, r4
 912 0032 FFF7FEFF 		bl	app_get_status
 913              	.LVL91:
 914 0036 E200     		lsls	r2, r4, #3
 915 0038 1219     		adds	r2, r2, r4
 916 003a D300     		lsls	r3, r2, #3
 917 003c 0E4A     		ldr	r2, .L72+8
 918 003e D318     		adds	r3, r2, r3
 919 0040 4433     		adds	r3, r3, #68
 920 0042 1B78     		ldrb	r3, [r3]
 921 0044 093B     		subs	r3, r3, #9
 922 0046 5A1E     		subs	r2, r3, #1
 923 0048 9341     		sbcs	r3, r3, r2
 924 004a 4122     		movs	r2, #65
 925 004c 8354     		strb	r3, [r0, r2]
1036:..\src\app\alt_mode/vdm_task_mngr.c ****     {
 926              		.loc 1 1036 0
 927 004e 2000     		movs	r0, r4
 928 0050 FFF7FEFF 		bl	get_vdm_buff
 929              	.LVL92:
 930 0054 0200     		movs	r2, r0
 931 0056 094B     		ldr	r3, .L72+12
 932 0058 0C21     		movs	r1, #12
 933 005a 2000     		movs	r0, r4
 934 005c FFF7FEFF 		bl	dpm_pd_command
 935              	.LVL93:
 936 0060 0028     		cmp	r0, #0
 937 0062 02D1     		bne	.L71
 938 0064 02E0     		b	.L68
 939              	.L70:
1027:..\src\app\alt_mode/vdm_task_mngr.c **** 
 940              		.loc 1 1027 0
 941 0066 0620     		movs	r0, #6
 942 0068 00E0     		b	.L68
 943              	.L71:
1042:..\src\app\alt_mode/vdm_task_mngr.c **** }
 944              		.loc 1 1042 0
 945 006a 0620     		movs	r0, #6
 946              	.L68:
1043:..\src\app\alt_mode/vdm_task_mngr.c **** 
 947              		.loc 1 1043 0
 948              		@ sp needed
 949 006c 10BD     		pop	{r4, pc}
 950              	.L73:
 951 006e C046     		.align	2
 952              	.L72:
 953 0070 00000000 		.word	gl_dpm_port_type
 954 0074 00000000 		.word	.LANCHOR0
 955 0078 00000000 		.word	vdm_stat
 956 007c 00000000 		.word	vdm_rec_cbk
 957              		.cfi_endproc
 958              	.LFE50:
 959              		.size	send_vdm, .-send_vdm
 960              		.section	.text.vdm_task_mngr_deinit,"ax",%progbits
 961              		.align	2
 962              		.global	vdm_task_mngr_deinit
 963              		.code	16
ARM GAS  e:\temp\ccdoSeHU.s 			page 39


 964              		.thumb_func
 965              		.type	vdm_task_mngr_deinit, %function
 966              	vdm_task_mngr_deinit:
 967              	.LFB45:
 857:..\src\app\alt_mode/vdm_task_mngr.c ****     /* CDT 247011 re-fix */
 968              		.loc 1 857 0
 969              		.cfi_startproc
 970              		@ args = 0, pretend = 0, frame = 0
 971              		@ frame_needed = 0, uses_anonymous_args = 0
 972              	.LVL94:
 973 0000 70B5     		push	{r4, r5, r6, lr}
 974              		.cfi_def_cfa_offset 16
 975              		.cfi_offset 4, -16
 976              		.cfi_offset 5, -12
 977              		.cfi_offset 6, -8
 978              		.cfi_offset 14, -4
 979 0002 0400     		movs	r4, r0
 859:..\src\app\alt_mode/vdm_task_mngr.c ****     /* If VDM task is not active, no need to go through the rest of the steps. */
 980              		.loc 1 859 0
 981 0004 FFF7FEFF 		bl	app_get_status
 982              	.LVL95:
 983 0008 0022     		movs	r2, #0
 984 000a 3E23     		movs	r3, #62
 985 000c C254     		strb	r2, [r0, r3]
 861:..\src\app\alt_mode/vdm_task_mngr.c ****     {
 986              		.loc 1 861 0
 987 000e 2000     		movs	r0, r4
 988 0010 FFF7FEFF 		bl	app_get_status
 989              	.LVL96:
 990 0014 3823     		movs	r3, #56
 991 0016 C35C     		ldrb	r3, [r0, r3]
 992 0018 002B     		cmp	r3, #0
 993 001a 14D0     		beq	.L74
 863:..\src\app\alt_mode/vdm_task_mngr.c ****         app_get_status(port)->vdm_task_en = false;
 994              		.loc 1 863 0
 995 001c 2000     		movs	r0, r4
 996 001e FFF7FEFF 		bl	reset_vdm_mngr
 997              	.LVL97:
 864:..\src\app\alt_mode/vdm_task_mngr.c ****         app_get_status(port)->alt_mode_entered = false;
 998              		.loc 1 864 0
 999 0022 2000     		movs	r0, r4
 1000 0024 FFF7FEFF 		bl	app_get_status
 1001              	.LVL98:
 1002 0028 0025     		movs	r5, #0
 1003 002a 3823     		movs	r3, #56
 1004 002c C554     		strb	r5, [r0, r3]
 865:..\src\app\alt_mode/vdm_task_mngr.c ****         /* Exit from alt mode manager */
 1005              		.loc 1 865 0
 1006 002e 2000     		movs	r0, r4
 1007 0030 FFF7FEFF 		bl	app_get_status
 1008              	.LVL99:
 1009 0034 3D23     		movs	r3, #61
 1010 0036 C554     		strb	r5, [r0, r3]
 867:..\src\app\alt_mode/vdm_task_mngr.c ****         /* Deinit App HW */
 1011              		.loc 1 867 0
 1012 0038 0321     		movs	r1, #3
 1013 003a 2000     		movs	r0, r4
ARM GAS  e:\temp\ccdoSeHU.s 			page 40


 1014 003c FFF7FEFF 		bl	vdm_task_mngr_alt_mode_process
 1015              	.LVL100:
 869:..\src\app\alt_mode/vdm_task_mngr.c ****     }
 1016              		.loc 1 869 0
 1017 0040 2000     		movs	r0, r4
 1018 0042 FFF7FEFF 		bl	alt_mode_hw_deinit
 1019              	.LVL101:
 1020              	.L74:
 871:..\src\app\alt_mode/vdm_task_mngr.c **** 
 1021              		.loc 1 871 0
 1022              		@ sp needed
 1023 0046 70BD     		pop	{r4, r5, r6, pc}
 1024              		.cfi_endproc
 1025              	.LFE45:
 1026              		.size	vdm_task_mngr_deinit, .-vdm_task_mngr_deinit
 1027              		.section	.text.get_evt,"ax",%progbits
 1028              		.align	2
 1029              		.global	get_evt
 1030              		.code	16
 1031              		.thumb_func
 1032              		.type	get_evt, %function
 1033              	get_evt:
 1034              	.LFB52:
1066:..\src\app\alt_mode/vdm_task_mngr.c ****     return vdm_stat[port].vdm_evt;
 1035              		.loc 1 1066 0
 1036              		.cfi_startproc
 1037              		@ args = 0, pretend = 0, frame = 0
 1038              		@ frame_needed = 0, uses_anonymous_args = 0
 1039              		@ link register save eliminated.
 1040              	.LVL102:
1067:..\src\app\alt_mode/vdm_task_mngr.c **** }
 1041              		.loc 1 1067 0
 1042 0000 C300     		lsls	r3, r0, #3
 1043 0002 1818     		adds	r0, r3, r0
 1044              	.LVL103:
 1045 0004 C300     		lsls	r3, r0, #3
 1046 0006 024A     		ldr	r2, .L77
 1047 0008 D318     		adds	r3, r2, r3
 1048 000a 5878     		ldrb	r0, [r3, #1]
1068:..\src\app\alt_mode/vdm_task_mngr.c **** 
 1049              		.loc 1 1068 0
 1050              		@ sp needed
 1051 000c 7047     		bx	lr
 1052              	.L78:
 1053 000e C046     		.align	2
 1054              	.L77:
 1055 0010 00000000 		.word	vdm_stat
 1056              		.cfi_endproc
 1057              	.LFE52:
 1058              		.size	get_evt, .-get_evt
 1059              		.section	.text.get_task,"ax",%progbits
 1060              		.align	2
 1061              		.global	get_task
 1062              		.code	16
 1063              		.thumb_func
 1064              		.type	get_task, %function
 1065              	get_task:
ARM GAS  e:\temp\ccdoSeHU.s 			page 41


 1066              	.LFB53:
1071:..\src\app\alt_mode/vdm_task_mngr.c ****     return vdm_stat[port].vdm_task;
 1067              		.loc 1 1071 0
 1068              		.cfi_startproc
 1069              		@ args = 0, pretend = 0, frame = 0
 1070              		@ frame_needed = 0, uses_anonymous_args = 0
 1071              		@ link register save eliminated.
 1072              	.LVL104:
1072:..\src\app\alt_mode/vdm_task_mngr.c **** }
 1073              		.loc 1 1072 0
 1074 0000 C300     		lsls	r3, r0, #3
 1075 0002 1818     		adds	r0, r3, r0
 1076              	.LVL105:
 1077 0004 C300     		lsls	r3, r0, #3
 1078 0006 014A     		ldr	r2, .L80
 1079 0008 D05C     		ldrb	r0, [r2, r3]
1073:..\src\app\alt_mode/vdm_task_mngr.c **** 
 1080              		.loc 1 1073 0
 1081              		@ sp needed
 1082 000a 7047     		bx	lr
 1083              	.L81:
 1084              		.align	2
 1085              	.L80:
 1086 000c 00000000 		.word	vdm_stat
 1087              		.cfi_endproc
 1088              	.LFE53:
 1089              		.size	get_task, .-get_task
 1090              		.section	.text.is_vdm_task_idle,"ax",%progbits
 1091              		.align	2
 1092              		.global	is_vdm_task_idle
 1093              		.code	16
 1094              		.thumb_func
 1095              		.type	is_vdm_task_idle, %function
 1096              	is_vdm_task_idle:
 1097              	.LFB34:
 200:..\src\app\alt_mode/vdm_task_mngr.c ****     /*
 1098              		.loc 1 200 0
 1099              		.cfi_startproc
 1100              		@ args = 0, pretend = 0, frame = 0
 1101              		@ frame_needed = 0, uses_anonymous_args = 0
 1102              	.LVL106:
 1103 0000 10B5     		push	{r4, lr}
 1104              		.cfi_def_cfa_offset 8
 1105              		.cfi_offset 4, -8
 1106              		.cfi_offset 14, -4
 1107 0002 0400     		movs	r4, r0
 206:..\src\app\alt_mode/vdm_task_mngr.c ****             ((timer_is_running (port, APP_VDM_BUSY_TIMER)) ||
 1108              		.loc 1 206 0
 1109 0004 FFF7FEFF 		bl	is_vdm_mngr_enabled
 1110              	.LVL107:
 1111 0008 0028     		cmp	r0, #0
 1112 000a 10D0     		beq	.L84
 207:..\src\app\alt_mode/vdm_task_mngr.c ****              (get_task(port) != VDM_TASK_ALT_MODE) ||
 1113              		.loc 1 207 0 discriminator 2
 1114 000c 2821     		movs	r1, #40
 1115 000e 2000     		movs	r0, r4
 1116 0010 FFF7FEFF 		bl	timer_is_running
ARM GAS  e:\temp\ccdoSeHU.s 			page 42


 1117              	.LVL108:
 206:..\src\app\alt_mode/vdm_task_mngr.c ****             ((timer_is_running (port, APP_VDM_BUSY_TIMER)) ||
 1118              		.loc 1 206 0 discriminator 2
 1119 0014 0028     		cmp	r0, #0
 1120 0016 0CD1     		bne	.L85
 208:..\src\app\alt_mode/vdm_task_mngr.c ****              (is_alt_mode_mngr_idle(port) == false))
 1121              		.loc 1 208 0
 1122 0018 2000     		movs	r0, r4
 1123 001a FFF7FEFF 		bl	get_task
 1124              	.LVL109:
 207:..\src\app\alt_mode/vdm_task_mngr.c ****              (get_task(port) != VDM_TASK_ALT_MODE) ||
 1125              		.loc 1 207 0
 1126 001e 0728     		cmp	r0, #7
 1127 0020 09D1     		bne	.L86
 209:..\src\app\alt_mode/vdm_task_mngr.c ****             );
 1128              		.loc 1 209 0
 1129 0022 2000     		movs	r0, r4
 1130 0024 FFF7FEFF 		bl	is_alt_mode_mngr_idle
 1131              	.LVL110:
 208:..\src\app\alt_mode/vdm_task_mngr.c ****              (is_alt_mode_mngr_idle(port) == false))
 1132              		.loc 1 208 0
 1133 0028 0028     		cmp	r0, #0
 1134 002a 06D1     		bne	.L87
 1135 002c 06E0     		b	.L83
 1136              	.L84:
 206:..\src\app\alt_mode/vdm_task_mngr.c ****             ((timer_is_running (port, APP_VDM_BUSY_TIMER)) ||
 1137              		.loc 1 206 0
 1138 002e 0120     		movs	r0, #1
 1139 0030 04E0     		b	.L83
 1140              	.L85:
 1141 0032 0020     		movs	r0, #0
 1142 0034 02E0     		b	.L83
 1143              	.L86:
 1144 0036 0020     		movs	r0, #0
 1145 0038 00E0     		b	.L83
 1146              	.L87:
 1147 003a 0120     		movs	r0, #1
 1148              	.L83:
 211:..\src\app\alt_mode/vdm_task_mngr.c **** 
 1149              		.loc 1 211 0 discriminator 5
 1150              		@ sp needed
 1151 003c 10BD     		pop	{r4, pc}
 1152              		.cfi_endproc
 1153              	.LFE34:
 1154              		.size	is_vdm_task_idle, .-is_vdm_task_idle
 1155 003e C046     		.section	.text.set_task,"ax",%progbits
 1156              		.align	2
 1157              		.global	set_task
 1158              		.code	16
 1159              		.thumb_func
 1160              		.type	set_task, %function
 1161              	set_task:
 1162              	.LFB54:
1076:..\src\app\alt_mode/vdm_task_mngr.c ****     vdm_stat[port].vdm_task = task;
 1163              		.loc 1 1076 0
 1164              		.cfi_startproc
 1165              		@ args = 0, pretend = 0, frame = 0
ARM GAS  e:\temp\ccdoSeHU.s 			page 43


 1166              		@ frame_needed = 0, uses_anonymous_args = 0
 1167              		@ link register save eliminated.
 1168              	.LVL111:
1077:..\src\app\alt_mode/vdm_task_mngr.c **** }
 1169              		.loc 1 1077 0
 1170 0000 C300     		lsls	r3, r0, #3
 1171 0002 1818     		adds	r0, r3, r0
 1172              	.LVL112:
 1173 0004 C300     		lsls	r3, r0, #3
 1174 0006 014A     		ldr	r2, .L89
 1175 0008 9954     		strb	r1, [r3, r2]
1078:..\src\app\alt_mode/vdm_task_mngr.c **** 
 1176              		.loc 1 1078 0
 1177              		@ sp needed
 1178 000a 7047     		bx	lr
 1179              	.L90:
 1180              		.align	2
 1181              	.L89:
 1182 000c 00000000 		.word	vdm_stat
 1183              		.cfi_endproc
 1184              	.LFE54:
 1185              		.size	set_task, .-set_task
 1186              		.section	.text.enable_vdm_task_mngr,"ax",%progbits
 1187              		.align	2
 1188              		.global	enable_vdm_task_mngr
 1189              		.code	16
 1190              		.thumb_func
 1191              		.type	enable_vdm_task_mngr, %function
 1192              	enable_vdm_task_mngr:
 1193              	.LFB32:
 156:..\src\app\alt_mode/vdm_task_mngr.c ****     /* If the VDM Task is already running, do nothing. */
 1194              		.loc 1 156 0
 1195              		.cfi_startproc
 1196              		@ args = 0, pretend = 0, frame = 0
 1197              		@ frame_needed = 0, uses_anonymous_args = 0
 1198              	.LVL113:
 1199 0000 10B5     		push	{r4, lr}
 1200              		.cfi_def_cfa_offset 8
 1201              		.cfi_offset 4, -8
 1202              		.cfi_offset 14, -4
 1203 0002 0400     		movs	r4, r0
 158:..\src\app\alt_mode/vdm_task_mngr.c ****     {
 1204              		.loc 1 158 0
 1205 0004 FFF7FEFF 		bl	app_get_status
 1206              	.LVL114:
 1207 0008 3823     		movs	r3, #56
 1208 000a C35C     		ldrb	r3, [r0, r3]
 1209 000c 002B     		cmp	r3, #0
 1210 000e 0FD1     		bne	.L91
 160:..\src\app\alt_mode/vdm_task_mngr.c ****         app_get_status(port)->vdm_task_en = true;
 1211              		.loc 1 160 0
 1212 0010 0121     		movs	r1, #1
 1213 0012 2000     		movs	r0, r4
 1214 0014 FFF7FEFF 		bl	set_task
 1215              	.LVL115:
 161:..\src\app\alt_mode/vdm_task_mngr.c ****         app_get_status(port)->vdm_prcs_failed = false;
 1216              		.loc 1 161 0
ARM GAS  e:\temp\ccdoSeHU.s 			page 44


 1217 0018 2000     		movs	r0, r4
 1218 001a FFF7FEFF 		bl	app_get_status
 1219              	.LVL116:
 1220 001e 0122     		movs	r2, #1
 1221 0020 3823     		movs	r3, #56
 1222 0022 C254     		strb	r2, [r0, r3]
 162:..\src\app\alt_mode/vdm_task_mngr.c ****     }
 1223              		.loc 1 162 0
 1224 0024 2000     		movs	r0, r4
 1225 0026 FFF7FEFF 		bl	app_get_status
 1226              	.LVL117:
 1227 002a 0022     		movs	r2, #0
 1228 002c 3E23     		movs	r3, #62
 1229 002e C254     		strb	r2, [r0, r3]
 1230              	.L91:
 164:..\src\app\alt_mode/vdm_task_mngr.c **** 
 1231              		.loc 1 164 0
 1232              		@ sp needed
 1233 0030 10BD     		pop	{r4, pc}
 1234              		.cfi_endproc
 1235              	.LFE32:
 1236              		.size	enable_vdm_task_mngr, .-enable_vdm_task_mngr
 1237              		.section	.text.set_evt,"ax",%progbits
 1238              		.align	2
 1239              		.global	set_evt
 1240              		.code	16
 1241              		.thumb_func
 1242              		.type	set_evt, %function
 1243              	set_evt:
 1244              	.LFB55:
1081:..\src\app\alt_mode/vdm_task_mngr.c ****     vdm_stat[port].vdm_evt = evt;
 1245              		.loc 1 1081 0
 1246              		.cfi_startproc
 1247              		@ args = 0, pretend = 0, frame = 0
 1248              		@ frame_needed = 0, uses_anonymous_args = 0
 1249              		@ link register save eliminated.
 1250              	.LVL118:
1082:..\src\app\alt_mode/vdm_task_mngr.c **** }
 1251              		.loc 1 1082 0
 1252 0000 C300     		lsls	r3, r0, #3
 1253 0002 1818     		adds	r0, r3, r0
 1254              	.LVL119:
 1255 0004 C300     		lsls	r3, r0, #3
 1256 0006 024A     		ldr	r2, .L94
 1257 0008 D318     		adds	r3, r2, r3
 1258 000a 5970     		strb	r1, [r3, #1]
1083:..\src\app\alt_mode/vdm_task_mngr.c **** 
 1259              		.loc 1 1083 0
 1260              		@ sp needed
 1261 000c 7047     		bx	lr
 1262              	.L95:
 1263 000e C046     		.align	2
 1264              	.L94:
 1265 0010 00000000 		.word	vdm_stat
 1266              		.cfi_endproc
 1267              	.LFE55:
 1268              		.size	set_evt, .-set_evt
ARM GAS  e:\temp\ccdoSeHU.s 			page 45


 1269              		.section	.text.vdm_task_mngr_init,"ax",%progbits
 1270              		.align	2
 1271              		.code	16
 1272              		.thumb_func
 1273              		.type	vdm_task_mngr_init, %function
 1274              	vdm_task_mngr_init:
 1275              	.LFB33:
 167:..\src\app\alt_mode/vdm_task_mngr.c ****     vdm_task_t ret = VDM_TASK_EXIT;
 1276              		.loc 1 167 0
 1277              		.cfi_startproc
 1278              		@ args = 0, pretend = 0, frame = 0
 1279              		@ frame_needed = 0, uses_anonymous_args = 0
 1280              	.LVL120:
 1281 0000 10B5     		push	{r4, lr}
 1282              		.cfi_def_cfa_offset 8
 1283              		.cfi_offset 4, -8
 1284              		.cfi_offset 14, -4
 1285 0002 0400     		movs	r4, r0
 1286              	.LVL121:
 171:..\src\app\alt_mode/vdm_task_mngr.c ****     set_evt(port, VDM_EVT_RUN);
 1287              		.loc 1 171 0
 1288 0004 FFF7FEFF 		bl	reset_vdm_mngr
 1289              	.LVL122:
 172:..\src\app\alt_mode/vdm_task_mngr.c **** 
 1290              		.loc 1 172 0
 1291 0008 0021     		movs	r1, #0
 1292 000a 2000     		movs	r0, r4
 1293 000c FFF7FEFF 		bl	set_evt
 1294              	.LVL123:
 182:..\src\app\alt_mode/vdm_task_mngr.c ****     {
 1295              		.loc 1 182 0
 1296 0010 2000     		movs	r0, r4
 1297 0012 FFF7FEFF 		bl	get_alt_mode_numb
 1298              	.LVL124:
 1299 0016 0028     		cmp	r0, #0
 1300 0018 05D0     		beq	.L98
 185:..\src\app\alt_mode/vdm_task_mngr.c ****         {
 1301              		.loc 1 185 0
 1302 001a 054B     		ldr	r3, .L100
 1303 001c 1B5D     		ldrb	r3, [r3, r4]
 1304 001e 002B     		cmp	r3, #0
 1305 0020 03D0     		beq	.L99
 187:..\src\app\alt_mode/vdm_task_mngr.c ****     }
 1306              		.loc 1 187 0
 1307 0022 0220     		movs	r0, #2
 1308 0024 02E0     		b	.L97
 1309              	.L98:
 168:..\src\app\alt_mode/vdm_task_mngr.c **** 
 1310              		.loc 1 168 0
 1311 0026 0520     		movs	r0, #5
 1312 0028 00E0     		b	.L97
 1313              	.L99:
 191:..\src\app\alt_mode/vdm_task_mngr.c ****         }
 1314              		.loc 1 191 0
 1315 002a 0420     		movs	r0, #4
 1316              	.L97:
 1317              	.LVL125:
ARM GAS  e:\temp\ccdoSeHU.s 			page 46


 197:..\src\app\alt_mode/vdm_task_mngr.c **** 
 1318              		.loc 1 197 0
 1319              		@ sp needed
 1320 002c 10BD     		pop	{r4, pc}
 1321              	.L101:
 1322 002e C046     		.align	2
 1323              	.L100:
 1324 0030 00000000 		.word	gl_dpm_port_type
 1325              		.cfi_endproc
 1326              	.LFE33:
 1327              		.size	vdm_task_mngr_init, .-vdm_task_mngr_init
 1328              		.section	.text.vdm_task_mng_disc_id,"ax",%progbits
 1329              		.align	2
 1330              		.code	16
 1331              		.thumb_func
 1332              		.type	vdm_task_mng_disc_id, %function
 1333              	vdm_task_mng_disc_id:
 1334              	.LFB39:
 456:..\src\app\alt_mode/vdm_task_mngr.c ****     vdm_msg_info_t *msg_p  = get_msg (port);
 1335              		.loc 1 456 0
 1336              		.cfi_startproc
 1337              		@ args = 0, pretend = 0, frame = 0
 1338              		@ frame_needed = 0, uses_anonymous_args = 0
 1339              	.LVL126:
 1340 0000 F0B5     		push	{r4, r5, r6, r7, lr}
 1341              		.cfi_def_cfa_offset 20
 1342              		.cfi_offset 4, -20
 1343              		.cfi_offset 5, -16
 1344              		.cfi_offset 6, -12
 1345              		.cfi_offset 7, -8
 1346              		.cfi_offset 14, -4
 1347 0002 4746     		mov	r7, r8
 1348 0004 80B4     		push	{r7}
 1349              		.cfi_def_cfa_offset 24
 1350              		.cfi_offset 8, -24
 1351 0006 0400     		movs	r4, r0
 1352 0008 0E00     		movs	r6, r1
 457:..\src\app\alt_mode/vdm_task_mngr.c ****     vdm_task_t ret         = VDM_TASK_EXIT;
 1353              		.loc 1 457 0
 1354 000a FFF7FEFF 		bl	get_msg
 1355              	.LVL127:
 1356 000e 0500     		movs	r5, r0
 1357              	.LVL128:
 459:..\src\app\alt_mode/vdm_task_mngr.c **** 
 1358              		.loc 1 459 0
 1359 0010 2000     		movs	r0, r4
 1360              	.LVL129:
 1361 0012 FFF7FEFF 		bl	dpm_get_info
 1362              	.LVL130:
 1363 0016 0700     		movs	r7, r0
 1364              	.LVL131:
 466:..\src\app\alt_mode/vdm_task_mngr.c ****     {
 1365              		.loc 1 466 0
 1366 0018 002E     		cmp	r6, #0
 1367 001a 02D0     		beq	.L104
 1368 001c 012E     		cmp	r6, #1
 1369 001e 0CD0     		beq	.L105
ARM GAS  e:\temp\ccdoSeHU.s 			page 47


 1370 0020 5BE0     		b	.L112
 1371              	.L104:
 470:..\src\app\alt_mode/vdm_task_mngr.c ****             msg_p->VDM_HDR.svid     = STD_SVID;
 1372              		.loc 1 470 0
 1373 0022 0023     		movs	r3, #0
 471:..\src\app\alt_mode/vdm_task_mngr.c ****             msg_p->VDM_HDR.cmd      = VDM_CMD_DSC_IDENTITY;
 1374              		.loc 1 471 0
 1375 0024 314A     		ldr	r2, .L113
 1376 0026 6A80     		strh	r2, [r5, #2]
 472:..\src\app\alt_mode/vdm_task_mngr.c ****             msg_p->vdo_numb         = NO_DATA;
 1377              		.loc 1 472 0
 1378 0028 0232     		adds	r2, r2, #2
 1379 002a FF32     		adds	r2, r2, #255
 1380 002c 2A70     		strb	r2, [r5]
 473:..\src\app\alt_mode/vdm_task_mngr.c ****             msg_p->sop_type         = SOP;
 1381              		.loc 1 473 0
 1382 002e 6B71     		strb	r3, [r5, #5]
 474:..\src\app\alt_mode/vdm_task_mngr.c ****             msg_p->VDM_HDR.vdm_type = VDM_TYPE_STRUCTURED;
 1383              		.loc 1 474 0
 1384 0030 2B71     		strb	r3, [r5, #4]
 475:..\src\app\alt_mode/vdm_task_mngr.c ****             ret                     = VDM_TASK_SEND_MSG;
 1385              		.loc 1 475 0
 1386 0032 803B     		subs	r3, r3, #128
 1387 0034 6B70     		strb	r3, [r5, #1]
 1388              	.LVL132:
 476:..\src\app\alt_mode/vdm_task_mngr.c ****             break;
 1389              		.loc 1 476 0
 1390 0036 0620     		movs	r0, #6
 1391              	.LVL133:
 477:..\src\app\alt_mode/vdm_task_mngr.c **** 
 1392              		.loc 1 477 0
 1393 0038 54E0     		b	.L103
 1394              	.LVL134:
 1395              	.L105:
 482:..\src\app\alt_mode/vdm_task_mngr.c ****             {
 1396              		.loc 1 482 0
 1397 003a 2D4B     		ldr	r3, .L113+4
 1398 003c 1B5D     		ldrb	r3, [r3, r4]
 1399 003e 002B     		cmp	r3, #0
 1400 0040 4DD0     		beq	.L110
 486:..\src\app\alt_mode/vdm_task_mngr.c ****                 memcpy ((uint8_t *)&vdm_disc_id_resp[port][1], (uint8_t *)msg_p->vdo, msg_p->vdo_nu
 1401              		.loc 1 486 0
 1402 0042 2C4B     		ldr	r3, .L113+8
 1403 0044 9846     		mov	r8, r3
 1404 0046 E600     		lsls	r6, r4, #3
 1405 0048 321B     		subs	r2, r6, r4
 1406 004a 9300     		lsls	r3, r2, #2
 1407 004c 4344     		add	r3, r3, r8
 1408 004e 2A68     		ldr	r2, [r5]
 1409 0050 DA60     		str	r2, [r3, #12]
 487:..\src\app\alt_mode/vdm_task_mngr.c ****                 vdm_disc_id_resp_len[port] = msg_p->vdo_numb + 1;
 1410              		.loc 1 487 0
 1411 0052 4046     		mov	r0, r8
 1412              	.LVL135:
 1413 0054 0C30     		adds	r0, r0, #12
 1414 0056 321B     		subs	r2, r6, r4
 1415 0058 9300     		lsls	r3, r2, #2
ARM GAS  e:\temp\ccdoSeHU.s 			page 48


 1416 005a 0433     		adds	r3, r3, #4
 1417 005c C018     		adds	r0, r0, r3
 1418 005e 2900     		movs	r1, r5
 1419 0060 0831     		adds	r1, r1, #8
 1420 0062 6A79     		ldrb	r2, [r5, #5]
 1421 0064 9200     		lsls	r2, r2, #2
 1422 0066 FFF7FEFF 		bl	memcpy
 1423              	.LVL136:
 488:..\src\app\alt_mode/vdm_task_mngr.c **** #endif /* VDM_RESP_QUERY_SUPPORTED */
 1424              		.loc 1 488 0
 1425 006a 6A79     		ldrb	r2, [r5, #5]
 1426 006c 4346     		mov	r3, r8
 1427 006e 1B19     		adds	r3, r3, r4
 1428 0070 0132     		adds	r2, r2, #1
 1429 0072 1A72     		strb	r2, [r3, #8]
 492:..\src\app\alt_mode/vdm_task_mngr.c ****                 vdm_stat[port].dsvid_cnt = 0;
 1430              		.loc 1 492 0
 1431 0074 204A     		ldr	r2, .L113+12
 1432 0076 3119     		adds	r1, r6, r4
 1433 0078 CB00     		lsls	r3, r1, #3
 1434 007a D318     		adds	r3, r2, r3
 1435 007c 1800     		movs	r0, r3
 1436 007e 4530     		adds	r0, r0, #69
 1437 0080 0021     		movs	r1, #0
 1438 0082 0170     		strb	r1, [r0]
 493:..\src\app\alt_mode/vdm_task_mngr.c **** 
 1439              		.loc 1 493 0
 1440 0084 0130     		adds	r0, r0, #1
 1441 0086 0170     		strb	r1, [r0]
 496:..\src\app\alt_mode/vdm_task_mngr.c ****                 /* Copy AMA VDO to info struct */
 1442              		.loc 1 496 0
 1443 0088 6969     		ldr	r1, [r5, #20]
 1444 008a 9960     		str	r1, [r3, #8]
 498:..\src\app\alt_mode/vdm_task_mngr.c **** 
 1445              		.loc 1 498 0
 1446 008c 3619     		adds	r6, r6, r4
 1447 008e F300     		lsls	r3, r6, #3
 1448 0090 D318     		adds	r3, r2, r3
 1449 0092 AA68     		ldr	r2, [r5, #8]
 1450 0094 5A60     		str	r2, [r3, #4]
 502:..\src\app\alt_mode/vdm_task_mngr.c ****                         ((msg_p->vdo[VDO_START_IDX - 1].std_id_hdr.prod_type != PROD_TYPE_AMA) ||
 1451              		.loc 1 502 0
 1452 0096 7B7D     		ldrb	r3, [r7, #21]
 501:..\src\app\alt_mode/vdm_task_mngr.c ****                         (dpm_stat->vconn_retain == 0) &&
 1453              		.loc 1 501 0
 1454 0098 002B     		cmp	r3, #0
 1455 009a 15D1     		bne	.L106
 503:..\src\app\alt_mode/vdm_task_mngr.c ****                             (msg_p->vdo[PD_DISC_ID_AMA_VDO_IDX].std_ama_vdo.vcon_req == 0)) &&
 1456              		.loc 1 503 0
 1457 009c EB7A     		ldrb	r3, [r5, #11]
 1458 009e 3822     		movs	r2, #56
 1459 00a0 1340     		ands	r3, r2
 502:..\src\app\alt_mode/vdm_task_mngr.c ****                         ((msg_p->vdo[VDO_START_IDX - 1].std_id_hdr.prod_type != PROD_TYPE_AMA) ||
 1460              		.loc 1 502 0
 1461 00a2 282B     		cmp	r3, #40
 1462 00a4 02D1     		bne	.L107
 504:..\src\app\alt_mode/vdm_task_mngr.c ****                         ((dpm_stat->emca_present == false) ||
ARM GAS  e:\temp\ccdoSeHU.s 			page 49


 1463              		.loc 1 504 0
 1464 00a6 2B7D     		ldrb	r3, [r5, #20]
 503:..\src\app\alt_mode/vdm_task_mngr.c ****                             (msg_p->vdo[PD_DISC_ID_AMA_VDO_IDX].std_ama_vdo.vcon_req == 0)) &&
 1465              		.loc 1 503 0
 1466 00a8 DB06     		lsls	r3, r3, #27
 1467 00aa 0DD4     		bmi	.L106
 1468              	.L107:
 505:..\src\app\alt_mode/vdm_task_mngr.c ****                          (dpm_stat->cbl_vdo.std_cbl_vdo.cbl_term == CBL_TERM_BOTH_PAS_VCONN_NOT_REQ
 1469              		.loc 1 505 0
 1470 00ac 7923     		movs	r3, #121
 1471 00ae FB5C     		ldrb	r3, [r7, r3]
 504:..\src\app\alt_mode/vdm_task_mngr.c ****                         ((dpm_stat->emca_present == false) ||
 1472              		.loc 1 504 0
 1473 00b0 002B     		cmp	r3, #0
 1474 00b2 04D0     		beq	.L108
 506:..\src\app\alt_mode/vdm_task_mngr.c ****                    )
 1475              		.loc 1 506 0
 1476 00b4 B923     		movs	r3, #185
 1477 00b6 FB5C     		ldrb	r3, [r7, r3]
 1478 00b8 1822     		movs	r2, #24
 505:..\src\app\alt_mode/vdm_task_mngr.c ****                          (dpm_stat->cbl_vdo.std_cbl_vdo.cbl_term == CBL_TERM_BOTH_PAS_VCONN_NOT_REQ
 1479              		.loc 1 505 0
 1480 00ba 1A42     		tst	r2, r3
 1481 00bc 04D1     		bne	.L106
 1482              	.L108:
 509:..\src\app\alt_mode/vdm_task_mngr.c ****                 }
 1483              		.loc 1 509 0
 1484 00be 7023     		movs	r3, #112
 1485 00c0 F95C     		ldrb	r1, [r7, r3]
 1486 00c2 2000     		movs	r0, r4
 1487 00c4 FFF7FEFF 		bl	vconn_disable
 1488              	.LVL137:
 1489              	.L106:
 513:..\src\app\alt_mode/vdm_task_mngr.c ****                 {
 1490              		.loc 1 513 0
 1491 00c8 EB7A     		ldrb	r3, [r5, #11]
 1492 00ca 5B07     		lsls	r3, r3, #29
 1493 00cc 09D5     		bpl	.L111
 519:..\src\app\alt_mode/vdm_task_mngr.c ****                 ret = VDM_TASK_DISC_SVID;
 1494              		.loc 1 519 0
 1495 00ce 0021     		movs	r1, #0
 1496 00d0 2000     		movs	r0, r4
 1497 00d2 FFF7FEFF 		bl	set_evt
 1498              	.LVL138:
 520:..\src\app\alt_mode/vdm_task_mngr.c ****             }
 1499              		.loc 1 520 0
 1500 00d6 0320     		movs	r0, #3
 1501 00d8 04E0     		b	.L103
 1502              	.LVL139:
 1503              	.L112:
 458:..\src\app\alt_mode/vdm_task_mngr.c ****     const dpm_status_t *dpm_stat = dpm_get_info(port);
 1504              		.loc 1 458 0
 1505 00da 0520     		movs	r0, #5
 1506              	.LVL140:
 1507 00dc 02E0     		b	.L103
 1508              	.LVL141:
 1509              	.L110:
ARM GAS  e:\temp\ccdoSeHU.s 			page 50


 1510 00de 0520     		movs	r0, #5
 1511              	.LVL142:
 1512 00e0 00E0     		b	.L103
 1513              	.L111:
 1514 00e2 0520     		movs	r0, #5
 1515              	.LVL143:
 1516              	.L103:
 550:..\src\app\alt_mode/vdm_task_mngr.c **** 
 1517              		.loc 1 550 0
 1518              		@ sp needed
 1519              	.LVL144:
 1520              	.LVL145:
 1521 00e4 04BC     		pop	{r2}
 1522 00e6 9046     		mov	r8, r2
 1523 00e8 F0BD     		pop	{r4, r5, r6, r7, pc}
 1524              	.L114:
 1525 00ea C046     		.align	2
 1526              	.L113:
 1527 00ec 00FFFFFF 		.word	-256
 1528 00f0 00000000 		.word	gl_dpm_port_type
 1529 00f4 00000000 		.word	.LANCHOR0
 1530 00f8 00000000 		.word	vdm_stat
 1531              		.cfi_endproc
 1532              	.LFE39:
 1533              		.size	vdm_task_mng_disc_id, .-vdm_task_mng_disc_id
 1534              		.section	.text.vdm_task_mng_disc_svid,"ax",%progbits
 1535              		.align	2
 1536              		.code	16
 1537              		.thumb_func
 1538              		.type	vdm_task_mng_disc_svid, %function
 1539              	vdm_task_mng_disc_svid:
 1540              	.LFB43:
 660:..\src\app\alt_mode/vdm_task_mngr.c ****     vdm_task_t ret               = VDM_TASK_EXIT;
 1541              		.loc 1 660 0
 1542              		.cfi_startproc
 1543              		@ args = 0, pretend = 0, frame = 0
 1544              		@ frame_needed = 0, uses_anonymous_args = 0
 1545              	.LVL146:
 1546 0000 F8B5     		push	{r3, r4, r5, r6, r7, lr}
 1547              		.cfi_def_cfa_offset 24
 1548              		.cfi_offset 3, -24
 1549              		.cfi_offset 4, -20
 1550              		.cfi_offset 5, -16
 1551              		.cfi_offset 6, -12
 1552              		.cfi_offset 7, -8
 1553              		.cfi_offset 14, -4
 1554 0002 4F46     		mov	r7, r9
 1555 0004 4646     		mov	r6, r8
 1556 0006 C0B4     		push	{r6, r7}
 1557              		.cfi_def_cfa_offset 32
 1558              		.cfi_offset 8, -32
 1559              		.cfi_offset 9, -28
 1560 0008 0400     		movs	r4, r0
 1561 000a 0D00     		movs	r5, r1
 1562              	.LVL147:
 662:..\src\app\alt_mode/vdm_task_mngr.c ****     vdm_msg_info_t *msg_p        = get_msg (port);
 1563              		.loc 1 662 0
ARM GAS  e:\temp\ccdoSeHU.s 			page 51


 1564 000c FFF7FEFF 		bl	dpm_get_info
 1565              	.LVL148:
 1566 0010 0700     		movs	r7, r0
 1567              	.LVL149:
 663:..\src\app\alt_mode/vdm_task_mngr.c **** #if VDM_RESP_QUERY_SUPPORTED
 1568              		.loc 1 663 0
 1569 0012 2000     		movs	r0, r4
 1570              	.LVL150:
 1571 0014 FFF7FEFF 		bl	get_msg
 1572              	.LVL151:
 1573 0018 0600     		movs	r6, r0
 1574              	.LVL152:
 673:..\src\app\alt_mode/vdm_task_mngr.c ****     {
 1575              		.loc 1 673 0
 1576 001a 012D     		cmp	r5, #1
 1577 001c 0BD0     		beq	.L117
 1578 001e 002D     		cmp	r5, #0
 1579 0020 03D0     		beq	.L118
 1580 0022 022D     		cmp	r5, #2
 1581 0024 00D1     		bne	.LCB1519
 1582 0026 DAE0     		b	.L119	@long jump
 1583              	.LCB1519:
 1584 0028 E2E0     		b	.L134
 1585              	.L118:
 677:..\src\app\alt_mode/vdm_task_mngr.c ****             ret = VDM_TASK_SEND_MSG;
 1586              		.loc 1 677 0
 1587 002a 0021     		movs	r1, #0
 1588 002c 2000     		movs	r0, r4
 1589              	.LVL153:
 1590 002e FFF7FEFF 		bl	set_disc_svid_param
 1591              	.LVL154:
 678:..\src\app\alt_mode/vdm_task_mngr.c ****             break;
 1592              		.loc 1 678 0
 1593 0032 0620     		movs	r0, #6
 679:..\src\app\alt_mode/vdm_task_mngr.c **** 
 1594              		.loc 1 679 0
 1595 0034 E3E0     		b	.L116
 1596              	.LVL155:
 1597              	.L117:
 683:..\src\app\alt_mode/vdm_task_mngr.c ****             {
 1598              		.loc 1 683 0
 1599 0036 744B     		ldr	r3, .L135
 1600 0038 1B5D     		ldrb	r3, [r3, r4]
 1601 003a 002B     		cmp	r3, #0
 1602 003c 00D1     		bne	.LCB1540
 1603 003e D9E0     		b	.L131	@long jump
 1604              	.LCB1540:
 686:..\src\app\alt_mode/vdm_task_mngr.c ****                 {
 1605              		.loc 1 686 0
 1606 0040 0379     		ldrb	r3, [r0, #4]
 1607 0042 002B     		cmp	r3, #0
 1608 0044 00D0     		beq	.LCB1543
 1609 0046 99E0     		b	.L120	@long jump
 1610              	.LCB1543:
 689:..\src\app\alt_mode/vdm_task_mngr.c ****                     {
 1611              		.loc 1 689 0
 1612 0048 E200     		lsls	r2, r4, #3
ARM GAS  e:\temp\ccdoSeHU.s 			page 52


 1613 004a 1219     		adds	r2, r2, r4
 1614 004c D300     		lsls	r3, r2, #3
 1615 004e 6F4A     		ldr	r2, .L135+4
 1616 0050 D318     		adds	r3, r2, r3
 1617 0052 4533     		adds	r3, r3, #69
 1618 0054 1B78     		ldrb	r3, [r3]
 1619 0056 002B     		cmp	r3, #0
 1620 0058 18D1     		bne	.L121
 692:..\src\app\alt_mode/vdm_task_mngr.c ****                         memcpy ((uint8_t *)&vdm_disc_svid_resp[port][1], (uint8_t *)msg_p->vdo, msg
 1621              		.loc 1 692 0
 1622 005a 6D4D     		ldr	r5, .L135+8
 1623 005c E200     		lsls	r2, r4, #3
 1624 005e 1119     		adds	r1, r2, r4
 1625 0060 CB00     		lsls	r3, r1, #3
 1626 0062 EB18     		adds	r3, r5, r3
 1627 0064 0168     		ldr	r1, [r0]
 1628 0066 9964     		str	r1, [r3, #72]
 693:..\src\app\alt_mode/vdm_task_mngr.c ****                         vdm_disc_svid_resp_len[port] = msg_p->vdo_numb + 1;
 1629              		.loc 1 693 0
 1630 0068 2800     		movs	r0, r5
 1631              	.LVL156:
 1632 006a 4830     		adds	r0, r0, #72
 1633 006c 1219     		adds	r2, r2, r4
 1634 006e D300     		lsls	r3, r2, #3
 1635 0070 0433     		adds	r3, r3, #4
 1636 0072 C018     		adds	r0, r0, r3
 1637 0074 3100     		movs	r1, r6
 1638 0076 0831     		adds	r1, r1, #8
 1639 0078 7279     		ldrb	r2, [r6, #5]
 1640 007a 9200     		lsls	r2, r2, #2
 1641 007c FFF7FEFF 		bl	memcpy
 1642              	.LVL157:
 694:..\src\app\alt_mode/vdm_task_mngr.c ****                     }
 1643              		.loc 1 694 0
 1644 0080 7379     		ldrb	r3, [r6, #5]
 1645 0082 2D19     		adds	r5, r5, r4
 1646 0084 0133     		adds	r3, r3, #1
 1647 0086 4422     		movs	r2, #68
 1648 0088 AB54     		strb	r3, [r5, r2]
 1649 008a 1FE0     		b	.L122
 1650              	.LVL158:
 1651              	.L121:
 699:..\src\app\alt_mode/vdm_task_mngr.c ****                         memcpy ((uint8_t *)&vdm_disc_svid_resp[port][vdm_disc_svid_resp_len[port]],
 1652              		.loc 1 699 0
 1653 008c 604B     		ldr	r3, .L135+8
 1654 008e 1B19     		adds	r3, r3, r4
 1655 0090 4422     		movs	r2, #68
 1656 0092 9B5C     		ldrb	r3, [r3, r2]
 1657 0094 9946     		mov	r9, r3
 1658 0096 1223     		movs	r3, #18
 1659 0098 4A46     		mov	r2, r9
 1660 009a 9B1A     		subs	r3, r3, r2
 1661 009c 4579     		ldrb	r5, [r0, #5]
 1662 009e 9D42     		cmp	r5, r3
 1663 00a0 00D9     		bls	.L123
 1664 00a2 1D00     		movs	r5, r3
 1665              	.L123:
ARM GAS  e:\temp\ccdoSeHU.s 			page 53


 1666              	.LVL159:
 700:..\src\app\alt_mode/vdm_task_mngr.c ****                                 tmp * sizeof (uint32_t));
 1667              		.loc 1 700 0
 1668 00a4 5A4B     		ldr	r3, .L135+8
 1669 00a6 9846     		mov	r8, r3
 1670 00a8 1800     		movs	r0, r3
 1671              	.LVL160:
 1672 00aa 4830     		adds	r0, r0, #72
 1673 00ac E200     		lsls	r2, r4, #3
 1674 00ae 1219     		adds	r2, r2, r4
 1675 00b0 5300     		lsls	r3, r2, #1
 1676 00b2 4B44     		add	r3, r3, r9
 1677 00b4 9B00     		lsls	r3, r3, #2
 1678 00b6 C018     		adds	r0, r0, r3
 1679 00b8 3100     		movs	r1, r6
 1680 00ba 0831     		adds	r1, r1, #8
 701:..\src\app\alt_mode/vdm_task_mngr.c ****                         vdm_disc_svid_resp_len[port] += tmp;
 1681              		.loc 1 701 0
 1682 00bc AA00     		lsls	r2, r5, #2
 700:..\src\app\alt_mode/vdm_task_mngr.c ****                                 tmp * sizeof (uint32_t));
 1683              		.loc 1 700 0
 1684 00be FFF7FEFF 		bl	memcpy
 1685              	.LVL161:
 702:..\src\app\alt_mode/vdm_task_mngr.c ****                     }
 1686              		.loc 1 702 0
 1687 00c2 4346     		mov	r3, r8
 1688 00c4 1B19     		adds	r3, r3, r4
 1689 00c6 4D44     		add	r5, r5, r9
 1690              	.LVL162:
 1691 00c8 4422     		movs	r2, #68
 1692 00ca 9D54     		strb	r5, [r3, r2]
 1693              	.L122:
 706:..\src\app\alt_mode/vdm_task_mngr.c ****                     {
 1694              		.loc 1 706 0
 1695 00cc B368     		ldr	r3, [r6, #8]
 1696 00ce 0133     		adds	r3, r3, #1
 1697 00d0 00D1     		bne	.LCB1628
 1698 00d2 91E0     		b	.L132	@long jump
 1699              	.LCB1628:
 713:..\src\app\alt_mode/vdm_task_mngr.c ****                     {
 1700              		.loc 1 713 0
 1701 00d4 E300     		lsls	r3, r4, #3
 1702 00d6 1B19     		adds	r3, r3, r4
 1703 00d8 D900     		lsls	r1, r3, #3
 1704 00da 0831     		adds	r1, r1, #8
 1705 00dc 4B4B     		ldr	r3, .L135+4
 1706 00de C918     		adds	r1, r1, r3
 1707 00e0 0831     		adds	r1, r1, #8
 1708 00e2 0422     		movs	r2, #4
 1709 00e4 2000     		movs	r0, r4
 1710 00e6 FFF7FEFF 		bl	save_svids
 1711              	.LVL163:
 1712 00ea 0028     		cmp	r0, #0
 1713 00ec 40D0     		beq	.L124
 716:..\src\app\alt_mode/vdm_task_mngr.c ****                                 (dpm_stat->cbl_mode_en != false))
 1714              		.loc 1 716 0
 1715 00ee 7923     		movs	r3, #121
ARM GAS  e:\temp\ccdoSeHU.s 			page 54


 1716 00f0 FB5C     		ldrb	r3, [r7, r3]
 1717 00f2 002B     		cmp	r3, #0
 1718 00f4 36D0     		beq	.L125
 717:..\src\app\alt_mode/vdm_task_mngr.c ****                         {
 1719              		.loc 1 717 0 discriminator 1
 1720 00f6 BC23     		movs	r3, #188
 1721 00f8 FB5C     		ldrb	r3, [r7, r3]
 716:..\src\app\alt_mode/vdm_task_mngr.c ****                                 (dpm_stat->cbl_mode_en != false))
 1722              		.loc 1 716 0 discriminator 1
 1723 00fa 002B     		cmp	r3, #0
 1724 00fc 32D0     		beq	.L125
 720:..\src\app\alt_mode/vdm_task_mngr.c ****                             #if VCONN_OCP_ENABLE
 1725              		.loc 1 720 0
 1726 00fe 7D23     		movs	r3, #125
 1727 0100 FB5C     		ldrb	r3, [r7, r3]
 719:..\src\app\alt_mode/vdm_task_mngr.c ****                                     (dpm_stat->vconn_logical)
 1728              		.loc 1 719 0
 1729 0102 002B     		cmp	r3, #0
 1730 0104 28D0     		beq	.L126
 722:..\src\app\alt_mode/vdm_task_mngr.c ****                             #endif /* VCONN_OCP_ENABLE */
 1731              		.loc 1 722 0
 1732 0106 2000     		movs	r0, r4
 1733 0108 FFF7FEFF 		bl	app_get_status
 1734              	.LVL164:
 1735 010c 3C23     		movs	r3, #60
 1736 010e C35C     		ldrb	r3, [r0, r3]
 1737 0110 DB07     		lsls	r3, r3, #31
 1738 0112 21D4     		bmi	.L126
 726:..\src\app\alt_mode/vdm_task_mngr.c ****                                 {
 1739              		.loc 1 726 0
 1740 0114 2000     		movs	r0, r4
 1741 0116 FFF7FEFF 		bl	vconn_is_present
 1742              	.LVL165:
 1743 011a 0028     		cmp	r0, #0
 1744 011c 0AD1     		bne	.L127
 732:..\src\app\alt_mode/vdm_task_mngr.c **** 
 1745              		.loc 1 732 0
 1746 011e 7023     		movs	r3, #112
 1747 0120 F95C     		ldrb	r1, [r7, r3]
 1748 0122 2000     		movs	r0, r4
 1749 0124 FFF7FEFF 		bl	vconn_enable
 1750              	.LVL166:
 735:..\src\app\alt_mode/vdm_task_mngr.c ****                                 }
 1751              		.loc 1 735 0
 1752 0128 0023     		movs	r3, #0
 1753 012a 3722     		movs	r2, #55
 1754 012c 2821     		movs	r1, #40
 1755 012e 2000     		movs	r0, r4
 1756 0130 FFF7FEFF 		bl	timer_start
 1757              	.LVL167:
 1758              	.L127:
 738:..\src\app\alt_mode/vdm_task_mngr.c ****                                 vdm_stat[port].dsvid_cnt = 0;
 1759              		.loc 1 738 0
 1760 0134 354D     		ldr	r5, .L135+4
 1761 0136 E100     		lsls	r1, r4, #3
 1762 0138 0B19     		adds	r3, r1, r4
 1763 013a DA00     		lsls	r2, r3, #3
ARM GAS  e:\temp\ccdoSeHU.s 			page 55


 1764 013c 1300     		movs	r3, r2
 1765 013e AA18     		adds	r2, r5, r2
 1766 0140 4532     		adds	r2, r2, #69
 1767 0142 0020     		movs	r0, #0
 1768 0144 1070     		strb	r0, [r2]
 739:..\src\app\alt_mode/vdm_task_mngr.c ****                                 set_disc_svid_param (port, SOP_PRIME);
 1769              		.loc 1 739 0
 1770 0146 EB18     		adds	r3, r5, r3
 1771 0148 4633     		adds	r3, r3, #70
 1772 014a 1870     		strb	r0, [r3]
 740:..\src\app\alt_mode/vdm_task_mngr.c ****                                 ret = VDM_TASK_SEND_MSG;
 1773              		.loc 1 740 0
 1774 014c 0121     		movs	r1, #1
 1775 014e 2000     		movs	r0, r4
 1776 0150 FFF7FEFF 		bl	set_disc_svid_param
 1777              	.LVL168:
 741:..\src\app\alt_mode/vdm_task_mngr.c ****                             }
 1778              		.loc 1 741 0
 1779 0154 0620     		movs	r0, #6
 1780 0156 52E0     		b	.L116
 1781              	.LVL169:
 1782              	.L126:
 750:..\src\app\alt_mode/vdm_task_mngr.c ****                                 ret = VDM_TASK_REG_ATCH_TGT_INFO;
 1783              		.loc 1 750 0
 1784 0158 0021     		movs	r1, #0
 1785 015a 2000     		movs	r0, r4
 1786 015c FFF7FEFF 		bl	set_evt
 1787              	.LVL170:
 751:..\src\app\alt_mode/vdm_task_mngr.c ****                             }
 1788              		.loc 1 751 0
 1789 0160 0420     		movs	r0, #4
 1790 0162 4CE0     		b	.L116
 1791              	.LVL171:
 1792              	.L125:
 757:..\src\app\alt_mode/vdm_task_mngr.c ****                             ret = VDM_TASK_REG_ATCH_TGT_INFO;
 1793              		.loc 1 757 0
 1794 0164 0021     		movs	r1, #0
 1795 0166 2000     		movs	r0, r4
 1796 0168 FFF7FEFF 		bl	set_evt
 1797              	.LVL172:
 758:..\src\app\alt_mode/vdm_task_mngr.c ****                         }
 1798              		.loc 1 758 0
 1799 016c 0420     		movs	r0, #4
 1800 016e 46E0     		b	.L116
 1801              	.LVL173:
 1802              	.L124:
 764:..\src\app\alt_mode/vdm_task_mngr.c ****                         ret = VDM_TASK_SEND_MSG;
 1803              		.loc 1 764 0
 1804 0170 0021     		movs	r1, #0
 1805 0172 2000     		movs	r0, r4
 1806 0174 FFF7FEFF 		bl	set_disc_svid_param
 1807              	.LVL174:
 765:..\src\app\alt_mode/vdm_task_mngr.c ****                     }
 1808              		.loc 1 765 0
 1809 0178 0620     		movs	r0, #6
 1810 017a 40E0     		b	.L116
 1811              	.LVL175:
ARM GAS  e:\temp\ccdoSeHU.s 			page 56


 1812              	.L120:
 772:..\src\app\alt_mode/vdm_task_mngr.c ****                             (save_svids(port, vdm_stat[port].atch_tgt.cbl_svid, MAX_CABLE_SVID_SUPP
 1813              		.loc 1 772 0
 1814 017c 8368     		ldr	r3, [r0, #8]
 1815 017e 0133     		adds	r3, r3, #1
 1816 0180 12D0     		beq	.L128
 773:..\src\app\alt_mode/vdm_task_mngr.c ****                     {
 1817              		.loc 1 773 0 discriminator 1
 1818 0182 E300     		lsls	r3, r4, #3
 1819 0184 1B19     		adds	r3, r3, r4
 1820 0186 D900     		lsls	r1, r3, #3
 1821 0188 1031     		adds	r1, r1, #16
 1822 018a 204B     		ldr	r3, .L135+4
 1823 018c C918     		adds	r1, r1, r3
 1824 018e 0831     		adds	r1, r1, #8
 1825 0190 0422     		movs	r2, #4
 1826 0192 2000     		movs	r0, r4
 1827              	.LVL176:
 1828 0194 FFF7FEFF 		bl	save_svids
 1829              	.LVL177:
 772:..\src\app\alt_mode/vdm_task_mngr.c ****                             (save_svids(port, vdm_stat[port].atch_tgt.cbl_svid, MAX_CABLE_SVID_SUPP
 1830              		.loc 1 772 0 discriminator 1
 1831 0198 0028     		cmp	r0, #0
 1832 019a 05D1     		bne	.L128
 776:..\src\app\alt_mode/vdm_task_mngr.c ****                         ret = VDM_TASK_SEND_MSG;
 1833              		.loc 1 776 0
 1834 019c 0121     		movs	r1, #1
 1835 019e 2000     		movs	r0, r4
 1836 01a0 FFF7FEFF 		bl	set_disc_svid_param
 1837              	.LVL178:
 777:..\src\app\alt_mode/vdm_task_mngr.c ****                     }
 1838              		.loc 1 777 0
 1839 01a4 0620     		movs	r0, #6
 1840 01a6 2AE0     		b	.L116
 1841              	.LVL179:
 1842              	.L128:
 785:..\src\app\alt_mode/vdm_task_mngr.c ****                         {
 1843              		.loc 1 785 0
 1844 01a8 E200     		lsls	r2, r4, #3
 1845 01aa 1219     		adds	r2, r2, r4
 1846 01ac D300     		lsls	r3, r2, #3
 1847 01ae 174A     		ldr	r2, .L135+4
 1848 01b0 D318     		adds	r3, r2, r3
 1849 01b2 1B8B     		ldrh	r3, [r3, #24]
 1850 01b4 002B     		cmp	r3, #0
 1851 01b6 0CD1     		bne	.L129
 788:..\src\app\alt_mode/vdm_task_mngr.c ****                                     (dpm_stat->cbl_vdo.std_cbl_vdo.cbl_term == CBL_TERM_BOTH_PAS_VC
 1852              		.loc 1 788 0
 1853 01b8 7B7D     		ldrb	r3, [r7, #21]
 787:..\src\app\alt_mode/vdm_task_mngr.c ****                                     (dpm_stat->vconn_retain == 0) &&
 1854              		.loc 1 787 0
 1855 01ba 002B     		cmp	r3, #0
 1856 01bc 09D1     		bne	.L129
 789:..\src\app\alt_mode/vdm_task_mngr.c ****                                )
 1857              		.loc 1 789 0
 1858 01be B933     		adds	r3, r3, #185
 1859 01c0 FB5C     		ldrb	r3, [r7, r3]
ARM GAS  e:\temp\ccdoSeHU.s 			page 57


 1860 01c2 1822     		movs	r2, #24
 788:..\src\app\alt_mode/vdm_task_mngr.c ****                                     (dpm_stat->cbl_vdo.std_cbl_vdo.cbl_term == CBL_TERM_BOTH_PAS_VC
 1861              		.loc 1 788 0
 1862 01c4 1A42     		tst	r2, r3
 1863 01c6 04D1     		bne	.L129
 792:..\src\app\alt_mode/vdm_task_mngr.c ****                             }
 1864              		.loc 1 792 0
 1865 01c8 7023     		movs	r3, #112
 1866 01ca F95C     		ldrb	r1, [r7, r3]
 1867 01cc 2000     		movs	r0, r4
 1868 01ce FFF7FEFF 		bl	vconn_disable
 1869              	.LVL180:
 1870              	.L129:
 797:..\src\app\alt_mode/vdm_task_mngr.c ****                         ret = VDM_TASK_REG_ATCH_TGT_INFO;
 1871              		.loc 1 797 0
 1872 01d2 0021     		movs	r1, #0
 1873 01d4 2000     		movs	r0, r4
 1874 01d6 FFF7FEFF 		bl	set_evt
 1875              	.LVL181:
 798:..\src\app\alt_mode/vdm_task_mngr.c ****                     }
 1876              		.loc 1 798 0
 1877 01da 0420     		movs	r0, #4
 1878 01dc 0FE0     		b	.L116
 1879              	.LVL182:
 1880              	.L119:
 816:..\src\app\alt_mode/vdm_task_mngr.c ****             {
 1881              		.loc 1 816 0
 1882 01de 0379     		ldrb	r3, [r0, #4]
 1883 01e0 012B     		cmp	r3, #1
 1884 01e2 0BD1     		bne	.L133
 818:..\src\app\alt_mode/vdm_task_mngr.c ****                 ret = VDM_TASK_REG_ATCH_TGT_INFO;
 1885              		.loc 1 818 0
 1886 01e4 0021     		movs	r1, #0
 1887 01e6 2000     		movs	r0, r4
 1888              	.LVL183:
 1889 01e8 FFF7FEFF 		bl	set_evt
 1890              	.LVL184:
 819:..\src\app\alt_mode/vdm_task_mngr.c ****             }
 1891              		.loc 1 819 0
 1892 01ec 0420     		movs	r0, #4
 1893 01ee 06E0     		b	.L116
 1894              	.LVL185:
 1895              	.L134:
 661:..\src\app\alt_mode/vdm_task_mngr.c ****     const dpm_status_t *dpm_stat = dpm_get_info(port);
 1896              		.loc 1 661 0
 1897 01f0 0520     		movs	r0, #5
 1898              	.LVL186:
 1899 01f2 04E0     		b	.L116
 1900              	.LVL187:
 1901              	.L131:
 1902 01f4 0520     		movs	r0, #5
 1903              	.LVL188:
 1904 01f6 02E0     		b	.L116
 1905              	.L132:
 1906 01f8 0520     		movs	r0, #5
 1907 01fa 00E0     		b	.L116
 1908              	.LVL189:
ARM GAS  e:\temp\ccdoSeHU.s 			page 58


 1909              	.L133:
 1910 01fc 0520     		movs	r0, #5
 1911              	.LVL190:
 1912              	.L116:
 828:..\src\app\alt_mode/vdm_task_mngr.c **** 
 1913              		.loc 1 828 0
 1914              		@ sp needed
 1915              	.LVL191:
 1916              	.LVL192:
 1917 01fe 0CBC     		pop	{r2, r3}
 1918 0200 9046     		mov	r8, r2
 1919 0202 9946     		mov	r9, r3
 1920 0204 F8BD     		pop	{r3, r4, r5, r6, r7, pc}
 1921              	.L136:
 1922 0206 C046     		.align	2
 1923              	.L135:
 1924 0208 00000000 		.word	gl_dpm_port_type
 1925 020c 00000000 		.word	vdm_stat
 1926 0210 00000000 		.word	.LANCHOR0
 1927              		.cfi_endproc
 1928              	.LFE43:
 1929              		.size	vdm_task_mng_disc_svid, .-vdm_task_mng_disc_svid
 1930              		.section	.text.vdm_task_mngr,"ax",%progbits
 1931              		.align	2
 1932              		.global	vdm_task_mngr
 1933              		.code	16
 1934              		.thumb_func
 1935              		.type	vdm_task_mngr, %function
 1936              	vdm_task_mngr:
 1937              	.LFB35:
 214:..\src\app\alt_mode/vdm_task_mngr.c ****     /* The VDM task enabled check is performed by the caller. */
 1938              		.loc 1 214 0
 1939              		.cfi_startproc
 1940              		@ args = 0, pretend = 0, frame = 0
 1941              		@ frame_needed = 0, uses_anonymous_args = 0
 1942              	.LVL193:
 1943 0000 10B5     		push	{r4, lr}
 1944              		.cfi_def_cfa_offset 8
 1945              		.cfi_offset 4, -8
 1946              		.cfi_offset 14, -4
 1947 0002 0400     		movs	r4, r0
 217:..\src\app\alt_mode/vdm_task_mngr.c **** #if MUX_DELAY_EN			
 1948              		.loc 1 217 0
 1949 0004 2821     		movs	r1, #40
 1950 0006 FFF7FEFF 		bl	timer_is_running
 1951              	.LVL194:
 216:..\src\app\alt_mode/vdm_task_mngr.c ****             (timer_is_running(port, APP_VDM_BUSY_TIMER) == true)
 1952              		.loc 1 216 0
 1953 000a 0028     		cmp	r0, #0
 1954 000c 69D1     		bne	.L137
 227:..\src\app\alt_mode/vdm_task_mngr.c ****     {
 1955              		.loc 1 227 0
 1956 000e 2000     		movs	r0, r4
 1957 0010 FFF7FEFF 		bl	get_task
 1958              	.LVL195:
 1959 0014 0728     		cmp	r0, #7
 1960 0016 64D8     		bhi	.L137
ARM GAS  e:\temp\ccdoSeHU.s 			page 59


 1961 0018 8000     		lsls	r0, r0, #2
 1962 001a 324B     		ldr	r3, .L148
 1963 001c 1B58     		ldr	r3, [r3, r0]
 1964 001e 9F46     		mov	pc, r3
 1965              		.section	.rodata
 1966              		.align	2
 1967              	.L140:
 1968 0000 E2000000 		.word	.L137
 1969 0004 20000000 		.word	.L139
 1970 0008 30000000 		.word	.L141
 1971 000c 48000000 		.word	.L142
 1972 0010 76000000 		.word	.L143
 1973 0014 D0000000 		.word	.L144
 1974 0018 60000000 		.word	.L145
 1975 001c A2000000 		.word	.L146
 1976              		.section	.text.vdm_task_mngr
 1977              	.L139:
 233:..\src\app\alt_mode/vdm_task_mngr.c ****             break;
 1978              		.loc 1 233 0
 1979 0020 2000     		movs	r0, r4
 1980 0022 FFF7FEFF 		bl	vdm_task_mngr_init
 1981              	.LVL196:
 1982 0026 0100     		movs	r1, r0
 1983 0028 2000     		movs	r0, r4
 1984 002a FFF7FEFF 		bl	set_task
 1985              	.LVL197:
 234:..\src\app\alt_mode/vdm_task_mngr.c **** 
 1986              		.loc 1 234 0
 1987 002e 58E0     		b	.L137
 1988              	.L141:
 238:..\src\app\alt_mode/vdm_task_mngr.c ****             break;
 1989              		.loc 1 238 0
 1990 0030 2000     		movs	r0, r4
 1991 0032 FFF7FEFF 		bl	get_evt
 1992              	.LVL198:
 1993 0036 0100     		movs	r1, r0
 1994 0038 2000     		movs	r0, r4
 1995 003a FFF7FEFF 		bl	vdm_task_mng_disc_id
 1996              	.LVL199:
 1997 003e 0100     		movs	r1, r0
 1998 0040 2000     		movs	r0, r4
 1999 0042 FFF7FEFF 		bl	set_task
 2000              	.LVL200:
 239:..\src\app\alt_mode/vdm_task_mngr.c **** 
 2001              		.loc 1 239 0
 2002 0046 4CE0     		b	.L137
 2003              	.L142:
 242:..\src\app\alt_mode/vdm_task_mngr.c ****             break;
 2004              		.loc 1 242 0
 2005 0048 2000     		movs	r0, r4
 2006 004a FFF7FEFF 		bl	get_evt
 2007              	.LVL201:
 2008 004e 0100     		movs	r1, r0
 2009 0050 2000     		movs	r0, r4
 2010 0052 FFF7FEFF 		bl	vdm_task_mng_disc_svid
 2011              	.LVL202:
 2012 0056 0100     		movs	r1, r0
ARM GAS  e:\temp\ccdoSeHU.s 			page 60


 2013 0058 2000     		movs	r0, r4
 2014 005a FFF7FEFF 		bl	set_task
 2015              	.LVL203:
 243:..\src\app\alt_mode/vdm_task_mngr.c **** #endif /* ((DFP_ALT_MODE_SUPP) || (UFP_MODE_DISC_ENABLE)) */
 2016              		.loc 1 243 0
 2017 005e 40E0     		b	.L137
 2018              	.L145:
 247:..\src\app\alt_mode/vdm_task_mngr.c ****             set_task(port, send_vdm(port));
 2019              		.loc 1 247 0
 2020 0060 2000     		movs	r0, r4
 2021 0062 FFF7FEFF 		bl	compose_vdm
 2022              	.LVL204:
 248:..\src\app\alt_mode/vdm_task_mngr.c ****             break;
 2023              		.loc 1 248 0
 2024 0066 2000     		movs	r0, r4
 2025 0068 FFF7FEFF 		bl	send_vdm
 2026              	.LVL205:
 2027 006c 0100     		movs	r1, r0
 2028 006e 2000     		movs	r0, r4
 2029 0070 FFF7FEFF 		bl	set_task
 2030              	.LVL206:
 249:..\src\app\alt_mode/vdm_task_mngr.c **** 
 2031              		.loc 1 249 0
 2032 0074 35E0     		b	.L137
 2033              	.L143:
 252:..\src\app\alt_mode/vdm_task_mngr.c ****             set_evt(port, VDM_EVT_RUN);
 2034              		.loc 1 252 0
 2035 0076 2000     		movs	r0, r4
 2036 0078 FFF7FEFF 		bl	get_msg
 2037              	.LVL207:
 2038 007c 0200     		movs	r2, r0
 2039 007e E300     		lsls	r3, r4, #3
 2040 0080 1B19     		adds	r3, r3, r4
 2041 0082 D900     		lsls	r1, r3, #3
 2042 0084 184B     		ldr	r3, .L148+4
 2043 0086 C918     		adds	r1, r1, r3
 2044 0088 0431     		adds	r1, r1, #4
 2045 008a 2000     		movs	r0, r4
 2046 008c FFF7FEFF 		bl	reg_alt_mode_mngr
 2047              	.LVL208:
 2048 0090 0100     		movs	r1, r0
 2049 0092 2000     		movs	r0, r4
 2050 0094 FFF7FEFF 		bl	set_task
 2051              	.LVL209:
 253:..\src\app\alt_mode/vdm_task_mngr.c ****             break;
 2052              		.loc 1 253 0
 2053 0098 0021     		movs	r1, #0
 2054 009a 2000     		movs	r0, r4
 2055 009c FFF7FEFF 		bl	set_evt
 2056              	.LVL210:
 254:..\src\app\alt_mode/vdm_task_mngr.c **** 
 2057              		.loc 1 254 0
 2058 00a0 1FE0     		b	.L137
 2059              	.L146:
 257:..\src\app\alt_mode/vdm_task_mngr.c ****             if ((get_task(port) == VDM_TASK_SEND_MSG) || (get_task(port) == VDM_TASK_ALT_MODE))
 2060              		.loc 1 257 0
 2061 00a2 2000     		movs	r0, r4
ARM GAS  e:\temp\ccdoSeHU.s 			page 61


 2062 00a4 FFF7FEFF 		bl	get_evt
 2063              	.LVL211:
 2064 00a8 0100     		movs	r1, r0
 2065 00aa 2000     		movs	r0, r4
 2066 00ac FFF7FEFF 		bl	vdm_task_mngr_alt_mode_process
 2067              	.LVL212:
 2068 00b0 0100     		movs	r1, r0
 2069 00b2 2000     		movs	r0, r4
 2070 00b4 FFF7FEFF 		bl	set_task
 2071              	.LVL213:
 258:..\src\app\alt_mode/vdm_task_mngr.c ****             {
 2072              		.loc 1 258 0
 2073 00b8 2000     		movs	r0, r4
 2074 00ba FFF7FEFF 		bl	get_task
 2075              	.LVL214:
 2076 00be 0628     		cmp	r0, #6
 2077 00c0 01D0     		beq	.L147
 258:..\src\app\alt_mode/vdm_task_mngr.c ****             {
 2078              		.loc 1 258 0 is_stmt 0 discriminator 1
 2079 00c2 0728     		cmp	r0, #7
 2080 00c4 0DD1     		bne	.L137
 2081              	.L147:
 260:..\src\app\alt_mode/vdm_task_mngr.c ****             }
 2082              		.loc 1 260 0 is_stmt 1
 2083 00c6 0021     		movs	r1, #0
 2084 00c8 2000     		movs	r0, r4
 2085 00ca FFF7FEFF 		bl	set_evt
 2086              	.LVL215:
 2087 00ce 08E0     		b	.L137
 2088              	.L144:
 265:..\src\app\alt_mode/vdm_task_mngr.c ****             app_get_status(port)->vdm_prcs_failed = true;
 2089              		.loc 1 265 0
 2090 00d0 2000     		movs	r0, r4
 2091 00d2 FFF7FEFF 		bl	vdm_task_mngr_deinit
 2092              	.LVL216:
 266:..\src\app\alt_mode/vdm_task_mngr.c ****             break;
 2093              		.loc 1 266 0
 2094 00d6 2000     		movs	r0, r4
 2095 00d8 FFF7FEFF 		bl	app_get_status
 2096              	.LVL217:
 2097 00dc 0122     		movs	r2, #1
 2098 00de 3E23     		movs	r3, #62
 2099 00e0 C254     		strb	r2, [r0, r3]
 2100              	.L137:
 273:..\src\app\alt_mode/vdm_task_mngr.c **** 
 2101              		.loc 1 273 0
 2102              		@ sp needed
 2103 00e2 10BD     		pop	{r4, pc}
 2104              	.L149:
 2105              		.align	2
 2106              	.L148:
 2107 00e4 00000000 		.word	.L140
 2108 00e8 00000000 		.word	vdm_stat
 2109              		.cfi_endproc
 2110              	.LFE35:
 2111              		.size	vdm_task_mngr, .-vdm_task_mngr
 2112              		.section	.text.set_vdm_failed,"ax",%progbits
ARM GAS  e:\temp\ccdoSeHU.s 			page 62


 2113              		.align	2
 2114              		.code	16
 2115              		.thumb_func
 2116              		.type	set_vdm_failed, %function
 2117              	set_vdm_failed:
 2118              	.LFB37:
 293:..\src\app\alt_mode/vdm_task_mngr.c ****     /* Reset retry counters */
 2119              		.loc 1 293 0
 2120              		.cfi_startproc
 2121              		@ args = 0, pretend = 0, frame = 0
 2122              		@ frame_needed = 0, uses_anonymous_args = 0
 2123              	.LVL218:
 2124 0000 70B5     		push	{r4, r5, r6, lr}
 2125              		.cfi_def_cfa_offset 16
 2126              		.cfi_offset 4, -16
 2127              		.cfi_offset 5, -12
 2128              		.cfi_offset 6, -8
 2129              		.cfi_offset 14, -4
 2130 0002 0500     		movs	r5, r0
 2131 0004 0C00     		movs	r4, r1
 295:..\src\app\alt_mode/vdm_task_mngr.c ****     set_evt(port, VDM_EVT_FAIL);
 2132              		.loc 1 295 0
 2133 0006 C200     		lsls	r2, r0, #3
 2134 0008 1218     		adds	r2, r2, r0
 2135 000a D300     		lsls	r3, r2, #3
 2136 000c 0F4A     		ldr	r2, .L151
 2137 000e D318     		adds	r3, r2, r3
 2138 0010 4433     		adds	r3, r3, #68
 2139 0012 0022     		movs	r2, #0
 2140 0014 1A70     		strb	r2, [r3]
 296:..\src\app\alt_mode/vdm_task_mngr.c ****     /* Set failed and save failed command */
 2141              		.loc 1 296 0
 2142 0016 0221     		movs	r1, #2
 2143              	.LVL219:
 2144 0018 FFF7FEFF 		bl	set_evt
 2145              	.LVL220:
 298:..\src\app\alt_mode/vdm_task_mngr.c ****     /* Save Failure code in the object position field */
 2146              		.loc 1 298 0
 2147 001c 2800     		movs	r0, r5
 2148 001e FFF7FEFF 		bl	get_msg
 2149              	.LVL221:
 2150 0022 0600     		movs	r6, r0
 2151 0024 2800     		movs	r0, r5
 2152 0026 FFF7FEFF 		bl	get_vdm_buff
 2153              	.LVL222:
 2154 002a 037C     		ldrb	r3, [r0, #16]
 2155 002c DB06     		lsls	r3, r3, #27
 2156 002e DA0E     		lsrs	r2, r3, #27
 2157 0030 3378     		ldrb	r3, [r6]
 2158 0032 1F21     		movs	r1, #31
 2159 0034 8B43     		bics	r3, r1
 2160 0036 1343     		orrs	r3, r2
 2161 0038 3370     		strb	r3, [r6]
 300:..\src\app\alt_mode/vdm_task_mngr.c **** }
 2162              		.loc 1 300 0
 2163 003a 0723     		movs	r3, #7
 2164 003c 1C40     		ands	r4, r3
ARM GAS  e:\temp\ccdoSeHU.s 			page 63


 2165 003e 7378     		ldrb	r3, [r6, #1]
 2166 0040 0722     		movs	r2, #7
 2167 0042 9343     		bics	r3, r2
 2168 0044 1C43     		orrs	r4, r3
 2169 0046 7470     		strb	r4, [r6, #1]
 301:..\src\app\alt_mode/vdm_task_mngr.c **** 
 2170              		.loc 1 301 0
 2171              		@ sp needed
 2172 0048 70BD     		pop	{r4, r5, r6, pc}
 2173              	.L152:
 2174 004a C046     		.align	2
 2175              	.L151:
 2176 004c 00000000 		.word	vdm_stat
 2177              		.cfi_endproc
 2178              	.LFE37:
 2179              		.size	set_vdm_failed, .-set_vdm_failed
 2180              		.section	.text.vdm_retry_check,"ax",%progbits
 2181              		.align	2
 2182              		.code	16
 2183              		.thumb_func
 2184              		.type	vdm_retry_check, %function
 2185              	vdm_retry_check:
 2186              	.LFB36:
 276:..\src\app\alt_mode/vdm_task_mngr.c ****     (vdm_stat[port].rec_retry_cnt)++;
 2187              		.loc 1 276 0
 2188              		.cfi_startproc
 2189              		@ args = 0, pretend = 0, frame = 0
 2190              		@ frame_needed = 0, uses_anonymous_args = 0
 2191              	.LVL223:
 2192 0000 70B5     		push	{r4, r5, r6, lr}
 2193              		.cfi_def_cfa_offset 16
 2194              		.cfi_offset 4, -16
 2195              		.cfi_offset 5, -12
 2196              		.cfi_offset 6, -8
 2197              		.cfi_offset 14, -4
 2198 0002 0400     		movs	r4, r0
 277:..\src\app\alt_mode/vdm_task_mngr.c **** 
 2199              		.loc 1 277 0
 2200 0004 0F4D     		ldr	r5, .L156
 2201 0006 C000     		lsls	r0, r0, #3
 2202              	.LVL224:
 2203 0008 0219     		adds	r2, r0, r4
 2204 000a D300     		lsls	r3, r2, #3
 2205 000c EB18     		adds	r3, r5, r3
 2206 000e 4433     		adds	r3, r3, #68
 2207 0010 1B78     		ldrb	r3, [r3]
 2208 0012 0133     		adds	r3, r3, #1
 2209 0014 DBB2     		uxtb	r3, r3
 2210 0016 D200     		lsls	r2, r2, #3
 2211 0018 AA18     		adds	r2, r5, r2
 2212 001a 4432     		adds	r2, r2, #68
 2213 001c 1370     		strb	r3, [r2]
 280:..\src\app\alt_mode/vdm_task_mngr.c ****     {
 2214              		.loc 1 280 0
 2215 001e 092B     		cmp	r3, #9
 2216 0020 04D9     		bls	.L154
 282:..\src\app\alt_mode/vdm_task_mngr.c ****         return false;
ARM GAS  e:\temp\ccdoSeHU.s 			page 64


 2217              		.loc 1 282 0
 2218 0022 2000     		movs	r0, r4
 2219 0024 FFF7FEFF 		bl	set_vdm_failed
 2220              	.LVL225:
 283:..\src\app\alt_mode/vdm_task_mngr.c ****     }
 2221              		.loc 1 283 0
 2222 0028 0020     		movs	r0, #0
 2223 002a 0AE0     		b	.L155
 2224              	.LVL226:
 2225              	.L154:
 286:..\src\app\alt_mode/vdm_task_mngr.c ****     /* Start a timer to delay the retry attempt. */
 2226              		.loc 1 286 0
 2227 002c 0621     		movs	r1, #6
 2228              	.LVL227:
 2229 002e 2000     		movs	r0, r4
 2230 0030 FFF7FEFF 		bl	set_task
 2231              	.LVL228:
 288:..\src\app\alt_mode/vdm_task_mngr.c ****     return true;
 2232              		.loc 1 288 0
 2233 0034 0023     		movs	r3, #0
 2234 0036 6422     		movs	r2, #100
 2235 0038 2821     		movs	r1, #40
 2236 003a 2000     		movs	r0, r4
 2237 003c FFF7FEFF 		bl	timer_start
 2238              	.LVL229:
 289:..\src\app\alt_mode/vdm_task_mngr.c **** }
 2239              		.loc 1 289 0
 2240 0040 0120     		movs	r0, #1
 2241              	.L155:
 290:..\src\app\alt_mode/vdm_task_mngr.c **** 
 2242              		.loc 1 290 0
 2243              		@ sp needed
 2244 0042 70BD     		pop	{r4, r5, r6, pc}
 2245              	.L157:
 2246              		.align	2
 2247              	.L156:
 2248 0044 00000000 		.word	vdm_stat
 2249              		.cfi_endproc
 2250              	.LFE36:
 2251              		.size	vdm_retry_check, .-vdm_retry_check
 2252              		.section	.text.vdm_rec_cbk,"ax",%progbits
 2253              		.align	2
 2254              		.code	16
 2255              		.thumb_func
 2256              		.type	vdm_rec_cbk, %function
 2257              	vdm_rec_cbk:
 2258              	.LFB38:
 305:..\src\app\alt_mode/vdm_task_mngr.c ****     uint32_t response;
 2259              		.loc 1 305 0
 2260              		.cfi_startproc
 2261              		@ args = 0, pretend = 0, frame = 0
 2262              		@ frame_needed = 0, uses_anonymous_args = 0
 2263              	.LVL230:
 2264 0000 F8B5     		push	{r3, r4, r5, r6, r7, lr}
 2265              		.cfi_def_cfa_offset 24
 2266              		.cfi_offset 3, -24
 2267              		.cfi_offset 4, -20
ARM GAS  e:\temp\ccdoSeHU.s 			page 65


 2268              		.cfi_offset 5, -16
 2269              		.cfi_offset 6, -12
 2270              		.cfi_offset 7, -8
 2271              		.cfi_offset 14, -4
 2272 0002 0400     		movs	r4, r0
 2273 0004 0D00     		movs	r5, r1
 2274 0006 1600     		movs	r6, r2
 2275              	.LVL231:
 310:..\src\app\alt_mode/vdm_task_mngr.c ****     {
 2276              		.loc 1 310 0
 2277 0008 0429     		cmp	r1, #4
 2278 000a 7CD1     		bne	.L159
 313:..\src\app\alt_mode/vdm_task_mngr.c ****         {
 2279              		.loc 1 313 0
 2280 000c 537A     		ldrb	r3, [r2, #9]
 2281 000e 7F22     		movs	r2, #127
 2282              	.LVL232:
 2283 0010 9343     		bics	r3, r2
 2284 0012 67D0     		beq	.L160
 315:..\src\app\alt_mode/vdm_task_mngr.c **** 
 2285              		.loc 1 315 0
 2286 0014 357A     		ldrb	r5, [r6, #8]
 2287 0016 AD09     		lsrs	r5, r5, #6
 2288              	.LVL233:
 318:..\src\app\alt_mode/vdm_task_mngr.c ****             {
 2289              		.loc 1 318 0
 2290 0018 3378     		ldrb	r3, [r6]
 2291 001a 002B     		cmp	r3, #0
 2292 001c 13D1     		bne	.L161
 320:..\src\app\alt_mode/vdm_task_mngr.c ****                     GET_MIN (app_get_status(port)->vdm_version, rec_vdm->dat[VDM_HEADER_IDX].std_vd
 2293              		.loc 1 320 0
 2294 001e FFF7FEFF 		bl	app_get_status
 2295              	.LVL234:
 2296 0022 0700     		movs	r7, r0
 321:..\src\app\alt_mode/vdm_task_mngr.c ****             }
 2297              		.loc 1 321 0
 2298 0024 2000     		movs	r0, r4
 2299 0026 FFF7FEFF 		bl	app_get_status
 2300              	.LVL235:
 2301 002a 3A23     		movs	r3, #58
 2302 002c C25C     		ldrb	r2, [r0, r3]
 2303 002e 737A     		ldrb	r3, [r6, #9]
 2304 0030 5B06     		lsls	r3, r3, #25
 2305 0032 9B0F     		lsrs	r3, r3, #30
 320:..\src\app\alt_mode/vdm_task_mngr.c ****                     GET_MIN (app_get_status(port)->vdm_version, rec_vdm->dat[VDM_HEADER_IDX].std_vd
 2306              		.loc 1 320 0
 2307 0034 9A42     		cmp	r2, r3
 2308 0036 04DC     		bgt	.L163
 321:..\src\app\alt_mode/vdm_task_mngr.c ****             }
 2309              		.loc 1 321 0 discriminator 2
 2310 0038 2000     		movs	r0, r4
 2311 003a FFF7FEFF 		bl	app_get_status
 2312              	.LVL236:
 320:..\src\app\alt_mode/vdm_task_mngr.c ****                     GET_MIN (app_get_status(port)->vdm_version, rec_vdm->dat[VDM_HEADER_IDX].std_vd
 2313              		.loc 1 320 0 discriminator 2
 2314 003e 3A23     		movs	r3, #58
 2315 0040 C35C     		ldrb	r3, [r0, r3]
ARM GAS  e:\temp\ccdoSeHU.s 			page 66


 2316              	.L163:
 320:..\src\app\alt_mode/vdm_task_mngr.c ****                     GET_MIN (app_get_status(port)->vdm_version, rec_vdm->dat[VDM_HEADER_IDX].std_vd
 2317              		.loc 1 320 0 is_stmt 0 discriminator 4
 2318 0042 3A22     		movs	r2, #58
 2319 0044 BB54     		strb	r3, [r7, r2]
 2320              	.L161:
 326:..\src\app\alt_mode/vdm_task_mngr.c ****             {
 2321              		.loc 1 326 0 is_stmt 1
 2322 0046 012D     		cmp	r5, #1
 2323 0048 02D0     		beq	.L165
 2324 004a 032D     		cmp	r5, #3
 2325 004c 23D0     		beq	.L166
 2326 004e 43E0     		b	.L180
 2327              	.L165:
 331:..\src\app\alt_mode/vdm_task_mngr.c ****                                 (get_vdm_buff(port)->cmd_do[VDM_HEADER_IDX].std_vdm_hdr.cmd))
 2328              		.loc 1 331 0
 2329 0050 357A     		ldrb	r5, [r6, #8]
 2330 0052 ED06     		lsls	r5, r5, #27
 2331 0054 ED0E     		lsrs	r5, r5, #27
 332:..\src\app\alt_mode/vdm_task_mngr.c ****                         {
 2332              		.loc 1 332 0
 2333 0056 2000     		movs	r0, r4
 2334 0058 FFF7FEFF 		bl	get_vdm_buff
 2335              	.LVL237:
 2336 005c 037C     		ldrb	r3, [r0, #16]
 2337 005e DB06     		lsls	r3, r3, #27
 2338 0060 DB0E     		lsrs	r3, r3, #27
 331:..\src\app\alt_mode/vdm_task_mngr.c ****                                 (get_vdm_buff(port)->cmd_do[VDM_HEADER_IDX].std_vdm_hdr.cmd))
 2339              		.loc 1 331 0
 2340 0062 9D42     		cmp	r5, r3
 2341 0064 11D1     		bne	.L167
 334:..\src\app\alt_mode/vdm_task_mngr.c ****                             set_evt(port, VDM_EVT_EVAL);
 2342              		.loc 1 334 0
 2343 0066 3100     		movs	r1, r6
 2344 0068 2000     		movs	r0, r4
 2345 006a FFF7FEFF 		bl	parse_vdm
 2346              	.LVL238:
 335:..\src\app\alt_mode/vdm_task_mngr.c **** 
 2347              		.loc 1 335 0
 2348 006e 0121     		movs	r1, #1
 2349 0070 2000     		movs	r0, r4
 2350 0072 FFF7FEFF 		bl	set_evt
 2351              	.LVL239:
 338:..\src\app\alt_mode/vdm_task_mngr.c ****                         }
 2352              		.loc 1 338 0
 2353 0076 E200     		lsls	r2, r4, #3
 2354 0078 1219     		adds	r2, r2, r4
 2355 007a D300     		lsls	r3, r2, #3
 2356 007c 504A     		ldr	r2, .L182
 2357 007e D318     		adds	r3, r2, r3
 2358 0080 4433     		adds	r3, r3, #68
 2359 0082 0022     		movs	r2, #0
 2360 0084 1A70     		strb	r2, [r3]
 347:..\src\app\alt_mode/vdm_task_mngr.c ****                     }
 2361              		.loc 1 347 0
 2362 0086 0123     		movs	r3, #1
 2363 0088 7AE0     		b	.L168
ARM GAS  e:\temp\ccdoSeHU.s 			page 67


 2364              	.L167:
 343:..\src\app\alt_mode/vdm_task_mngr.c ****                         }
 2365              		.loc 1 343 0
 2366 008a 0221     		movs	r1, #2
 2367 008c 2000     		movs	r0, r4
 2368 008e FFF7FEFF 		bl	set_vdm_failed
 2369              	.LVL240:
 347:..\src\app\alt_mode/vdm_task_mngr.c ****                     }
 2370              		.loc 1 347 0
 2371 0092 0123     		movs	r3, #1
 2372 0094 74E0     		b	.L168
 2373              	.L166:
 355:..\src\app\alt_mode/vdm_task_mngr.c ****                         if (vdm_stat[port].rec_retry_cnt > MAX_RETRY_CNT)
 2374              		.loc 1 355 0
 2375 0096 4A48     		ldr	r0, .L182
 2376 0098 E100     		lsls	r1, r4, #3
 2377 009a 0A19     		adds	r2, r1, r4
 2378 009c D300     		lsls	r3, r2, #3
 2379 009e 1A00     		movs	r2, r3
 2380 00a0 C318     		adds	r3, r0, r3
 2381 00a2 4433     		adds	r3, r3, #68
 2382 00a4 1B78     		ldrb	r3, [r3]
 2383 00a6 0133     		adds	r3, r3, #1
 2384 00a8 DBB2     		uxtb	r3, r3
 2385 00aa 8218     		adds	r2, r0, r2
 2386 00ac 4432     		adds	r2, r2, #68
 2387 00ae 1370     		strb	r3, [r2]
 356:..\src\app\alt_mode/vdm_task_mngr.c ****                         {
 2388              		.loc 1 356 0
 2389 00b0 092B     		cmp	r3, #9
 2390 00b2 05D9     		bls	.L169
 358:..\src\app\alt_mode/vdm_task_mngr.c ****                             run_task_flag = true;
 2391              		.loc 1 358 0
 2392 00b4 0021     		movs	r1, #0
 2393 00b6 2000     		movs	r0, r4
 2394 00b8 FFF7FEFF 		bl	set_vdm_failed
 2395              	.LVL241:
 359:..\src\app\alt_mode/vdm_task_mngr.c ****                         }
 2396              		.loc 1 359 0
 2397 00bc 0123     		movs	r3, #1
 2398 00be 5FE0     		b	.L168
 2399              	.LVL242:
 2400              	.L169:
 364:..\src\app\alt_mode/vdm_task_mngr.c ****                             /* Start a timer. Command will be retried when timer expires. */
 2401              		.loc 1 364 0
 2402 00c0 0621     		movs	r1, #6
 2403 00c2 2000     		movs	r0, r4
 2404 00c4 FFF7FEFF 		bl	set_task
 2405              	.LVL243:
 366:..\src\app\alt_mode/vdm_task_mngr.c ****                         }
 2406              		.loc 1 366 0
 2407 00c8 0023     		movs	r3, #0
 2408 00ca 3222     		movs	r2, #50
 2409 00cc 2821     		movs	r1, #40
 2410 00ce 2000     		movs	r0, r4
 2411 00d0 FFF7FEFF 		bl	timer_start
 2412              	.LVL244:
ARM GAS  e:\temp\ccdoSeHU.s 			page 68


 307:..\src\app\alt_mode/vdm_task_mngr.c **** 
 2413              		.loc 1 307 0
 2414 00d4 0023     		movs	r3, #0
 2415 00d6 53E0     		b	.L168
 2416              	.L180:
 374:..\src\app\alt_mode/vdm_task_mngr.c ****                         run_task_flag = true;
 2417              		.loc 1 374 0
 2418 00d8 0321     		movs	r1, #3
 2419 00da 2000     		movs	r0, r4
 2420 00dc FFF7FEFF 		bl	set_vdm_failed
 2421              	.LVL245:
 375:..\src\app\alt_mode/vdm_task_mngr.c ****                     }
 2422              		.loc 1 375 0
 2423 00e0 0123     		movs	r3, #1
 377:..\src\app\alt_mode/vdm_task_mngr.c ****             }
 2424              		.loc 1 377 0
 2425 00e2 4DE0     		b	.L168
 2426              	.LVL246:
 2427              	.L160:
 383:..\src\app\alt_mode/vdm_task_mngr.c ****             set_evt(port, VDM_EVT_EVAL);
 2428              		.loc 1 383 0
 2429 00e4 3100     		movs	r1, r6
 2430              	.LVL247:
 2431 00e6 FFF7FEFF 		bl	parse_vdm
 2432              	.LVL248:
 384:..\src\app\alt_mode/vdm_task_mngr.c ****             /* Reset timer counter when ACK */
 2433              		.loc 1 384 0
 2434 00ea 0121     		movs	r1, #1
 2435 00ec 2000     		movs	r0, r4
 2436 00ee FFF7FEFF 		bl	set_evt
 2437              	.LVL249:
 386:..\src\app\alt_mode/vdm_task_mngr.c ****             run_task_flag = true;
 2438              		.loc 1 386 0
 2439 00f2 E200     		lsls	r2, r4, #3
 2440 00f4 1219     		adds	r2, r2, r4
 2441 00f6 D300     		lsls	r3, r2, #3
 2442 00f8 314A     		ldr	r2, .L182
 2443 00fa D318     		adds	r3, r2, r3
 2444 00fc 4433     		adds	r3, r3, #68
 2445 00fe 0022     		movs	r2, #0
 2446 0100 1A70     		strb	r2, [r3]
 2447              	.LVL250:
 387:..\src\app\alt_mode/vdm_task_mngr.c ****         }
 2448              		.loc 1 387 0
 2449 0102 0123     		movs	r3, #1
 2450 0104 3CE0     		b	.L168
 2451              	.LVL251:
 2452              	.L159:
 391:..\src\app\alt_mode/vdm_task_mngr.c ****     {
 2453              		.loc 1 391 0
 2454 0106 FFF7FEFF 		bl	get_msg
 2455              	.LVL252:
 2456 010a 0378     		ldrb	r3, [r0]
 2457 010c 1F22     		movs	r2, #31
 2458 010e 1340     		ands	r3, r2
 2459 0110 062B     		cmp	r3, #6
 2460 0112 1CD1     		bne	.L170
ARM GAS  e:\temp\ccdoSeHU.s 			page 69


 394:..\src\app\alt_mode/vdm_task_mngr.c ****         {
 2461              		.loc 1 394 0
 2462 0114 032D     		cmp	r5, #3
 2463 0116 16D1     		bne	.L171
 394:..\src\app\alt_mode/vdm_task_mngr.c ****         {
 2464              		.loc 1 394 0 is_stmt 0 discriminator 1
 2465 0118 2000     		movs	r0, r4
 2466 011a FFF7FEFF 		bl	get_task
 2467              	.LVL253:
 2468 011e 0028     		cmp	r0, #0
 2469 0120 11D1     		bne	.L171
 397:..\src\app\alt_mode/vdm_task_mngr.c ****             set_evt(port, VDM_EVT_EVAL);
 2470              		.loc 1 397 0 is_stmt 1
 2471 0122 2821     		movs	r1, #40
 2472 0124 2000     		movs	r0, r4
 2473 0126 FFF7FEFF 		bl	timer_stop
 2474              	.LVL254:
 398:..\src\app\alt_mode/vdm_task_mngr.c ****             /* Reset retry counter */
 2475              		.loc 1 398 0
 2476 012a 0121     		movs	r1, #1
 2477 012c 2000     		movs	r0, r4
 2478 012e FFF7FEFF 		bl	set_evt
 2479              	.LVL255:
 400:..\src\app\alt_mode/vdm_task_mngr.c ****             /* Continue the state machine operation. */
 2480              		.loc 1 400 0
 2481 0132 E200     		lsls	r2, r4, #3
 2482 0134 1219     		adds	r2, r2, r4
 2483 0136 D300     		lsls	r3, r2, #3
 2484 0138 214A     		ldr	r2, .L182
 2485 013a D318     		adds	r3, r2, r3
 2486 013c 4433     		adds	r3, r3, #68
 2487 013e 0022     		movs	r2, #0
 2488 0140 1A70     		strb	r2, [r3]
 2489              	.LVL256:
 402:..\src\app\alt_mode/vdm_task_mngr.c ****         }
 2490              		.loc 1 402 0
 2491 0142 0123     		movs	r3, #1
 2492 0144 1CE0     		b	.L168
 2493              	.LVL257:
 2494              	.L171:
 404:..\src\app\alt_mode/vdm_task_mngr.c ****         {
 2495              		.loc 1 404 0
 2496 0146 002D     		cmp	r5, #0
 2497 0148 15D0     		beq	.L177
 307:..\src\app\alt_mode/vdm_task_mngr.c **** 
 2498              		.loc 1 307 0
 2499 014a 0023     		movs	r3, #0
 2500 014c 18E0     		b	.L168
 2501              	.L170:
 413:..\src\app\alt_mode/vdm_task_mngr.c ****         {
 2502              		.loc 1 413 0
 2503 014e 6B1E     		subs	r3, r5, #1
 2504 0150 DBB2     		uxtb	r3, r3
 2505 0152 012B     		cmp	r3, #1
 2506 0154 07D8     		bhi	.L172
 416:..\src\app\alt_mode/vdm_task_mngr.c ****             {
 2507              		.loc 1 416 0
ARM GAS  e:\temp\ccdoSeHU.s 			page 70


 2508 0156 2900     		movs	r1, r5
 2509 0158 2000     		movs	r0, r4
 2510 015a FFF7FEFF 		bl	vdm_retry_check
 2511              	.LVL258:
 2512 015e 0028     		cmp	r0, #0
 2513 0160 0BD0     		beq	.L178
 307:..\src\app\alt_mode/vdm_task_mngr.c **** 
 2514              		.loc 1 307 0
 2515 0162 0023     		movs	r3, #0
 2516 0164 0CE0     		b	.L168
 2517              	.L172:
 423:..\src\app\alt_mode/vdm_task_mngr.c ****             {
 2518              		.loc 1 423 0
 2519 0166 002D     		cmp	r5, #0
 2520 0168 09D1     		bne	.L179
 426:..\src\app\alt_mode/vdm_task_mngr.c ****             }
 2521              		.loc 1 426 0
 2522 016a 0621     		movs	r1, #6
 2523 016c 2000     		movs	r0, r4
 2524 016e FFF7FEFF 		bl	set_task
 2525              	.LVL259:
 307:..\src\app\alt_mode/vdm_task_mngr.c **** 
 2526              		.loc 1 307 0
 2527 0172 0023     		movs	r3, #0
 2528 0174 04E0     		b	.L168
 2529              	.L177:
 407:..\src\app\alt_mode/vdm_task_mngr.c ****         }
 2530              		.loc 1 407 0
 2531 0176 0123     		movs	r3, #1
 2532 0178 02E0     		b	.L168
 2533              	.L178:
 418:..\src\app\alt_mode/vdm_task_mngr.c ****             }
 2534              		.loc 1 418 0
 2535 017a 0123     		movs	r3, #1
 2536 017c 00E0     		b	.L168
 2537              	.L179:
 307:..\src\app\alt_mode/vdm_task_mngr.c **** 
 2538              		.loc 1 307 0
 2539 017e 0023     		movs	r3, #0
 2540              	.LVL260:
 2541              	.L168:
 432:..\src\app\alt_mode/vdm_task_mngr.c ****     {
 2542              		.loc 1 432 0
 2543 0180 002B     		cmp	r3, #0
 2544 0182 1BD0     		beq	.L158
 435:..\src\app\alt_mode/vdm_task_mngr.c ****         {
 2545              		.loc 1 435 0
 2546 0184 E200     		lsls	r2, r4, #3
 2547 0186 1219     		adds	r2, r2, r4
 2548 0188 D300     		lsls	r3, r2, #3
 2549              	.LVL261:
 2550 018a 0D4A     		ldr	r2, .L182
 2551 018c D318     		adds	r3, r2, r3
 2552 018e 2033     		adds	r3, r3, #32
 2553 0190 1B78     		ldrb	r3, [r3]
 2554 0192 DB06     		lsls	r3, r3, #27
 2555 0194 DB0E     		lsrs	r3, r3, #27
ARM GAS  e:\temp\ccdoSeHU.s 			page 71


 2556 0196 012B     		cmp	r3, #1
 2557 0198 02D0     		beq	.L175
 2558 019a 022B     		cmp	r3, #2
 2559 019c 05D0     		beq	.L176
 2560 019e 09E0     		b	.L181
 2561              	.L175:
 438:..\src\app\alt_mode/vdm_task_mngr.c ****                 break;
 2562              		.loc 1 438 0
 2563 01a0 0221     		movs	r1, #2
 2564 01a2 2000     		movs	r0, r4
 2565 01a4 FFF7FEFF 		bl	set_task
 2566              	.LVL262:
 439:..\src\app\alt_mode/vdm_task_mngr.c ****             case VDM_CMD_DSC_SVIDS:
 2567              		.loc 1 439 0
 2568 01a8 08E0     		b	.L158
 2569              	.L176:
 441:..\src\app\alt_mode/vdm_task_mngr.c ****                 break;
 2570              		.loc 1 441 0
 2571 01aa 0321     		movs	r1, #3
 2572 01ac 2000     		movs	r0, r4
 2573 01ae FFF7FEFF 		bl	set_task
 2574              	.LVL263:
 442:..\src\app\alt_mode/vdm_task_mngr.c ****             default:
 2575              		.loc 1 442 0
 2576 01b2 03E0     		b	.L158
 2577              	.L181:
 444:..\src\app\alt_mode/vdm_task_mngr.c ****                 break;
 2578              		.loc 1 444 0
 2579 01b4 0721     		movs	r1, #7
 2580 01b6 2000     		movs	r0, r4
 2581 01b8 FFF7FEFF 		bl	set_task
 2582              	.LVL264:
 2583              	.L158:
 451:..\src\app\alt_mode/vdm_task_mngr.c **** 
 2584              		.loc 1 451 0
 2585              		@ sp needed
 2586              	.LVL265:
 2587 01bc F8BD     		pop	{r3, r4, r5, r6, r7, pc}
 2588              	.L183:
 2589 01be C046     		.align	2
 2590              	.L182:
 2591 01c0 00000000 		.word	vdm_stat
 2592              		.cfi_endproc
 2593              	.LFE38:
 2594              		.size	vdm_rec_cbk, .-vdm_rec_cbk
 2595              		.section	.text.vdm_get_disc_id_resp,"ax",%progbits
 2596              		.align	2
 2597              		.global	vdm_get_disc_id_resp
 2598              		.code	16
 2599              		.thumb_func
 2600              		.type	vdm_get_disc_id_resp, %function
 2601              	vdm_get_disc_id_resp:
 2602              	.LFB57:
1089:..\src\app\alt_mode/vdm_task_mngr.c **** #endif /* (DFP_ALT_MODE_SUPP) || (UFP_ALT_MODE_SUPP) */
1090:..\src\app\alt_mode/vdm_task_mngr.c **** 
1091:..\src\app\alt_mode/vdm_task_mngr.c **** uint8_t *vdm_get_disc_id_resp(uint8_t port, uint8_t *resp_len_p)
1092:..\src\app\alt_mode/vdm_task_mngr.c **** {
ARM GAS  e:\temp\ccdoSeHU.s 			page 72


 2603              		.loc 1 1092 0
 2604              		.cfi_startproc
 2605              		@ args = 0, pretend = 0, frame = 0
 2606              		@ frame_needed = 0, uses_anonymous_args = 0
 2607              		@ link register save eliminated.
 2608              	.LVL266:
1093:..\src\app\alt_mode/vdm_task_mngr.c ****     uint8_t *ptr = NULL;
1094:..\src\app\alt_mode/vdm_task_mngr.c **** 
1095:..\src\app\alt_mode/vdm_task_mngr.c ****     /* Check for bad pointer argument. */
1096:..\src\app\alt_mode/vdm_task_mngr.c ****     if (resp_len_p == NULL)
 2609              		.loc 1 1096 0
 2610 0000 0029     		cmp	r1, #0
 2611 0002 12D0     		beq	.L186
1097:..\src\app\alt_mode/vdm_task_mngr.c ****         return NULL;
1098:..\src\app\alt_mode/vdm_task_mngr.c **** 
1099:..\src\app\alt_mode/vdm_task_mngr.c ****     /* Set response length to zero by default. */
1100:..\src\app\alt_mode/vdm_task_mngr.c ****     *resp_len_p = 0;
 2612              		.loc 1 1100 0
 2613 0004 0023     		movs	r3, #0
 2614 0006 0B70     		strb	r3, [r1]
1101:..\src\app\alt_mode/vdm_task_mngr.c **** 
1102:..\src\app\alt_mode/vdm_task_mngr.c **** #if ((DFP_ALT_MODE_SUPP) && (VDM_RESP_QUERY_SUPPORTED))
1103:..\src\app\alt_mode/vdm_task_mngr.c ****     if ((port < NO_OF_TYPEC_PORTS) && (gl_dpm_port_type[port] == PRT_TYPE_DFP))
 2615              		.loc 1 1103 0
 2616 0008 0128     		cmp	r0, #1
 2617 000a 10D8     		bhi	.L187
 2618              		.loc 1 1103 0 is_stmt 0 discriminator 1
 2619 000c 0A4B     		ldr	r3, .L189
 2620 000e 1B5C     		ldrb	r3, [r3, r0]
 2621 0010 012B     		cmp	r3, #1
 2622 0012 0ED1     		bne	.L188
1104:..\src\app\alt_mode/vdm_task_mngr.c ****     {
1105:..\src\app\alt_mode/vdm_task_mngr.c ****         *resp_len_p = vdm_disc_id_resp_len[port];
 2623              		.loc 1 1105 0 is_stmt 1
 2624 0014 094B     		ldr	r3, .L189+4
 2625 0016 1A18     		adds	r2, r3, r0
 2626 0018 127A     		ldrb	r2, [r2, #8]
 2627 001a 0A70     		strb	r2, [r1]
1106:..\src\app\alt_mode/vdm_task_mngr.c ****         ptr         = (uint8_t *)vdm_disc_id_resp[port];
 2628              		.loc 1 1106 0
 2629 001c 0C33     		adds	r3, r3, #12
 2630 001e 1A00     		movs	r2, r3
 2631 0020 C300     		lsls	r3, r0, #3
 2632 0022 181A     		subs	r0, r3, r0
 2633              	.LVL267:
 2634 0024 8300     		lsls	r3, r0, #2
 2635 0026 D018     		adds	r0, r2, r3
 2636              	.LVL268:
 2637 0028 04E0     		b	.L185
 2638              	.LVL269:
 2639              	.L186:
1097:..\src\app\alt_mode/vdm_task_mngr.c **** 
 2640              		.loc 1 1097 0
 2641 002a 0020     		movs	r0, #0
 2642              	.LVL270:
 2643 002c 02E0     		b	.L185
 2644              	.LVL271:
ARM GAS  e:\temp\ccdoSeHU.s 			page 73


 2645              	.L187:
1093:..\src\app\alt_mode/vdm_task_mngr.c **** 
 2646              		.loc 1 1093 0
 2647 002e 0020     		movs	r0, #0
 2648              	.LVL272:
 2649 0030 00E0     		b	.L185
 2650              	.LVL273:
 2651              	.L188:
 2652 0032 0020     		movs	r0, #0
 2653              	.LVL274:
 2654              	.L185:
1107:..\src\app\alt_mode/vdm_task_mngr.c ****     }
1108:..\src\app\alt_mode/vdm_task_mngr.c **** #endif /* ((DFP_ALT_MODE_SUPP) && (VDM_RESP_QUERY_SUPPORTED)) */
1109:..\src\app\alt_mode/vdm_task_mngr.c **** 
1110:..\src\app\alt_mode/vdm_task_mngr.c ****     return (ptr);
1111:..\src\app\alt_mode/vdm_task_mngr.c **** }
 2655              		.loc 1 1111 0
 2656              		@ sp needed
 2657 0034 7047     		bx	lr
 2658              	.L190:
 2659 0036 C046     		.align	2
 2660              	.L189:
 2661 0038 00000000 		.word	gl_dpm_port_type
 2662 003c 00000000 		.word	.LANCHOR0
 2663              		.cfi_endproc
 2664              	.LFE57:
 2665              		.size	vdm_get_disc_id_resp, .-vdm_get_disc_id_resp
 2666              		.section	.text.vdm_get_disc_svid_resp,"ax",%progbits
 2667              		.align	2
 2668              		.global	vdm_get_disc_svid_resp
 2669              		.code	16
 2670              		.thumb_func
 2671              		.type	vdm_get_disc_svid_resp, %function
 2672              	vdm_get_disc_svid_resp:
 2673              	.LFB58:
1112:..\src\app\alt_mode/vdm_task_mngr.c **** 
1113:..\src\app\alt_mode/vdm_task_mngr.c **** uint8_t *vdm_get_disc_svid_resp(uint8_t port, uint8_t *resp_len_p)
1114:..\src\app\alt_mode/vdm_task_mngr.c **** {
 2674              		.loc 1 1114 0
 2675              		.cfi_startproc
 2676              		@ args = 0, pretend = 0, frame = 0
 2677              		@ frame_needed = 0, uses_anonymous_args = 0
 2678              	.LVL275:
 2679 0000 10B5     		push	{r4, lr}
 2680              		.cfi_def_cfa_offset 8
 2681              		.cfi_offset 4, -8
 2682              		.cfi_offset 14, -4
 2683              	.LVL276:
1115:..\src\app\alt_mode/vdm_task_mngr.c ****     uint8_t *ptr = NULL;
1116:..\src\app\alt_mode/vdm_task_mngr.c **** 
1117:..\src\app\alt_mode/vdm_task_mngr.c ****     /* Check for bad pointer argument. */
1118:..\src\app\alt_mode/vdm_task_mngr.c ****     if (resp_len_p == NULL)
 2684              		.loc 1 1118 0
 2685 0002 0029     		cmp	r1, #0
 2686 0004 13D0     		beq	.L193
1119:..\src\app\alt_mode/vdm_task_mngr.c ****         return NULL;
1120:..\src\app\alt_mode/vdm_task_mngr.c **** 
ARM GAS  e:\temp\ccdoSeHU.s 			page 74


1121:..\src\app\alt_mode/vdm_task_mngr.c ****     /* Set response length to zero by default. */
1122:..\src\app\alt_mode/vdm_task_mngr.c ****     *resp_len_p = 0;
 2687              		.loc 1 1122 0
 2688 0006 0023     		movs	r3, #0
 2689 0008 0B70     		strb	r3, [r1]
1123:..\src\app\alt_mode/vdm_task_mngr.c **** 
1124:..\src\app\alt_mode/vdm_task_mngr.c **** #if ((DFP_ALT_MODE_SUPP) && (VDM_RESP_QUERY_SUPPORTED))
1125:..\src\app\alt_mode/vdm_task_mngr.c ****     if ((port < NO_OF_TYPEC_PORTS) && (gl_dpm_port_type[port] == PRT_TYPE_DFP))
 2690              		.loc 1 1125 0
 2691 000a 0128     		cmp	r0, #1
 2692 000c 11D8     		bhi	.L194
 2693              		.loc 1 1125 0 is_stmt 0 discriminator 1
 2694 000e 0B4B     		ldr	r3, .L196
 2695 0010 1B5C     		ldrb	r3, [r3, r0]
 2696 0012 012B     		cmp	r3, #1
 2697 0014 0FD1     		bne	.L195
1126:..\src\app\alt_mode/vdm_task_mngr.c ****     {
1127:..\src\app\alt_mode/vdm_task_mngr.c ****         *resp_len_p = vdm_disc_svid_resp_len[port];
 2698              		.loc 1 1127 0 is_stmt 1
 2699 0016 0A4B     		ldr	r3, .L196+4
 2700 0018 1C18     		adds	r4, r3, r0
 2701 001a 4422     		movs	r2, #68
 2702 001c A25C     		ldrb	r2, [r4, r2]
 2703 001e 0A70     		strb	r2, [r1]
1128:..\src\app\alt_mode/vdm_task_mngr.c ****         ptr         = (uint8_t *)vdm_disc_svid_resp[port];
 2704              		.loc 1 1128 0
 2705 0020 4833     		adds	r3, r3, #72
 2706 0022 1A00     		movs	r2, r3
 2707 0024 C300     		lsls	r3, r0, #3
 2708 0026 1818     		adds	r0, r3, r0
 2709              	.LVL277:
 2710 0028 C300     		lsls	r3, r0, #3
 2711 002a D018     		adds	r0, r2, r3
 2712              	.LVL278:
 2713 002c 04E0     		b	.L192
 2714              	.LVL279:
 2715              	.L193:
1119:..\src\app\alt_mode/vdm_task_mngr.c **** 
 2716              		.loc 1 1119 0
 2717 002e 0020     		movs	r0, #0
 2718              	.LVL280:
 2719 0030 02E0     		b	.L192
 2720              	.LVL281:
 2721              	.L194:
1115:..\src\app\alt_mode/vdm_task_mngr.c **** 
 2722              		.loc 1 1115 0
 2723 0032 0020     		movs	r0, #0
 2724              	.LVL282:
 2725 0034 00E0     		b	.L192
 2726              	.LVL283:
 2727              	.L195:
 2728 0036 0020     		movs	r0, #0
 2729              	.LVL284:
 2730              	.L192:
1129:..\src\app\alt_mode/vdm_task_mngr.c ****     }
1130:..\src\app\alt_mode/vdm_task_mngr.c **** #endif /* ((DFP_ALT_MODE_SUPP) && (VDM_RESP_QUERY_SUPPORTED)) */
1131:..\src\app\alt_mode/vdm_task_mngr.c **** 
ARM GAS  e:\temp\ccdoSeHU.s 			page 75


1132:..\src\app\alt_mode/vdm_task_mngr.c ****     return (ptr);
1133:..\src\app\alt_mode/vdm_task_mngr.c **** }
 2731              		.loc 1 1133 0
 2732              		@ sp needed
 2733 0038 10BD     		pop	{r4, pc}
 2734              	.L197:
 2735 003a C046     		.align	2
 2736              	.L196:
 2737 003c 00000000 		.word	gl_dpm_port_type
 2738 0040 00000000 		.word	.LANCHOR0
 2739              		.cfi_endproc
 2740              	.LFE58:
 2741              		.size	vdm_get_disc_svid_resp, .-vdm_get_disc_svid_resp
 2742              		.comm	vdm_stat,144,4
 2743              		.bss
 2744              		.align	2
 2745              		.set	.LANCHOR0,. + 0
 2746              		.type	vdm_emca_rst_state, %object
 2747              		.size	vdm_emca_rst_state, 2
 2748              	vdm_emca_rst_state:
 2749 0000 0000     		.space	2
 2750 0002 0000     		.space	2
 2751              		.type	vdm_emca_rst_count, %object
 2752              		.size	vdm_emca_rst_count, 2
 2753              	vdm_emca_rst_count:
 2754 0004 0000     		.space	2
 2755 0006 0000     		.space	2
 2756              		.type	vdm_disc_id_resp_len, %object
 2757              		.size	vdm_disc_id_resp_len, 2
 2758              	vdm_disc_id_resp_len:
 2759 0008 0000     		.space	2
 2760 000a 0000     		.space	2
 2761              		.type	vdm_disc_id_resp, %object
 2762              		.size	vdm_disc_id_resp, 56
 2763              	vdm_disc_id_resp:
 2764 000c 00000000 		.space	56
 2764      00000000 
 2764      00000000 
 2764      00000000 
 2764      00000000 
 2765              		.type	vdm_disc_svid_resp_len, %object
 2766              		.size	vdm_disc_svid_resp_len, 2
 2767              	vdm_disc_svid_resp_len:
 2768 0044 0000     		.space	2
 2769 0046 0000     		.space	2
 2770              		.type	vdm_disc_svid_resp, %object
 2771              		.size	vdm_disc_svid_resp, 144
 2772              	vdm_disc_svid_resp:
 2773 0048 00000000 		.space	144
 2773      00000000 
 2773      00000000 
 2773      00000000 
 2773      00000000 
 2774              		.text
 2775              	.Letext0:
 2776              		.file 2 "e:\\cypress\\psoc creator\\4.2\\psoc creator\\import\\gnu\\arm\\5.4.1\\arm-none-eabi\\inc
 2777              		.file 3 "e:\\cypress\\psoc creator\\4.2\\psoc creator\\import\\gnu\\arm\\5.4.1\\arm-none-eabi\\inc
ARM GAS  e:\temp\ccdoSeHU.s 			page 76


 2778              		.file 4 "..\\src\\pd_common/pd.h"
 2779              		.file 5 "..\\src\\system/status.h"
 2780              		.file 6 "..\\src\\app/app.h"
 2781              		.file 7 "..\\src\\app\\alt_mode/vdm_task_mngr.h"
 2782              		.file 8 "..\\src\\app\\alt_mode/alt_modes_mngr.h"
 2783              		.file 9 "..\\src\\pd_common/dpm.h"
 2784              		.file 10 "..\\src\\system/timer.h"
 2785              		.file 11 "..\\src\\app\\alt_mode/alt_mode_hw.h"
 2786              		.section	.debug_info,"",%progbits
 2787              	.Ldebug_info0:
 2788 0000 09400000 		.4byte	0x4009
 2789 0004 0400     		.2byte	0x4
 2790 0006 00000000 		.4byte	.Ldebug_abbrev0
 2791 000a 04       		.byte	0x4
 2792 000b 01       		.uleb128 0x1
 2793 000c 82070000 		.4byte	.LASF765
 2794 0010 0C       		.byte	0xc
 2795 0011 F5120000 		.4byte	.LASF766
 2796 0015 DC150000 		.4byte	.LASF767
 2797 0019 00000000 		.4byte	.Ldebug_ranges0+0
 2798 001d 00000000 		.4byte	0
 2799 0021 00000000 		.4byte	.Ldebug_line0
 2800 0025 02       		.uleb128 0x2
 2801 0026 F7290000 		.4byte	.LASF0
 2802 002a 02       		.byte	0x2
 2803 002b 1B       		.byte	0x1b
 2804 002c 30000000 		.4byte	0x30
 2805 0030 03       		.uleb128 0x3
 2806 0031 01       		.byte	0x1
 2807 0032 06       		.byte	0x6
 2808 0033 05190000 		.4byte	.LASF2
 2809 0037 02       		.uleb128 0x2
 2810 0038 A9010000 		.4byte	.LASF1
 2811 003c 02       		.byte	0x2
 2812 003d 1D       		.byte	0x1d
 2813 003e 42000000 		.4byte	0x42
 2814 0042 03       		.uleb128 0x3
 2815 0043 01       		.byte	0x1
 2816 0044 08       		.byte	0x8
 2817 0045 750B0000 		.4byte	.LASF3
 2818 0049 03       		.uleb128 0x3
 2819 004a 02       		.byte	0x2
 2820 004b 05       		.byte	0x5
 2821 004c 782B0000 		.4byte	.LASF4
 2822 0050 02       		.uleb128 0x2
 2823 0051 490A0000 		.4byte	.LASF5
 2824 0055 02       		.byte	0x2
 2825 0056 2B       		.byte	0x2b
 2826 0057 5B000000 		.4byte	0x5b
 2827 005b 03       		.uleb128 0x3
 2828 005c 02       		.byte	0x2
 2829 005d 07       		.byte	0x7
 2830 005e F2180000 		.4byte	.LASF6
 2831 0062 03       		.uleb128 0x3
 2832 0063 04       		.byte	0x4
 2833 0064 05       		.byte	0x5
 2834 0065 081C0000 		.4byte	.LASF7
ARM GAS  e:\temp\ccdoSeHU.s 			page 77


 2835 0069 02       		.uleb128 0x2
 2836 006a 9A220000 		.4byte	.LASF8
 2837 006e 02       		.byte	0x2
 2838 006f 41       		.byte	0x41
 2839 0070 74000000 		.4byte	0x74
 2840 0074 03       		.uleb128 0x3
 2841 0075 04       		.byte	0x4
 2842 0076 07       		.byte	0x7
 2843 0077 DA1D0000 		.4byte	.LASF9
 2844 007b 03       		.uleb128 0x3
 2845 007c 08       		.byte	0x8
 2846 007d 05       		.byte	0x5
 2847 007e 4C270000 		.4byte	.LASF10
 2848 0082 03       		.uleb128 0x3
 2849 0083 08       		.byte	0x8
 2850 0084 07       		.byte	0x7
 2851 0085 8A240000 		.4byte	.LASF11
 2852 0089 04       		.uleb128 0x4
 2853 008a 04       		.byte	0x4
 2854 008b 05       		.byte	0x5
 2855 008c 696E7400 		.ascii	"int\000"
 2856 0090 03       		.uleb128 0x3
 2857 0091 04       		.byte	0x4
 2858 0092 07       		.byte	0x7
 2859 0093 E02A0000 		.4byte	.LASF12
 2860 0097 02       		.uleb128 0x2
 2861 0098 E9160000 		.4byte	.LASF13
 2862 009c 03       		.byte	0x3
 2863 009d 14       		.byte	0x14
 2864 009e 25000000 		.4byte	0x25
 2865 00a2 02       		.uleb128 0x2
 2866 00a3 99100000 		.4byte	.LASF14
 2867 00a7 03       		.byte	0x3
 2868 00a8 18       		.byte	0x18
 2869 00a9 37000000 		.4byte	0x37
 2870 00ad 02       		.uleb128 0x2
 2871 00ae 4C030000 		.4byte	.LASF15
 2872 00b2 03       		.byte	0x3
 2873 00b3 24       		.byte	0x24
 2874 00b4 50000000 		.4byte	0x50
 2875 00b8 02       		.uleb128 0x2
 2876 00b9 FA1C0000 		.4byte	.LASF16
 2877 00bd 03       		.byte	0x3
 2878 00be 30       		.byte	0x30
 2879 00bf 69000000 		.4byte	0x69
 2880 00c3 03       		.uleb128 0x3
 2881 00c4 04       		.byte	0x4
 2882 00c5 04       		.byte	0x4
 2883 00c6 070C0000 		.4byte	.LASF17
 2884 00ca 03       		.uleb128 0x3
 2885 00cb 08       		.byte	0x8
 2886 00cc 04       		.byte	0x4
 2887 00cd D5210000 		.4byte	.LASF18
 2888 00d1 03       		.uleb128 0x3
 2889 00d2 01       		.byte	0x1
 2890 00d3 08       		.byte	0x8
 2891 00d4 B21E0000 		.4byte	.LASF19
ARM GAS  e:\temp\ccdoSeHU.s 			page 78


 2892 00d8 03       		.uleb128 0x3
 2893 00d9 08       		.byte	0x8
 2894 00da 04       		.byte	0x4
 2895 00db 691D0000 		.4byte	.LASF20
 2896 00df 03       		.uleb128 0x3
 2897 00e0 04       		.byte	0x4
 2898 00e1 07       		.byte	0x7
 2899 00e2 65180000 		.4byte	.LASF21
 2900 00e6 05       		.uleb128 0x5
 2901 00e7 B8000000 		.4byte	0xb8
 2902 00eb 06       		.uleb128 0x6
 2903 00ec 01       		.byte	0x1
 2904 00ed 42000000 		.4byte	0x42
 2905 00f1 04       		.byte	0x4
 2906 00f2 5003     		.2byte	0x350
 2907 00f4 11010000 		.4byte	0x111
 2908 00f8 07       		.uleb128 0x7
 2909 00f9 2F260000 		.4byte	.LASF22
 2910 00fd 00       		.byte	0
 2911 00fe 07       		.uleb128 0x7
 2912 00ff 37260000 		.4byte	.LASF23
 2913 0103 01       		.byte	0x1
 2914 0104 07       		.uleb128 0x7
 2915 0105 3F260000 		.4byte	.LASF24
 2916 0109 02       		.byte	0x2
 2917 010a 07       		.uleb128 0x7
 2918 010b C4010000 		.4byte	.LASF25
 2919 010f 03       		.byte	0x3
 2920 0110 00       		.byte	0
 2921 0111 08       		.uleb128 0x8
 2922 0112 80050000 		.4byte	.LASF26
 2923 0116 04       		.byte	0x4
 2924 0117 5503     		.2byte	0x355
 2925 0119 EB000000 		.4byte	0xeb
 2926 011d 06       		.uleb128 0x6
 2927 011e 01       		.byte	0x1
 2928 011f 42000000 		.4byte	0x42
 2929 0123 04       		.byte	0x4
 2930 0124 9F03     		.2byte	0x39f
 2931 0126 7F010000 		.4byte	0x17f
 2932 012a 07       		.uleb128 0x7
 2933 012b B9270000 		.4byte	.LASF27
 2934 012f 01       		.byte	0x1
 2935 0130 07       		.uleb128 0x7
 2936 0131 9A0E0000 		.4byte	.LASF28
 2937 0135 02       		.byte	0x2
 2938 0136 07       		.uleb128 0x7
 2939 0137 3E000000 		.4byte	.LASF29
 2940 013b 03       		.byte	0x3
 2941 013c 07       		.uleb128 0x7
 2942 013d F5270000 		.4byte	.LASF30
 2943 0141 04       		.byte	0x4
 2944 0142 07       		.uleb128 0x7
 2945 0143 D42B0000 		.4byte	.LASF31
 2946 0147 05       		.byte	0x5
 2947 0148 07       		.uleb128 0x7
 2948 0149 40100000 		.4byte	.LASF32
ARM GAS  e:\temp\ccdoSeHU.s 			page 79


 2949 014d 06       		.byte	0x6
 2950 014e 07       		.uleb128 0x7
 2951 014f F3260000 		.4byte	.LASF33
 2952 0153 07       		.byte	0x7
 2953 0154 07       		.uleb128 0x7
 2954 0155 0D180000 		.4byte	.LASF34
 2955 0159 08       		.byte	0x8
 2956 015a 07       		.uleb128 0x7
 2957 015b 5A270000 		.4byte	.LASF35
 2958 015f 09       		.byte	0x9
 2959 0160 07       		.uleb128 0x7
 2960 0161 47200000 		.4byte	.LASF36
 2961 0165 0A       		.byte	0xa
 2962 0166 07       		.uleb128 0x7
 2963 0167 C82A0000 		.4byte	.LASF37
 2964 016b 0B       		.byte	0xb
 2965 016c 07       		.uleb128 0x7
 2966 016d D80D0000 		.4byte	.LASF38
 2967 0171 0C       		.byte	0xc
 2968 0172 07       		.uleb128 0x7
 2969 0173 B4020000 		.4byte	.LASF39
 2970 0177 0D       		.byte	0xd
 2971 0178 07       		.uleb128 0x7
 2972 0179 95230000 		.4byte	.LASF40
 2973 017d 0E       		.byte	0xe
 2974 017e 00       		.byte	0
 2975 017f 08       		.uleb128 0x8
 2976 0180 830B0000 		.4byte	.LASF41
 2977 0184 04       		.byte	0x4
 2978 0185 AE03     		.2byte	0x3ae
 2979 0187 1D010000 		.4byte	0x11d
 2980 018b 06       		.uleb128 0x6
 2981 018c 01       		.byte	0x1
 2982 018d 42000000 		.4byte	0x42
 2983 0191 04       		.byte	0x4
 2984 0192 EA03     		.2byte	0x3ea
 2985 0194 C9010000 		.4byte	0x1c9
 2986 0198 09       		.uleb128 0x9
 2987 0199 534F5000 		.ascii	"SOP\000"
 2988 019d 00       		.byte	0
 2989 019e 07       		.uleb128 0x7
 2990 019f A1110000 		.4byte	.LASF42
 2991 01a3 01       		.byte	0x1
 2992 01a4 07       		.uleb128 0x7
 2993 01a5 36120000 		.4byte	.LASF43
 2994 01a9 02       		.byte	0x2
 2995 01aa 07       		.uleb128 0x7
 2996 01ab B21B0000 		.4byte	.LASF44
 2997 01af 03       		.byte	0x3
 2998 01b0 07       		.uleb128 0x7
 2999 01b1 AE030000 		.4byte	.LASF45
 3000 01b5 04       		.byte	0x4
 3001 01b6 07       		.uleb128 0x7
 3002 01b7 172B0000 		.4byte	.LASF46
 3003 01bb 05       		.byte	0x5
 3004 01bc 07       		.uleb128 0x7
 3005 01bd 1E280000 		.4byte	.LASF47
ARM GAS  e:\temp\ccdoSeHU.s 			page 80


 3006 01c1 06       		.byte	0x6
 3007 01c2 07       		.uleb128 0x7
 3008 01c3 3D0A0000 		.4byte	.LASF48
 3009 01c7 07       		.byte	0x7
 3010 01c8 00       		.byte	0
 3011 01c9 08       		.uleb128 0x8
 3012 01ca 020D0000 		.4byte	.LASF49
 3013 01ce 04       		.byte	0x4
 3014 01cf F303     		.2byte	0x3f3
 3015 01d1 8B010000 		.4byte	0x18b
 3016 01d5 06       		.uleb128 0x6
 3017 01d6 01       		.byte	0x1
 3018 01d7 42000000 		.4byte	0x42
 3019 01db 04       		.byte	0x4
 3020 01dc FA03     		.2byte	0x3fa
 3021 01de F5010000 		.4byte	0x1f5
 3022 01e2 07       		.uleb128 0x7
 3023 01e3 54130000 		.4byte	.LASF50
 3024 01e7 00       		.byte	0
 3025 01e8 07       		.uleb128 0x7
 3026 01e9 BB000000 		.4byte	.LASF51
 3027 01ed 01       		.byte	0x1
 3028 01ee 07       		.uleb128 0x7
 3029 01ef 320B0000 		.4byte	.LASF52
 3030 01f3 02       		.byte	0x2
 3031 01f4 00       		.byte	0
 3032 01f5 08       		.uleb128 0x8
 3033 01f6 87160000 		.4byte	.LASF53
 3034 01fa 04       		.byte	0x4
 3035 01fb FE03     		.2byte	0x3fe
 3036 01fd D5010000 		.4byte	0x1d5
 3037 0201 06       		.uleb128 0x6
 3038 0202 01       		.byte	0x1
 3039 0203 42000000 		.4byte	0x42
 3040 0207 04       		.byte	0x4
 3041 0208 0504     		.2byte	0x405
 3042 020a 21020000 		.4byte	0x221
 3043 020e 07       		.uleb128 0x7
 3044 020f C80E0000 		.4byte	.LASF54
 3045 0213 00       		.byte	0
 3046 0214 07       		.uleb128 0x7
 3047 0215 C31D0000 		.4byte	.LASF55
 3048 0219 01       		.byte	0x1
 3049 021a 07       		.uleb128 0x7
 3050 021b 12250000 		.4byte	.LASF56
 3051 021f 02       		.byte	0x2
 3052 0220 00       		.byte	0
 3053 0221 08       		.uleb128 0x8
 3054 0222 7F2A0000 		.4byte	.LASF57
 3055 0226 04       		.byte	0x4
 3056 0227 0904     		.2byte	0x409
 3057 0229 01020000 		.4byte	0x201
 3058 022d 06       		.uleb128 0x6
 3059 022e 01       		.byte	0x1
 3060 022f 42000000 		.4byte	0x42
 3061 0233 04       		.byte	0x4
 3062 0234 1D04     		.2byte	0x41d
ARM GAS  e:\temp\ccdoSeHU.s 			page 81


 3063 0236 59020000 		.4byte	0x259
 3064 023a 07       		.uleb128 0x7
 3065 023b 18230000 		.4byte	.LASF58
 3066 023f 01       		.byte	0x1
 3067 0240 07       		.uleb128 0x7
 3068 0241 5C080000 		.4byte	.LASF59
 3069 0245 03       		.byte	0x3
 3070 0246 07       		.uleb128 0x7
 3071 0247 41270000 		.4byte	.LASF60
 3072 024b 04       		.byte	0x4
 3073 024c 07       		.uleb128 0x7
 3074 024d 54160000 		.4byte	.LASF61
 3075 0251 0C       		.byte	0xc
 3076 0252 07       		.uleb128 0x7
 3077 0253 C4280000 		.4byte	.LASF62
 3078 0257 10       		.byte	0x10
 3079 0258 00       		.byte	0
 3080 0259 08       		.uleb128 0x8
 3081 025a 8D1F0000 		.4byte	.LASF63
 3082 025e 04       		.byte	0x4
 3083 025f 2304     		.2byte	0x423
 3084 0261 2D020000 		.4byte	0x22d
 3085 0265 06       		.uleb128 0x6
 3086 0266 01       		.byte	0x1
 3087 0267 42000000 		.4byte	0x42
 3088 026b 04       		.byte	0x4
 3089 026c 2A04     		.2byte	0x42a
 3090 026e 91020000 		.4byte	0x291
 3091 0272 07       		.uleb128 0x7
 3092 0273 B20D0000 		.4byte	.LASF64
 3093 0277 00       		.byte	0
 3094 0278 07       		.uleb128 0x7
 3095 0279 A00F0000 		.4byte	.LASF65
 3096 027d 01       		.byte	0x1
 3097 027e 07       		.uleb128 0x7
 3098 027f 3B2C0000 		.4byte	.LASF66
 3099 0283 02       		.byte	0x2
 3100 0284 07       		.uleb128 0x7
 3101 0285 F9110000 		.4byte	.LASF67
 3102 0289 03       		.byte	0x3
 3103 028a 07       		.uleb128 0x7
 3104 028b AC250000 		.4byte	.LASF68
 3105 028f 04       		.byte	0x4
 3106 0290 00       		.byte	0
 3107 0291 08       		.uleb128 0x8
 3108 0292 652A0000 		.4byte	.LASF69
 3109 0296 04       		.byte	0x4
 3110 0297 3004     		.2byte	0x430
 3111 0299 65020000 		.4byte	0x265
 3112 029d 06       		.uleb128 0x6
 3113 029e 01       		.byte	0x1
 3114 029f 42000000 		.4byte	0x42
 3115 02a3 04       		.byte	0x4
 3116 02a4 3704     		.2byte	0x437
 3117 02a6 23030000 		.4byte	0x323
 3118 02aa 07       		.uleb128 0x7
 3119 02ab 850E0000 		.4byte	.LASF70
ARM GAS  e:\temp\ccdoSeHU.s 			page 82


 3120 02af 00       		.byte	0
 3121 02b0 07       		.uleb128 0x7
 3122 02b1 7D040000 		.4byte	.LASF71
 3123 02b5 01       		.byte	0x1
 3124 02b6 07       		.uleb128 0x7
 3125 02b7 650E0000 		.4byte	.LASF72
 3126 02bb 02       		.byte	0x2
 3127 02bc 07       		.uleb128 0x7
 3128 02bd 540D0000 		.4byte	.LASF73
 3129 02c1 03       		.byte	0x3
 3130 02c2 07       		.uleb128 0x7
 3131 02c3 F4060000 		.4byte	.LASF74
 3132 02c7 04       		.byte	0x4
 3133 02c8 07       		.uleb128 0x7
 3134 02c9 E3280000 		.4byte	.LASF75
 3135 02cd 05       		.byte	0x5
 3136 02ce 07       		.uleb128 0x7
 3137 02cf 751D0000 		.4byte	.LASF76
 3138 02d3 06       		.byte	0x6
 3139 02d4 07       		.uleb128 0x7
 3140 02d5 19040000 		.4byte	.LASF77
 3141 02d9 07       		.byte	0x7
 3142 02da 07       		.uleb128 0x7
 3143 02db 4B230000 		.4byte	.LASF78
 3144 02df 08       		.byte	0x8
 3145 02e0 07       		.uleb128 0x7
 3146 02e1 E10A0000 		.4byte	.LASF79
 3147 02e5 09       		.byte	0x9
 3148 02e6 07       		.uleb128 0x7
 3149 02e7 BA0A0000 		.4byte	.LASF80
 3150 02eb 0A       		.byte	0xa
 3151 02ec 07       		.uleb128 0x7
 3152 02ed EC0D0000 		.4byte	.LASF81
 3153 02f1 0B       		.byte	0xb
 3154 02f2 07       		.uleb128 0x7
 3155 02f3 92270000 		.4byte	.LASF82
 3156 02f7 0C       		.byte	0xc
 3157 02f8 07       		.uleb128 0x7
 3158 02f9 E1290000 		.4byte	.LASF83
 3159 02fd 0D       		.byte	0xd
 3160 02fe 07       		.uleb128 0x7
 3161 02ff 580B0000 		.4byte	.LASF84
 3162 0303 0E       		.byte	0xe
 3163 0304 07       		.uleb128 0x7
 3164 0305 47260000 		.4byte	.LASF85
 3165 0309 0F       		.byte	0xf
 3166 030a 07       		.uleb128 0x7
 3167 030b DC210000 		.4byte	.LASF86
 3168 030f 10       		.byte	0x10
 3169 0310 07       		.uleb128 0x7
 3170 0311 410D0000 		.4byte	.LASF87
 3171 0315 11       		.byte	0x11
 3172 0316 07       		.uleb128 0x7
 3173 0317 C3040000 		.4byte	.LASF88
 3174 031b 12       		.byte	0x12
 3175 031c 07       		.uleb128 0x7
 3176 031d C7150000 		.4byte	.LASF89
ARM GAS  e:\temp\ccdoSeHU.s 			page 83


 3177 0321 FF       		.byte	0xff
 3178 0322 00       		.byte	0
 3179 0323 08       		.uleb128 0x8
 3180 0324 AD1A0000 		.4byte	.LASF90
 3181 0328 04       		.byte	0x4
 3182 0329 4C04     		.2byte	0x44c
 3183 032b 9D020000 		.4byte	0x29d
 3184 032f 06       		.uleb128 0x6
 3185 0330 01       		.byte	0x1
 3186 0331 42000000 		.4byte	0x42
 3187 0335 04       		.byte	0x4
 3188 0336 5304     		.2byte	0x453
 3189 0338 61030000 		.4byte	0x361
 3190 033c 07       		.uleb128 0x7
 3191 033d 472C0000 		.4byte	.LASF91
 3192 0341 01       		.byte	0x1
 3193 0342 07       		.uleb128 0x7
 3194 0343 20030000 		.4byte	.LASF92
 3195 0347 02       		.byte	0x2
 3196 0348 07       		.uleb128 0x7
 3197 0349 2E010000 		.4byte	.LASF93
 3198 034d 03       		.byte	0x3
 3199 034e 07       		.uleb128 0x7
 3200 034f A5220000 		.4byte	.LASF94
 3201 0353 04       		.byte	0x4
 3202 0354 07       		.uleb128 0x7
 3203 0355 7C270000 		.4byte	.LASF95
 3204 0359 05       		.byte	0x5
 3205 035a 07       		.uleb128 0x7
 3206 035b D9140000 		.4byte	.LASF96
 3207 035f 06       		.byte	0x6
 3208 0360 00       		.byte	0
 3209 0361 08       		.uleb128 0x8
 3210 0362 8A0A0000 		.4byte	.LASF97
 3211 0366 04       		.byte	0x4
 3212 0367 5A04     		.2byte	0x45a
 3213 0369 2F030000 		.4byte	0x32f
 3214 036d 06       		.uleb128 0x6
 3215 036e 01       		.byte	0x1
 3216 036f 42000000 		.4byte	0x42
 3217 0373 04       		.byte	0x4
 3218 0374 6104     		.2byte	0x461
 3219 0376 87030000 		.4byte	0x387
 3220 037a 07       		.uleb128 0x7
 3221 037b 03140000 		.4byte	.LASF98
 3222 037f 00       		.byte	0
 3223 0380 07       		.uleb128 0x7
 3224 0381 181E0000 		.4byte	.LASF99
 3225 0385 01       		.byte	0x1
 3226 0386 00       		.byte	0
 3227 0387 06       		.uleb128 0x6
 3228 0388 01       		.byte	0x1
 3229 0389 42000000 		.4byte	0x42
 3230 038d 04       		.byte	0x4
 3231 038e 6B04     		.2byte	0x46b
 3232 0390 C5030000 		.4byte	0x3c5
 3233 0394 07       		.uleb128 0x7
ARM GAS  e:\temp\ccdoSeHU.s 			page 84


 3234 0395 ED2A0000 		.4byte	.LASF100
 3235 0399 01       		.byte	0x1
 3236 039a 07       		.uleb128 0x7
 3237 039b 2F240000 		.4byte	.LASF101
 3238 039f 02       		.byte	0x2
 3239 03a0 07       		.uleb128 0x7
 3240 03a1 F51D0000 		.4byte	.LASF102
 3241 03a5 03       		.byte	0x3
 3242 03a6 07       		.uleb128 0x7
 3243 03a7 8B200000 		.4byte	.LASF103
 3244 03ab 04       		.byte	0x4
 3245 03ac 07       		.uleb128 0x7
 3246 03ad 28030000 		.4byte	.LASF104
 3247 03b1 05       		.byte	0x5
 3248 03b2 07       		.uleb128 0x7
 3249 03b3 E52B0000 		.4byte	.LASF105
 3250 03b7 06       		.byte	0x6
 3251 03b8 07       		.uleb128 0x7
 3252 03b9 6C1E0000 		.4byte	.LASF106
 3253 03bd 10       		.byte	0x10
 3254 03be 07       		.uleb128 0x7
 3255 03bf 1F0D0000 		.4byte	.LASF107
 3256 03c3 11       		.byte	0x11
 3257 03c4 00       		.byte	0
 3258 03c5 06       		.uleb128 0x6
 3259 03c6 01       		.byte	0x1
 3260 03c7 42000000 		.4byte	0x42
 3261 03cb 04       		.byte	0x4
 3262 03cc 7B04     		.2byte	0x47b
 3263 03ce EB030000 		.4byte	0x3eb
 3264 03d2 07       		.uleb128 0x7
 3265 03d3 19220000 		.4byte	.LASF108
 3266 03d7 00       		.byte	0
 3267 03d8 07       		.uleb128 0x7
 3268 03d9 6C1A0000 		.4byte	.LASF109
 3269 03dd 01       		.byte	0x1
 3270 03de 07       		.uleb128 0x7
 3271 03df F0220000 		.4byte	.LASF110
 3272 03e3 02       		.byte	0x2
 3273 03e4 07       		.uleb128 0x7
 3274 03e5 D1000000 		.4byte	.LASF111
 3275 03e9 03       		.byte	0x3
 3276 03ea 00       		.byte	0
 3277 03eb 06       		.uleb128 0x6
 3278 03ec 01       		.byte	0x1
 3279 03ed 42000000 		.4byte	0x42
 3280 03f1 04       		.byte	0x4
 3281 03f2 8704     		.2byte	0x487
 3282 03f4 1D040000 		.4byte	0x41d
 3283 03f8 07       		.uleb128 0x7
 3284 03f9 A9100000 		.4byte	.LASF112
 3285 03fd 00       		.byte	0
 3286 03fe 07       		.uleb128 0x7
 3287 03ff 5D110000 		.4byte	.LASF113
 3288 0403 01       		.byte	0x1
 3289 0404 07       		.uleb128 0x7
 3290 0405 900C0000 		.4byte	.LASF114
ARM GAS  e:\temp\ccdoSeHU.s 			page 85


 3291 0409 02       		.byte	0x2
 3292 040a 07       		.uleb128 0x7
 3293 040b F4050000 		.4byte	.LASF115
 3294 040f 03       		.byte	0x3
 3295 0410 07       		.uleb128 0x7
 3296 0411 63220000 		.4byte	.LASF116
 3297 0415 04       		.byte	0x4
 3298 0416 07       		.uleb128 0x7
 3299 0417 501A0000 		.4byte	.LASF117
 3300 041b 05       		.byte	0x5
 3301 041c 00       		.byte	0
 3302 041d 08       		.uleb128 0x8
 3303 041e F0160000 		.4byte	.LASF118
 3304 0422 04       		.byte	0x4
 3305 0423 8E04     		.2byte	0x48e
 3306 0425 EB030000 		.4byte	0x3eb
 3307 0429 06       		.uleb128 0x6
 3308 042a 01       		.byte	0x1
 3309 042b 42000000 		.4byte	0x42
 3310 042f 04       		.byte	0x4
 3311 0430 9504     		.2byte	0x495
 3312 0432 4F040000 		.4byte	0x44f
 3313 0436 07       		.uleb128 0x7
 3314 0437 FA0B0000 		.4byte	.LASF119
 3315 043b 00       		.byte	0
 3316 043c 07       		.uleb128 0x7
 3317 043d B6130000 		.4byte	.LASF120
 3318 0441 01       		.byte	0x1
 3319 0442 07       		.uleb128 0x7
 3320 0443 0D0C0000 		.4byte	.LASF121
 3321 0447 02       		.byte	0x2
 3322 0448 07       		.uleb128 0x7
 3323 0449 1A0C0000 		.4byte	.LASF122
 3324 044d 03       		.byte	0x3
 3325 044e 00       		.byte	0
 3326 044f 08       		.uleb128 0x8
 3327 0450 5C0C0000 		.4byte	.LASF123
 3328 0454 04       		.byte	0x4
 3329 0455 9A04     		.2byte	0x49a
 3330 0457 29040000 		.4byte	0x429
 3331 045b 06       		.uleb128 0x6
 3332 045c 01       		.byte	0x1
 3333 045d 42000000 		.4byte	0x42
 3334 0461 04       		.byte	0x4
 3335 0462 AC04     		.2byte	0x4ac
 3336 0464 81040000 		.4byte	0x481
 3337 0468 07       		.uleb128 0x7
 3338 0469 17290000 		.4byte	.LASF124
 3339 046d 00       		.byte	0
 3340 046e 07       		.uleb128 0x7
 3341 046f 75150000 		.4byte	.LASF125
 3342 0473 01       		.byte	0x1
 3343 0474 07       		.uleb128 0x7
 3344 0475 851B0000 		.4byte	.LASF126
 3345 0479 02       		.byte	0x2
 3346 047a 07       		.uleb128 0x7
 3347 047b 65000000 		.4byte	.LASF127
ARM GAS  e:\temp\ccdoSeHU.s 			page 86


 3348 047f 03       		.byte	0x3
 3349 0480 00       		.byte	0
 3350 0481 06       		.uleb128 0x6
 3351 0482 01       		.byte	0x1
 3352 0483 42000000 		.4byte	0x42
 3353 0487 04       		.byte	0x4
 3354 0488 B804     		.2byte	0x4b8
 3355 048a A7040000 		.4byte	0x4a7
 3356 048e 07       		.uleb128 0x7
 3357 048f 7C1F0000 		.4byte	.LASF128
 3358 0493 00       		.byte	0
 3359 0494 07       		.uleb128 0x7
 3360 0495 8A260000 		.4byte	.LASF129
 3361 0499 01       		.byte	0x1
 3362 049a 07       		.uleb128 0x7
 3363 049b 2C1F0000 		.4byte	.LASF130
 3364 049f 02       		.byte	0x2
 3365 04a0 07       		.uleb128 0x7
 3366 04a1 B6190000 		.4byte	.LASF131
 3367 04a5 03       		.byte	0x3
 3368 04a6 00       		.byte	0
 3369 04a7 08       		.uleb128 0x8
 3370 04a8 67080000 		.4byte	.LASF132
 3371 04ac 04       		.byte	0x4
 3372 04ad BD04     		.2byte	0x4bd
 3373 04af 81040000 		.4byte	0x481
 3374 04b3 06       		.uleb128 0x6
 3375 04b4 01       		.byte	0x1
 3376 04b5 42000000 		.4byte	0x42
 3377 04b9 04       		.byte	0x4
 3378 04ba F404     		.2byte	0x4f4
 3379 04bc E5040000 		.4byte	0x4e5
 3380 04c0 07       		.uleb128 0x7
 3381 04c1 2C230000 		.4byte	.LASF133
 3382 04c5 00       		.byte	0
 3383 04c6 07       		.uleb128 0x7
 3384 04c7 831E0000 		.4byte	.LASF134
 3385 04cb 01       		.byte	0x1
 3386 04cc 07       		.uleb128 0x7
 3387 04cd C6230000 		.4byte	.LASF135
 3388 04d1 02       		.byte	0x2
 3389 04d2 07       		.uleb128 0x7
 3390 04d3 67280000 		.4byte	.LASF136
 3391 04d7 03       		.byte	0x3
 3392 04d8 07       		.uleb128 0x7
 3393 04d9 FB0E0000 		.4byte	.LASF137
 3394 04dd 04       		.byte	0x4
 3395 04de 07       		.uleb128 0x7
 3396 04df 910D0000 		.4byte	.LASF138
 3397 04e3 05       		.byte	0x5
 3398 04e4 00       		.byte	0
 3399 04e5 08       		.uleb128 0x8
 3400 04e6 A9240000 		.4byte	.LASF139
 3401 04ea 04       		.byte	0x4
 3402 04eb FB04     		.2byte	0x4fb
 3403 04ed B3040000 		.4byte	0x4b3
 3404 04f1 06       		.uleb128 0x6
ARM GAS  e:\temp\ccdoSeHU.s 			page 87


 3405 04f2 01       		.byte	0x1
 3406 04f3 42000000 		.4byte	0x42
 3407 04f7 04       		.byte	0x4
 3408 04f8 0205     		.2byte	0x502
 3409 04fa 0B050000 		.4byte	0x50b
 3410 04fe 07       		.uleb128 0x7
 3411 04ff 822B0000 		.4byte	.LASF140
 3412 0503 00       		.byte	0
 3413 0504 07       		.uleb128 0x7
 3414 0505 26200000 		.4byte	.LASF141
 3415 0509 01       		.byte	0x1
 3416 050a 00       		.byte	0
 3417 050b 08       		.uleb128 0x8
 3418 050c CD1F0000 		.4byte	.LASF142
 3419 0510 04       		.byte	0x4
 3420 0511 0505     		.2byte	0x505
 3421 0513 F1040000 		.4byte	0x4f1
 3422 0517 06       		.uleb128 0x6
 3423 0518 01       		.byte	0x1
 3424 0519 42000000 		.4byte	0x42
 3425 051d 04       		.byte	0x4
 3426 051e 0E05     		.2byte	0x50e
 3427 0520 79050000 		.4byte	0x579
 3428 0524 07       		.uleb128 0x7
 3429 0525 A3160000 		.4byte	.LASF143
 3430 0529 00       		.byte	0
 3431 052a 07       		.uleb128 0x7
 3432 052b 4C250000 		.4byte	.LASF144
 3433 052f 01       		.byte	0x1
 3434 0530 07       		.uleb128 0x7
 3435 0531 05210000 		.4byte	.LASF145
 3436 0535 02       		.byte	0x2
 3437 0536 07       		.uleb128 0x7
 3438 0537 3A110000 		.4byte	.LASF146
 3439 053b 03       		.byte	0x3
 3440 053c 07       		.uleb128 0x7
 3441 053d 55030000 		.4byte	.LASF147
 3442 0541 04       		.byte	0x4
 3443 0542 07       		.uleb128 0x7
 3444 0543 160F0000 		.4byte	.LASF148
 3445 0547 05       		.byte	0x5
 3446 0548 07       		.uleb128 0x7
 3447 0549 DD050000 		.4byte	.LASF149
 3448 054d 06       		.byte	0x6
 3449 054e 07       		.uleb128 0x7
 3450 054f A1150000 		.4byte	.LASF150
 3451 0553 07       		.byte	0x7
 3452 0554 07       		.uleb128 0x7
 3453 0555 24130000 		.4byte	.LASF151
 3454 0559 08       		.byte	0x8
 3455 055a 07       		.uleb128 0x7
 3456 055b 750D0000 		.4byte	.LASF152
 3457 055f 09       		.byte	0x9
 3458 0560 07       		.uleb128 0x7
 3459 0561 B7290000 		.4byte	.LASF153
 3460 0565 0A       		.byte	0xa
 3461 0566 07       		.uleb128 0x7
ARM GAS  e:\temp\ccdoSeHU.s 			page 88


 3462 0567 080D0000 		.4byte	.LASF154
 3463 056b 0B       		.byte	0xb
 3464 056c 07       		.uleb128 0x7
 3465 056d 1E0A0000 		.4byte	.LASF155
 3466 0571 0C       		.byte	0xc
 3467 0572 07       		.uleb128 0x7
 3468 0573 58290000 		.4byte	.LASF156
 3469 0577 0D       		.byte	0xd
 3470 0578 00       		.byte	0
 3471 0579 08       		.uleb128 0x8
 3472 057a 53000000 		.4byte	.LASF157
 3473 057e 04       		.byte	0x4
 3474 057f 2305     		.2byte	0x523
 3475 0581 17050000 		.4byte	0x517
 3476 0585 06       		.uleb128 0x6
 3477 0586 01       		.byte	0x1
 3478 0587 42000000 		.4byte	0x42
 3479 058b 04       		.byte	0x4
 3480 058c 2C05     		.2byte	0x52c
 3481 058e 89060000 		.4byte	0x689
 3482 0592 07       		.uleb128 0x7
 3483 0593 BE1B0000 		.4byte	.LASF158
 3484 0597 00       		.byte	0
 3485 0598 07       		.uleb128 0x7
 3486 0599 33250000 		.4byte	.LASF159
 3487 059d 01       		.byte	0x1
 3488 059e 07       		.uleb128 0x7
 3489 059f C0140000 		.4byte	.LASF160
 3490 05a3 02       		.byte	0x2
 3491 05a4 07       		.uleb128 0x7
 3492 05a5 70060000 		.4byte	.LASF161
 3493 05a9 03       		.byte	0x3
 3494 05aa 07       		.uleb128 0x7
 3495 05ab 84090000 		.4byte	.LASF162
 3496 05af 04       		.byte	0x4
 3497 05b0 07       		.uleb128 0x7
 3498 05b1 CC200000 		.4byte	.LASF163
 3499 05b5 05       		.byte	0x5
 3500 05b6 07       		.uleb128 0x7
 3501 05b7 A71D0000 		.4byte	.LASF164
 3502 05bb 06       		.byte	0x6
 3503 05bc 07       		.uleb128 0x7
 3504 05bd 49120000 		.4byte	.LASF165
 3505 05c1 07       		.byte	0x7
 3506 05c2 07       		.uleb128 0x7
 3507 05c3 3D0F0000 		.4byte	.LASF166
 3508 05c7 08       		.byte	0x8
 3509 05c8 07       		.uleb128 0x7
 3510 05c9 040E0000 		.4byte	.LASF167
 3511 05cd 09       		.byte	0x9
 3512 05ce 07       		.uleb128 0x7
 3513 05cf 13200000 		.4byte	.LASF168
 3514 05d3 0A       		.byte	0xa
 3515 05d4 07       		.uleb128 0x7
 3516 05d5 F1030000 		.4byte	.LASF169
 3517 05d9 0B       		.byte	0xb
 3518 05da 07       		.uleb128 0x7
ARM GAS  e:\temp\ccdoSeHU.s 			page 89


 3519 05db 142A0000 		.4byte	.LASF170
 3520 05df 0C       		.byte	0xc
 3521 05e0 07       		.uleb128 0x7
 3522 05e1 74160000 		.4byte	.LASF171
 3523 05e5 0D       		.byte	0xd
 3524 05e6 07       		.uleb128 0x7
 3525 05e7 462B0000 		.4byte	.LASF172
 3526 05eb 0E       		.byte	0xe
 3527 05ec 07       		.uleb128 0x7
 3528 05ed DB260000 		.4byte	.LASF173
 3529 05f1 0F       		.byte	0xf
 3530 05f2 07       		.uleb128 0x7
 3531 05f3 EC140000 		.4byte	.LASF174
 3532 05f7 10       		.byte	0x10
 3533 05f8 07       		.uleb128 0x7
 3534 05f9 03150000 		.4byte	.LASF175
 3535 05fd 11       		.byte	0x11
 3536 05fe 07       		.uleb128 0x7
 3537 05ff EC0F0000 		.4byte	.LASF176
 3538 0603 12       		.byte	0x12
 3539 0604 07       		.uleb128 0x7
 3540 0605 6D290000 		.4byte	.LASF177
 3541 0609 13       		.byte	0x13
 3542 060a 07       		.uleb128 0x7
 3543 060b 43050000 		.4byte	.LASF178
 3544 060f 14       		.byte	0x14
 3545 0610 07       		.uleb128 0x7
 3546 0611 25070000 		.4byte	.LASF179
 3547 0615 15       		.byte	0x15
 3548 0616 07       		.uleb128 0x7
 3549 0617 BF0B0000 		.4byte	.LASF180
 3550 061b 16       		.byte	0x16
 3551 061c 07       		.uleb128 0x7
 3552 061d B8080000 		.4byte	.LASF181
 3553 0621 17       		.byte	0x17
 3554 0622 07       		.uleb128 0x7
 3555 0623 0E1D0000 		.4byte	.LASF182
 3556 0627 18       		.byte	0x18
 3557 0628 07       		.uleb128 0x7
 3558 0629 491B0000 		.4byte	.LASF183
 3559 062d 19       		.byte	0x19
 3560 062e 07       		.uleb128 0x7
 3561 062f 6E070000 		.4byte	.LASF184
 3562 0633 1A       		.byte	0x1a
 3563 0634 07       		.uleb128 0x7
 3564 0635 17000000 		.4byte	.LASF185
 3565 0639 1B       		.byte	0x1b
 3566 063a 07       		.uleb128 0x7
 3567 063b E21F0000 		.4byte	.LASF186
 3568 063f 1C       		.byte	0x1c
 3569 0640 07       		.uleb128 0x7
 3570 0641 B3010000 		.4byte	.LASF187
 3571 0645 1D       		.byte	0x1d
 3572 0646 07       		.uleb128 0x7
 3573 0647 A1080000 		.4byte	.LASF188
 3574 064b 1E       		.byte	0x1e
 3575 064c 07       		.uleb128 0x7
ARM GAS  e:\temp\ccdoSeHU.s 			page 90


 3576 064d 35150000 		.4byte	.LASF189
 3577 0651 1F       		.byte	0x1f
 3578 0652 07       		.uleb128 0x7
 3579 0653 1B210000 		.4byte	.LASF190
 3580 0657 20       		.byte	0x20
 3581 0658 07       		.uleb128 0x7
 3582 0659 40060000 		.4byte	.LASF191
 3583 065d 21       		.byte	0x21
 3584 065e 07       		.uleb128 0x7
 3585 065f 10170000 		.4byte	.LASF192
 3586 0663 22       		.byte	0x22
 3587 0664 07       		.uleb128 0x7
 3588 0665 97210000 		.4byte	.LASF193
 3589 0669 23       		.byte	0x23
 3590 066a 07       		.uleb128 0x7
 3591 066b 76240000 		.4byte	.LASF194
 3592 066f 24       		.byte	0x24
 3593 0670 07       		.uleb128 0x7
 3594 0671 D30C0000 		.4byte	.LASF195
 3595 0675 25       		.byte	0x25
 3596 0676 07       		.uleb128 0x7
 3597 0677 71230000 		.4byte	.LASF196
 3598 067b 26       		.byte	0x26
 3599 067c 07       		.uleb128 0x7
 3600 067d 02120000 		.4byte	.LASF197
 3601 0681 27       		.byte	0x27
 3602 0682 07       		.uleb128 0x7
 3603 0683 F0010000 		.4byte	.LASF198
 3604 0687 28       		.byte	0x28
 3605 0688 00       		.byte	0
 3606 0689 08       		.uleb128 0x8
 3607 068a 9E050000 		.4byte	.LASF199
 3608 068e 04       		.byte	0x4
 3609 068f 5E05     		.2byte	0x55e
 3610 0691 85050000 		.4byte	0x585
 3611 0695 06       		.uleb128 0x6
 3612 0696 01       		.byte	0x1
 3613 0697 42000000 		.4byte	0x42
 3614 069b 04       		.byte	0x4
 3615 069c 8005     		.2byte	0x580
 3616 069e 99070000 		.4byte	0x799
 3617 06a2 07       		.uleb128 0x7
 3618 06a3 05050000 		.4byte	.LASF200
 3619 06a7 00       		.byte	0
 3620 06a8 07       		.uleb128 0x7
 3621 06a9 37210000 		.4byte	.LASF201
 3622 06ad 01       		.byte	0x1
 3623 06ae 07       		.uleb128 0x7
 3624 06af BB210000 		.4byte	.LASF202
 3625 06b3 02       		.byte	0x2
 3626 06b4 07       		.uleb128 0x7
 3627 06b5 D50E0000 		.4byte	.LASF203
 3628 06b9 03       		.byte	0x3
 3629 06ba 07       		.uleb128 0x7
 3630 06bb 0E010000 		.4byte	.LASF204
 3631 06bf 04       		.byte	0x4
 3632 06c0 07       		.uleb128 0x7
ARM GAS  e:\temp\ccdoSeHU.s 			page 91


 3633 06c1 9E060000 		.4byte	.LASF205
 3634 06c5 05       		.byte	0x5
 3635 06c6 07       		.uleb128 0x7
 3636 06c7 F71B0000 		.4byte	.LASF206
 3637 06cb 06       		.byte	0x6
 3638 06cc 07       		.uleb128 0x7
 3639 06cd C90D0000 		.4byte	.LASF207
 3640 06d1 07       		.byte	0x7
 3641 06d2 07       		.uleb128 0x7
 3642 06d3 40230000 		.4byte	.LASF208
 3643 06d7 08       		.byte	0x8
 3644 06d8 07       		.uleb128 0x7
 3645 06d9 AE140000 		.4byte	.LASF209
 3646 06dd 09       		.byte	0x9
 3647 06de 07       		.uleb128 0x7
 3648 06df 140E0000 		.4byte	.LASF210
 3649 06e3 0A       		.byte	0xa
 3650 06e4 07       		.uleb128 0x7
 3651 06e5 D8230000 		.4byte	.LASF211
 3652 06e9 0B       		.byte	0xb
 3653 06ea 07       		.uleb128 0x7
 3654 06eb E3060000 		.4byte	.LASF212
 3655 06ef 0C       		.byte	0xc
 3656 06f0 07       		.uleb128 0x7
 3657 06f1 4F2C0000 		.4byte	.LASF213
 3658 06f5 0D       		.byte	0xd
 3659 06f6 07       		.uleb128 0x7
 3660 06f7 75220000 		.4byte	.LASF214
 3661 06fb 0E       		.byte	0xe
 3662 06fc 07       		.uleb128 0x7
 3663 06fd EF090000 		.4byte	.LASF215
 3664 0701 0F       		.byte	0xf
 3665 0702 07       		.uleb128 0x7
 3666 0703 45010000 		.4byte	.LASF216
 3667 0707 10       		.byte	0x10
 3668 0708 07       		.uleb128 0x7
 3669 0709 8E140000 		.4byte	.LASF217
 3670 070d 11       		.byte	0x11
 3671 070e 07       		.uleb128 0x7
 3672 070f 4E190000 		.4byte	.LASF218
 3673 0713 12       		.byte	0x12
 3674 0714 07       		.uleb128 0x7
 3675 0715 2F170000 		.4byte	.LASF219
 3676 0719 13       		.byte	0x13
 3677 071a 07       		.uleb128 0x7
 3678 071b 7E230000 		.4byte	.LASF220
 3679 071f 14       		.byte	0x14
 3680 0720 07       		.uleb128 0x7
 3681 0721 881C0000 		.4byte	.LASF221
 3682 0725 15       		.byte	0x15
 3683 0726 07       		.uleb128 0x7
 3684 0727 84120000 		.4byte	.LASF222
 3685 072b 16       		.byte	0x16
 3686 072c 07       		.uleb128 0x7
 3687 072d B61F0000 		.4byte	.LASF223
 3688 0731 17       		.byte	0x17
 3689 0732 07       		.uleb128 0x7
ARM GAS  e:\temp\ccdoSeHU.s 			page 92


 3690 0733 3D130000 		.4byte	.LASF224
 3691 0737 18       		.byte	0x18
 3692 0738 07       		.uleb128 0x7
 3693 0739 7A0F0000 		.4byte	.LASF225
 3694 073d 19       		.byte	0x19
 3695 073e 07       		.uleb128 0x7
 3696 073f 54070000 		.4byte	.LASF226
 3697 0743 1A       		.byte	0x1a
 3698 0744 07       		.uleb128 0x7
 3699 0745 2B270000 		.4byte	.LASF227
 3700 0749 1B       		.byte	0x1b
 3701 074a 07       		.uleb128 0x7
 3702 074b 72200000 		.4byte	.LASF228
 3703 074f 1C       		.byte	0x1c
 3704 0750 07       		.uleb128 0x7
 3705 0751 970A0000 		.4byte	.LASF229
 3706 0755 1D       		.byte	0x1d
 3707 0756 07       		.uleb128 0x7
 3708 0757 40080000 		.4byte	.LASF230
 3709 075b 1E       		.byte	0x1e
 3710 075c 07       		.uleb128 0x7
 3711 075d EB080000 		.4byte	.LASF231
 3712 0761 1F       		.byte	0x1f
 3713 0762 07       		.uleb128 0x7
 3714 0763 9F130000 		.4byte	.LASF232
 3715 0767 20       		.byte	0x20
 3716 0768 07       		.uleb128 0x7
 3717 0769 8B2A0000 		.4byte	.LASF233
 3718 076d 21       		.byte	0x21
 3719 076e 07       		.uleb128 0x7
 3720 076f 72190000 		.4byte	.LASF234
 3721 0773 22       		.byte	0x22
 3722 0774 07       		.uleb128 0x7
 3723 0775 8E0B0000 		.4byte	.LASF235
 3724 0779 23       		.byte	0x23
 3725 077a 07       		.uleb128 0x7
 3726 077b 59040000 		.4byte	.LASF236
 3727 077f 24       		.byte	0x24
 3728 0780 07       		.uleb128 0x7
 3729 0781 37200000 		.4byte	.LASF237
 3730 0785 25       		.byte	0x25
 3731 0786 07       		.uleb128 0x7
 3732 0787 AD280000 		.4byte	.LASF238
 3733 078b 26       		.byte	0x26
 3734 078c 07       		.uleb128 0x7
 3735 078d 94000000 		.4byte	.LASF239
 3736 0791 27       		.byte	0x27
 3737 0792 07       		.uleb128 0x7
 3738 0793 281D0000 		.4byte	.LASF240
 3739 0797 28       		.byte	0x28
 3740 0798 00       		.byte	0
 3741 0799 08       		.uleb128 0x8
 3742 079a 81000000 		.4byte	.LASF241
 3743 079e 04       		.byte	0x4
 3744 079f AB05     		.2byte	0x5ab
 3745 07a1 95060000 		.4byte	0x695
 3746 07a5 06       		.uleb128 0x6
ARM GAS  e:\temp\ccdoSeHU.s 			page 93


 3747 07a6 01       		.byte	0x1
 3748 07a7 42000000 		.4byte	0x42
 3749 07ab 04       		.byte	0x4
 3750 07ac AE05     		.2byte	0x5ae
 3751 07ae C5070000 		.4byte	0x7c5
 3752 07b2 07       		.uleb128 0x7
 3753 07b3 99030000 		.4byte	.LASF242
 3754 07b7 00       		.byte	0
 3755 07b8 07       		.uleb128 0x7
 3756 07b9 27090000 		.4byte	.LASF243
 3757 07bd 01       		.byte	0x1
 3758 07be 07       		.uleb128 0x7
 3759 07bf 371E0000 		.4byte	.LASF244
 3760 07c3 02       		.byte	0x2
 3761 07c4 00       		.byte	0
 3762 07c5 08       		.uleb128 0x8
 3763 07c6 02030000 		.4byte	.LASF245
 3764 07ca 04       		.byte	0x4
 3765 07cb B205     		.2byte	0x5b2
 3766 07cd A5070000 		.4byte	0x7a5
 3767 07d1 06       		.uleb128 0x6
 3768 07d2 01       		.byte	0x1
 3769 07d3 42000000 		.4byte	0x42
 3770 07d7 04       		.byte	0x4
 3771 07d8 B905     		.2byte	0x5b9
 3772 07da F7070000 		.4byte	0x7f7
 3773 07de 07       		.uleb128 0x7
 3774 07df 9A280000 		.4byte	.LASF246
 3775 07e3 00       		.byte	0
 3776 07e4 07       		.uleb128 0x7
 3777 07e5 68040000 		.4byte	.LASF247
 3778 07e9 01       		.byte	0x1
 3779 07ea 07       		.uleb128 0x7
 3780 07eb CC100000 		.4byte	.LASF248
 3781 07ef 02       		.byte	0x2
 3782 07f0 07       		.uleb128 0x7
 3783 07f1 581B0000 		.4byte	.LASF249
 3784 07f5 03       		.byte	0x3
 3785 07f6 00       		.byte	0
 3786 07f7 08       		.uleb128 0x8
 3787 07f8 1A1B0000 		.4byte	.LASF250
 3788 07fc 04       		.byte	0x4
 3789 07fd BE05     		.2byte	0x5be
 3790 07ff D1070000 		.4byte	0x7d1
 3791 0803 0A       		.uleb128 0xa
 3792 0804 79130000 		.4byte	.LASF768
 3793 0808 02       		.byte	0x2
 3794 0809 04       		.byte	0x4
 3795 080a C705     		.2byte	0x5c7
 3796 080c 28080000 		.4byte	0x828
 3797 0810 0B       		.uleb128 0xb
 3798 0811 BA1A0000 		.4byte	.LASF251
 3799 0815 04       		.byte	0x4
 3800 0816 C905     		.2byte	0x5c9
 3801 0818 AD000000 		.4byte	0xad
 3802 081c 0C       		.uleb128 0xc
 3803 081d 636300   		.ascii	"cc\000"
ARM GAS  e:\temp\ccdoSeHU.s 			page 94


 3804 0820 04       		.byte	0x4
 3805 0821 CA05     		.2byte	0x5ca
 3806 0823 28080000 		.4byte	0x828
 3807 0827 00       		.byte	0
 3808 0828 0D       		.uleb128 0xd
 3809 0829 A2000000 		.4byte	0xa2
 3810 082d 38080000 		.4byte	0x838
 3811 0831 0E       		.uleb128 0xe
 3812 0832 DF000000 		.4byte	0xdf
 3813 0836 01       		.byte	0x1
 3814 0837 00       		.byte	0
 3815 0838 08       		.uleb128 0x8
 3816 0839 19130000 		.4byte	.LASF252
 3817 083d 04       		.byte	0x4
 3818 083e CB05     		.2byte	0x5cb
 3819 0840 03080000 		.4byte	0x803
 3820 0844 0F       		.uleb128 0xf
 3821 0845 02090000 		.4byte	.LASF266
 3822 0849 04       		.byte	0x4
 3823 084a 04       		.byte	0x4
 3824 084b D405     		.2byte	0x5d4
 3825 084d 12090000 		.4byte	0x912
 3826 0851 10       		.uleb128 0x10
 3827 0852 7C0E0000 		.4byte	.LASF253
 3828 0856 04       		.byte	0x4
 3829 0857 D605     		.2byte	0x5d6
 3830 0859 B8000000 		.4byte	0xb8
 3831 085d 04       		.byte	0x4
 3832 085e 05       		.byte	0x5
 3833 085f 1B       		.byte	0x1b
 3834 0860 00       		.byte	0
 3835 0861 10       		.uleb128 0x10
 3836 0862 BA2B0000 		.4byte	.LASF254
 3837 0866 04       		.byte	0x4
 3838 0867 D705     		.2byte	0x5d7
 3839 0869 B8000000 		.4byte	0xb8
 3840 086d 04       		.byte	0x4
 3841 086e 01       		.byte	0x1
 3842 086f 1A       		.byte	0x1a
 3843 0870 00       		.byte	0
 3844 0871 10       		.uleb128 0x10
 3845 0872 32040000 		.4byte	.LASF255
 3846 0876 04       		.byte	0x4
 3847 0877 D805     		.2byte	0x5d8
 3848 0879 B8000000 		.4byte	0xb8
 3849 087d 04       		.byte	0x4
 3850 087e 02       		.byte	0x2
 3851 087f 18       		.byte	0x18
 3852 0880 00       		.byte	0
 3853 0881 10       		.uleb128 0x10
 3854 0882 68230000 		.4byte	.LASF256
 3855 0886 04       		.byte	0x4
 3856 0887 D905     		.2byte	0x5d9
 3857 0889 B8000000 		.4byte	0xb8
 3858 088d 04       		.byte	0x4
 3859 088e 01       		.byte	0x1
 3860 088f 17       		.byte	0x17
ARM GAS  e:\temp\ccdoSeHU.s 			page 95


 3861 0890 00       		.byte	0
 3862 0891 10       		.uleb128 0x10
 3863 0892 F4040000 		.4byte	.LASF257
 3864 0896 04       		.byte	0x4
 3865 0897 DA05     		.2byte	0x5da
 3866 0899 B8000000 		.4byte	0xb8
 3867 089d 04       		.byte	0x4
 3868 089e 03       		.byte	0x3
 3869 089f 14       		.byte	0x14
 3870 08a0 00       		.byte	0
 3871 08a1 11       		.uleb128 0x11
 3872 08a2 6C656E00 		.ascii	"len\000"
 3873 08a6 04       		.byte	0x4
 3874 08a7 DB05     		.2byte	0x5db
 3875 08a9 B8000000 		.4byte	0xb8
 3876 08ad 04       		.byte	0x4
 3877 08ae 03       		.byte	0x3
 3878 08af 11       		.byte	0x11
 3879 08b0 00       		.byte	0
 3880 08b1 10       		.uleb128 0x10
 3881 08b2 E4160000 		.4byte	.LASF258
 3882 08b6 04       		.byte	0x4
 3883 08b7 DC05     		.2byte	0x5dc
 3884 08b9 B8000000 		.4byte	0xb8
 3885 08bd 04       		.byte	0x4
 3886 08be 01       		.byte	0x1
 3887 08bf 10       		.byte	0x10
 3888 08c0 00       		.byte	0
 3889 08c1 10       		.uleb128 0x10
 3890 08c2 FB040000 		.4byte	.LASF259
 3891 08c6 04       		.byte	0x4
 3892 08c7 DD05     		.2byte	0x5dd
 3893 08c9 B8000000 		.4byte	0xb8
 3894 08cd 04       		.byte	0x4
 3895 08ce 09       		.byte	0x9
 3896 08cf 07       		.byte	0x7
 3897 08d0 00       		.byte	0
 3898 08d1 10       		.uleb128 0x10
 3899 08d2 DA180000 		.4byte	.LASF260
 3900 08d6 04       		.byte	0x4
 3901 08d7 DE05     		.2byte	0x5de
 3902 08d9 B8000000 		.4byte	0xb8
 3903 08dd 04       		.byte	0x4
 3904 08de 01       		.byte	0x1
 3905 08df 06       		.byte	0x6
 3906 08e0 00       		.byte	0
 3907 08e1 10       		.uleb128 0x10
 3908 08e2 C3130000 		.4byte	.LASF261
 3909 08e6 04       		.byte	0x4
 3910 08e7 DF05     		.2byte	0x5df
 3911 08e9 B8000000 		.4byte	0xb8
 3912 08ed 04       		.byte	0x4
 3913 08ee 01       		.byte	0x1
 3914 08ef 05       		.byte	0x5
 3915 08f0 00       		.byte	0
 3916 08f1 10       		.uleb128 0x10
 3917 08f2 491D0000 		.4byte	.LASF262
ARM GAS  e:\temp\ccdoSeHU.s 			page 96


 3918 08f6 04       		.byte	0x4
 3919 08f7 E005     		.2byte	0x5e0
 3920 08f9 B8000000 		.4byte	0xb8
 3921 08fd 04       		.byte	0x4
 3922 08fe 04       		.byte	0x4
 3923 08ff 01       		.byte	0x1
 3924 0900 00       		.byte	0
 3925 0901 10       		.uleb128 0x10
 3926 0902 21140000 		.4byte	.LASF263
 3927 0906 04       		.byte	0x4
 3928 0907 E105     		.2byte	0x5e1
 3929 0909 B8000000 		.4byte	0xb8
 3930 090d 04       		.byte	0x4
 3931 090e 01       		.byte	0x1
 3932 090f 00       		.byte	0
 3933 0910 00       		.byte	0
 3934 0911 00       		.byte	0
 3935 0912 12       		.uleb128 0x12
 3936 0913 04       		.byte	0x4
 3937 0914 04       		.byte	0x4
 3938 0915 D105     		.2byte	0x5d1
 3939 0917 34090000 		.4byte	0x934
 3940 091b 0C       		.uleb128 0xc
 3941 091c 76616C00 		.ascii	"val\000"
 3942 0920 04       		.byte	0x4
 3943 0921 D305     		.2byte	0x5d3
 3944 0923 B8000000 		.4byte	0xb8
 3945 0927 0C       		.uleb128 0xc
 3946 0928 68647200 		.ascii	"hdr\000"
 3947 092c 04       		.byte	0x4
 3948 092d E205     		.2byte	0x5e2
 3949 092f 44080000 		.4byte	0x844
 3950 0933 00       		.byte	0
 3951 0934 08       		.uleb128 0x8
 3952 0935 77050000 		.4byte	.LASF264
 3953 0939 04       		.byte	0x4
 3954 093a E305     		.2byte	0x5e3
 3955 093c 12090000 		.4byte	0x912
 3956 0940 13       		.uleb128 0x13
 3957 0941 02       		.byte	0x2
 3958 0942 04       		.byte	0x4
 3959 0943 EB05     		.2byte	0x5eb
 3960 0945 9A090000 		.4byte	0x99a
 3961 0949 10       		.uleb128 0x10
 3962 094a FB040000 		.4byte	.LASF259
 3963 094e 04       		.byte	0x4
 3964 094f ED05     		.2byte	0x5ed
 3965 0951 AD000000 		.4byte	0xad
 3966 0955 02       		.byte	0x2
 3967 0956 09       		.byte	0x9
 3968 0957 07       		.byte	0x7
 3969 0958 00       		.byte	0
 3970 0959 10       		.uleb128 0x10
 3971 095a DA180000 		.4byte	.LASF260
 3972 095e 04       		.byte	0x4
 3973 095f EE05     		.2byte	0x5ee
 3974 0961 AD000000 		.4byte	0xad
ARM GAS  e:\temp\ccdoSeHU.s 			page 97


 3975 0965 02       		.byte	0x2
 3976 0966 01       		.byte	0x1
 3977 0967 06       		.byte	0x6
 3978 0968 00       		.byte	0
 3979 0969 10       		.uleb128 0x10
 3980 096a C3130000 		.4byte	.LASF261
 3981 096e 04       		.byte	0x4
 3982 096f EF05     		.2byte	0x5ef
 3983 0971 AD000000 		.4byte	0xad
 3984 0975 02       		.byte	0x2
 3985 0976 01       		.byte	0x1
 3986 0977 05       		.byte	0x5
 3987 0978 00       		.byte	0
 3988 0979 10       		.uleb128 0x10
 3989 097a 491D0000 		.4byte	.LASF262
 3990 097e 04       		.byte	0x4
 3991 097f F005     		.2byte	0x5f0
 3992 0981 AD000000 		.4byte	0xad
 3993 0985 02       		.byte	0x2
 3994 0986 04       		.byte	0x4
 3995 0987 01       		.byte	0x1
 3996 0988 00       		.byte	0
 3997 0989 10       		.uleb128 0x10
 3998 098a 21140000 		.4byte	.LASF263
 3999 098e 04       		.byte	0x4
 4000 098f F105     		.2byte	0x5f1
 4001 0991 AD000000 		.4byte	0xad
 4002 0995 02       		.byte	0x2
 4003 0996 01       		.byte	0x1
 4004 0997 00       		.byte	0
 4005 0998 00       		.byte	0
 4006 0999 00       		.byte	0
 4007 099a 12       		.uleb128 0x12
 4008 099b 02       		.byte	0x2
 4009 099c 04       		.byte	0x4
 4010 099d E805     		.2byte	0x5e8
 4011 099f BC090000 		.4byte	0x9bc
 4012 09a3 0C       		.uleb128 0xc
 4013 09a4 76616C00 		.ascii	"val\000"
 4014 09a8 04       		.byte	0x4
 4015 09a9 EA05     		.2byte	0x5ea
 4016 09ab AD000000 		.4byte	0xad
 4017 09af 0B       		.uleb128 0xb
 4018 09b0 E4160000 		.4byte	.LASF258
 4019 09b4 04       		.byte	0x4
 4020 09b5 F205     		.2byte	0x5f2
 4021 09b7 40090000 		.4byte	0x940
 4022 09bb 00       		.byte	0
 4023 09bc 08       		.uleb128 0x8
 4024 09bd EB110000 		.4byte	.LASF265
 4025 09c1 04       		.byte	0x4
 4026 09c2 F305     		.2byte	0x5f3
 4027 09c4 9A090000 		.4byte	0x99a
 4028 09c8 0F       		.uleb128 0xf
 4029 09c9 691F0000 		.4byte	.LASF267
 4030 09cd 04       		.byte	0x4
 4031 09ce 04       		.byte	0x4
ARM GAS  e:\temp\ccdoSeHU.s 			page 98


 4032 09cf 0006     		.2byte	0x600
 4033 09d1 060A0000 		.4byte	0xa06
 4034 09d5 10       		.uleb128 0x10
 4035 09d6 DA180000 		.4byte	.LASF260
 4036 09da 04       		.byte	0x4
 4037 09db 0206     		.2byte	0x602
 4038 09dd B8000000 		.4byte	0xb8
 4039 09e1 04       		.byte	0x4
 4040 09e2 10       		.byte	0x10
 4041 09e3 10       		.byte	0x10
 4042 09e4 00       		.byte	0
 4043 09e5 10       		.uleb128 0x10
 4044 09e6 E0180000 		.4byte	.LASF268
 4045 09ea 04       		.byte	0x4
 4046 09eb 0306     		.2byte	0x603
 4047 09ed B8000000 		.4byte	0xb8
 4048 09f1 04       		.byte	0x4
 4049 09f2 0C       		.byte	0xc
 4050 09f3 04       		.byte	0x4
 4051 09f4 00       		.byte	0
 4052 09f5 10       		.uleb128 0x10
 4053 09f6 DC0A0000 		.4byte	.LASF269
 4054 09fa 04       		.byte	0x4
 4055 09fb 0406     		.2byte	0x604
 4056 09fd B8000000 		.4byte	0xb8
 4057 0a01 04       		.byte	0x4
 4058 0a02 04       		.byte	0x4
 4059 0a03 00       		.byte	0
 4060 0a04 00       		.byte	0
 4061 0a05 00       		.byte	0
 4062 0a06 0F       		.uleb128 0xf
 4063 0a07 5D280000 		.4byte	.LASF270
 4064 0a0b 04       		.byte	0x4
 4065 0a0c 04       		.byte	0x4
 4066 0a0d 0706     		.2byte	0x607
 4067 0a0f C40A0000 		.4byte	0xac4
 4068 0a13 10       		.uleb128 0x10
 4069 0a14 E01C0000 		.4byte	.LASF271
 4070 0a18 04       		.byte	0x4
 4071 0a19 0906     		.2byte	0x609
 4072 0a1b B8000000 		.4byte	0xb8
 4073 0a1f 04       		.byte	0x4
 4074 0a20 0A       		.byte	0xa
 4075 0a21 16       		.byte	0x16
 4076 0a22 00       		.byte	0
 4077 0a23 10       		.uleb128 0x10
 4078 0a24 C2260000 		.4byte	.LASF272
 4079 0a28 04       		.byte	0x4
 4080 0a29 0A06     		.2byte	0x60a
 4081 0a2b B8000000 		.4byte	0xb8
 4082 0a2f 04       		.byte	0x4
 4083 0a30 0A       		.byte	0xa
 4084 0a31 0C       		.byte	0xc
 4085 0a32 00       		.byte	0
 4086 0a33 10       		.uleb128 0x10
 4087 0a34 77030000 		.4byte	.LASF273
 4088 0a38 04       		.byte	0x4
ARM GAS  e:\temp\ccdoSeHU.s 			page 99


 4089 0a39 0B06     		.2byte	0x60b
 4090 0a3b B8000000 		.4byte	0xb8
 4091 0a3f 04       		.byte	0x4
 4092 0a40 02       		.byte	0x2
 4093 0a41 0A       		.byte	0xa
 4094 0a42 00       		.byte	0
 4095 0a43 10       		.uleb128 0x10
 4096 0a44 8B000000 		.4byte	.LASF274
 4097 0a48 04       		.byte	0x4
 4098 0a49 0C06     		.2byte	0x60c
 4099 0a4b B8000000 		.4byte	0xb8
 4100 0a4f 04       		.byte	0x4
 4101 0a50 02       		.byte	0x2
 4102 0a51 08       		.byte	0x8
 4103 0a52 00       		.byte	0
 4104 0a53 10       		.uleb128 0x10
 4105 0a54 92060000 		.4byte	.LASF275
 4106 0a58 04       		.byte	0x4
 4107 0a59 0D06     		.2byte	0x60d
 4108 0a5b B8000000 		.4byte	0xb8
 4109 0a5f 04       		.byte	0x4
 4110 0a60 01       		.byte	0x1
 4111 0a61 07       		.byte	0x7
 4112 0a62 00       		.byte	0
 4113 0a63 10       		.uleb128 0x10
 4114 0a64 19140000 		.4byte	.LASF276
 4115 0a68 04       		.byte	0x4
 4116 0a69 0E06     		.2byte	0x60e
 4117 0a6b B8000000 		.4byte	0xb8
 4118 0a6f 04       		.byte	0x4
 4119 0a70 01       		.byte	0x1
 4120 0a71 06       		.byte	0x6
 4121 0a72 00       		.byte	0
 4122 0a73 10       		.uleb128 0x10
 4123 0a74 91050000 		.4byte	.LASF277
 4124 0a78 04       		.byte	0x4
 4125 0a79 0F06     		.2byte	0x60f
 4126 0a7b B8000000 		.4byte	0xb8
 4127 0a7f 04       		.byte	0x4
 4128 0a80 01       		.byte	0x1
 4129 0a81 05       		.byte	0x5
 4130 0a82 00       		.byte	0
 4131 0a83 10       		.uleb128 0x10
 4132 0a84 88250000 		.4byte	.LASF278
 4133 0a88 04       		.byte	0x4
 4134 0a89 1006     		.2byte	0x610
 4135 0a8b B8000000 		.4byte	0xb8
 4136 0a8f 04       		.byte	0x4
 4137 0a90 01       		.byte	0x1
 4138 0a91 04       		.byte	0x4
 4139 0a92 00       		.byte	0
 4140 0a93 10       		.uleb128 0x10
 4141 0a94 65140000 		.4byte	.LASF279
 4142 0a98 04       		.byte	0x4
 4143 0a99 1106     		.2byte	0x611
 4144 0a9b B8000000 		.4byte	0xb8
 4145 0a9f 04       		.byte	0x4
ARM GAS  e:\temp\ccdoSeHU.s 			page 100


 4146 0aa0 01       		.byte	0x1
 4147 0aa1 03       		.byte	0x3
 4148 0aa2 00       		.byte	0
 4149 0aa3 10       		.uleb128 0x10
 4150 0aa4 97020000 		.4byte	.LASF280
 4151 0aa8 04       		.byte	0x4
 4152 0aa9 1206     		.2byte	0x612
 4153 0aab B8000000 		.4byte	0xb8
 4154 0aaf 04       		.byte	0x4
 4155 0ab0 01       		.byte	0x1
 4156 0ab1 02       		.byte	0x2
 4157 0ab2 00       		.byte	0
 4158 0ab3 10       		.uleb128 0x10
 4159 0ab4 6A240000 		.4byte	.LASF281
 4160 0ab8 04       		.byte	0x4
 4161 0ab9 1306     		.2byte	0x613
 4162 0abb B8000000 		.4byte	0xb8
 4163 0abf 04       		.byte	0x4
 4164 0ac0 02       		.byte	0x2
 4165 0ac1 00       		.byte	0
 4166 0ac2 00       		.byte	0
 4167 0ac3 00       		.byte	0
 4168 0ac4 0F       		.uleb128 0xf
 4169 0ac5 611F0000 		.4byte	.LASF282
 4170 0ac9 04       		.byte	0x4
 4171 0aca 04       		.byte	0x4
 4172 0acb 1606     		.2byte	0x616
 4173 0acd 120B0000 		.4byte	0xb12
 4174 0ad1 10       		.uleb128 0x10
 4175 0ad2 E01C0000 		.4byte	.LASF271
 4176 0ad6 04       		.byte	0x4
 4177 0ad7 1806     		.2byte	0x618
 4178 0ad9 B8000000 		.4byte	0xb8
 4179 0add 04       		.byte	0x4
 4180 0ade 0A       		.byte	0xa
 4181 0adf 16       		.byte	0x16
 4182 0ae0 00       		.byte	0
 4183 0ae1 10       		.uleb128 0x10
 4184 0ae2 A8260000 		.4byte	.LASF283
 4185 0ae6 04       		.byte	0x4
 4186 0ae7 1906     		.2byte	0x619
 4187 0ae9 B8000000 		.4byte	0xb8
 4188 0aed 04       		.byte	0x4
 4189 0aee 0A       		.byte	0xa
 4190 0aef 0C       		.byte	0xc
 4191 0af0 00       		.byte	0
 4192 0af1 10       		.uleb128 0x10
 4193 0af2 2A280000 		.4byte	.LASF284
 4194 0af6 04       		.byte	0x4
 4195 0af7 1A06     		.2byte	0x61a
 4196 0af9 B8000000 		.4byte	0xb8
 4197 0afd 04       		.byte	0x4
 4198 0afe 0A       		.byte	0xa
 4199 0aff 02       		.byte	0x2
 4200 0b00 00       		.byte	0
 4201 0b01 10       		.uleb128 0x10
 4202 0b02 6A240000 		.4byte	.LASF281
ARM GAS  e:\temp\ccdoSeHU.s 			page 101


 4203 0b06 04       		.byte	0x4
 4204 0b07 1B06     		.2byte	0x61b
 4205 0b09 B8000000 		.4byte	0xb8
 4206 0b0d 04       		.byte	0x4
 4207 0b0e 02       		.byte	0x2
 4208 0b0f 00       		.byte	0
 4209 0b10 00       		.byte	0
 4210 0b11 00       		.byte	0
 4211 0b12 0F       		.uleb128 0xf
 4212 0b13 37090000 		.4byte	.LASF285
 4213 0b17 04       		.byte	0x4
 4214 0b18 04       		.byte	0x4
 4215 0b19 1E06     		.2byte	0x61e
 4216 0b1b 600B0000 		.4byte	0xb60
 4217 0b1f 10       		.uleb128 0x10
 4218 0b20 1A2C0000 		.4byte	.LASF286
 4219 0b24 04       		.byte	0x4
 4220 0b25 2006     		.2byte	0x620
 4221 0b27 B8000000 		.4byte	0xb8
 4222 0b2b 04       		.byte	0x4
 4223 0b2c 0A       		.byte	0xa
 4224 0b2d 16       		.byte	0x16
 4225 0b2e 00       		.byte	0
 4226 0b2f 10       		.uleb128 0x10
 4227 0b30 A8260000 		.4byte	.LASF283
 4228 0b34 04       		.byte	0x4
 4229 0b35 2106     		.2byte	0x621
 4230 0b37 B8000000 		.4byte	0xb8
 4231 0b3b 04       		.byte	0x4
 4232 0b3c 0A       		.byte	0xa
 4233 0b3d 0C       		.byte	0xc
 4234 0b3e 00       		.byte	0
 4235 0b3f 10       		.uleb128 0x10
 4236 0b40 2A280000 		.4byte	.LASF284
 4237 0b44 04       		.byte	0x4
 4238 0b45 2206     		.2byte	0x622
 4239 0b47 B8000000 		.4byte	0xb8
 4240 0b4b 04       		.byte	0x4
 4241 0b4c 0A       		.byte	0xa
 4242 0b4d 02       		.byte	0x2
 4243 0b4e 00       		.byte	0
 4244 0b4f 10       		.uleb128 0x10
 4245 0b50 6A240000 		.4byte	.LASF281
 4246 0b54 04       		.byte	0x4
 4247 0b55 2306     		.2byte	0x623
 4248 0b57 B8000000 		.4byte	0xb8
 4249 0b5b 04       		.byte	0x4
 4250 0b5c 02       		.byte	0x2
 4251 0b5d 00       		.byte	0
 4252 0b5e 00       		.byte	0
 4253 0b5f 00       		.byte	0
 4254 0b60 0F       		.uleb128 0xf
 4255 0b61 D6280000 		.4byte	.LASF287
 4256 0b65 04       		.byte	0x4
 4257 0b66 04       		.byte	0x4
 4258 0b67 2606     		.2byte	0x626
 4259 0b69 AE0B0000 		.4byte	0xbae
ARM GAS  e:\temp\ccdoSeHU.s 			page 102


 4260 0b6d 10       		.uleb128 0x10
 4261 0b6e 09290000 		.4byte	.LASF288
 4262 0b72 04       		.byte	0x4
 4263 0b73 2806     		.2byte	0x628
 4264 0b75 B8000000 		.4byte	0xb8
 4265 0b79 04       		.byte	0x4
 4266 0b7a 0A       		.byte	0xa
 4267 0b7b 16       		.byte	0x16
 4268 0b7c 00       		.byte	0
 4269 0b7d 10       		.uleb128 0x10
 4270 0b7e A8260000 		.4byte	.LASF283
 4271 0b82 04       		.byte	0x4
 4272 0b83 2906     		.2byte	0x629
 4273 0b85 B8000000 		.4byte	0xb8
 4274 0b89 04       		.byte	0x4
 4275 0b8a 0A       		.byte	0xa
 4276 0b8b 0C       		.byte	0xc
 4277 0b8c 00       		.byte	0
 4278 0b8d 10       		.uleb128 0x10
 4279 0b8e 2A280000 		.4byte	.LASF284
 4280 0b92 04       		.byte	0x4
 4281 0b93 2A06     		.2byte	0x62a
 4282 0b95 B8000000 		.4byte	0xb8
 4283 0b99 04       		.byte	0x4
 4284 0b9a 0A       		.byte	0xa
 4285 0b9b 02       		.byte	0x2
 4286 0b9c 00       		.byte	0
 4287 0b9d 10       		.uleb128 0x10
 4288 0b9e 6A240000 		.4byte	.LASF281
 4289 0ba2 04       		.byte	0x4
 4290 0ba3 2B06     		.2byte	0x62b
 4291 0ba5 B8000000 		.4byte	0xb8
 4292 0ba9 04       		.byte	0x4
 4293 0baa 02       		.byte	0x2
 4294 0bab 00       		.byte	0
 4295 0bac 00       		.byte	0
 4296 0bad 00       		.byte	0
 4297 0bae 0F       		.uleb128 0xf
 4298 0baf 08250000 		.4byte	.LASF289
 4299 0bb3 04       		.byte	0x4
 4300 0bb4 04       		.byte	0x4
 4301 0bb5 2E06     		.2byte	0x62e
 4302 0bb7 5C0C0000 		.4byte	0xc5c
 4303 0bbb 10       		.uleb128 0x10
 4304 0bbc 71270000 		.4byte	.LASF290
 4305 0bc0 04       		.byte	0x4
 4306 0bc1 3006     		.2byte	0x630
 4307 0bc3 B8000000 		.4byte	0xb8
 4308 0bc7 04       		.byte	0x4
 4309 0bc8 0A       		.byte	0xa
 4310 0bc9 16       		.byte	0x16
 4311 0bca 00       		.byte	0
 4312 0bcb 10       		.uleb128 0x10
 4313 0bcc C2260000 		.4byte	.LASF272
 4314 0bd0 04       		.byte	0x4
 4315 0bd1 3106     		.2byte	0x631
 4316 0bd3 B8000000 		.4byte	0xb8
ARM GAS  e:\temp\ccdoSeHU.s 			page 103


 4317 0bd7 04       		.byte	0x4
 4318 0bd8 0A       		.byte	0xa
 4319 0bd9 0C       		.byte	0xc
 4320 0bda 00       		.byte	0
 4321 0bdb 10       		.uleb128 0x10
 4322 0bdc 68150000 		.4byte	.LASF291
 4323 0be0 04       		.byte	0x4
 4324 0be1 3206     		.2byte	0x632
 4325 0be3 B8000000 		.4byte	0xb8
 4326 0be7 04       		.byte	0x4
 4327 0be8 03       		.byte	0x3
 4328 0be9 09       		.byte	0x9
 4329 0bea 00       		.byte	0
 4330 0beb 10       		.uleb128 0x10
 4331 0bec EB240000 		.4byte	.LASF292
 4332 0bf0 04       		.byte	0x4
 4333 0bf1 3306     		.2byte	0x633
 4334 0bf3 B8000000 		.4byte	0xb8
 4335 0bf7 04       		.byte	0x4
 4336 0bf8 02       		.byte	0x2
 4337 0bf9 07       		.byte	0x7
 4338 0bfa 00       		.byte	0
 4339 0bfb 10       		.uleb128 0x10
 4340 0bfc 19140000 		.4byte	.LASF276
 4341 0c00 04       		.byte	0x4
 4342 0c01 3406     		.2byte	0x634
 4343 0c03 B8000000 		.4byte	0xb8
 4344 0c07 04       		.byte	0x4
 4345 0c08 01       		.byte	0x1
 4346 0c09 06       		.byte	0x6
 4347 0c0a 00       		.byte	0
 4348 0c0b 10       		.uleb128 0x10
 4349 0c0c 91050000 		.4byte	.LASF277
 4350 0c10 04       		.byte	0x4
 4351 0c11 3506     		.2byte	0x635
 4352 0c13 B8000000 		.4byte	0xb8
 4353 0c17 04       		.byte	0x4
 4354 0c18 01       		.byte	0x1
 4355 0c19 05       		.byte	0x5
 4356 0c1a 00       		.byte	0
 4357 0c1b 10       		.uleb128 0x10
 4358 0c1c 88250000 		.4byte	.LASF278
 4359 0c20 04       		.byte	0x4
 4360 0c21 3606     		.2byte	0x636
 4361 0c23 B8000000 		.4byte	0xb8
 4362 0c27 04       		.byte	0x4
 4363 0c28 01       		.byte	0x1
 4364 0c29 04       		.byte	0x4
 4365 0c2a 00       		.byte	0
 4366 0c2b 10       		.uleb128 0x10
 4367 0c2c 37290000 		.4byte	.LASF293
 4368 0c30 04       		.byte	0x4
 4369 0c31 3706     		.2byte	0x637
 4370 0c33 B8000000 		.4byte	0xb8
 4371 0c37 04       		.byte	0x4
 4372 0c38 01       		.byte	0x1
 4373 0c39 03       		.byte	0x3
ARM GAS  e:\temp\ccdoSeHU.s 			page 104


 4374 0c3a 00       		.byte	0
 4375 0c3b 10       		.uleb128 0x10
 4376 0c3c 97020000 		.4byte	.LASF280
 4377 0c40 04       		.byte	0x4
 4378 0c41 3806     		.2byte	0x638
 4379 0c43 B8000000 		.4byte	0xb8
 4380 0c47 04       		.byte	0x4
 4381 0c48 01       		.byte	0x1
 4382 0c49 02       		.byte	0x2
 4383 0c4a 00       		.byte	0
 4384 0c4b 10       		.uleb128 0x10
 4385 0c4c 6A240000 		.4byte	.LASF281
 4386 0c50 04       		.byte	0x4
 4387 0c51 3906     		.2byte	0x639
 4388 0c53 B8000000 		.4byte	0xb8
 4389 0c57 04       		.byte	0x4
 4390 0c58 02       		.byte	0x2
 4391 0c59 00       		.byte	0
 4392 0c5a 00       		.byte	0
 4393 0c5b 00       		.byte	0
 4394 0c5c 0F       		.uleb128 0xf
 4395 0c5d B31C0000 		.4byte	.LASF294
 4396 0c61 04       		.byte	0x4
 4397 0c62 04       		.byte	0x4
 4398 0c63 3C06     		.2byte	0x63c
 4399 0c65 AA0C0000 		.4byte	0xcaa
 4400 0c69 10       		.uleb128 0x10
 4401 0c6a 71270000 		.4byte	.LASF290
 4402 0c6e 04       		.byte	0x4
 4403 0c6f 3E06     		.2byte	0x63e
 4404 0c71 B8000000 		.4byte	0xb8
 4405 0c75 04       		.byte	0x4
 4406 0c76 0A       		.byte	0xa
 4407 0c77 16       		.byte	0x16
 4408 0c78 00       		.byte	0
 4409 0c79 10       		.uleb128 0x10
 4410 0c7a A8260000 		.4byte	.LASF283
 4411 0c7e 04       		.byte	0x4
 4412 0c7f 3F06     		.2byte	0x63f
 4413 0c81 B8000000 		.4byte	0xb8
 4414 0c85 04       		.byte	0x4
 4415 0c86 0A       		.byte	0xa
 4416 0c87 0C       		.byte	0xc
 4417 0c88 00       		.byte	0
 4418 0c89 10       		.uleb128 0x10
 4419 0c8a 2A280000 		.4byte	.LASF284
 4420 0c8e 04       		.byte	0x4
 4421 0c8f 4006     		.2byte	0x640
 4422 0c91 B8000000 		.4byte	0xb8
 4423 0c95 04       		.byte	0x4
 4424 0c96 0A       		.byte	0xa
 4425 0c97 02       		.byte	0x2
 4426 0c98 00       		.byte	0
 4427 0c99 10       		.uleb128 0x10
 4428 0c9a 6A240000 		.4byte	.LASF281
 4429 0c9e 04       		.byte	0x4
 4430 0c9f 4106     		.2byte	0x641
ARM GAS  e:\temp\ccdoSeHU.s 			page 105


 4431 0ca1 B8000000 		.4byte	0xb8
 4432 0ca5 04       		.byte	0x4
 4433 0ca6 02       		.byte	0x2
 4434 0ca7 00       		.byte	0
 4435 0ca8 00       		.byte	0
 4436 0ca9 00       		.byte	0
 4437 0caa 0F       		.uleb128 0xf
 4438 0cab 89050000 		.4byte	.LASF295
 4439 0caf 04       		.byte	0x4
 4440 0cb0 04       		.byte	0x4
 4441 0cb1 4406     		.2byte	0x644
 4442 0cb3 F80C0000 		.4byte	0xcf8
 4443 0cb7 10       		.uleb128 0x10
 4444 0cb8 5D160000 		.4byte	.LASF296
 4445 0cbc 04       		.byte	0x4
 4446 0cbd 4606     		.2byte	0x646
 4447 0cbf B8000000 		.4byte	0xb8
 4448 0cc3 04       		.byte	0x4
 4449 0cc4 0A       		.byte	0xa
 4450 0cc5 16       		.byte	0x16
 4451 0cc6 00       		.byte	0
 4452 0cc7 10       		.uleb128 0x10
 4453 0cc8 A8260000 		.4byte	.LASF283
 4454 0ccc 04       		.byte	0x4
 4455 0ccd 4706     		.2byte	0x647
 4456 0ccf B8000000 		.4byte	0xb8
 4457 0cd3 04       		.byte	0x4
 4458 0cd4 0A       		.byte	0xa
 4459 0cd5 0C       		.byte	0xc
 4460 0cd6 00       		.byte	0
 4461 0cd7 10       		.uleb128 0x10
 4462 0cd8 2A280000 		.4byte	.LASF284
 4463 0cdc 04       		.byte	0x4
 4464 0cdd 4806     		.2byte	0x648
 4465 0cdf B8000000 		.4byte	0xb8
 4466 0ce3 04       		.byte	0x4
 4467 0ce4 0A       		.byte	0xa
 4468 0ce5 02       		.byte	0x2
 4469 0ce6 00       		.byte	0
 4470 0ce7 10       		.uleb128 0x10
 4471 0ce8 6A240000 		.4byte	.LASF281
 4472 0cec 04       		.byte	0x4
 4473 0ced 4906     		.2byte	0x649
 4474 0cef B8000000 		.4byte	0xb8
 4475 0cf3 04       		.byte	0x4
 4476 0cf4 02       		.byte	0x2
 4477 0cf5 00       		.byte	0
 4478 0cf6 00       		.byte	0
 4479 0cf7 00       		.byte	0
 4480 0cf8 0F       		.uleb128 0xf
 4481 0cf9 5E1A0000 		.4byte	.LASF297
 4482 0cfd 04       		.byte	0x4
 4483 0cfe 04       		.byte	0x4
 4484 0cff 4C06     		.2byte	0x64c
 4485 0d01 A60D0000 		.4byte	0xda6
 4486 0d05 10       		.uleb128 0x10
 4487 0d06 AB0F0000 		.4byte	.LASF298
ARM GAS  e:\temp\ccdoSeHU.s 			page 106


 4488 0d0a 04       		.byte	0x4
 4489 0d0b 4E06     		.2byte	0x64e
 4490 0d0d B8000000 		.4byte	0xb8
 4491 0d11 04       		.byte	0x4
 4492 0d12 0A       		.byte	0xa
 4493 0d13 16       		.byte	0x16
 4494 0d14 00       		.byte	0
 4495 0d15 10       		.uleb128 0x10
 4496 0d16 71270000 		.4byte	.LASF290
 4497 0d1a 04       		.byte	0x4
 4498 0d1b 4F06     		.2byte	0x64f
 4499 0d1d B8000000 		.4byte	0xb8
 4500 0d21 04       		.byte	0x4
 4501 0d22 0A       		.byte	0xa
 4502 0d23 0C       		.byte	0xc
 4503 0d24 00       		.byte	0
 4504 0d25 10       		.uleb128 0x10
 4505 0d26 64100000 		.4byte	.LASF299
 4506 0d2a 04       		.byte	0x4
 4507 0d2b 5006     		.2byte	0x650
 4508 0d2d B8000000 		.4byte	0xb8
 4509 0d31 04       		.byte	0x4
 4510 0d32 03       		.byte	0x3
 4511 0d33 09       		.byte	0x9
 4512 0d34 00       		.byte	0
 4513 0d35 10       		.uleb128 0x10
 4514 0d36 92060000 		.4byte	.LASF275
 4515 0d3a 04       		.byte	0x4
 4516 0d3b 5106     		.2byte	0x651
 4517 0d3d B8000000 		.4byte	0xb8
 4518 0d41 04       		.byte	0x4
 4519 0d42 01       		.byte	0x1
 4520 0d43 08       		.byte	0x8
 4521 0d44 00       		.byte	0
 4522 0d45 10       		.uleb128 0x10
 4523 0d46 C9250000 		.4byte	.LASF300
 4524 0d4a 04       		.byte	0x4
 4525 0d4b 5206     		.2byte	0x652
 4526 0d4d B8000000 		.4byte	0xb8
 4527 0d51 04       		.byte	0x4
 4528 0d52 01       		.byte	0x1
 4529 0d53 07       		.byte	0x7
 4530 0d54 00       		.byte	0
 4531 0d55 10       		.uleb128 0x10
 4532 0d56 91050000 		.4byte	.LASF277
 4533 0d5a 04       		.byte	0x4
 4534 0d5b 5306     		.2byte	0x653
 4535 0d5d B8000000 		.4byte	0xb8
 4536 0d61 04       		.byte	0x4
 4537 0d62 01       		.byte	0x1
 4538 0d63 06       		.byte	0x6
 4539 0d64 00       		.byte	0
 4540 0d65 10       		.uleb128 0x10
 4541 0d66 AC230000 		.4byte	.LASF301
 4542 0d6a 04       		.byte	0x4
 4543 0d6b 5406     		.2byte	0x654
 4544 0d6d B8000000 		.4byte	0xb8
ARM GAS  e:\temp\ccdoSeHU.s 			page 107


 4545 0d71 04       		.byte	0x4
 4546 0d72 01       		.byte	0x1
 4547 0d73 05       		.byte	0x5
 4548 0d74 00       		.byte	0
 4549 0d75 10       		.uleb128 0x10
 4550 0d76 BB050000 		.4byte	.LASF302
 4551 0d7a 04       		.byte	0x4
 4552 0d7b 5506     		.2byte	0x655
 4553 0d7d B8000000 		.4byte	0xb8
 4554 0d81 04       		.byte	0x4
 4555 0d82 01       		.byte	0x1
 4556 0d83 04       		.byte	0x4
 4557 0d84 00       		.byte	0
 4558 0d85 10       		.uleb128 0x10
 4559 0d86 D51B0000 		.4byte	.LASF303
 4560 0d8a 04       		.byte	0x4
 4561 0d8b 5606     		.2byte	0x656
 4562 0d8d B8000000 		.4byte	0xb8
 4563 0d91 04       		.byte	0x4
 4564 0d92 03       		.byte	0x3
 4565 0d93 01       		.byte	0x1
 4566 0d94 00       		.byte	0
 4567 0d95 10       		.uleb128 0x10
 4568 0d96 6B100000 		.4byte	.LASF304
 4569 0d9a 04       		.byte	0x4
 4570 0d9b 5706     		.2byte	0x657
 4571 0d9d B8000000 		.4byte	0xb8
 4572 0da1 04       		.byte	0x4
 4573 0da2 01       		.byte	0x1
 4574 0da3 00       		.byte	0
 4575 0da4 00       		.byte	0
 4576 0da5 00       		.byte	0
 4577 0da6 0F       		.uleb128 0xf
 4578 0da7 6E180000 		.4byte	.LASF305
 4579 0dab 04       		.byte	0x4
 4580 0dac 04       		.byte	0x4
 4581 0dad 5A06     		.2byte	0x65a
 4582 0daf 540E0000 		.4byte	0xe54
 4583 0db3 10       		.uleb128 0x10
 4584 0db4 8A030000 		.4byte	.LASF306
 4585 0db8 04       		.byte	0x4
 4586 0db9 5C06     		.2byte	0x65c
 4587 0dbb B8000000 		.4byte	0xb8
 4588 0dbf 04       		.byte	0x4
 4589 0dc0 0A       		.byte	0xa
 4590 0dc1 16       		.byte	0x16
 4591 0dc2 00       		.byte	0
 4592 0dc3 10       		.uleb128 0x10
 4593 0dc4 71270000 		.4byte	.LASF290
 4594 0dc8 04       		.byte	0x4
 4595 0dc9 5D06     		.2byte	0x65d
 4596 0dcb B8000000 		.4byte	0xb8
 4597 0dcf 04       		.byte	0x4
 4598 0dd0 0A       		.byte	0xa
 4599 0dd1 0C       		.byte	0xc
 4600 0dd2 00       		.byte	0
 4601 0dd3 10       		.uleb128 0x10
ARM GAS  e:\temp\ccdoSeHU.s 			page 108


 4602 0dd4 64100000 		.4byte	.LASF299
 4603 0dd8 04       		.byte	0x4
 4604 0dd9 5E06     		.2byte	0x65e
 4605 0ddb B8000000 		.4byte	0xb8
 4606 0ddf 04       		.byte	0x4
 4607 0de0 03       		.byte	0x3
 4608 0de1 09       		.byte	0x9
 4609 0de2 00       		.byte	0
 4610 0de3 10       		.uleb128 0x10
 4611 0de4 92060000 		.4byte	.LASF275
 4612 0de8 04       		.byte	0x4
 4613 0de9 5F06     		.2byte	0x65f
 4614 0deb B8000000 		.4byte	0xb8
 4615 0def 04       		.byte	0x4
 4616 0df0 01       		.byte	0x1
 4617 0df1 08       		.byte	0x8
 4618 0df2 00       		.byte	0
 4619 0df3 10       		.uleb128 0x10
 4620 0df4 C9250000 		.4byte	.LASF300
 4621 0df8 04       		.byte	0x4
 4622 0df9 6006     		.2byte	0x660
 4623 0dfb B8000000 		.4byte	0xb8
 4624 0dff 04       		.byte	0x4
 4625 0e00 01       		.byte	0x1
 4626 0e01 07       		.byte	0x7
 4627 0e02 00       		.byte	0
 4628 0e03 10       		.uleb128 0x10
 4629 0e04 91050000 		.4byte	.LASF277
 4630 0e08 04       		.byte	0x4
 4631 0e09 6106     		.2byte	0x661
 4632 0e0b B8000000 		.4byte	0xb8
 4633 0e0f 04       		.byte	0x4
 4634 0e10 01       		.byte	0x1
 4635 0e11 06       		.byte	0x6
 4636 0e12 00       		.byte	0
 4637 0e13 10       		.uleb128 0x10
 4638 0e14 AC230000 		.4byte	.LASF301
 4639 0e18 04       		.byte	0x4
 4640 0e19 6206     		.2byte	0x662
 4641 0e1b B8000000 		.4byte	0xb8
 4642 0e1f 04       		.byte	0x4
 4643 0e20 01       		.byte	0x1
 4644 0e21 05       		.byte	0x5
 4645 0e22 00       		.byte	0
 4646 0e23 10       		.uleb128 0x10
 4647 0e24 BB050000 		.4byte	.LASF302
 4648 0e28 04       		.byte	0x4
 4649 0e29 6306     		.2byte	0x663
 4650 0e2b B8000000 		.4byte	0xb8
 4651 0e2f 04       		.byte	0x4
 4652 0e30 01       		.byte	0x1
 4653 0e31 04       		.byte	0x4
 4654 0e32 00       		.byte	0
 4655 0e33 10       		.uleb128 0x10
 4656 0e34 D51B0000 		.4byte	.LASF303
 4657 0e38 04       		.byte	0x4
 4658 0e39 6406     		.2byte	0x664
ARM GAS  e:\temp\ccdoSeHU.s 			page 109


 4659 0e3b B8000000 		.4byte	0xb8
 4660 0e3f 04       		.byte	0x4
 4661 0e40 03       		.byte	0x3
 4662 0e41 01       		.byte	0x1
 4663 0e42 00       		.byte	0
 4664 0e43 10       		.uleb128 0x10
 4665 0e44 6B100000 		.4byte	.LASF304
 4666 0e48 04       		.byte	0x4
 4667 0e49 6506     		.2byte	0x665
 4668 0e4b B8000000 		.4byte	0xb8
 4669 0e4f 04       		.byte	0x4
 4670 0e50 01       		.byte	0x1
 4671 0e51 00       		.byte	0
 4672 0e52 00       		.byte	0
 4673 0e53 00       		.byte	0
 4674 0e54 0F       		.uleb128 0xf
 4675 0e55 9F290000 		.4byte	.LASF307
 4676 0e59 04       		.byte	0x4
 4677 0e5a 04       		.byte	0x4
 4678 0e5b 6806     		.2byte	0x668
 4679 0e5d 020F0000 		.4byte	0xf02
 4680 0e61 10       		.uleb128 0x10
 4681 0e62 23100000 		.4byte	.LASF308
 4682 0e66 04       		.byte	0x4
 4683 0e67 6A06     		.2byte	0x66a
 4684 0e69 B8000000 		.4byte	0xb8
 4685 0e6d 04       		.byte	0x4
 4686 0e6e 0A       		.byte	0xa
 4687 0e6f 16       		.byte	0x16
 4688 0e70 00       		.byte	0
 4689 0e71 10       		.uleb128 0x10
 4690 0e72 5D160000 		.4byte	.LASF296
 4691 0e76 04       		.byte	0x4
 4692 0e77 6B06     		.2byte	0x66b
 4693 0e79 B8000000 		.4byte	0xb8
 4694 0e7d 04       		.byte	0x4
 4695 0e7e 0A       		.byte	0xa
 4696 0e7f 0C       		.byte	0xc
 4697 0e80 00       		.byte	0
 4698 0e81 10       		.uleb128 0x10
 4699 0e82 64100000 		.4byte	.LASF299
 4700 0e86 04       		.byte	0x4
 4701 0e87 6C06     		.2byte	0x66c
 4702 0e89 B8000000 		.4byte	0xb8
 4703 0e8d 04       		.byte	0x4
 4704 0e8e 03       		.byte	0x3
 4705 0e8f 09       		.byte	0x9
 4706 0e90 00       		.byte	0
 4707 0e91 10       		.uleb128 0x10
 4708 0e92 92060000 		.4byte	.LASF275
 4709 0e96 04       		.byte	0x4
 4710 0e97 6D06     		.2byte	0x66d
 4711 0e99 B8000000 		.4byte	0xb8
 4712 0e9d 04       		.byte	0x4
 4713 0e9e 01       		.byte	0x1
 4714 0e9f 08       		.byte	0x8
 4715 0ea0 00       		.byte	0
ARM GAS  e:\temp\ccdoSeHU.s 			page 110


 4716 0ea1 10       		.uleb128 0x10
 4717 0ea2 C9250000 		.4byte	.LASF300
 4718 0ea6 04       		.byte	0x4
 4719 0ea7 6E06     		.2byte	0x66e
 4720 0ea9 B8000000 		.4byte	0xb8
 4721 0ead 04       		.byte	0x4
 4722 0eae 01       		.byte	0x1
 4723 0eaf 07       		.byte	0x7
 4724 0eb0 00       		.byte	0
 4725 0eb1 10       		.uleb128 0x10
 4726 0eb2 91050000 		.4byte	.LASF277
 4727 0eb6 04       		.byte	0x4
 4728 0eb7 6F06     		.2byte	0x66f
 4729 0eb9 B8000000 		.4byte	0xb8
 4730 0ebd 04       		.byte	0x4
 4731 0ebe 01       		.byte	0x1
 4732 0ebf 06       		.byte	0x6
 4733 0ec0 00       		.byte	0
 4734 0ec1 10       		.uleb128 0x10
 4735 0ec2 AC230000 		.4byte	.LASF301
 4736 0ec6 04       		.byte	0x4
 4737 0ec7 7006     		.2byte	0x670
 4738 0ec9 B8000000 		.4byte	0xb8
 4739 0ecd 04       		.byte	0x4
 4740 0ece 01       		.byte	0x1
 4741 0ecf 05       		.byte	0x5
 4742 0ed0 00       		.byte	0
 4743 0ed1 10       		.uleb128 0x10
 4744 0ed2 BB050000 		.4byte	.LASF302
 4745 0ed6 04       		.byte	0x4
 4746 0ed7 7106     		.2byte	0x671
 4747 0ed9 B8000000 		.4byte	0xb8
 4748 0edd 04       		.byte	0x4
 4749 0ede 01       		.byte	0x1
 4750 0edf 04       		.byte	0x4
 4751 0ee0 00       		.byte	0
 4752 0ee1 10       		.uleb128 0x10
 4753 0ee2 D51B0000 		.4byte	.LASF303
 4754 0ee6 04       		.byte	0x4
 4755 0ee7 7206     		.2byte	0x672
 4756 0ee9 B8000000 		.4byte	0xb8
 4757 0eed 04       		.byte	0x4
 4758 0eee 03       		.byte	0x3
 4759 0eef 01       		.byte	0x1
 4760 0ef0 00       		.byte	0
 4761 0ef1 10       		.uleb128 0x10
 4762 0ef2 6B100000 		.4byte	.LASF304
 4763 0ef6 04       		.byte	0x4
 4764 0ef7 7306     		.2byte	0x673
 4765 0ef9 B8000000 		.4byte	0xb8
 4766 0efd 04       		.byte	0x4
 4767 0efe 01       		.byte	0x1
 4768 0eff 00       		.byte	0
 4769 0f00 00       		.byte	0
 4770 0f01 00       		.byte	0
 4771 0f02 0F       		.uleb128 0xf
 4772 0f03 E90B0000 		.4byte	.LASF309
ARM GAS  e:\temp\ccdoSeHU.s 			page 111


 4773 0f07 04       		.byte	0x4
 4774 0f08 04       		.byte	0x4
 4775 0f09 7606     		.2byte	0x676
 4776 0f0b B00F0000 		.4byte	0xfb0
 4777 0f0f 10       		.uleb128 0x10
 4778 0f10 29120000 		.4byte	.LASF310
 4779 0f14 04       		.byte	0x4
 4780 0f15 7806     		.2byte	0x678
 4781 0f17 B8000000 		.4byte	0xb8
 4782 0f1b 04       		.byte	0x4
 4783 0f1c 0A       		.byte	0xa
 4784 0f1d 16       		.byte	0x16
 4785 0f1e 00       		.byte	0
 4786 0f1f 10       		.uleb128 0x10
 4787 0f20 5D160000 		.4byte	.LASF296
 4788 0f24 04       		.byte	0x4
 4789 0f25 7906     		.2byte	0x679
 4790 0f27 B8000000 		.4byte	0xb8
 4791 0f2b 04       		.byte	0x4
 4792 0f2c 0A       		.byte	0xa
 4793 0f2d 0C       		.byte	0xc
 4794 0f2e 00       		.byte	0
 4795 0f2f 10       		.uleb128 0x10
 4796 0f30 64100000 		.4byte	.LASF299
 4797 0f34 04       		.byte	0x4
 4798 0f35 7A06     		.2byte	0x67a
 4799 0f37 B8000000 		.4byte	0xb8
 4800 0f3b 04       		.byte	0x4
 4801 0f3c 03       		.byte	0x3
 4802 0f3d 09       		.byte	0x9
 4803 0f3e 00       		.byte	0
 4804 0f3f 10       		.uleb128 0x10
 4805 0f40 92060000 		.4byte	.LASF275
 4806 0f44 04       		.byte	0x4
 4807 0f45 7B06     		.2byte	0x67b
 4808 0f47 B8000000 		.4byte	0xb8
 4809 0f4b 04       		.byte	0x4
 4810 0f4c 01       		.byte	0x1
 4811 0f4d 08       		.byte	0x8
 4812 0f4e 00       		.byte	0
 4813 0f4f 10       		.uleb128 0x10
 4814 0f50 C9250000 		.4byte	.LASF300
 4815 0f54 04       		.byte	0x4
 4816 0f55 7C06     		.2byte	0x67c
 4817 0f57 B8000000 		.4byte	0xb8
 4818 0f5b 04       		.byte	0x4
 4819 0f5c 01       		.byte	0x1
 4820 0f5d 07       		.byte	0x7
 4821 0f5e 00       		.byte	0
 4822 0f5f 10       		.uleb128 0x10
 4823 0f60 91050000 		.4byte	.LASF277
 4824 0f64 04       		.byte	0x4
 4825 0f65 7D06     		.2byte	0x67d
 4826 0f67 B8000000 		.4byte	0xb8
 4827 0f6b 04       		.byte	0x4
 4828 0f6c 01       		.byte	0x1
 4829 0f6d 06       		.byte	0x6
ARM GAS  e:\temp\ccdoSeHU.s 			page 112


 4830 0f6e 00       		.byte	0
 4831 0f6f 10       		.uleb128 0x10
 4832 0f70 AC230000 		.4byte	.LASF301
 4833 0f74 04       		.byte	0x4
 4834 0f75 7E06     		.2byte	0x67e
 4835 0f77 B8000000 		.4byte	0xb8
 4836 0f7b 04       		.byte	0x4
 4837 0f7c 01       		.byte	0x1
 4838 0f7d 05       		.byte	0x5
 4839 0f7e 00       		.byte	0
 4840 0f7f 10       		.uleb128 0x10
 4841 0f80 BB050000 		.4byte	.LASF302
 4842 0f84 04       		.byte	0x4
 4843 0f85 7F06     		.2byte	0x67f
 4844 0f87 B8000000 		.4byte	0xb8
 4845 0f8b 04       		.byte	0x4
 4846 0f8c 01       		.byte	0x1
 4847 0f8d 04       		.byte	0x4
 4848 0f8e 00       		.byte	0
 4849 0f8f 10       		.uleb128 0x10
 4850 0f90 D51B0000 		.4byte	.LASF303
 4851 0f94 04       		.byte	0x4
 4852 0f95 8006     		.2byte	0x680
 4853 0f97 B8000000 		.4byte	0xb8
 4854 0f9b 04       		.byte	0x4
 4855 0f9c 03       		.byte	0x3
 4856 0f9d 01       		.byte	0x1
 4857 0f9e 00       		.byte	0
 4858 0f9f 10       		.uleb128 0x10
 4859 0fa0 6B100000 		.4byte	.LASF304
 4860 0fa4 04       		.byte	0x4
 4861 0fa5 8106     		.2byte	0x681
 4862 0fa7 B8000000 		.4byte	0xb8
 4863 0fab 04       		.byte	0x4
 4864 0fac 01       		.byte	0x1
 4865 0fad 00       		.byte	0
 4866 0fae 00       		.byte	0
 4867 0faf 00       		.byte	0
 4868 0fb0 0F       		.uleb128 0xf
 4869 0fb1 93160000 		.4byte	.LASF311
 4870 0fb5 04       		.byte	0x4
 4871 0fb6 04       		.byte	0x4
 4872 0fb7 8406     		.2byte	0x684
 4873 0fb9 5E100000 		.4byte	0x105e
 4874 0fbd 10       		.uleb128 0x10
 4875 0fbe B60E0000 		.4byte	.LASF312
 4876 0fc2 04       		.byte	0x4
 4877 0fc3 8606     		.2byte	0x686
 4878 0fc5 B8000000 		.4byte	0xb8
 4879 0fc9 04       		.byte	0x4
 4880 0fca 0A       		.byte	0xa
 4881 0fcb 16       		.byte	0x16
 4882 0fcc 00       		.byte	0
 4883 0fcd 10       		.uleb128 0x10
 4884 0fce C2090000 		.4byte	.LASF313
 4885 0fd2 04       		.byte	0x4
 4886 0fd3 8706     		.2byte	0x687
ARM GAS  e:\temp\ccdoSeHU.s 			page 113


 4887 0fd5 B8000000 		.4byte	0xb8
 4888 0fd9 04       		.byte	0x4
 4889 0fda 0A       		.byte	0xa
 4890 0fdb 0C       		.byte	0xc
 4891 0fdc 00       		.byte	0
 4892 0fdd 10       		.uleb128 0x10
 4893 0fde 64100000 		.4byte	.LASF299
 4894 0fe2 04       		.byte	0x4
 4895 0fe3 8806     		.2byte	0x688
 4896 0fe5 B8000000 		.4byte	0xb8
 4897 0fe9 04       		.byte	0x4
 4898 0fea 03       		.byte	0x3
 4899 0feb 09       		.byte	0x9
 4900 0fec 00       		.byte	0
 4901 0fed 10       		.uleb128 0x10
 4902 0fee 92060000 		.4byte	.LASF275
 4903 0ff2 04       		.byte	0x4
 4904 0ff3 8906     		.2byte	0x689
 4905 0ff5 B8000000 		.4byte	0xb8
 4906 0ff9 04       		.byte	0x4
 4907 0ffa 01       		.byte	0x1
 4908 0ffb 08       		.byte	0x8
 4909 0ffc 00       		.byte	0
 4910 0ffd 10       		.uleb128 0x10
 4911 0ffe C9250000 		.4byte	.LASF300
 4912 1002 04       		.byte	0x4
 4913 1003 8A06     		.2byte	0x68a
 4914 1005 B8000000 		.4byte	0xb8
 4915 1009 04       		.byte	0x4
 4916 100a 01       		.byte	0x1
 4917 100b 07       		.byte	0x7
 4918 100c 00       		.byte	0
 4919 100d 10       		.uleb128 0x10
 4920 100e 91050000 		.4byte	.LASF277
 4921 1012 04       		.byte	0x4
 4922 1013 8B06     		.2byte	0x68b
 4923 1015 B8000000 		.4byte	0xb8
 4924 1019 04       		.byte	0x4
 4925 101a 01       		.byte	0x1
 4926 101b 06       		.byte	0x6
 4927 101c 00       		.byte	0
 4928 101d 10       		.uleb128 0x10
 4929 101e AC230000 		.4byte	.LASF301
 4930 1022 04       		.byte	0x4
 4931 1023 8C06     		.2byte	0x68c
 4932 1025 B8000000 		.4byte	0xb8
 4933 1029 04       		.byte	0x4
 4934 102a 01       		.byte	0x1
 4935 102b 05       		.byte	0x5
 4936 102c 00       		.byte	0
 4937 102d 10       		.uleb128 0x10
 4938 102e BB050000 		.4byte	.LASF302
 4939 1032 04       		.byte	0x4
 4940 1033 8D06     		.2byte	0x68d
 4941 1035 B8000000 		.4byte	0xb8
 4942 1039 04       		.byte	0x4
 4943 103a 01       		.byte	0x1
ARM GAS  e:\temp\ccdoSeHU.s 			page 114


 4944 103b 04       		.byte	0x4
 4945 103c 00       		.byte	0
 4946 103d 10       		.uleb128 0x10
 4947 103e D51B0000 		.4byte	.LASF303
 4948 1042 04       		.byte	0x4
 4949 1043 8E06     		.2byte	0x68e
 4950 1045 B8000000 		.4byte	0xb8
 4951 1049 04       		.byte	0x4
 4952 104a 03       		.byte	0x3
 4953 104b 01       		.byte	0x1
 4954 104c 00       		.byte	0
 4955 104d 10       		.uleb128 0x10
 4956 104e 6B100000 		.4byte	.LASF304
 4957 1052 04       		.byte	0x4
 4958 1053 8F06     		.2byte	0x68f
 4959 1055 B8000000 		.4byte	0xb8
 4960 1059 04       		.byte	0x4
 4961 105a 01       		.byte	0x1
 4962 105b 00       		.byte	0
 4963 105c 00       		.byte	0
 4964 105d 00       		.byte	0
 4965 105e 0F       		.uleb128 0xf
 4966 105f E80E0000 		.4byte	.LASF314
 4967 1063 04       		.byte	0x4
 4968 1064 04       		.byte	0x4
 4969 1065 9206     		.2byte	0x692
 4970 1067 0C110000 		.4byte	0x110c
 4971 106b 10       		.uleb128 0x10
 4972 106c 66160000 		.4byte	.LASF315
 4973 1070 04       		.byte	0x4
 4974 1071 9406     		.2byte	0x694
 4975 1073 B8000000 		.4byte	0xb8
 4976 1077 04       		.byte	0x4
 4977 1078 0A       		.byte	0xa
 4978 1079 16       		.byte	0x16
 4979 107a 00       		.byte	0
 4980 107b 10       		.uleb128 0x10
 4981 107c C2090000 		.4byte	.LASF313
 4982 1080 04       		.byte	0x4
 4983 1081 9506     		.2byte	0x695
 4984 1083 B8000000 		.4byte	0xb8
 4985 1087 04       		.byte	0x4
 4986 1088 0A       		.byte	0xa
 4987 1089 0C       		.byte	0xc
 4988 108a 00       		.byte	0
 4989 108b 10       		.uleb128 0x10
 4990 108c 64100000 		.4byte	.LASF299
 4991 1090 04       		.byte	0x4
 4992 1091 9606     		.2byte	0x696
 4993 1093 B8000000 		.4byte	0xb8
 4994 1097 04       		.byte	0x4
 4995 1098 03       		.byte	0x3
 4996 1099 09       		.byte	0x9
 4997 109a 00       		.byte	0
 4998 109b 10       		.uleb128 0x10
 4999 109c 92060000 		.4byte	.LASF275
 5000 10a0 04       		.byte	0x4
ARM GAS  e:\temp\ccdoSeHU.s 			page 115


 5001 10a1 9706     		.2byte	0x697
 5002 10a3 B8000000 		.4byte	0xb8
 5003 10a7 04       		.byte	0x4
 5004 10a8 01       		.byte	0x1
 5005 10a9 08       		.byte	0x8
 5006 10aa 00       		.byte	0
 5007 10ab 10       		.uleb128 0x10
 5008 10ac C9250000 		.4byte	.LASF300
 5009 10b0 04       		.byte	0x4
 5010 10b1 9806     		.2byte	0x698
 5011 10b3 B8000000 		.4byte	0xb8
 5012 10b7 04       		.byte	0x4
 5013 10b8 01       		.byte	0x1
 5014 10b9 07       		.byte	0x7
 5015 10ba 00       		.byte	0
 5016 10bb 10       		.uleb128 0x10
 5017 10bc 91050000 		.4byte	.LASF277
 5018 10c0 04       		.byte	0x4
 5019 10c1 9906     		.2byte	0x699
 5020 10c3 B8000000 		.4byte	0xb8
 5021 10c7 04       		.byte	0x4
 5022 10c8 01       		.byte	0x1
 5023 10c9 06       		.byte	0x6
 5024 10ca 00       		.byte	0
 5025 10cb 10       		.uleb128 0x10
 5026 10cc AC230000 		.4byte	.LASF301
 5027 10d0 04       		.byte	0x4
 5028 10d1 9A06     		.2byte	0x69a
 5029 10d3 B8000000 		.4byte	0xb8
 5030 10d7 04       		.byte	0x4
 5031 10d8 01       		.byte	0x1
 5032 10d9 05       		.byte	0x5
 5033 10da 00       		.byte	0
 5034 10db 10       		.uleb128 0x10
 5035 10dc BB050000 		.4byte	.LASF302
 5036 10e0 04       		.byte	0x4
 5037 10e1 9B06     		.2byte	0x69b
 5038 10e3 B8000000 		.4byte	0xb8
 5039 10e7 04       		.byte	0x4
 5040 10e8 01       		.byte	0x1
 5041 10e9 04       		.byte	0x4
 5042 10ea 00       		.byte	0
 5043 10eb 10       		.uleb128 0x10
 5044 10ec D51B0000 		.4byte	.LASF303
 5045 10f0 04       		.byte	0x4
 5046 10f1 9C06     		.2byte	0x69c
 5047 10f3 B8000000 		.4byte	0xb8
 5048 10f7 04       		.byte	0x4
 5049 10f8 03       		.byte	0x3
 5050 10f9 01       		.byte	0x1
 5051 10fa 00       		.byte	0
 5052 10fb 10       		.uleb128 0x10
 5053 10fc 6B100000 		.4byte	.LASF304
 5054 1100 04       		.byte	0x4
 5055 1101 9D06     		.2byte	0x69d
 5056 1103 B8000000 		.4byte	0xb8
 5057 1107 04       		.byte	0x4
ARM GAS  e:\temp\ccdoSeHU.s 			page 116


 5058 1108 01       		.byte	0x1
 5059 1109 00       		.byte	0
 5060 110a 00       		.byte	0
 5061 110b 00       		.byte	0
 5062 110c 0F       		.uleb128 0xf
 5063 110d AA0E0000 		.4byte	.LASF316
 5064 1111 04       		.byte	0x4
 5065 1112 04       		.byte	0x4
 5066 1113 A006     		.2byte	0x6a0
 5067 1115 9A110000 		.4byte	0x119a
 5068 1119 11       		.uleb128 0x11
 5069 111a 636D6400 		.ascii	"cmd\000"
 5070 111e 04       		.byte	0x4
 5071 111f A206     		.2byte	0x6a2
 5072 1121 B8000000 		.4byte	0xb8
 5073 1125 04       		.byte	0x4
 5074 1126 05       		.byte	0x5
 5075 1127 1B       		.byte	0x1b
 5076 1128 00       		.byte	0
 5077 1129 10       		.uleb128 0x10
 5078 112a DA180000 		.4byte	.LASF260
 5079 112e 04       		.byte	0x4
 5080 112f A306     		.2byte	0x6a3
 5081 1131 B8000000 		.4byte	0xb8
 5082 1135 04       		.byte	0x4
 5083 1136 01       		.byte	0x1
 5084 1137 1A       		.byte	0x1a
 5085 1138 00       		.byte	0
 5086 1139 10       		.uleb128 0x10
 5087 113a 36180000 		.4byte	.LASF317
 5088 113e 04       		.byte	0x4
 5089 113f A406     		.2byte	0x6a4
 5090 1141 B8000000 		.4byte	0xb8
 5091 1145 04       		.byte	0x4
 5092 1146 02       		.byte	0x2
 5093 1147 18       		.byte	0x18
 5094 1148 00       		.byte	0
 5095 1149 10       		.uleb128 0x10
 5096 114a D51B0000 		.4byte	.LASF303
 5097 114e 04       		.byte	0x4
 5098 114f A506     		.2byte	0x6a5
 5099 1151 B8000000 		.4byte	0xb8
 5100 1155 04       		.byte	0x4
 5101 1156 03       		.byte	0x3
 5102 1157 15       		.byte	0x15
 5103 1158 00       		.byte	0
 5104 1159 10       		.uleb128 0x10
 5105 115a E0180000 		.4byte	.LASF268
 5106 115e 04       		.byte	0x4
 5107 115f A606     		.2byte	0x6a6
 5108 1161 B8000000 		.4byte	0xb8
 5109 1165 04       		.byte	0x4
 5110 1166 02       		.byte	0x2
 5111 1167 13       		.byte	0x13
 5112 1168 00       		.byte	0
 5113 1169 10       		.uleb128 0x10
 5114 116a C0170000 		.4byte	.LASF318
ARM GAS  e:\temp\ccdoSeHU.s 			page 117


 5115 116e 04       		.byte	0x4
 5116 116f A706     		.2byte	0x6a7
 5117 1171 B8000000 		.4byte	0xb8
 5118 1175 04       		.byte	0x4
 5119 1176 02       		.byte	0x2
 5120 1177 11       		.byte	0x11
 5121 1178 00       		.byte	0
 5122 1179 10       		.uleb128 0x10
 5123 117a 10040000 		.4byte	.LASF319
 5124 117e 04       		.byte	0x4
 5125 117f A806     		.2byte	0x6a8
 5126 1181 B8000000 		.4byte	0xb8
 5127 1185 04       		.byte	0x4
 5128 1186 01       		.byte	0x1
 5129 1187 10       		.byte	0x10
 5130 1188 00       		.byte	0
 5131 1189 10       		.uleb128 0x10
 5132 118a 380F0000 		.4byte	.LASF320
 5133 118e 04       		.byte	0x4
 5134 118f A906     		.2byte	0x6a9
 5135 1191 B8000000 		.4byte	0xb8
 5136 1195 04       		.byte	0x4
 5137 1196 10       		.byte	0x10
 5138 1197 00       		.byte	0
 5139 1198 00       		.byte	0
 5140 1199 00       		.byte	0
 5141 119a 0F       		.uleb128 0xf
 5142 119b 58140000 		.4byte	.LASF321
 5143 119f 04       		.byte	0x4
 5144 11a0 04       		.byte	0x4
 5145 11a1 AC06     		.2byte	0x6ac
 5146 11a3 18120000 		.4byte	0x1218
 5147 11a7 11       		.uleb128 0x11
 5148 11a8 636D6400 		.ascii	"cmd\000"
 5149 11ac 04       		.byte	0x4
 5150 11ad AE06     		.2byte	0x6ae
 5151 11af B8000000 		.4byte	0xb8
 5152 11b3 04       		.byte	0x4
 5153 11b4 05       		.byte	0x5
 5154 11b5 1B       		.byte	0x1b
 5155 11b6 00       		.byte	0
 5156 11b7 10       		.uleb128 0x10
 5157 11b8 A7290000 		.4byte	.LASF322
 5158 11bc 04       		.byte	0x4
 5159 11bd AF06     		.2byte	0x6af
 5160 11bf B8000000 		.4byte	0xb8
 5161 11c3 04       		.byte	0x4
 5162 11c4 03       		.byte	0x3
 5163 11c5 18       		.byte	0x18
 5164 11c6 00       		.byte	0
 5165 11c7 10       		.uleb128 0x10
 5166 11c8 DA180000 		.4byte	.LASF260
 5167 11cc 04       		.byte	0x4
 5168 11cd B006     		.2byte	0x6b0
 5169 11cf B8000000 		.4byte	0xb8
 5170 11d3 04       		.byte	0x4
 5171 11d4 03       		.byte	0x3
ARM GAS  e:\temp\ccdoSeHU.s 			page 118


 5172 11d5 15       		.byte	0x15
 5173 11d6 00       		.byte	0
 5174 11d7 10       		.uleb128 0x10
 5175 11d8 36180000 		.4byte	.LASF317
 5176 11dc 04       		.byte	0x4
 5177 11dd B106     		.2byte	0x6b1
 5178 11df B8000000 		.4byte	0xb8
 5179 11e3 04       		.byte	0x4
 5180 11e4 02       		.byte	0x2
 5181 11e5 13       		.byte	0x13
 5182 11e6 00       		.byte	0
 5183 11e7 10       		.uleb128 0x10
 5184 11e8 1F250000 		.4byte	.LASF323
 5185 11ec 04       		.byte	0x4
 5186 11ed B206     		.2byte	0x6b2
 5187 11ef B8000000 		.4byte	0xb8
 5188 11f3 04       		.byte	0x4
 5189 11f4 02       		.byte	0x2
 5190 11f5 11       		.byte	0x11
 5191 11f6 00       		.byte	0
 5192 11f7 10       		.uleb128 0x10
 5193 11f8 10040000 		.4byte	.LASF319
 5194 11fc 04       		.byte	0x4
 5195 11fd B306     		.2byte	0x6b3
 5196 11ff B8000000 		.4byte	0xb8
 5197 1203 04       		.byte	0x4
 5198 1204 01       		.byte	0x1
 5199 1205 10       		.byte	0x10
 5200 1206 00       		.byte	0
 5201 1207 10       		.uleb128 0x10
 5202 1208 380F0000 		.4byte	.LASF320
 5203 120c 04       		.byte	0x4
 5204 120d B406     		.2byte	0x6b4
 5205 120f B8000000 		.4byte	0xb8
 5206 1213 04       		.byte	0x4
 5207 1214 10       		.byte	0x10
 5208 1215 00       		.byte	0
 5209 1216 00       		.byte	0
 5210 1217 00       		.byte	0
 5211 1218 0F       		.uleb128 0xf
 5212 1219 2B1C0000 		.4byte	.LASF324
 5213 121d 04       		.byte	0x4
 5214 121e 04       		.byte	0x4
 5215 121f B706     		.2byte	0x6b7
 5216 1221 66120000 		.4byte	0x1266
 5217 1225 10       		.uleb128 0x10
 5218 1226 C41E0000 		.4byte	.LASF325
 5219 122a 04       		.byte	0x4
 5220 122b B906     		.2byte	0x6b9
 5221 122d B8000000 		.4byte	0xb8
 5222 1231 04       		.byte	0x4
 5223 1232 08       		.byte	0x8
 5224 1233 18       		.byte	0x18
 5225 1234 00       		.byte	0
 5226 1235 10       		.uleb128 0x10
 5227 1236 CA1E0000 		.4byte	.LASF326
 5228 123a 04       		.byte	0x4
ARM GAS  e:\temp\ccdoSeHU.s 			page 119


 5229 123b BA06     		.2byte	0x6ba
 5230 123d B8000000 		.4byte	0xb8
 5231 1241 04       		.byte	0x4
 5232 1242 07       		.byte	0x7
 5233 1243 11       		.byte	0x11
 5234 1244 00       		.byte	0
 5235 1245 10       		.uleb128 0x10
 5236 1246 10040000 		.4byte	.LASF319
 5237 124a 04       		.byte	0x4
 5238 124b BB06     		.2byte	0x6bb
 5239 124d B8000000 		.4byte	0xb8
 5240 1251 04       		.byte	0x4
 5241 1252 01       		.byte	0x1
 5242 1253 10       		.byte	0x10
 5243 1254 00       		.byte	0
 5244 1255 10       		.uleb128 0x10
 5245 1256 380F0000 		.4byte	.LASF320
 5246 125a 04       		.byte	0x4
 5247 125b BC06     		.2byte	0x6bc
 5248 125d B8000000 		.4byte	0xb8
 5249 1261 04       		.byte	0x4
 5250 1262 10       		.byte	0x10
 5251 1263 00       		.byte	0
 5252 1264 00       		.byte	0
 5253 1265 00       		.byte	0
 5254 1266 0F       		.uleb128 0xf
 5255 1267 36190000 		.4byte	.LASF327
 5256 126b 04       		.byte	0x4
 5257 126c 04       		.byte	0x4
 5258 126d BF06     		.2byte	0x6bf
 5259 126f B4120000 		.4byte	0x12b4
 5260 1273 10       		.uleb128 0x10
 5261 1274 D01A0000 		.4byte	.LASF328
 5262 1278 04       		.byte	0x4
 5263 1279 C106     		.2byte	0x6c1
 5264 127b B8000000 		.4byte	0xb8
 5265 127f 04       		.byte	0x4
 5266 1280 08       		.byte	0x8
 5267 1281 18       		.byte	0x18
 5268 1282 00       		.byte	0
 5269 1283 10       		.uleb128 0x10
 5270 1284 D71A0000 		.4byte	.LASF329
 5271 1288 04       		.byte	0x4
 5272 1289 C206     		.2byte	0x6c2
 5273 128b B8000000 		.4byte	0xb8
 5274 128f 04       		.byte	0x4
 5275 1290 08       		.byte	0x8
 5276 1291 10       		.byte	0x10
 5277 1292 00       		.byte	0
 5278 1293 10       		.uleb128 0x10
 5279 1294 DE1A0000 		.4byte	.LASF330
 5280 1298 04       		.byte	0x4
 5281 1299 C306     		.2byte	0x6c3
 5282 129b B8000000 		.4byte	0xb8
 5283 129f 04       		.byte	0x4
 5284 12a0 08       		.byte	0x8
 5285 12a1 08       		.byte	0x8
ARM GAS  e:\temp\ccdoSeHU.s 			page 120


 5286 12a2 00       		.byte	0
 5287 12a3 10       		.uleb128 0x10
 5288 12a4 E51A0000 		.4byte	.LASF331
 5289 12a8 04       		.byte	0x4
 5290 12a9 C406     		.2byte	0x6c4
 5291 12ab B8000000 		.4byte	0xb8
 5292 12af 04       		.byte	0x4
 5293 12b0 08       		.byte	0x8
 5294 12b1 00       		.byte	0
 5295 12b2 00       		.byte	0
 5296 12b3 00       		.byte	0
 5297 12b4 0F       		.uleb128 0xf
 5298 12b5 29140000 		.4byte	.LASF332
 5299 12b9 04       		.byte	0x4
 5300 12ba 04       		.byte	0x4
 5301 12bb C706     		.2byte	0x6c7
 5302 12bd 32130000 		.4byte	0x1332
 5303 12c1 10       		.uleb128 0x10
 5304 12c2 E0220000 		.4byte	.LASF333
 5305 12c6 04       		.byte	0x4
 5306 12c7 C906     		.2byte	0x6c9
 5307 12c9 B8000000 		.4byte	0xb8
 5308 12cd 04       		.byte	0x4
 5309 12ce 10       		.byte	0x10
 5310 12cf 10       		.byte	0x10
 5311 12d0 00       		.byte	0
 5312 12d1 10       		.uleb128 0x10
 5313 12d2 DA180000 		.4byte	.LASF260
 5314 12d6 04       		.byte	0x4
 5315 12d7 CB06     		.2byte	0x6cb
 5316 12d9 B8000000 		.4byte	0xb8
 5317 12dd 04       		.byte	0x4
 5318 12de 07       		.byte	0x7
 5319 12df 09       		.byte	0x9
 5320 12e0 00       		.byte	0
 5321 12e1 10       		.uleb128 0x10
 5322 12e2 491C0000 		.4byte	.LASF334
 5323 12e6 04       		.byte	0x4
 5324 12e7 CC06     		.2byte	0x6cc
 5325 12e9 B8000000 		.4byte	0xb8
 5326 12ed 04       		.byte	0x4
 5327 12ee 03       		.byte	0x3
 5328 12ef 06       		.byte	0x6
 5329 12f0 00       		.byte	0
 5330 12f1 10       		.uleb128 0x10
 5331 12f2 732A0000 		.4byte	.LASF335
 5332 12f6 04       		.byte	0x4
 5333 12f7 D006     		.2byte	0x6d0
 5334 12f9 B8000000 		.4byte	0xb8
 5335 12fd 04       		.byte	0x4
 5336 12fe 01       		.byte	0x1
 5337 12ff 05       		.byte	0x5
 5338 1300 00       		.byte	0
 5339 1301 10       		.uleb128 0x10
 5340 1302 1B070000 		.4byte	.LASF336
 5341 1306 04       		.byte	0x4
 5342 1307 D106     		.2byte	0x6d1
ARM GAS  e:\temp\ccdoSeHU.s 			page 121


 5343 1309 B8000000 		.4byte	0xb8
 5344 130d 04       		.byte	0x4
 5345 130e 03       		.byte	0x3
 5346 130f 02       		.byte	0x2
 5347 1310 00       		.byte	0
 5348 1311 10       		.uleb128 0x10
 5349 1312 242C0000 		.4byte	.LASF337
 5350 1316 04       		.byte	0x4
 5351 1317 D206     		.2byte	0x6d2
 5352 1319 B8000000 		.4byte	0xb8
 5353 131d 04       		.byte	0x4
 5354 131e 01       		.byte	0x1
 5355 131f 01       		.byte	0x1
 5356 1320 00       		.byte	0
 5357 1321 10       		.uleb128 0x10
 5358 1322 62130000 		.4byte	.LASF338
 5359 1326 04       		.byte	0x4
 5360 1327 D306     		.2byte	0x6d3
 5361 1329 B8000000 		.4byte	0xb8
 5362 132d 04       		.byte	0x4
 5363 132e 01       		.byte	0x1
 5364 132f 00       		.byte	0
 5365 1330 00       		.byte	0
 5366 1331 00       		.byte	0
 5367 1332 0F       		.uleb128 0xf
 5368 1333 B9240000 		.4byte	.LASF339
 5369 1337 04       		.byte	0x4
 5370 1338 04       		.byte	0x4
 5371 1339 D606     		.2byte	0x6d6
 5372 133b 50130000 		.4byte	0x1350
 5373 133f 10       		.uleb128 0x10
 5374 1340 F72B0000 		.4byte	.LASF340
 5375 1344 04       		.byte	0x4
 5376 1345 D806     		.2byte	0x6d8
 5377 1347 B8000000 		.4byte	0xb8
 5378 134b 04       		.byte	0x4
 5379 134c 20       		.byte	0x20
 5380 134d 00       		.byte	0
 5381 134e 00       		.byte	0
 5382 134f 00       		.byte	0
 5383 1350 0F       		.uleb128 0xf
 5384 1351 B9230000 		.4byte	.LASF341
 5385 1355 04       		.byte	0x4
 5386 1356 04       		.byte	0x4
 5387 1357 DB06     		.2byte	0x6db
 5388 1359 7E130000 		.4byte	0x137e
 5389 135d 10       		.uleb128 0x10
 5390 135e C9080000 		.4byte	.LASF342
 5391 1362 04       		.byte	0x4
 5392 1363 DD06     		.2byte	0x6dd
 5393 1365 B8000000 		.4byte	0xb8
 5394 1369 04       		.byte	0x4
 5395 136a 10       		.byte	0x10
 5396 136b 10       		.byte	0x10
 5397 136c 00       		.byte	0
 5398 136d 10       		.uleb128 0x10
 5399 136e 5C0A0000 		.4byte	.LASF343
ARM GAS  e:\temp\ccdoSeHU.s 			page 122


 5400 1372 04       		.byte	0x4
 5401 1373 DE06     		.2byte	0x6de
 5402 1375 B8000000 		.4byte	0xb8
 5403 1379 04       		.byte	0x4
 5404 137a 10       		.byte	0x10
 5405 137b 00       		.byte	0
 5406 137c 00       		.byte	0
 5407 137d 00       		.byte	0
 5408 137e 0F       		.uleb128 0xf
 5409 137f 29150000 		.4byte	.LASF344
 5410 1383 04       		.byte	0x4
 5411 1384 04       		.byte	0x4
 5412 1385 E106     		.2byte	0x6e1
 5413 1387 7C140000 		.4byte	0x147c
 5414 138b 10       		.uleb128 0x10
 5415 138c CB130000 		.4byte	.LASF345
 5416 1390 04       		.byte	0x4
 5417 1391 E306     		.2byte	0x6e3
 5418 1393 B8000000 		.4byte	0xb8
 5419 1397 04       		.byte	0x4
 5420 1398 03       		.byte	0x3
 5421 1399 1D       		.byte	0x1d
 5422 139a 00       		.byte	0
 5423 139b 10       		.uleb128 0x10
 5424 139c EE270000 		.4byte	.LASF346
 5425 13a0 04       		.byte	0x4
 5426 13a1 E406     		.2byte	0x6e4
 5427 13a3 B8000000 		.4byte	0xb8
 5428 13a7 04       		.byte	0x4
 5429 13a8 01       		.byte	0x1
 5430 13a9 1C       		.byte	0x1c
 5431 13aa 00       		.byte	0
 5432 13ab 10       		.uleb128 0x10
 5433 13ac F1000000 		.4byte	.LASF347
 5434 13b0 04       		.byte	0x4
 5435 13b1 E506     		.2byte	0x6e5
 5436 13b3 B8000000 		.4byte	0xb8
 5437 13b7 04       		.byte	0x4
 5438 13b8 01       		.byte	0x1
 5439 13b9 1B       		.byte	0x1b
 5440 13ba 00       		.byte	0
 5441 13bb 10       		.uleb128 0x10
 5442 13bc A8170000 		.4byte	.LASF348
 5443 13c0 04       		.byte	0x4
 5444 13c1 E606     		.2byte	0x6e6
 5445 13c3 B8000000 		.4byte	0xb8
 5446 13c7 04       		.byte	0x4
 5447 13c8 02       		.byte	0x2
 5448 13c9 19       		.byte	0x19
 5449 13ca 00       		.byte	0
 5450 13cb 10       		.uleb128 0x10
 5451 13cc 94220000 		.4byte	.LASF349
 5452 13d0 04       		.byte	0x4
 5453 13d1 E706     		.2byte	0x6e7
 5454 13d3 B8000000 		.4byte	0xb8
 5455 13d7 04       		.byte	0x4
 5456 13d8 01       		.byte	0x1
ARM GAS  e:\temp\ccdoSeHU.s 			page 123


 5457 13d9 18       		.byte	0x18
 5458 13da 00       		.byte	0
 5459 13db 10       		.uleb128 0x10
 5460 13dc 8E220000 		.4byte	.LASF350
 5461 13e0 04       		.byte	0x4
 5462 13e1 E806     		.2byte	0x6e8
 5463 13e3 B8000000 		.4byte	0xb8
 5464 13e7 04       		.byte	0x4
 5465 13e8 01       		.byte	0x1
 5466 13e9 17       		.byte	0x17
 5467 13ea 00       		.byte	0
 5468 13eb 10       		.uleb128 0x10
 5469 13ec B42B0000 		.4byte	.LASF351
 5470 13f0 04       		.byte	0x4
 5471 13f1 E906     		.2byte	0x6e9
 5472 13f3 B8000000 		.4byte	0xb8
 5473 13f7 04       		.byte	0x4
 5474 13f8 01       		.byte	0x1
 5475 13f9 16       		.byte	0x16
 5476 13fa 00       		.byte	0
 5477 13fb 10       		.uleb128 0x10
 5478 13fc AE2B0000 		.4byte	.LASF352
 5479 1400 04       		.byte	0x4
 5480 1401 EA06     		.2byte	0x6ea
 5481 1403 B8000000 		.4byte	0xb8
 5482 1407 04       		.byte	0x4
 5483 1408 01       		.byte	0x1
 5484 1409 15       		.byte	0x15
 5485 140a 00       		.byte	0
 5486 140b 10       		.uleb128 0x10
 5487 140c 1F020000 		.4byte	.LASF353
 5488 1410 04       		.byte	0x4
 5489 1411 EB06     		.2byte	0x6eb
 5490 1413 B8000000 		.4byte	0xb8
 5491 1417 04       		.byte	0x4
 5492 1418 02       		.byte	0x2
 5493 1419 13       		.byte	0x13
 5494 141a 00       		.byte	0
 5495 141b 10       		.uleb128 0x10
 5496 141c 1B1F0000 		.4byte	.LASF354
 5497 1420 04       		.byte	0x4
 5498 1421 EC06     		.2byte	0x6ec
 5499 1423 B8000000 		.4byte	0xb8
 5500 1427 04       		.byte	0x4
 5501 1428 04       		.byte	0x4
 5502 1429 0F       		.byte	0xf
 5503 142a 00       		.byte	0
 5504 142b 10       		.uleb128 0x10
 5505 142c 3A010000 		.4byte	.LASF355
 5506 1430 04       		.byte	0x4
 5507 1431 ED06     		.2byte	0x6ed
 5508 1433 B8000000 		.4byte	0xb8
 5509 1437 04       		.byte	0x4
 5510 1438 01       		.byte	0x1
 5511 1439 0E       		.byte	0xe
 5512 143a 00       		.byte	0
 5513 143b 10       		.uleb128 0x10
ARM GAS  e:\temp\ccdoSeHU.s 			page 124


 5514 143c 362B0000 		.4byte	.LASF356
 5515 1440 04       		.byte	0x4
 5516 1441 EE06     		.2byte	0x6ee
 5517 1443 B8000000 		.4byte	0xb8
 5518 1447 04       		.byte	0x4
 5519 1448 02       		.byte	0x2
 5520 1449 0C       		.byte	0xc
 5521 144a 00       		.byte	0
 5522 144b 10       		.uleb128 0x10
 5523 144c DA180000 		.4byte	.LASF260
 5524 1450 04       		.byte	0x4
 5525 1451 EF06     		.2byte	0x6ef
 5526 1453 B8000000 		.4byte	0xb8
 5527 1457 04       		.byte	0x4
 5528 1458 04       		.byte	0x4
 5529 1459 08       		.byte	0x8
 5530 145a 00       		.byte	0
 5531 145b 10       		.uleb128 0x10
 5532 145c 12120000 		.4byte	.LASF357
 5533 1460 04       		.byte	0x4
 5534 1461 F006     		.2byte	0x6f0
 5535 1463 B8000000 		.4byte	0xb8
 5536 1467 04       		.byte	0x4
 5537 1468 04       		.byte	0x4
 5538 1469 04       		.byte	0x4
 5539 146a 00       		.byte	0
 5540 146b 10       		.uleb128 0x10
 5541 146c C1100000 		.4byte	.LASF358
 5542 1470 04       		.byte	0x4
 5543 1471 F106     		.2byte	0x6f1
 5544 1473 B8000000 		.4byte	0xb8
 5545 1477 04       		.byte	0x4
 5546 1478 04       		.byte	0x4
 5547 1479 00       		.byte	0
 5548 147a 00       		.byte	0
 5549 147b 00       		.byte	0
 5550 147c 0F       		.uleb128 0xf
 5551 147d ED200000 		.4byte	.LASF359
 5552 1481 04       		.byte	0x4
 5553 1482 04       		.byte	0x4
 5554 1483 F406     		.2byte	0x6f4
 5555 1485 5A150000 		.4byte	0x155a
 5556 1489 10       		.uleb128 0x10
 5557 148a CB130000 		.4byte	.LASF345
 5558 148e 04       		.byte	0x4
 5559 148f F606     		.2byte	0x6f6
 5560 1491 B8000000 		.4byte	0xb8
 5561 1495 04       		.byte	0x4
 5562 1496 03       		.byte	0x3
 5563 1497 1D       		.byte	0x1d
 5564 1498 00       		.byte	0
 5565 1499 10       		.uleb128 0x10
 5566 149a DA180000 		.4byte	.LASF260
 5567 149e 04       		.byte	0x4
 5568 149f F706     		.2byte	0x6f7
 5569 14a1 B8000000 		.4byte	0xb8
 5570 14a5 04       		.byte	0x4
ARM GAS  e:\temp\ccdoSeHU.s 			page 125


 5571 14a6 02       		.byte	0x2
 5572 14a7 1B       		.byte	0x1b
 5573 14a8 00       		.byte	0
 5574 14a9 10       		.uleb128 0x10
 5575 14aa A8170000 		.4byte	.LASF348
 5576 14ae 04       		.byte	0x4
 5577 14af F806     		.2byte	0x6f8
 5578 14b1 B8000000 		.4byte	0xb8
 5579 14b5 04       		.byte	0x4
 5580 14b6 02       		.byte	0x2
 5581 14b7 19       		.byte	0x19
 5582 14b8 00       		.byte	0
 5583 14b9 10       		.uleb128 0x10
 5584 14ba E0180000 		.4byte	.LASF268
 5585 14be 04       		.byte	0x4
 5586 14bf F906     		.2byte	0x6f9
 5587 14c1 B8000000 		.4byte	0xb8
 5588 14c5 04       		.byte	0x4
 5589 14c6 02       		.byte	0x2
 5590 14c7 17       		.byte	0x17
 5591 14c8 00       		.byte	0
 5592 14c9 10       		.uleb128 0x10
 5593 14ca 89020000 		.4byte	.LASF360
 5594 14ce 04       		.byte	0x4
 5595 14cf FA06     		.2byte	0x6fa
 5596 14d1 B8000000 		.4byte	0xb8
 5597 14d5 04       		.byte	0x4
 5598 14d6 02       		.byte	0x2
 5599 14d7 15       		.byte	0x15
 5600 14d8 00       		.byte	0
 5601 14d9 10       		.uleb128 0x10
 5602 14da 1F020000 		.4byte	.LASF353
 5603 14de 04       		.byte	0x4
 5604 14df FB06     		.2byte	0x6fb
 5605 14e1 B8000000 		.4byte	0xb8
 5606 14e5 04       		.byte	0x4
 5607 14e6 02       		.byte	0x2
 5608 14e7 13       		.byte	0x13
 5609 14e8 00       		.byte	0
 5610 14e9 10       		.uleb128 0x10
 5611 14ea 1B1F0000 		.4byte	.LASF354
 5612 14ee 04       		.byte	0x4
 5613 14ef FC06     		.2byte	0x6fc
 5614 14f1 B8000000 		.4byte	0xb8
 5615 14f5 04       		.byte	0x4
 5616 14f6 04       		.byte	0x4
 5617 14f7 0F       		.byte	0xf
 5618 14f8 00       		.byte	0
 5619 14f9 10       		.uleb128 0x10
 5620 14fa 3A010000 		.4byte	.LASF355
 5621 14fe 04       		.byte	0x4
 5622 14ff FD06     		.2byte	0x6fd
 5623 1501 B8000000 		.4byte	0xb8
 5624 1505 04       		.byte	0x4
 5625 1506 01       		.byte	0x1
 5626 1507 0E       		.byte	0xe
 5627 1508 00       		.byte	0
ARM GAS  e:\temp\ccdoSeHU.s 			page 126


 5628 1509 10       		.uleb128 0x10
 5629 150a 362B0000 		.4byte	.LASF356
 5630 150e 04       		.byte	0x4
 5631 150f FE06     		.2byte	0x6fe
 5632 1511 B8000000 		.4byte	0xb8
 5633 1515 04       		.byte	0x4
 5634 1516 02       		.byte	0x2
 5635 1517 0C       		.byte	0xc
 5636 1518 00       		.byte	0
 5637 1519 10       		.uleb128 0x10
 5638 151a E6180000 		.4byte	.LASF361
 5639 151e 04       		.byte	0x4
 5640 151f FF06     		.2byte	0x6ff
 5641 1521 B8000000 		.4byte	0xb8
 5642 1525 04       		.byte	0x4
 5643 1526 01       		.byte	0x1
 5644 1527 0B       		.byte	0xb
 5645 1528 00       		.byte	0
 5646 1529 10       		.uleb128 0x10
 5647 152a 86060000 		.4byte	.LASF362
 5648 152e 04       		.byte	0x4
 5649 152f 0007     		.2byte	0x700
 5650 1531 B8000000 		.4byte	0xb8
 5651 1535 04       		.byte	0x4
 5652 1536 03       		.byte	0x3
 5653 1537 08       		.byte	0x8
 5654 1538 00       		.byte	0
 5655 1539 10       		.uleb128 0x10
 5656 153a 12120000 		.4byte	.LASF357
 5657 153e 04       		.byte	0x4
 5658 153f 0107     		.2byte	0x701
 5659 1541 B8000000 		.4byte	0xb8
 5660 1545 04       		.byte	0x4
 5661 1546 04       		.byte	0x4
 5662 1547 04       		.byte	0x4
 5663 1548 00       		.byte	0
 5664 1549 10       		.uleb128 0x10
 5665 154a C1100000 		.4byte	.LASF358
 5666 154e 04       		.byte	0x4
 5667 154f 0207     		.2byte	0x702
 5668 1551 B8000000 		.4byte	0xb8
 5669 1555 04       		.byte	0x4
 5670 1556 04       		.byte	0x4
 5671 1557 00       		.byte	0
 5672 1558 00       		.byte	0
 5673 1559 00       		.byte	0
 5674 155a 0F       		.uleb128 0xf
 5675 155b AA200000 		.4byte	.LASF363
 5676 155f 04       		.byte	0x4
 5677 1560 04       		.byte	0x4
 5678 1561 0507     		.2byte	0x705
 5679 1563 48160000 		.4byte	0x1648
 5680 1567 10       		.uleb128 0x10
 5681 1568 CB130000 		.4byte	.LASF345
 5682 156c 04       		.byte	0x4
 5683 156d 0707     		.2byte	0x707
 5684 156f B8000000 		.4byte	0xb8
ARM GAS  e:\temp\ccdoSeHU.s 			page 127


 5685 1573 04       		.byte	0x4
 5686 1574 03       		.byte	0x3
 5687 1575 1D       		.byte	0x1d
 5688 1576 00       		.byte	0
 5689 1577 10       		.uleb128 0x10
 5690 1578 EE270000 		.4byte	.LASF346
 5691 157c 04       		.byte	0x4
 5692 157d 0807     		.2byte	0x708
 5693 157f B8000000 		.4byte	0xb8
 5694 1583 04       		.byte	0x4
 5695 1584 01       		.byte	0x1
 5696 1585 1C       		.byte	0x1c
 5697 1586 00       		.byte	0
 5698 1587 10       		.uleb128 0x10
 5699 1588 F1000000 		.4byte	.LASF347
 5700 158c 04       		.byte	0x4
 5701 158d 0907     		.2byte	0x709
 5702 158f B8000000 		.4byte	0xb8
 5703 1593 04       		.byte	0x4
 5704 1594 01       		.byte	0x1
 5705 1595 1B       		.byte	0x1b
 5706 1596 00       		.byte	0
 5707 1597 10       		.uleb128 0x10
 5708 1598 A8170000 		.4byte	.LASF348
 5709 159c 04       		.byte	0x4
 5710 159d 0A07     		.2byte	0x70a
 5711 159f B8000000 		.4byte	0xb8
 5712 15a3 04       		.byte	0x4
 5713 15a4 02       		.byte	0x2
 5714 15a5 19       		.byte	0x19
 5715 15a6 00       		.byte	0
 5716 15a7 10       		.uleb128 0x10
 5717 15a8 DA180000 		.4byte	.LASF260
 5718 15ac 04       		.byte	0x4
 5719 15ad 0B07     		.2byte	0x70b
 5720 15af B8000000 		.4byte	0xb8
 5721 15b3 04       		.byte	0x4
 5722 15b4 02       		.byte	0x2
 5723 15b5 17       		.byte	0x17
 5724 15b6 00       		.byte	0
 5725 15b7 10       		.uleb128 0x10
 5726 15b8 89020000 		.4byte	.LASF360
 5727 15bc 04       		.byte	0x4
 5728 15bd 0C07     		.2byte	0x70c
 5729 15bf B8000000 		.4byte	0xb8
 5730 15c3 04       		.byte	0x4
 5731 15c4 02       		.byte	0x2
 5732 15c5 15       		.byte	0x15
 5733 15c6 00       		.byte	0
 5734 15c7 10       		.uleb128 0x10
 5735 15c8 1F020000 		.4byte	.LASF353
 5736 15cc 04       		.byte	0x4
 5737 15cd 0D07     		.2byte	0x70d
 5738 15cf B8000000 		.4byte	0xb8
 5739 15d3 04       		.byte	0x4
 5740 15d4 02       		.byte	0x2
 5741 15d5 13       		.byte	0x13
ARM GAS  e:\temp\ccdoSeHU.s 			page 128


 5742 15d6 00       		.byte	0
 5743 15d7 10       		.uleb128 0x10
 5744 15d8 1B1F0000 		.4byte	.LASF354
 5745 15dc 04       		.byte	0x4
 5746 15dd 0E07     		.2byte	0x70e
 5747 15df B8000000 		.4byte	0xb8
 5748 15e3 04       		.byte	0x4
 5749 15e4 04       		.byte	0x4
 5750 15e5 0F       		.byte	0xf
 5751 15e6 00       		.byte	0
 5752 15e7 10       		.uleb128 0x10
 5753 15e8 3A010000 		.4byte	.LASF355
 5754 15ec 04       		.byte	0x4
 5755 15ed 0F07     		.2byte	0x70f
 5756 15ef B8000000 		.4byte	0xb8
 5757 15f3 04       		.byte	0x4
 5758 15f4 01       		.byte	0x1
 5759 15f5 0E       		.byte	0xe
 5760 15f6 00       		.byte	0
 5761 15f7 10       		.uleb128 0x10
 5762 15f8 362B0000 		.4byte	.LASF356
 5763 15fc 04       		.byte	0x4
 5764 15fd 1007     		.2byte	0x710
 5765 15ff B8000000 		.4byte	0xb8
 5766 1603 04       		.byte	0x4
 5767 1604 02       		.byte	0x2
 5768 1605 0C       		.byte	0xc
 5769 1606 00       		.byte	0
 5770 1607 10       		.uleb128 0x10
 5771 1608 E0180000 		.4byte	.LASF268
 5772 160c 04       		.byte	0x4
 5773 160d 1107     		.2byte	0x711
 5774 160f B8000000 		.4byte	0xb8
 5775 1613 04       		.byte	0x4
 5776 1614 01       		.byte	0x1
 5777 1615 0B       		.byte	0xb
 5778 1616 00       		.byte	0
 5779 1617 10       		.uleb128 0x10
 5780 1618 86060000 		.4byte	.LASF362
 5781 161c 04       		.byte	0x4
 5782 161d 1207     		.2byte	0x712
 5783 161f B8000000 		.4byte	0xb8
 5784 1623 04       		.byte	0x4
 5785 1624 03       		.byte	0x3
 5786 1625 08       		.byte	0x8
 5787 1626 00       		.byte	0
 5788 1627 10       		.uleb128 0x10
 5789 1628 12120000 		.4byte	.LASF357
 5790 162c 04       		.byte	0x4
 5791 162d 1307     		.2byte	0x713
 5792 162f B8000000 		.4byte	0xb8
 5793 1633 04       		.byte	0x4
 5794 1634 04       		.byte	0x4
 5795 1635 04       		.byte	0x4
 5796 1636 00       		.byte	0
 5797 1637 10       		.uleb128 0x10
 5798 1638 C1100000 		.4byte	.LASF358
ARM GAS  e:\temp\ccdoSeHU.s 			page 129


 5799 163c 04       		.byte	0x4
 5800 163d 1407     		.2byte	0x714
 5801 163f B8000000 		.4byte	0xb8
 5802 1643 04       		.byte	0x4
 5803 1644 04       		.byte	0x4
 5804 1645 00       		.byte	0
 5805 1646 00       		.byte	0
 5806 1647 00       		.byte	0
 5807 1648 0F       		.uleb128 0xf
 5808 1649 9E200000 		.4byte	.LASF364
 5809 164d 04       		.byte	0x4
 5810 164e 04       		.byte	0x4
 5811 164f 1707     		.2byte	0x717
 5812 1651 06170000 		.4byte	0x1706
 5813 1655 10       		.uleb128 0x10
 5814 1656 CB130000 		.4byte	.LASF345
 5815 165a 04       		.byte	0x4
 5816 165b 1907     		.2byte	0x719
 5817 165d B8000000 		.4byte	0xb8
 5818 1661 04       		.byte	0x4
 5819 1662 03       		.byte	0x3
 5820 1663 1D       		.byte	0x1d
 5821 1664 00       		.byte	0
 5822 1665 10       		.uleb128 0x10
 5823 1666 AD1F0000 		.4byte	.LASF365
 5824 166a 04       		.byte	0x4
 5825 166b 1A07     		.2byte	0x71a
 5826 166d B8000000 		.4byte	0xb8
 5827 1671 04       		.byte	0x4
 5828 1672 01       		.byte	0x1
 5829 1673 1C       		.byte	0x1c
 5830 1674 00       		.byte	0
 5831 1675 10       		.uleb128 0x10
 5832 1676 00000000 		.4byte	.LASF366
 5833 167a 04       		.byte	0x4
 5834 167b 1B07     		.2byte	0x71b
 5835 167d B8000000 		.4byte	0xb8
 5836 1681 04       		.byte	0x4
 5837 1682 01       		.byte	0x1
 5838 1683 1B       		.byte	0x1b
 5839 1684 00       		.byte	0
 5840 1685 10       		.uleb128 0x10
 5841 1686 9D040000 		.4byte	.LASF367
 5842 168a 04       		.byte	0x4
 5843 168b 1C07     		.2byte	0x71c
 5844 168d B8000000 		.4byte	0xb8
 5845 1691 04       		.byte	0x4
 5846 1692 03       		.byte	0x3
 5847 1693 18       		.byte	0x18
 5848 1694 00       		.byte	0
 5849 1695 10       		.uleb128 0x10
 5850 1696 94220000 		.4byte	.LASF349
 5851 169a 04       		.byte	0x4
 5852 169b 1D07     		.2byte	0x71d
 5853 169d B8000000 		.4byte	0xb8
 5854 16a1 04       		.byte	0x4
 5855 16a2 01       		.byte	0x1
ARM GAS  e:\temp\ccdoSeHU.s 			page 130


 5856 16a3 17       		.byte	0x17
 5857 16a4 00       		.byte	0
 5858 16a5 10       		.uleb128 0x10
 5859 16a6 8E220000 		.4byte	.LASF350
 5860 16aa 04       		.byte	0x4
 5861 16ab 1E07     		.2byte	0x71e
 5862 16ad B8000000 		.4byte	0xb8
 5863 16b1 04       		.byte	0x4
 5864 16b2 01       		.byte	0x1
 5865 16b3 16       		.byte	0x16
 5866 16b4 00       		.byte	0
 5867 16b5 10       		.uleb128 0x10
 5868 16b6 B42B0000 		.4byte	.LASF351
 5869 16ba 04       		.byte	0x4
 5870 16bb 1F07     		.2byte	0x71f
 5871 16bd B8000000 		.4byte	0xb8
 5872 16c1 04       		.byte	0x4
 5873 16c2 01       		.byte	0x1
 5874 16c3 15       		.byte	0x15
 5875 16c4 00       		.byte	0
 5876 16c5 10       		.uleb128 0x10
 5877 16c6 AE2B0000 		.4byte	.LASF352
 5878 16ca 04       		.byte	0x4
 5879 16cb 2007     		.2byte	0x720
 5880 16cd B8000000 		.4byte	0xb8
 5881 16d1 04       		.byte	0x4
 5882 16d2 01       		.byte	0x1
 5883 16d3 14       		.byte	0x14
 5884 16d4 00       		.byte	0
 5885 16d5 10       		.uleb128 0x10
 5886 16d6 DA180000 		.4byte	.LASF260
 5887 16da 04       		.byte	0x4
 5888 16db 2107     		.2byte	0x721
 5889 16dd B8000000 		.4byte	0xb8
 5890 16e1 04       		.byte	0x4
 5891 16e2 0C       		.byte	0xc
 5892 16e3 08       		.byte	0x8
 5893 16e4 00       		.byte	0
 5894 16e5 10       		.uleb128 0x10
 5895 16e6 40290000 		.4byte	.LASF368
 5896 16ea 04       		.byte	0x4
 5897 16eb 2207     		.2byte	0x722
 5898 16ed B8000000 		.4byte	0xb8
 5899 16f1 04       		.byte	0x4
 5900 16f2 04       		.byte	0x4
 5901 16f3 04       		.byte	0x4
 5902 16f4 00       		.byte	0
 5903 16f5 10       		.uleb128 0x10
 5904 16f6 18100000 		.4byte	.LASF369
 5905 16fa 04       		.byte	0x4
 5906 16fb 2307     		.2byte	0x723
 5907 16fd B8000000 		.4byte	0xb8
 5908 1701 04       		.byte	0x4
 5909 1702 04       		.byte	0x4
 5910 1703 00       		.byte	0
 5911 1704 00       		.byte	0
 5912 1705 00       		.byte	0
ARM GAS  e:\temp\ccdoSeHU.s 			page 131


 5913 1706 0F       		.uleb128 0xf
 5914 1707 15260000 		.4byte	.LASF370
 5915 170b 04       		.byte	0x4
 5916 170c 04       		.byte	0x4
 5917 170d 2607     		.2byte	0x726
 5918 170f 94170000 		.4byte	0x1794
 5919 1713 10       		.uleb128 0x10
 5920 1714 CB130000 		.4byte	.LASF345
 5921 1718 04       		.byte	0x4
 5922 1719 2807     		.2byte	0x728
 5923 171b B8000000 		.4byte	0xb8
 5924 171f 04       		.byte	0x4
 5925 1720 03       		.byte	0x3
 5926 1721 1D       		.byte	0x1d
 5927 1722 00       		.byte	0
 5928 1723 10       		.uleb128 0x10
 5929 1724 AD1F0000 		.4byte	.LASF365
 5930 1728 04       		.byte	0x4
 5931 1729 2907     		.2byte	0x729
 5932 172b B8000000 		.4byte	0xb8
 5933 172f 04       		.byte	0x4
 5934 1730 01       		.byte	0x1
 5935 1731 1C       		.byte	0x1c
 5936 1732 00       		.byte	0
 5937 1733 10       		.uleb128 0x10
 5938 1734 00000000 		.4byte	.LASF366
 5939 1738 04       		.byte	0x4
 5940 1739 2A07     		.2byte	0x72a
 5941 173b B8000000 		.4byte	0xb8
 5942 173f 04       		.byte	0x4
 5943 1740 01       		.byte	0x1
 5944 1741 1B       		.byte	0x1b
 5945 1742 00       		.byte	0
 5946 1743 10       		.uleb128 0x10
 5947 1744 9D040000 		.4byte	.LASF367
 5948 1748 04       		.byte	0x4
 5949 1749 2B07     		.2byte	0x72b
 5950 174b B8000000 		.4byte	0xb8
 5951 174f 04       		.byte	0x4
 5952 1750 03       		.byte	0x3
 5953 1751 18       		.byte	0x18
 5954 1752 00       		.byte	0
 5955 1753 10       		.uleb128 0x10
 5956 1754 DA180000 		.4byte	.LASF260
 5957 1758 04       		.byte	0x4
 5958 1759 2C07     		.2byte	0x72c
 5959 175b B8000000 		.4byte	0xb8
 5960 175f 04       		.byte	0x4
 5961 1760 0D       		.byte	0xd
 5962 1761 0B       		.byte	0xb
 5963 1762 00       		.byte	0
 5964 1763 10       		.uleb128 0x10
 5965 1764 86060000 		.4byte	.LASF362
 5966 1768 04       		.byte	0x4
 5967 1769 2D07     		.2byte	0x72d
 5968 176b B8000000 		.4byte	0xb8
 5969 176f 04       		.byte	0x4
ARM GAS  e:\temp\ccdoSeHU.s 			page 132


 5970 1770 03       		.byte	0x3
 5971 1771 08       		.byte	0x8
 5972 1772 00       		.byte	0
 5973 1773 10       		.uleb128 0x10
 5974 1774 40290000 		.4byte	.LASF368
 5975 1778 04       		.byte	0x4
 5976 1779 2E07     		.2byte	0x72e
 5977 177b B8000000 		.4byte	0xb8
 5978 177f 04       		.byte	0x4
 5979 1780 04       		.byte	0x4
 5980 1781 04       		.byte	0x4
 5981 1782 00       		.byte	0
 5982 1783 10       		.uleb128 0x10
 5983 1784 18100000 		.4byte	.LASF369
 5984 1788 04       		.byte	0x4
 5985 1789 2F07     		.2byte	0x72f
 5986 178b B8000000 		.4byte	0xb8
 5987 178f 04       		.byte	0x4
 5988 1790 04       		.byte	0x4
 5989 1791 00       		.byte	0
 5990 1792 00       		.byte	0
 5991 1793 00       		.byte	0
 5992 1794 0F       		.uleb128 0xf
 5993 1795 F00C0000 		.4byte	.LASF371
 5994 1799 04       		.byte	0x4
 5995 179a 04       		.byte	0x4
 5996 179b 3207     		.2byte	0x732
 5997 179d C2170000 		.4byte	0x17c2
 5998 17a1 10       		.uleb128 0x10
 5999 17a2 350A0000 		.4byte	.LASF372
 6000 17a6 04       		.byte	0x4
 6001 17a7 3407     		.2byte	0x734
 6002 17a9 B8000000 		.4byte	0xb8
 6003 17ad 04       		.byte	0x4
 6004 17ae 10       		.byte	0x10
 6005 17af 10       		.byte	0x10
 6006 17b0 00       		.byte	0
 6007 17b1 10       		.uleb128 0x10
 6008 17b2 AD050000 		.4byte	.LASF373
 6009 17b6 04       		.byte	0x4
 6010 17b7 3507     		.2byte	0x735
 6011 17b9 B8000000 		.4byte	0xb8
 6012 17bd 04       		.byte	0x4
 6013 17be 10       		.byte	0x10
 6014 17bf 00       		.byte	0
 6015 17c0 00       		.byte	0
 6016 17c1 00       		.byte	0
 6017 17c2 0F       		.uleb128 0xf
 6018 17c3 031D0000 		.4byte	.LASF374
 6019 17c7 04       		.byte	0x4
 6020 17c8 04       		.byte	0x4
 6021 17c9 3807     		.2byte	0x738
 6022 17cb 40180000 		.4byte	0x1840
 6023 17cf 10       		.uleb128 0x10
 6024 17d0 E2080000 		.4byte	.LASF375
 6025 17d4 04       		.byte	0x4
 6026 17d5 3A07     		.2byte	0x73a
ARM GAS  e:\temp\ccdoSeHU.s 			page 133


 6027 17d7 B8000000 		.4byte	0xb8
 6028 17db 04       		.byte	0x4
 6029 17dc 02       		.byte	0x2
 6030 17dd 1E       		.byte	0x1e
 6031 17de 00       		.byte	0
 6032 17df 10       		.uleb128 0x10
 6033 17e0 09040000 		.4byte	.LASF376
 6034 17e4 04       		.byte	0x4
 6035 17e5 3B07     		.2byte	0x73b
 6036 17e7 B8000000 		.4byte	0xb8
 6037 17eb 04       		.byte	0x4
 6038 17ec 04       		.byte	0x4
 6039 17ed 1A       		.byte	0x1a
 6040 17ee 00       		.byte	0
 6041 17ef 10       		.uleb128 0x10
 6042 17f0 402B0000 		.4byte	.LASF377
 6043 17f4 04       		.byte	0x4
 6044 17f5 3C07     		.2byte	0x73c
 6045 17f7 B8000000 		.4byte	0xb8
 6046 17fb 04       		.byte	0x4
 6047 17fc 01       		.byte	0x1
 6048 17fd 19       		.byte	0x19
 6049 17fe 00       		.byte	0
 6050 17ff 10       		.uleb128 0x10
 6051 1800 EE100000 		.4byte	.LASF378
 6052 1804 04       		.byte	0x4
 6053 1805 3D07     		.2byte	0x73d
 6054 1807 B8000000 		.4byte	0xb8
 6055 180b 04       		.byte	0x4
 6056 180c 01       		.byte	0x1
 6057 180d 18       		.byte	0x18
 6058 180e 00       		.byte	0
 6059 180f 10       		.uleb128 0x10
 6060 1810 CA060000 		.4byte	.LASF379
 6061 1814 04       		.byte	0x4
 6062 1815 3E07     		.2byte	0x73e
 6063 1817 B8000000 		.4byte	0xb8
 6064 181b 04       		.byte	0x4
 6065 181c 08       		.byte	0x8
 6066 181d 10       		.byte	0x10
 6067 181e 00       		.byte	0
 6068 181f 10       		.uleb128 0x10
 6069 1820 D30F0000 		.4byte	.LASF380
 6070 1824 04       		.byte	0x4
 6071 1825 3F07     		.2byte	0x73f
 6072 1827 B8000000 		.4byte	0xb8
 6073 182b 04       		.byte	0x4
 6074 182c 08       		.byte	0x8
 6075 182d 08       		.byte	0x8
 6076 182e 00       		.byte	0
 6077 182f 10       		.uleb128 0x10
 6078 1830 6D210000 		.4byte	.LASF381
 6079 1834 04       		.byte	0x4
 6080 1835 4007     		.2byte	0x740
 6081 1837 B8000000 		.4byte	0xb8
 6082 183b 04       		.byte	0x4
 6083 183c 08       		.byte	0x8
ARM GAS  e:\temp\ccdoSeHU.s 			page 134


 6084 183d 00       		.byte	0
 6085 183e 00       		.byte	0
 6086 183f 00       		.byte	0
 6087 1840 0F       		.uleb128 0xf
 6088 1841 871A0000 		.4byte	.LASF382
 6089 1845 04       		.byte	0x4
 6090 1846 04       		.byte	0x4
 6091 1847 4307     		.2byte	0x743
 6092 1849 DD180000 		.4byte	0x18dd
 6093 184d 10       		.uleb128 0x10
 6094 184e 3B040000 		.4byte	.LASF383
 6095 1852 04       		.byte	0x4
 6096 1853 4507     		.2byte	0x745
 6097 1855 B8000000 		.4byte	0xb8
 6098 1859 04       		.byte	0x4
 6099 185a 02       		.byte	0x2
 6100 185b 1E       		.byte	0x1e
 6101 185c 00       		.byte	0
 6102 185d 10       		.uleb128 0x10
 6103 185e 480C0000 		.4byte	.LASF384
 6104 1862 04       		.byte	0x4
 6105 1863 4607     		.2byte	0x746
 6106 1865 B8000000 		.4byte	0xb8
 6107 1869 04       		.byte	0x4
 6108 186a 01       		.byte	0x1
 6109 186b 1D       		.byte	0x1d
 6110 186c 00       		.byte	0
 6111 186d 11       		.uleb128 0x11
 6112 186e 656E00   		.ascii	"en\000"
 6113 1871 04       		.byte	0x4
 6114 1872 4707     		.2byte	0x747
 6115 1874 B8000000 		.4byte	0xb8
 6116 1878 04       		.byte	0x4
 6117 1879 01       		.byte	0x1
 6118 187a 1C       		.byte	0x1c
 6119 187b 00       		.byte	0
 6120 187c 10       		.uleb128 0x10
 6121 187d B10A0000 		.4byte	.LASF385
 6122 1881 04       		.byte	0x4
 6123 1882 4807     		.2byte	0x748
 6124 1884 B8000000 		.4byte	0xb8
 6125 1888 04       		.byte	0x4
 6126 1889 01       		.byte	0x1
 6127 188a 1B       		.byte	0x1b
 6128 188b 00       		.byte	0
 6129 188c 10       		.uleb128 0x10
 6130 188d B1270000 		.4byte	.LASF386
 6131 1891 04       		.byte	0x4
 6132 1892 4907     		.2byte	0x749
 6133 1894 B8000000 		.4byte	0xb8
 6134 1898 04       		.byte	0x4
 6135 1899 01       		.byte	0x1
 6136 189a 1A       		.byte	0x1a
 6137 189b 00       		.byte	0
 6138 189c 10       		.uleb128 0x10
 6139 189d 920F0000 		.4byte	.LASF387
 6140 18a1 04       		.byte	0x4
ARM GAS  e:\temp\ccdoSeHU.s 			page 135


 6141 18a2 4A07     		.2byte	0x74a
 6142 18a4 B8000000 		.4byte	0xb8
 6143 18a8 04       		.byte	0x4
 6144 18a9 01       		.byte	0x1
 6145 18aa 19       		.byte	0x19
 6146 18ab 00       		.byte	0
 6147 18ac 10       		.uleb128 0x10
 6148 18ad 5B2A0000 		.4byte	.LASF388
 6149 18b1 04       		.byte	0x4
 6150 18b2 4B07     		.2byte	0x74b
 6151 18b4 B8000000 		.4byte	0xb8
 6152 18b8 04       		.byte	0x4
 6153 18b9 01       		.byte	0x1
 6154 18ba 18       		.byte	0x18
 6155 18bb 00       		.byte	0
 6156 18bc 10       		.uleb128 0x10
 6157 18bd C2060000 		.4byte	.LASF389
 6158 18c1 04       		.byte	0x4
 6159 18c2 4C07     		.2byte	0x74c
 6160 18c4 B8000000 		.4byte	0xb8
 6161 18c8 04       		.byte	0x4
 6162 18c9 01       		.byte	0x1
 6163 18ca 17       		.byte	0x17
 6164 18cb 00       		.byte	0
 6165 18cc 10       		.uleb128 0x10
 6166 18cd 6D210000 		.4byte	.LASF381
 6167 18d1 04       		.byte	0x4
 6168 18d2 4D07     		.2byte	0x74d
 6169 18d4 B8000000 		.4byte	0xb8
 6170 18d8 04       		.byte	0x4
 6171 18d9 17       		.byte	0x17
 6172 18da 00       		.byte	0
 6173 18db 00       		.byte	0
 6174 18dc 00       		.byte	0
 6175 18dd 0F       		.uleb128 0xf
 6176 18de 3F180000 		.4byte	.LASF390
 6177 18e2 04       		.byte	0x4
 6178 18e3 04       		.byte	0x4
 6179 18e4 5007     		.2byte	0x750
 6180 18e6 4B190000 		.4byte	0x194b
 6181 18ea 10       		.uleb128 0x10
 6182 18eb 111C0000 		.4byte	.LASF391
 6183 18ef 04       		.byte	0x4
 6184 18f0 5207     		.2byte	0x752
 6185 18f2 B8000000 		.4byte	0xb8
 6186 18f6 04       		.byte	0x4
 6187 18f7 02       		.byte	0x2
 6188 18f8 1E       		.byte	0x1e
 6189 18f9 00       		.byte	0
 6190 18fa 10       		.uleb128 0x10
 6191 18fb 7D010000 		.4byte	.LASF392
 6192 18ff 04       		.byte	0x4
 6193 1900 5307     		.2byte	0x753
 6194 1902 B8000000 		.4byte	0xb8
 6195 1906 04       		.byte	0x4
 6196 1907 04       		.byte	0x4
 6197 1908 1A       		.byte	0x1a
ARM GAS  e:\temp\ccdoSeHU.s 			page 136


 6198 1909 00       		.byte	0
 6199 190a 10       		.uleb128 0x10
 6200 190b DA180000 		.4byte	.LASF260
 6201 190f 04       		.byte	0x4
 6202 1910 5407     		.2byte	0x754
 6203 1912 B8000000 		.4byte	0xb8
 6204 1916 04       		.byte	0x4
 6205 1917 02       		.byte	0x2
 6206 1918 18       		.byte	0x18
 6207 1919 00       		.byte	0
 6208 191a 10       		.uleb128 0x10
 6209 191b 850C0000 		.4byte	.LASF393
 6210 191f 04       		.byte	0x4
 6211 1920 5507     		.2byte	0x755
 6212 1922 B8000000 		.4byte	0xb8
 6213 1926 04       		.byte	0x4
 6214 1927 08       		.byte	0x8
 6215 1928 10       		.byte	0x10
 6216 1929 00       		.byte	0
 6217 192a 10       		.uleb128 0x10
 6218 192b 2F110000 		.4byte	.LASF394
 6219 192f 04       		.byte	0x4
 6220 1930 5607     		.2byte	0x756
 6221 1932 B8000000 		.4byte	0xb8
 6222 1936 04       		.byte	0x4
 6223 1937 08       		.byte	0x8
 6224 1938 08       		.byte	0x8
 6225 1939 00       		.byte	0
 6226 193a 10       		.uleb128 0x10
 6227 193b E0180000 		.4byte	.LASF268
 6228 193f 04       		.byte	0x4
 6229 1940 5707     		.2byte	0x757
 6230 1942 B8000000 		.4byte	0xb8
 6231 1946 04       		.byte	0x4
 6232 1947 08       		.byte	0x8
 6233 1948 00       		.byte	0
 6234 1949 00       		.byte	0
 6235 194a 00       		.byte	0
 6236 194b 0F       		.uleb128 0xf
 6237 194c B30C0000 		.4byte	.LASF395
 6238 1950 04       		.byte	0x4
 6239 1951 04       		.byte	0x4
 6240 1952 5B07     		.2byte	0x75b
 6241 1954 E9190000 		.4byte	0x19e9
 6242 1958 10       		.uleb128 0x10
 6243 1959 902B0000 		.4byte	.LASF396
 6244 195d 04       		.byte	0x4
 6245 195e 5D07     		.2byte	0x75d
 6246 1960 B8000000 		.4byte	0xb8
 6247 1964 04       		.byte	0x4
 6248 1965 07       		.byte	0x7
 6249 1966 19       		.byte	0x19
 6250 1967 00       		.byte	0
 6251 1968 10       		.uleb128 0x10
 6252 1969 DA180000 		.4byte	.LASF260
 6253 196d 04       		.byte	0x4
 6254 196e 5E07     		.2byte	0x75e
ARM GAS  e:\temp\ccdoSeHU.s 			page 137


 6255 1970 B8000000 		.4byte	0xb8
 6256 1974 04       		.byte	0x4
 6257 1975 01       		.byte	0x1
 6258 1976 18       		.byte	0x18
 6259 1977 00       		.byte	0
 6260 1978 10       		.uleb128 0x10
 6261 1979 94250000 		.4byte	.LASF397
 6262 197d 04       		.byte	0x4
 6263 197e 5F07     		.2byte	0x75f
 6264 1980 B8000000 		.4byte	0xb8
 6265 1984 04       		.byte	0x4
 6266 1985 08       		.byte	0x8
 6267 1986 10       		.byte	0x10
 6268 1987 00       		.byte	0
 6269 1988 10       		.uleb128 0x10
 6270 1989 E0180000 		.4byte	.LASF268
 6271 198d 04       		.byte	0x4
 6272 198e 6007     		.2byte	0x760
 6273 1990 B8000000 		.4byte	0xb8
 6274 1994 04       		.byte	0x4
 6275 1995 01       		.byte	0x1
 6276 1996 0F       		.byte	0xf
 6277 1997 00       		.byte	0
 6278 1998 10       		.uleb128 0x10
 6279 1999 1A270000 		.4byte	.LASF398
 6280 199d 04       		.byte	0x4
 6281 199e 6107     		.2byte	0x761
 6282 19a0 B8000000 		.4byte	0xb8
 6283 19a4 04       		.byte	0x4
 6284 19a5 08       		.byte	0x8
 6285 19a6 07       		.byte	0x7
 6286 19a7 00       		.byte	0
 6287 19a8 10       		.uleb128 0x10
 6288 19a9 E6180000 		.4byte	.LASF361
 6289 19ad 04       		.byte	0x4
 6290 19ae 6207     		.2byte	0x762
 6291 19b0 B8000000 		.4byte	0xb8
 6292 19b4 04       		.byte	0x4
 6293 19b5 02       		.byte	0x2
 6294 19b6 05       		.byte	0x5
 6295 19b7 00       		.byte	0
 6296 19b8 10       		.uleb128 0x10
 6297 19b9 98260000 		.4byte	.LASF399
 6298 19bd 04       		.byte	0x4
 6299 19be 6307     		.2byte	0x763
 6300 19c0 B8000000 		.4byte	0xb8
 6301 19c4 04       		.byte	0x4
 6302 19c5 01       		.byte	0x1
 6303 19c6 04       		.byte	0x4
 6304 19c7 00       		.byte	0
 6305 19c8 10       		.uleb128 0x10
 6306 19c9 25260000 		.4byte	.LASF400
 6307 19cd 04       		.byte	0x4
 6308 19ce 6407     		.2byte	0x764
 6309 19d0 B8000000 		.4byte	0xb8
 6310 19d4 04       		.byte	0x4
 6311 19d5 02       		.byte	0x2
ARM GAS  e:\temp\ccdoSeHU.s 			page 138


 6312 19d6 02       		.byte	0x2
 6313 19d7 00       		.byte	0
 6314 19d8 10       		.uleb128 0x10
 6315 19d9 6A240000 		.4byte	.LASF281
 6316 19dd 04       		.byte	0x4
 6317 19de 6507     		.2byte	0x765
 6318 19e0 B8000000 		.4byte	0xb8
 6319 19e4 04       		.byte	0x4
 6320 19e5 02       		.byte	0x2
 6321 19e6 00       		.byte	0
 6322 19e7 00       		.byte	0
 6323 19e8 00       		.byte	0
 6324 19e9 0F       		.uleb128 0xf
 6325 19ea 9A090000 		.4byte	.LASF401
 6326 19ee 04       		.byte	0x4
 6327 19ef 04       		.byte	0x4
 6328 19f0 6807     		.2byte	0x768
 6329 19f2 971A0000 		.4byte	0x1a97
 6330 19f6 10       		.uleb128 0x10
 6331 19f7 F40E0000 		.4byte	.LASF402
 6332 19fb 04       		.byte	0x4
 6333 19fc 6A07     		.2byte	0x76a
 6334 19fe B8000000 		.4byte	0xb8
 6335 1a02 04       		.byte	0x4
 6336 1a03 07       		.byte	0x7
 6337 1a04 19       		.byte	0x19
 6338 1a05 00       		.byte	0
 6339 1a06 10       		.uleb128 0x10
 6340 1a07 DA180000 		.4byte	.LASF260
 6341 1a0b 04       		.byte	0x4
 6342 1a0c 6B07     		.2byte	0x76b
 6343 1a0e B8000000 		.4byte	0xb8
 6344 1a12 04       		.byte	0x4
 6345 1a13 01       		.byte	0x1
 6346 1a14 18       		.byte	0x18
 6347 1a15 00       		.byte	0
 6348 1a16 10       		.uleb128 0x10
 6349 1a17 94250000 		.4byte	.LASF397
 6350 1a1b 04       		.byte	0x4
 6351 1a1c 6C07     		.2byte	0x76c
 6352 1a1e B8000000 		.4byte	0xb8
 6353 1a22 04       		.byte	0x4
 6354 1a23 08       		.byte	0x8
 6355 1a24 10       		.byte	0x10
 6356 1a25 00       		.byte	0
 6357 1a26 10       		.uleb128 0x10
 6358 1a27 E0180000 		.4byte	.LASF268
 6359 1a2b 04       		.byte	0x4
 6360 1a2c 6D07     		.2byte	0x76d
 6361 1a2e B8000000 		.4byte	0xb8
 6362 1a32 04       		.byte	0x4
 6363 1a33 01       		.byte	0x1
 6364 1a34 0F       		.byte	0xf
 6365 1a35 00       		.byte	0
 6366 1a36 10       		.uleb128 0x10
 6367 1a37 1A270000 		.4byte	.LASF398
 6368 1a3b 04       		.byte	0x4
ARM GAS  e:\temp\ccdoSeHU.s 			page 139


 6369 1a3c 6E07     		.2byte	0x76e
 6370 1a3e B8000000 		.4byte	0xb8
 6371 1a42 04       		.byte	0x4
 6372 1a43 08       		.byte	0x8
 6373 1a44 07       		.byte	0x7
 6374 1a45 00       		.byte	0
 6375 1a46 10       		.uleb128 0x10
 6376 1a47 E6180000 		.4byte	.LASF361
 6377 1a4b 04       		.byte	0x4
 6378 1a4c 6F07     		.2byte	0x76f
 6379 1a4e B8000000 		.4byte	0xb8
 6380 1a52 04       		.byte	0x4
 6381 1a53 01       		.byte	0x1
 6382 1a54 06       		.byte	0x6
 6383 1a55 00       		.byte	0
 6384 1a56 10       		.uleb128 0x10
 6385 1a57 41240000 		.4byte	.LASF403
 6386 1a5b 04       		.byte	0x4
 6387 1a5c 7007     		.2byte	0x770
 6388 1a5e B8000000 		.4byte	0xb8
 6389 1a62 04       		.byte	0x4
 6390 1a63 01       		.byte	0x1
 6391 1a64 05       		.byte	0x5
 6392 1a65 00       		.byte	0
 6393 1a66 10       		.uleb128 0x10
 6394 1a67 EC180000 		.4byte	.LASF404
 6395 1a6b 04       		.byte	0x4
 6396 1a6c 7107     		.2byte	0x771
 6397 1a6e B8000000 		.4byte	0xb8
 6398 1a72 04       		.byte	0x4
 6399 1a73 01       		.byte	0x1
 6400 1a74 04       		.byte	0x4
 6401 1a75 00       		.byte	0
 6402 1a76 10       		.uleb128 0x10
 6403 1a77 25260000 		.4byte	.LASF400
 6404 1a7b 04       		.byte	0x4
 6405 1a7c 7207     		.2byte	0x772
 6406 1a7e B8000000 		.4byte	0xb8
 6407 1a82 04       		.byte	0x4
 6408 1a83 02       		.byte	0x2
 6409 1a84 02       		.byte	0x2
 6410 1a85 00       		.byte	0
 6411 1a86 10       		.uleb128 0x10
 6412 1a87 6A240000 		.4byte	.LASF281
 6413 1a8b 04       		.byte	0x4
 6414 1a8c 7307     		.2byte	0x773
 6415 1a8e B8000000 		.4byte	0xb8
 6416 1a92 04       		.byte	0x4
 6417 1a93 02       		.byte	0x2
 6418 1a94 00       		.byte	0
 6419 1a95 00       		.byte	0
 6420 1a96 00       		.byte	0
 6421 1a97 0F       		.uleb128 0xf
 6422 1a98 46190000 		.4byte	.LASF405
 6423 1a9c 04       		.byte	0x4
 6424 1a9d 04       		.byte	0x4
 6425 1a9e 7607     		.2byte	0x776
ARM GAS  e:\temp\ccdoSeHU.s 			page 140


 6426 1aa0 551B0000 		.4byte	0x1b55
 6427 1aa4 10       		.uleb128 0x10
 6428 1aa5 F40E0000 		.4byte	.LASF402
 6429 1aa9 04       		.byte	0x4
 6430 1aaa 7807     		.2byte	0x778
 6431 1aac B8000000 		.4byte	0xb8
 6432 1ab0 04       		.byte	0x4
 6433 1ab1 07       		.byte	0x7
 6434 1ab2 19       		.byte	0x19
 6435 1ab3 00       		.byte	0
 6436 1ab4 10       		.uleb128 0x10
 6437 1ab5 DA180000 		.4byte	.LASF260
 6438 1ab9 04       		.byte	0x4
 6439 1aba 7907     		.2byte	0x779
 6440 1abc B8000000 		.4byte	0xb8
 6441 1ac0 04       		.byte	0x4
 6442 1ac1 02       		.byte	0x2
 6443 1ac2 17       		.byte	0x17
 6444 1ac3 00       		.byte	0
 6445 1ac4 10       		.uleb128 0x10
 6446 1ac5 AA0C0000 		.4byte	.LASF406
 6447 1ac9 04       		.byte	0x4
 6448 1aca 7A07     		.2byte	0x77a
 6449 1acc B8000000 		.4byte	0xb8
 6450 1ad0 04       		.byte	0x4
 6451 1ad1 0B       		.byte	0xb
 6452 1ad2 0C       		.byte	0xc
 6453 1ad3 00       		.byte	0
 6454 1ad4 10       		.uleb128 0x10
 6455 1ad5 E0180000 		.4byte	.LASF268
 6456 1ad9 04       		.byte	0x4
 6457 1ada 7B07     		.2byte	0x77b
 6458 1adc B8000000 		.4byte	0xb8
 6459 1ae0 04       		.byte	0x4
 6460 1ae1 03       		.byte	0x3
 6461 1ae2 09       		.byte	0x9
 6462 1ae3 00       		.byte	0
 6463 1ae4 10       		.uleb128 0x10
 6464 1ae5 92060000 		.4byte	.LASF275
 6465 1ae9 04       		.byte	0x4
 6466 1aea 7C07     		.2byte	0x77c
 6467 1aec B8000000 		.4byte	0xb8
 6468 1af0 04       		.byte	0x4
 6469 1af1 01       		.byte	0x1
 6470 1af2 08       		.byte	0x8
 6471 1af3 00       		.byte	0
 6472 1af4 10       		.uleb128 0x10
 6473 1af5 C9250000 		.4byte	.LASF300
 6474 1af9 04       		.byte	0x4
 6475 1afa 7D07     		.2byte	0x77d
 6476 1afc B8000000 		.4byte	0xb8
 6477 1b00 04       		.byte	0x4
 6478 1b01 01       		.byte	0x1
 6479 1b02 07       		.byte	0x7
 6480 1b03 00       		.byte	0
 6481 1b04 10       		.uleb128 0x10
 6482 1b05 91050000 		.4byte	.LASF277
ARM GAS  e:\temp\ccdoSeHU.s 			page 141


 6483 1b09 04       		.byte	0x4
 6484 1b0a 7E07     		.2byte	0x77e
 6485 1b0c B8000000 		.4byte	0xb8
 6486 1b10 04       		.byte	0x4
 6487 1b11 01       		.byte	0x1
 6488 1b12 06       		.byte	0x6
 6489 1b13 00       		.byte	0
 6490 1b14 10       		.uleb128 0x10
 6491 1b15 AC230000 		.4byte	.LASF301
 6492 1b19 04       		.byte	0x4
 6493 1b1a 7F07     		.2byte	0x77f
 6494 1b1c B8000000 		.4byte	0xb8
 6495 1b20 04       		.byte	0x4
 6496 1b21 01       		.byte	0x1
 6497 1b22 05       		.byte	0x5
 6498 1b23 00       		.byte	0
 6499 1b24 10       		.uleb128 0x10
 6500 1b25 E6180000 		.4byte	.LASF361
 6501 1b29 04       		.byte	0x4
 6502 1b2a 8007     		.2byte	0x780
 6503 1b2c B8000000 		.4byte	0xb8
 6504 1b30 04       		.byte	0x4
 6505 1b31 01       		.byte	0x1
 6506 1b32 04       		.byte	0x4
 6507 1b33 00       		.byte	0
 6508 1b34 10       		.uleb128 0x10
 6509 1b35 D51B0000 		.4byte	.LASF303
 6510 1b39 04       		.byte	0x4
 6511 1b3a 8107     		.2byte	0x781
 6512 1b3c B8000000 		.4byte	0xb8
 6513 1b40 04       		.byte	0x4
 6514 1b41 03       		.byte	0x3
 6515 1b42 01       		.byte	0x1
 6516 1b43 00       		.byte	0
 6517 1b44 10       		.uleb128 0x10
 6518 1b45 6B100000 		.4byte	.LASF304
 6519 1b49 04       		.byte	0x4
 6520 1b4a 8207     		.2byte	0x782
 6521 1b4c B8000000 		.4byte	0xb8
 6522 1b50 04       		.byte	0x4
 6523 1b51 01       		.byte	0x1
 6524 1b52 00       		.byte	0
 6525 1b53 00       		.byte	0
 6526 1b54 00       		.byte	0
 6527 1b55 0F       		.uleb128 0xf
 6528 1b56 56150000 		.4byte	.LASF407
 6529 1b5a 04       		.byte	0x4
 6530 1b5b 04       		.byte	0x4
 6531 1b5c 8507     		.2byte	0x785
 6532 1b5e 031C0000 		.4byte	0x1c03
 6533 1b62 10       		.uleb128 0x10
 6534 1b63 DA180000 		.4byte	.LASF260
 6535 1b67 04       		.byte	0x4
 6536 1b68 8707     		.2byte	0x787
 6537 1b6a B8000000 		.4byte	0xb8
 6538 1b6e 04       		.byte	0x4
 6539 1b6f 10       		.byte	0x10
ARM GAS  e:\temp\ccdoSeHU.s 			page 142


 6540 1b70 10       		.byte	0x10
 6541 1b71 00       		.byte	0
 6542 1b72 10       		.uleb128 0x10
 6543 1b73 6B110000 		.4byte	.LASF408
 6544 1b77 04       		.byte	0x4
 6545 1b78 8807     		.2byte	0x788
 6546 1b7a B8000000 		.4byte	0xb8
 6547 1b7e 04       		.byte	0x4
 6548 1b7f 04       		.byte	0x4
 6549 1b80 0C       		.byte	0xc
 6550 1b81 00       		.byte	0
 6551 1b82 10       		.uleb128 0x10
 6552 1b83 2C1E0000 		.4byte	.LASF409
 6553 1b87 04       		.byte	0x4
 6554 1b88 8907     		.2byte	0x789
 6555 1b8a B8000000 		.4byte	0xb8
 6556 1b8e 04       		.byte	0x4
 6557 1b8f 04       		.byte	0x4
 6558 1b90 08       		.byte	0x8
 6559 1b91 00       		.byte	0
 6560 1b92 10       		.uleb128 0x10
 6561 1b93 E0180000 		.4byte	.LASF268
 6562 1b97 04       		.byte	0x4
 6563 1b98 8A07     		.2byte	0x78a
 6564 1b9a B8000000 		.4byte	0xb8
 6565 1b9e 04       		.byte	0x4
 6566 1b9f 01       		.byte	0x1
 6567 1ba0 07       		.byte	0x7
 6568 1ba1 00       		.byte	0
 6569 1ba2 10       		.uleb128 0x10
 6570 1ba3 D1120000 		.4byte	.LASF410
 6571 1ba7 04       		.byte	0x4
 6572 1ba8 8B07     		.2byte	0x78b
 6573 1baa B8000000 		.4byte	0xb8
 6574 1bae 04       		.byte	0x4
 6575 1baf 01       		.byte	0x1
 6576 1bb0 06       		.byte	0x6
 6577 1bb1 00       		.byte	0
 6578 1bb2 11       		.uleb128 0x11
 6579 1bb3 6F637000 		.ascii	"ocp\000"
 6580 1bb7 04       		.byte	0x4
 6581 1bb8 8C07     		.2byte	0x78c
 6582 1bba B8000000 		.4byte	0xb8
 6583 1bbe 04       		.byte	0x4
 6584 1bbf 01       		.byte	0x1
 6585 1bc0 05       		.byte	0x5
 6586 1bc1 00       		.byte	0
 6587 1bc2 11       		.uleb128 0x11
 6588 1bc3 6F747000 		.ascii	"otp\000"
 6589 1bc7 04       		.byte	0x4
 6590 1bc8 8D07     		.2byte	0x78d
 6591 1bca B8000000 		.4byte	0xb8
 6592 1bce 04       		.byte	0x4
 6593 1bcf 01       		.byte	0x1
 6594 1bd0 04       		.byte	0x4
 6595 1bd1 00       		.byte	0
 6596 1bd2 10       		.uleb128 0x10
ARM GAS  e:\temp\ccdoSeHU.s 			page 143


 6597 1bd3 9E1F0000 		.4byte	.LASF411
 6598 1bd7 04       		.byte	0x4
 6599 1bd8 8E07     		.2byte	0x78e
 6600 1bda B8000000 		.4byte	0xb8
 6601 1bde 04       		.byte	0x4
 6602 1bdf 01       		.byte	0x1
 6603 1be0 03       		.byte	0x3
 6604 1be1 00       		.byte	0
 6605 1be2 10       		.uleb128 0x10
 6606 1be3 5B1E0000 		.4byte	.LASF412
 6607 1be7 04       		.byte	0x4
 6608 1be8 8F07     		.2byte	0x78f
 6609 1bea B8000000 		.4byte	0xb8
 6610 1bee 04       		.byte	0x4
 6611 1bef 01       		.byte	0x1
 6612 1bf0 02       		.byte	0x2
 6613 1bf1 00       		.byte	0
 6614 1bf2 11       		.uleb128 0x11
 6615 1bf3 6F767000 		.ascii	"ovp\000"
 6616 1bf7 04       		.byte	0x4
 6617 1bf8 9007     		.2byte	0x790
 6618 1bfa B8000000 		.4byte	0xb8
 6619 1bfe 04       		.byte	0x4
 6620 1bff 01       		.byte	0x1
 6621 1c00 01       		.byte	0x1
 6622 1c01 00       		.byte	0
 6623 1c02 00       		.byte	0
 6624 1c03 0F       		.uleb128 0xf
 6625 1c04 AF290000 		.4byte	.LASF413
 6626 1c08 04       		.byte	0x4
 6627 1c09 04       		.byte	0x4
 6628 1c0a 9307     		.2byte	0x793
 6629 1c0c 911C0000 		.4byte	0x1c91
 6630 1c10 10       		.uleb128 0x10
 6631 1c11 A70D0000 		.4byte	.LASF414
 6632 1c15 04       		.byte	0x4
 6633 1c16 9507     		.2byte	0x795
 6634 1c18 B8000000 		.4byte	0xb8
 6635 1c1c 04       		.byte	0x4
 6636 1c1d 10       		.byte	0x10
 6637 1c1e 10       		.byte	0x10
 6638 1c1f 00       		.byte	0
 6639 1c20 10       		.uleb128 0x10
 6640 1c21 DE040000 		.4byte	.LASF415
 6641 1c25 04       		.byte	0x4
 6642 1c26 9607     		.2byte	0x796
 6643 1c28 B8000000 		.4byte	0xb8
 6644 1c2c 04       		.byte	0x4
 6645 1c2d 03       		.byte	0x3
 6646 1c2e 0D       		.byte	0xd
 6647 1c2f 00       		.byte	0
 6648 1c30 10       		.uleb128 0x10
 6649 1c31 7C090000 		.4byte	.LASF416
 6650 1c35 04       		.byte	0x4
 6651 1c36 9707     		.2byte	0x797
 6652 1c38 B8000000 		.4byte	0xb8
 6653 1c3c 04       		.byte	0x4
ARM GAS  e:\temp\ccdoSeHU.s 			page 144


 6654 1c3d 02       		.byte	0x2
 6655 1c3e 0B       		.byte	0xb
 6656 1c3f 00       		.byte	0
 6657 1c40 10       		.uleb128 0x10
 6658 1c41 82290000 		.4byte	.LASF417
 6659 1c45 04       		.byte	0x4
 6660 1c46 9807     		.2byte	0x798
 6661 1c48 B8000000 		.4byte	0xb8
 6662 1c4c 04       		.byte	0x4
 6663 1c4d 01       		.byte	0x1
 6664 1c4e 0A       		.byte	0xa
 6665 1c4f 00       		.byte	0
 6666 1c50 11       		.uleb128 0x11
 6667 1c51 63626C00 		.ascii	"cbl\000"
 6668 1c55 04       		.byte	0x4
 6669 1c56 9907     		.2byte	0x799
 6670 1c58 B8000000 		.4byte	0xb8
 6671 1c5c 04       		.byte	0x4
 6672 1c5d 01       		.byte	0x1
 6673 1c5e 09       		.byte	0x9
 6674 1c5f 00       		.byte	0
 6675 1c60 10       		.uleb128 0x10
 6676 1c61 DC170000 		.4byte	.LASF418
 6677 1c65 04       		.byte	0x4
 6678 1c66 9A07     		.2byte	0x79a
 6679 1c68 B8000000 		.4byte	0xb8
 6680 1c6c 04       		.byte	0x4
 6681 1c6d 01       		.byte	0x1
 6682 1c6e 08       		.byte	0x8
 6683 1c6f 00       		.byte	0
 6684 1c70 10       		.uleb128 0x10
 6685 1c71 EC1D0000 		.4byte	.LASF419
 6686 1c75 04       		.byte	0x4
 6687 1c76 9B07     		.2byte	0x79b
 6688 1c78 B8000000 		.4byte	0xb8
 6689 1c7c 04       		.byte	0x4
 6690 1c7d 01       		.byte	0x1
 6691 1c7e 07       		.byte	0x7
 6692 1c7f 00       		.byte	0
 6693 1c80 10       		.uleb128 0x10
 6694 1c81 6D210000 		.4byte	.LASF381
 6695 1c85 04       		.byte	0x4
 6696 1c86 9C07     		.2byte	0x79c
 6697 1c88 B8000000 		.4byte	0xb8
 6698 1c8c 04       		.byte	0x4
 6699 1c8d 07       		.byte	0x7
 6700 1c8e 00       		.byte	0
 6701 1c8f 00       		.byte	0
 6702 1c90 00       		.byte	0
 6703 1c91 0F       		.uleb128 0xf
 6704 1c92 D6220000 		.4byte	.LASF420
 6705 1c96 04       		.byte	0x4
 6706 1c97 04       		.byte	0x4
 6707 1c98 9F07     		.2byte	0x79f
 6708 1c9a CF1C0000 		.4byte	0x1ccf
 6709 1c9e 10       		.uleb128 0x10
 6710 1c9f 84210000 		.4byte	.LASF421
ARM GAS  e:\temp\ccdoSeHU.s 			page 145


 6711 1ca3 04       		.byte	0x4
 6712 1ca4 A107     		.2byte	0x7a1
 6713 1ca6 B8000000 		.4byte	0xb8
 6714 1caa 04       		.byte	0x4
 6715 1cab 10       		.byte	0x10
 6716 1cac 10       		.byte	0x10
 6717 1cad 00       		.byte	0
 6718 1cae 10       		.uleb128 0x10
 6719 1caf 82130000 		.4byte	.LASF422
 6720 1cb3 04       		.byte	0x4
 6721 1cb4 A207     		.2byte	0x7a2
 6722 1cb6 B8000000 		.4byte	0xb8
 6723 1cba 04       		.byte	0x4
 6724 1cbb 02       		.byte	0x2
 6725 1cbc 0E       		.byte	0xe
 6726 1cbd 00       		.byte	0
 6727 1cbe 10       		.uleb128 0x10
 6728 1cbf 6D210000 		.4byte	.LASF381
 6729 1cc3 04       		.byte	0x4
 6730 1cc4 A307     		.2byte	0x7a3
 6731 1cc6 B8000000 		.4byte	0xb8
 6732 1cca 04       		.byte	0x4
 6733 1ccb 0E       		.byte	0xe
 6734 1ccc 00       		.byte	0
 6735 1ccd 00       		.byte	0
 6736 1cce 00       		.byte	0
 6737 1ccf 0F       		.uleb128 0xf
 6738 1cd0 B71E0000 		.4byte	.LASF423
 6739 1cd4 04       		.byte	0x4
 6740 1cd5 04       		.byte	0x4
 6741 1cd6 A607     		.2byte	0x7a6
 6742 1cd8 1D1D0000 		.4byte	0x1d1d
 6743 1cdc 10       		.uleb128 0x10
 6744 1cdd A0170000 		.4byte	.LASF424
 6745 1ce1 04       		.byte	0x4
 6746 1ce2 A807     		.2byte	0x7a8
 6747 1ce4 B8000000 		.4byte	0xb8
 6748 1ce8 04       		.byte	0x4
 6749 1ce9 14       		.byte	0x14
 6750 1cea 0C       		.byte	0xc
 6751 1ceb 00       		.byte	0
 6752 1cec 10       		.uleb128 0x10
 6753 1ced E8220000 		.4byte	.LASF425
 6754 1cf1 04       		.byte	0x4
 6755 1cf2 A907     		.2byte	0x7a9
 6756 1cf4 B8000000 		.4byte	0xb8
 6757 1cf8 04       		.byte	0x4
 6758 1cf9 03       		.byte	0x3
 6759 1cfa 09       		.byte	0x9
 6760 1cfb 00       		.byte	0
 6761 1cfc 10       		.uleb128 0x10
 6762 1cfd 222B0000 		.4byte	.LASF426
 6763 1d01 04       		.byte	0x4
 6764 1d02 AA07     		.2byte	0x7aa
 6765 1d04 B8000000 		.4byte	0xb8
 6766 1d08 04       		.byte	0x4
 6767 1d09 01       		.byte	0x1
ARM GAS  e:\temp\ccdoSeHU.s 			page 146


 6768 1d0a 08       		.byte	0x8
 6769 1d0b 00       		.byte	0
 6770 1d0c 10       		.uleb128 0x10
 6771 1d0d F5100000 		.4byte	.LASF427
 6772 1d11 04       		.byte	0x4
 6773 1d12 AB07     		.2byte	0x7ab
 6774 1d14 B8000000 		.4byte	0xb8
 6775 1d18 04       		.byte	0x4
 6776 1d19 08       		.byte	0x8
 6777 1d1a 00       		.byte	0
 6778 1d1b 00       		.byte	0
 6779 1d1c 00       		.byte	0
 6780 1d1d 12       		.uleb128 0x12
 6781 1d1e 04       		.byte	0x4
 6782 1d1f 04       		.byte	0x4
 6783 1d20 FB05     		.2byte	0x5fb
 6784 1d22 EF1E0000 		.4byte	0x1eef
 6785 1d26 0C       		.uleb128 0xc
 6786 1d27 76616C00 		.ascii	"val\000"
 6787 1d2b 04       		.byte	0x4
 6788 1d2c FE05     		.2byte	0x5fe
 6789 1d2e B8000000 		.4byte	0xb8
 6790 1d32 0B       		.uleb128 0xb
 6791 1d33 2C0E0000 		.4byte	.LASF428
 6792 1d37 04       		.byte	0x4
 6793 1d38 0506     		.2byte	0x605
 6794 1d3a C8090000 		.4byte	0x9c8
 6795 1d3e 0B       		.uleb128 0xb
 6796 1d3f 5E200000 		.4byte	.LASF429
 6797 1d43 04       		.byte	0x4
 6798 1d44 1406     		.2byte	0x614
 6799 1d46 060A0000 		.4byte	0xa06
 6800 1d4a 0B       		.uleb128 0xb
 6801 1d4b C9290000 		.4byte	.LASF430
 6802 1d4f 04       		.byte	0x4
 6803 1d50 1C06     		.2byte	0x61c
 6804 1d52 C40A0000 		.4byte	0xac4
 6805 1d56 0B       		.uleb128 0xb
 6806 1d57 C1250000 		.4byte	.LASF431
 6807 1d5b 04       		.byte	0x4
 6808 1d5c 2406     		.2byte	0x624
 6809 1d5e 120B0000 		.4byte	0xb12
 6810 1d62 0B       		.uleb128 0xb
 6811 1d63 B9100000 		.4byte	.LASF432
 6812 1d67 04       		.byte	0x4
 6813 1d68 2C06     		.2byte	0x62c
 6814 1d6a 600B0000 		.4byte	0xb60
 6815 1d6e 0B       		.uleb128 0xb
 6816 1d6f D01D0000 		.4byte	.LASF433
 6817 1d73 04       		.byte	0x4
 6818 1d74 3A06     		.2byte	0x63a
 6819 1d76 AE0B0000 		.4byte	0xbae
 6820 1d7a 0B       		.uleb128 0xb
 6821 1d7b 78020000 		.4byte	.LASF434
 6822 1d7f 04       		.byte	0x4
 6823 1d80 4206     		.2byte	0x642
 6824 1d82 5C0C0000 		.4byte	0xc5c
ARM GAS  e:\temp\ccdoSeHU.s 			page 147


 6825 1d86 0B       		.uleb128 0xb
 6826 1d87 23270000 		.4byte	.LASF435
 6827 1d8b 04       		.byte	0x4
 6828 1d8c 4A06     		.2byte	0x64a
 6829 1d8e AA0C0000 		.4byte	0xcaa
 6830 1d92 0B       		.uleb128 0xb
 6831 1d93 1D150000 		.4byte	.LASF436
 6832 1d97 04       		.byte	0x4
 6833 1d98 5806     		.2byte	0x658
 6834 1d9a F80C0000 		.4byte	0xcf8
 6835 1d9e 0B       		.uleb128 0xb
 6836 1d9f 5E020000 		.4byte	.LASF437
 6837 1da3 04       		.byte	0x4
 6838 1da4 6606     		.2byte	0x666
 6839 1da6 A60D0000 		.4byte	0xda6
 6840 1daa 0B       		.uleb128 0xb
 6841 1dab 6C090000 		.4byte	.LASF438
 6842 1daf 04       		.byte	0x4
 6843 1db0 7406     		.2byte	0x674
 6844 1db2 540E0000 		.4byte	0xe54
 6845 1db6 0B       		.uleb128 0xb
 6846 1db7 0B020000 		.4byte	.LASF439
 6847 1dbb 04       		.byte	0x4
 6848 1dbc 8206     		.2byte	0x682
 6849 1dbe 020F0000 		.4byte	0xf02
 6850 1dc2 0B       		.uleb128 0xb
 6851 1dc3 E5200000 		.4byte	.LASF440
 6852 1dc7 04       		.byte	0x4
 6853 1dc8 9006     		.2byte	0x690
 6854 1dca B00F0000 		.4byte	0xfb0
 6855 1dce 0B       		.uleb128 0xb
 6856 1dcf C91B0000 		.4byte	.LASF441
 6857 1dd3 04       		.byte	0x4
 6858 1dd4 9E06     		.2byte	0x69e
 6859 1dd6 5E100000 		.4byte	0x105e
 6860 1dda 0B       		.uleb128 0xb
 6861 1ddb 791B0000 		.4byte	.LASF442
 6862 1ddf 04       		.byte	0x4
 6863 1de0 AA06     		.2byte	0x6aa
 6864 1de2 0C110000 		.4byte	0x110c
 6865 1de6 0B       		.uleb128 0xb
 6866 1de7 6A0C0000 		.4byte	.LASF443
 6867 1deb 04       		.byte	0x4
 6868 1dec B506     		.2byte	0x6b5
 6869 1dee 9A110000 		.4byte	0x119a
 6870 1df2 0B       		.uleb128 0xb
 6871 1df3 400E0000 		.4byte	.LASF444
 6872 1df7 04       		.byte	0x4
 6873 1df8 BD06     		.2byte	0x6bd
 6874 1dfa 18120000 		.4byte	0x1218
 6875 1dfe 0B       		.uleb128 0xb
 6876 1dff C01A0000 		.4byte	.LASF445
 6877 1e03 04       		.byte	0x4
 6878 1e04 C506     		.2byte	0x6c5
 6879 1e06 66120000 		.4byte	0x1266
 6880 1e0a 0B       		.uleb128 0xb
 6881 1e0b 06270000 		.4byte	.LASF446
ARM GAS  e:\temp\ccdoSeHU.s 			page 148


 6882 1e0f 04       		.byte	0x4
 6883 1e10 D406     		.2byte	0x6d4
 6884 1e12 B4120000 		.4byte	0x12b4
 6885 1e16 0B       		.uleb128 0xb
 6886 1e17 441F0000 		.4byte	.LASF447
 6887 1e1b 04       		.byte	0x4
 6888 1e1c D906     		.2byte	0x6d9
 6889 1e1e 32130000 		.4byte	0x1332
 6890 1e22 0B       		.uleb128 0xb
 6891 1e23 CF0A0000 		.4byte	.LASF448
 6892 1e27 04       		.byte	0x4
 6893 1e28 DF06     		.2byte	0x6df
 6894 1e2a 50130000 		.4byte	0x1350
 6895 1e2e 0B       		.uleb128 0xb
 6896 1e2f F9200000 		.4byte	.LASF449
 6897 1e33 04       		.byte	0x4
 6898 1e34 F206     		.2byte	0x6f2
 6899 1e36 7E130000 		.4byte	0x137e
 6900 1e3a 0B       		.uleb128 0xb
 6901 1e3b 60250000 		.4byte	.LASF450
 6902 1e3f 04       		.byte	0x4
 6903 1e40 0307     		.2byte	0x703
 6904 1e42 7C140000 		.4byte	0x147c
 6905 1e46 0B       		.uleb128 0xb
 6906 1e47 82010000 		.4byte	.LASF451
 6907 1e4b 04       		.byte	0x4
 6908 1e4c 1507     		.2byte	0x715
 6909 1e4e 5A150000 		.4byte	0x155a
 6910 1e52 0B       		.uleb128 0xb
 6911 1e53 71010000 		.4byte	.LASF452
 6912 1e57 04       		.byte	0x4
 6913 1e58 2407     		.2byte	0x724
 6914 1e5a 48160000 		.4byte	0x1648
 6915 1e5e 0B       		.uleb128 0xb
 6916 1e5f 73170000 		.4byte	.LASF453
 6917 1e63 04       		.byte	0x4
 6918 1e64 3007     		.2byte	0x730
 6919 1e66 06170000 		.4byte	0x1706
 6920 1e6a 0B       		.uleb128 0xb
 6921 1e6b EA130000 		.4byte	.LASF454
 6922 1e6f 04       		.byte	0x4
 6923 1e70 3607     		.2byte	0x736
 6924 1e72 94170000 		.4byte	0x1794
 6925 1e76 0B       		.uleb128 0xb
 6926 1e77 1D1D0000 		.4byte	.LASF455
 6927 1e7b 04       		.byte	0x4
 6928 1e7c 4107     		.2byte	0x741
 6929 1e7e C2170000 		.4byte	0x17c2
 6930 1e82 0B       		.uleb128 0xb
 6931 1e83 5E240000 		.4byte	.LASF456
 6932 1e87 04       		.byte	0x4
 6933 1e88 4E07     		.2byte	0x74e
 6934 1e8a 40180000 		.4byte	0x1840
 6935 1e8e 0B       		.uleb128 0xb
 6936 1e8f 9F0C0000 		.4byte	.LASF457
 6937 1e93 04       		.byte	0x4
 6938 1e94 5807     		.2byte	0x758
ARM GAS  e:\temp\ccdoSeHU.s 			page 149


 6939 1e96 DD180000 		.4byte	0x18dd
 6940 1e9a 0B       		.uleb128 0xb
 6941 1e9b B1170000 		.4byte	.LASF458
 6942 1e9f 04       		.byte	0x4
 6943 1ea0 6607     		.2byte	0x766
 6944 1ea2 4B190000 		.4byte	0x194b
 6945 1ea6 0B       		.uleb128 0xb
 6946 1ea7 60150000 		.4byte	.LASF459
 6947 1eab 04       		.byte	0x4
 6948 1eac 7407     		.2byte	0x774
 6949 1eae E9190000 		.4byte	0x19e9
 6950 1eb2 0B       		.uleb128 0xb
 6951 1eb3 CB0C0000 		.4byte	.LASF460
 6952 1eb7 04       		.byte	0x4
 6953 1eb8 8307     		.2byte	0x783
 6954 1eba 971A0000 		.4byte	0x1a97
 6955 1ebe 0B       		.uleb128 0xb
 6956 1ebf 4E140000 		.4byte	.LASF461
 6957 1ec3 04       		.byte	0x4
 6958 1ec4 9107     		.2byte	0x791
 6959 1ec6 551B0000 		.4byte	0x1b55
 6960 1eca 0B       		.uleb128 0xb
 6961 1ecb 74090000 		.4byte	.LASF462
 6962 1ecf 04       		.byte	0x4
 6963 1ed0 9D07     		.2byte	0x79d
 6964 1ed2 031C0000 		.4byte	0x1c03
 6965 1ed6 0B       		.uleb128 0xb
 6966 1ed7 A81B0000 		.4byte	.LASF463
 6967 1edb 04       		.byte	0x4
 6968 1edc A407     		.2byte	0x7a4
 6969 1ede 911C0000 		.4byte	0x1c91
 6970 1ee2 0B       		.uleb128 0xb
 6971 1ee3 3E280000 		.4byte	.LASF464
 6972 1ee7 04       		.byte	0x4
 6973 1ee8 AC07     		.2byte	0x7ac
 6974 1eea CF1C0000 		.4byte	0x1ccf
 6975 1eee 00       		.byte	0
 6976 1eef 08       		.uleb128 0x8
 6977 1ef0 6F120000 		.4byte	.LASF465
 6978 1ef4 04       		.byte	0x4
 6979 1ef5 AF07     		.2byte	0x7af
 6980 1ef7 1D1D0000 		.4byte	0x1d1d
 6981 1efb 13       		.uleb128 0x13
 6982 1efc 08       		.byte	0x8
 6983 1efd 04       		.byte	0x4
 6984 1efe B507     		.2byte	0x7b5
 6985 1f00 531F0000 		.4byte	0x1f53
 6986 1f04 14       		.uleb128 0x14
 6987 1f05 C0120000 		.4byte	.LASF466
 6988 1f09 04       		.byte	0x4
 6989 1f0a B707     		.2byte	0x7b7
 6990 1f0c A2000000 		.4byte	0xa2
 6991 1f10 00       		.byte	0
 6992 1f11 14       		.uleb128 0x14
 6993 1f12 EB020000 		.4byte	.LASF467
 6994 1f16 04       		.byte	0x4
 6995 1f17 B807     		.2byte	0x7b8
ARM GAS  e:\temp\ccdoSeHU.s 			page 150


 6996 1f19 A2000000 		.4byte	0xa2
 6997 1f1d 01       		.byte	0x1
 6998 1f1e 14       		.uleb128 0x14
 6999 1f1f CA190000 		.4byte	.LASF468
 7000 1f23 04       		.byte	0x4
 7001 1f24 B907     		.2byte	0x7b9
 7002 1f26 A2000000 		.4byte	0xa2
 7003 1f2a 02       		.byte	0x2
 7004 1f2b 14       		.uleb128 0x14
 7005 1f2c 65010000 		.4byte	.LASF469
 7006 1f30 04       		.byte	0x4
 7007 1f31 BA07     		.2byte	0x7ba
 7008 1f33 A2000000 		.4byte	0xa2
 7009 1f37 03       		.byte	0x3
 7010 1f38 14       		.uleb128 0x14
 7011 1f39 06240000 		.4byte	.LASF470
 7012 1f3d 04       		.byte	0x4
 7013 1f3e BB07     		.2byte	0x7bb
 7014 1f40 A2000000 		.4byte	0xa2
 7015 1f44 04       		.byte	0x4
 7016 1f45 14       		.uleb128 0x14
 7017 1f46 112B0000 		.4byte	.LASF471
 7018 1f4a 04       		.byte	0x4
 7019 1f4b BC07     		.2byte	0x7bc
 7020 1f4d 531F0000 		.4byte	0x1f53
 7021 1f51 05       		.byte	0x5
 7022 1f52 00       		.byte	0
 7023 1f53 0D       		.uleb128 0xd
 7024 1f54 A2000000 		.4byte	0xa2
 7025 1f58 631F0000 		.4byte	0x1f63
 7026 1f5c 0E       		.uleb128 0xe
 7027 1f5d DF000000 		.4byte	0xdf
 7028 1f61 02       		.byte	0x2
 7029 1f62 00       		.byte	0
 7030 1f63 08       		.uleb128 0x8
 7031 1f64 0E030000 		.4byte	.LASF472
 7032 1f68 04       		.byte	0x4
 7033 1f69 BD07     		.2byte	0x7bd
 7034 1f6b FB1E0000 		.4byte	0x1efb
 7035 1f6f 0D       		.uleb128 0xd
 7036 1f70 AD000000 		.4byte	0xad
 7037 1f74 7F1F0000 		.4byte	0x1f7f
 7038 1f78 0E       		.uleb128 0xe
 7039 1f79 DF000000 		.4byte	0xdf
 7040 1f7d 03       		.byte	0x3
 7041 1f7e 00       		.byte	0
 7042 1f7f 05       		.uleb128 0x5
 7043 1f80 A2000000 		.4byte	0xa2
 7044 1f84 0D       		.uleb128 0xd
 7045 1f85 AD000000 		.4byte	0xad
 7046 1f89 941F0000 		.4byte	0x1f94
 7047 1f8d 0E       		.uleb128 0xe
 7048 1f8e DF000000 		.4byte	0xdf
 7049 1f92 04       		.byte	0x4
 7050 1f93 00       		.byte	0
 7051 1f94 0D       		.uleb128 0xd
 7052 1f95 AD000000 		.4byte	0xad
ARM GAS  e:\temp\ccdoSeHU.s 			page 151


 7053 1f99 A41F0000 		.4byte	0x1fa4
 7054 1f9d 0E       		.uleb128 0xe
 7055 1f9e DF000000 		.4byte	0xdf
 7056 1fa2 06       		.byte	0x6
 7057 1fa3 00       		.byte	0
 7058 1fa4 0D       		.uleb128 0xd
 7059 1fa5 A2000000 		.4byte	0xa2
 7060 1fa9 B41F0000 		.4byte	0x1fb4
 7061 1fad 0E       		.uleb128 0xe
 7062 1fae DF000000 		.4byte	0xdf
 7063 1fb2 03       		.byte	0x3
 7064 1fb3 00       		.byte	0
 7065 1fb4 13       		.uleb128 0x13
 7066 1fb5 08       		.byte	0x8
 7067 1fb6 04       		.byte	0x4
 7068 1fb7 6609     		.2byte	0x966
 7069 1fb9 D81F0000 		.4byte	0x1fd8
 7070 1fbd 14       		.uleb128 0x14
 7071 1fbe 48240000 		.4byte	.LASF473
 7072 1fc2 04       		.byte	0x4
 7073 1fc3 6809     		.2byte	0x968
 7074 1fc5 EF1E0000 		.4byte	0x1eef
 7075 1fc9 00       		.byte	0
 7076 1fca 14       		.uleb128 0x14
 7077 1fcb 4D180000 		.4byte	.LASF474
 7078 1fcf 04       		.byte	0x4
 7079 1fd0 6909     		.2byte	0x969
 7080 1fd2 59020000 		.4byte	0x259
 7081 1fd6 04       		.byte	0x4
 7082 1fd7 00       		.byte	0
 7083 1fd8 08       		.uleb128 0x8
 7084 1fd9 41030000 		.4byte	.LASF475
 7085 1fdd 04       		.byte	0x4
 7086 1fde 6A09     		.2byte	0x96a
 7087 1fe0 B41F0000 		.4byte	0x1fb4
 7088 1fe4 13       		.uleb128 0x13
 7089 1fe5 20       		.byte	0x20
 7090 1fe6 04       		.byte	0x4
 7091 1fe7 6F09     		.2byte	0x96f
 7092 1fe9 15200000 		.4byte	0x2015
 7093 1fed 14       		.uleb128 0x14
 7094 1fee F9020000 		.4byte	.LASF476
 7095 1ff2 04       		.byte	0x4
 7096 1ff3 7109     		.2byte	0x971
 7097 1ff5 15200000 		.4byte	0x2015
 7098 1ff9 00       		.byte	0
 7099 1ffa 14       		.uleb128 0x14
 7100 1ffb 02020000 		.4byte	.LASF477
 7101 1fff 04       		.byte	0x4
 7102 2000 7209     		.2byte	0x972
 7103 2002 A2000000 		.4byte	0xa2
 7104 2006 1C       		.byte	0x1c
 7105 2007 14       		.uleb128 0x14
 7106 2008 431E0000 		.4byte	.LASF478
 7107 200c 04       		.byte	0x4
 7108 200d 7309     		.2byte	0x973
 7109 200f F7070000 		.4byte	0x7f7
ARM GAS  e:\temp\ccdoSeHU.s 			page 152


 7110 2013 1D       		.byte	0x1d
 7111 2014 00       		.byte	0
 7112 2015 0D       		.uleb128 0xd
 7113 2016 EF1E0000 		.4byte	0x1eef
 7114 201a 25200000 		.4byte	0x2025
 7115 201e 0E       		.uleb128 0xe
 7116 201f DF000000 		.4byte	0xdf
 7117 2023 06       		.byte	0x6
 7118 2024 00       		.byte	0
 7119 2025 08       		.uleb128 0x8
 7120 2026 6C250000 		.4byte	.LASF479
 7121 202a 04       		.byte	0x4
 7122 202b 7409     		.2byte	0x974
 7123 202d E41F0000 		.4byte	0x1fe4
 7124 2031 13       		.uleb128 0x13
 7125 2032 2C       		.byte	0x2c
 7126 2033 04       		.byte	0x4
 7127 2034 7C09     		.2byte	0x97c
 7128 2036 96200000 		.4byte	0x2096
 7129 203a 14       		.uleb128 0x14
 7130 203b 38080000 		.4byte	.LASF480
 7131 203f 04       		.byte	0x4
 7132 2040 7E09     		.2byte	0x97e
 7133 2042 C9010000 		.4byte	0x1c9
 7134 2046 00       		.byte	0
 7135 2047 14       		.uleb128 0x14
 7136 2048 CB210000 		.4byte	.LASF481
 7137 204c 04       		.byte	0x4
 7138 204d 7F09     		.2byte	0x97f
 7139 204f 7F010000 		.4byte	0x17f
 7140 2053 01       		.byte	0x1
 7141 2054 14       		.uleb128 0x14
 7142 2055 89270000 		.4byte	.LASF482
 7143 2059 04       		.byte	0x4
 7144 205a 8009     		.2byte	0x980
 7145 205c BC090000 		.4byte	0x9bc
 7146 2060 02       		.byte	0x2
 7147 2061 14       		.uleb128 0x14
 7148 2062 381A0000 		.4byte	.LASF483
 7149 2066 04       		.byte	0x4
 7150 2067 8109     		.2byte	0x981
 7151 2069 A2000000 		.4byte	0xa2
 7152 206d 04       		.byte	0x4
 7153 206e 14       		.uleb128 0x14
 7154 206f 4E150000 		.4byte	.LASF484
 7155 2073 04       		.byte	0x4
 7156 2074 8209     		.2byte	0x982
 7157 2076 96200000 		.4byte	0x2096
 7158 207a 08       		.byte	0x8
 7159 207b 14       		.uleb128 0x14
 7160 207c 340D0000 		.4byte	.LASF485
 7161 2080 04       		.byte	0x4
 7162 2081 8309     		.2byte	0x983
 7163 2083 A2000000 		.4byte	0xa2
 7164 2087 0C       		.byte	0xc
 7165 2088 14       		.uleb128 0x14
 7166 2089 BB030000 		.4byte	.LASF486
ARM GAS  e:\temp\ccdoSeHU.s 			page 153


 7167 208d 04       		.byte	0x4
 7168 208e 8709     		.2byte	0x987
 7169 2090 15200000 		.4byte	0x2015
 7170 2094 10       		.byte	0x10
 7171 2095 00       		.byte	0
 7172 2096 15       		.uleb128 0x15
 7173 2097 04       		.byte	0x4
 7174 2098 A2000000 		.4byte	0xa2
 7175 209c 08       		.uleb128 0x8
 7176 209d 77250000 		.4byte	.LASF487
 7177 20a1 04       		.byte	0x4
 7178 20a2 8809     		.2byte	0x988
 7179 20a4 31200000 		.4byte	0x2031
 7180 20a8 13       		.uleb128 0x13
 7181 20a9 06       		.byte	0x6
 7182 20aa 04       		.byte	0x4
 7183 20ab 8D09     		.2byte	0x98d
 7184 20ad D9200000 		.4byte	0x20d9
 7185 20b1 14       		.uleb128 0x14
 7186 20b2 311B0000 		.4byte	.LASF488
 7187 20b6 04       		.byte	0x4
 7188 20b7 8F09     		.2byte	0x98f
 7189 20b9 AD000000 		.4byte	0xad
 7190 20bd 00       		.byte	0
 7191 20be 14       		.uleb128 0x14
 7192 20bf 1A270000 		.4byte	.LASF398
 7193 20c3 04       		.byte	0x4
 7194 20c4 9009     		.2byte	0x990
 7195 20c6 AD000000 		.4byte	0xad
 7196 20ca 02       		.byte	0x2
 7197 20cb 14       		.uleb128 0x14
 7198 20cc 94250000 		.4byte	.LASF397
 7199 20d0 04       		.byte	0x4
 7200 20d1 9109     		.2byte	0x991
 7201 20d3 AD000000 		.4byte	0xad
 7202 20d7 04       		.byte	0x4
 7203 20d8 00       		.byte	0
 7204 20d9 08       		.uleb128 0x8
 7205 20da 711F0000 		.4byte	.LASF489
 7206 20de 04       		.byte	0x4
 7207 20df 9209     		.2byte	0x992
 7208 20e1 A8200000 		.4byte	0x20a8
 7209 20e5 13       		.uleb128 0x13
 7210 20e6 24       		.byte	0x24
 7211 20e7 04       		.byte	0x4
 7212 20e8 A109     		.2byte	0x9a1
 7213 20ea 3D210000 		.4byte	0x213d
 7214 20ee 16       		.uleb128 0x16
 7215 20ef 736F7000 		.ascii	"sop\000"
 7216 20f3 04       		.byte	0x4
 7217 20f4 A309     		.2byte	0x9a3
 7218 20f6 A2000000 		.4byte	0xa2
 7219 20fa 00       		.byte	0
 7220 20fb 16       		.uleb128 0x16
 7221 20fc 6C656E00 		.ascii	"len\000"
 7222 2100 04       		.byte	0x4
 7223 2101 A409     		.2byte	0x9a4
ARM GAS  e:\temp\ccdoSeHU.s 			page 154


 7224 2103 A2000000 		.4byte	0xa2
 7225 2107 01       		.byte	0x1
 7226 2108 16       		.uleb128 0x16
 7227 2109 6D736700 		.ascii	"msg\000"
 7228 210d 04       		.byte	0x4
 7229 210e A509     		.2byte	0x9a5
 7230 2110 A2000000 		.4byte	0xa2
 7231 2114 02       		.byte	0x2
 7232 2115 14       		.uleb128 0x14
 7233 2116 BA2B0000 		.4byte	.LASF254
 7234 211a 04       		.byte	0x4
 7235 211b A609     		.2byte	0x9a6
 7236 211d A2000000 		.4byte	0xa2
 7237 2121 03       		.byte	0x3
 7238 2122 16       		.uleb128 0x16
 7239 2123 68647200 		.ascii	"hdr\000"
 7240 2127 04       		.byte	0x4
 7241 2128 A709     		.2byte	0x9a7
 7242 212a 34090000 		.4byte	0x934
 7243 212e 04       		.byte	0x4
 7244 212f 16       		.uleb128 0x16
 7245 2130 64617400 		.ascii	"dat\000"
 7246 2134 04       		.byte	0x4
 7247 2135 A809     		.2byte	0x9a8
 7248 2137 15200000 		.4byte	0x2015
 7249 213b 08       		.byte	0x8
 7250 213c 00       		.byte	0
 7251 213d 08       		.uleb128 0x8
 7252 213e D0030000 		.4byte	.LASF490
 7253 2142 04       		.byte	0x4
 7254 2143 A909     		.2byte	0x9a9
 7255 2145 E5200000 		.4byte	0x20e5
 7256 2149 08       		.uleb128 0x8
 7257 214a FF160000 		.4byte	.LASF491
 7258 214e 04       		.byte	0x4
 7259 214f CB09     		.2byte	0x9cb
 7260 2151 55210000 		.4byte	0x2155
 7261 2155 15       		.uleb128 0x15
 7262 2156 04       		.byte	0x4
 7263 2157 5B210000 		.4byte	0x215b
 7264 215b 17       		.uleb128 0x17
 7265 215c 70210000 		.4byte	0x2170
 7266 2160 18       		.uleb128 0x18
 7267 2161 A2000000 		.4byte	0xa2
 7268 2165 18       		.uleb128 0x18
 7269 2166 91020000 		.4byte	0x291
 7270 216a 18       		.uleb128 0x18
 7271 216b 70210000 		.4byte	0x2170
 7272 216f 00       		.byte	0
 7273 2170 15       		.uleb128 0x15
 7274 2171 04       		.byte	0x4
 7275 2172 76210000 		.4byte	0x2176
 7276 2176 19       		.uleb128 0x19
 7277 2177 3D210000 		.4byte	0x213d
 7278 217b 08       		.uleb128 0x8
 7279 217c CB180000 		.4byte	.LASF492
 7280 2180 04       		.byte	0x4
ARM GAS  e:\temp\ccdoSeHU.s 			page 155


 7281 2181 D409     		.2byte	0x9d4
 7282 2183 87210000 		.4byte	0x2187
 7283 2187 15       		.uleb128 0x15
 7284 2188 04       		.byte	0x4
 7285 2189 8D210000 		.4byte	0x218d
 7286 218d 17       		.uleb128 0x17
 7287 218e 9D210000 		.4byte	0x219d
 7288 2192 18       		.uleb128 0x18
 7289 2193 A2000000 		.4byte	0xa2
 7290 2197 18       		.uleb128 0x18
 7291 2198 9D210000 		.4byte	0x219d
 7292 219c 00       		.byte	0
 7293 219d 15       		.uleb128 0x15
 7294 219e 04       		.byte	0x4
 7295 219f D81F0000 		.4byte	0x1fd8
 7296 21a3 08       		.uleb128 0x8
 7297 21a4 2C2C0000 		.4byte	.LASF493
 7298 21a8 04       		.byte	0x4
 7299 21a9 DD09     		.2byte	0x9dd
 7300 21ab AF210000 		.4byte	0x21af
 7301 21af 15       		.uleb128 0x15
 7302 21b0 04       		.byte	0x4
 7303 21b1 B5210000 		.4byte	0x21b5
 7304 21b5 17       		.uleb128 0x17
 7305 21b6 C5210000 		.4byte	0x21c5
 7306 21ba 18       		.uleb128 0x18
 7307 21bb A2000000 		.4byte	0xa2
 7308 21bf 18       		.uleb128 0x18
 7309 21c0 C5210000 		.4byte	0x21c5
 7310 21c4 00       		.byte	0
 7311 21c5 15       		.uleb128 0x15
 7312 21c6 04       		.byte	0x4
 7313 21c7 25200000 		.4byte	0x2025
 7314 21cb 08       		.uleb128 0x8
 7315 21cc 91150000 		.4byte	.LASF494
 7316 21d0 04       		.byte	0x4
 7317 21d1 E609     		.2byte	0x9e6
 7318 21d3 D7210000 		.4byte	0x21d7
 7319 21d7 15       		.uleb128 0x15
 7320 21d8 04       		.byte	0x4
 7321 21d9 DD210000 		.4byte	0x21dd
 7322 21dd 17       		.uleb128 0x17
 7323 21de E8210000 		.4byte	0x21e8
 7324 21e2 18       		.uleb128 0x18
 7325 21e3 A2000000 		.4byte	0xa2
 7326 21e7 00       		.byte	0
 7327 21e8 08       		.uleb128 0x8
 7328 21e9 BA0F0000 		.4byte	.LASF495
 7329 21ed 04       		.byte	0x4
 7330 21ee EE09     		.2byte	0x9ee
 7331 21f0 D7210000 		.4byte	0x21d7
 7332 21f4 08       		.uleb128 0x8
 7333 21f5 D7110000 		.4byte	.LASF496
 7334 21f9 04       		.byte	0x4
 7335 21fa F709     		.2byte	0x9f7
 7336 21fc 00220000 		.4byte	0x2200
 7337 2200 15       		.uleb128 0x15
ARM GAS  e:\temp\ccdoSeHU.s 			page 156


 7338 2201 04       		.byte	0x4
 7339 2202 06220000 		.4byte	0x2206
 7340 2206 17       		.uleb128 0x17
 7341 2207 16220000 		.4byte	0x2216
 7342 220b 18       		.uleb128 0x18
 7343 220c A2000000 		.4byte	0xa2
 7344 2210 18       		.uleb128 0x18
 7345 2211 0B050000 		.4byte	0x50b
 7346 2215 00       		.byte	0
 7347 2216 13       		.uleb128 0x13
 7348 2217 5C       		.byte	0x5c
 7349 2218 04       		.byte	0x4
 7350 2219 020A     		.2byte	0xa02
 7351 221b 4B230000 		.4byte	0x234b
 7352 221f 14       		.uleb128 0x14
 7353 2220 A2090000 		.4byte	.LASF497
 7354 2224 04       		.byte	0x4
 7355 2225 040A     		.2byte	0xa04
 7356 2227 67230000 		.4byte	0x2367
 7357 222b 00       		.byte	0
 7358 222c 14       		.uleb128 0x14
 7359 222d 62170000 		.4byte	.LASF498
 7360 2231 04       		.byte	0x4
 7361 2232 0A0A     		.2byte	0xa0a
 7362 2234 7D230000 		.4byte	0x237d
 7363 2238 04       		.byte	0x4
 7364 2239 14       		.uleb128 0x14
 7365 223a 3B0B0000 		.4byte	.LASF499
 7366 223e 04       		.byte	0x4
 7367 223f 0F0A     		.2byte	0xa0f
 7368 2241 7D230000 		.4byte	0x237d
 7369 2245 08       		.byte	0x8
 7370 2246 14       		.uleb128 0x14
 7371 2247 500C0000 		.4byte	.LASF500
 7372 224b 04       		.byte	0x4
 7373 224c 140A     		.2byte	0xa14
 7374 224e 93230000 		.4byte	0x2393
 7375 2252 0C       		.byte	0xc
 7376 2253 14       		.uleb128 0x14
 7377 2254 79110000 		.4byte	.LASF501
 7378 2258 04       		.byte	0x4
 7379 2259 1B0A     		.2byte	0xa1b
 7380 225b 93230000 		.4byte	0x2393
 7381 225f 10       		.byte	0x10
 7382 2260 14       		.uleb128 0x14
 7383 2261 241B0000 		.4byte	.LASF502
 7384 2265 04       		.byte	0x4
 7385 2266 210A     		.2byte	0xa21
 7386 2268 A9230000 		.4byte	0x23a9
 7387 226c 14       		.byte	0x14
 7388 226d 14       		.uleb128 0x14
 7389 226e A6040000 		.4byte	.LASF503
 7390 2272 04       		.byte	0x4
 7391 2273 260A     		.2byte	0xa26
 7392 2275 A9230000 		.4byte	0x23a9
 7393 2279 18       		.byte	0x18
 7394 227a 14       		.uleb128 0x14
ARM GAS  e:\temp\ccdoSeHU.s 			page 157


 7395 227b 4A2A0000 		.4byte	.LASF504
 7396 227f 04       		.byte	0x4
 7397 2280 2B0A     		.2byte	0xa2b
 7398 2282 C5230000 		.4byte	0x23c5
 7399 2286 1C       		.byte	0x1c
 7400 2287 14       		.uleb128 0x14
 7401 2288 D1290000 		.4byte	.LASF505
 7402 228c 04       		.byte	0x4
 7403 228d 2F0A     		.2byte	0xa2f
 7404 228f E4230000 		.4byte	0x23e4
 7405 2293 20       		.byte	0x20
 7406 2294 14       		.uleb128 0x14
 7407 2295 200B0000 		.4byte	.LASF506
 7408 2299 04       		.byte	0x4
 7409 229a 350A     		.2byte	0xa35
 7410 229c D7210000 		.4byte	0x21d7
 7411 22a0 24       		.byte	0x24
 7412 22a1 14       		.uleb128 0x14
 7413 22a2 59090000 		.4byte	.LASF507
 7414 22a6 04       		.byte	0x4
 7415 22a7 390A     		.2byte	0xa39
 7416 22a9 D7210000 		.4byte	0x21d7
 7417 22ad 28       		.byte	0x28
 7418 22ae 14       		.uleb128 0x14
 7419 22af 4C110000 		.4byte	.LASF508
 7420 22b3 04       		.byte	0x4
 7421 22b4 3E0A     		.2byte	0xa3e
 7422 22b6 7D230000 		.4byte	0x237d
 7423 22ba 2C       		.byte	0x2c
 7424 22bb 14       		.uleb128 0x14
 7425 22bc 48040000 		.4byte	.LASF509
 7426 22c0 04       		.byte	0x4
 7427 22c1 430A     		.2byte	0xa43
 7428 22c3 7D230000 		.4byte	0x237d
 7429 22c7 30       		.byte	0x30
 7430 22c8 14       		.uleb128 0x14
 7431 22c9 27250000 		.4byte	.LASF510
 7432 22cd 04       		.byte	0x4
 7433 22ce 480A     		.2byte	0xa48
 7434 22d0 D7210000 		.4byte	0x21d7
 7435 22d4 34       		.byte	0x34
 7436 22d5 14       		.uleb128 0x14
 7437 22d6 D01E0000 		.4byte	.LASF511
 7438 22da 04       		.byte	0x4
 7439 22db 4C0A     		.2byte	0xa4c
 7440 22dd FA230000 		.4byte	0x23fa
 7441 22e1 38       		.byte	0x38
 7442 22e2 14       		.uleb128 0x14
 7443 22e3 8D1D0000 		.4byte	.LASF512
 7444 22e7 04       		.byte	0x4
 7445 22e8 510A     		.2byte	0xa51
 7446 22ea 15240000 		.4byte	0x2415
 7447 22ee 3C       		.byte	0x3c
 7448 22ef 14       		.uleb128 0x14
 7449 22f0 DD1B0000 		.4byte	.LASF513
 7450 22f4 04       		.byte	0x4
 7451 22f5 590A     		.2byte	0xa59
ARM GAS  e:\temp\ccdoSeHU.s 			page 158


 7452 22f7 30240000 		.4byte	0x2430
 7453 22fb 40       		.byte	0x40
 7454 22fc 14       		.uleb128 0x14
 7455 22fd 57100000 		.4byte	.LASF514
 7456 2301 04       		.byte	0x4
 7457 2302 5F0A     		.2byte	0xa5f
 7458 2304 46240000 		.4byte	0x2446
 7459 2308 44       		.byte	0x44
 7460 2309 14       		.uleb128 0x14
 7461 230a 0B100000 		.4byte	.LASF515
 7462 230e 04       		.byte	0x4
 7463 230f 630A     		.2byte	0xa63
 7464 2311 46240000 		.4byte	0x2446
 7465 2315 48       		.byte	0x48
 7466 2316 14       		.uleb128 0x14
 7467 2317 391B0000 		.4byte	.LASF516
 7468 231b 04       		.byte	0x4
 7469 231c 680A     		.2byte	0xa68
 7470 231e 46240000 		.4byte	0x2446
 7471 2322 4C       		.byte	0x4c
 7472 2323 14       		.uleb128 0x14
 7473 2324 112C0000 		.4byte	.LASF517
 7474 2328 04       		.byte	0x4
 7475 2329 6D0A     		.2byte	0xa6d
 7476 232b 61240000 		.4byte	0x2461
 7477 232f 50       		.byte	0x50
 7478 2330 14       		.uleb128 0x14
 7479 2331 FA210000 		.4byte	.LASF518
 7480 2335 04       		.byte	0x4
 7481 2336 740A     		.2byte	0xa74
 7482 2338 46240000 		.4byte	0x2446
 7483 233c 54       		.byte	0x54
 7484 233d 14       		.uleb128 0x14
 7485 233e 4A090000 		.4byte	.LASF519
 7486 2342 04       		.byte	0x4
 7487 2343 7A0A     		.2byte	0xa7a
 7488 2345 76240000 		.4byte	0x2476
 7489 2349 58       		.byte	0x58
 7490 234a 00       		.byte	0
 7491 234b 17       		.uleb128 0x17
 7492 234c 60230000 		.4byte	0x2360
 7493 2350 18       		.uleb128 0x18
 7494 2351 A2000000 		.4byte	0xa2
 7495 2355 18       		.uleb128 0x18
 7496 2356 99070000 		.4byte	0x799
 7497 235a 18       		.uleb128 0x18
 7498 235b 60230000 		.4byte	0x2360
 7499 235f 00       		.byte	0
 7500 2360 15       		.uleb128 0x15
 7501 2361 04       		.byte	0x4
 7502 2362 66230000 		.4byte	0x2366
 7503 2366 1A       		.uleb128 0x1a
 7504 2367 15       		.uleb128 0x15
 7505 2368 04       		.byte	0x4
 7506 2369 4B230000 		.4byte	0x234b
 7507 236d 17       		.uleb128 0x17
 7508 236e 7D230000 		.4byte	0x237d
ARM GAS  e:\temp\ccdoSeHU.s 			page 159


 7509 2372 18       		.uleb128 0x18
 7510 2373 A2000000 		.4byte	0xa2
 7511 2377 18       		.uleb128 0x18
 7512 2378 AD000000 		.4byte	0xad
 7513 237c 00       		.byte	0
 7514 237d 15       		.uleb128 0x15
 7515 237e 04       		.byte	0x4
 7516 237f 6D230000 		.4byte	0x236d
 7517 2383 17       		.uleb128 0x17
 7518 2384 93230000 		.4byte	0x2393
 7519 2388 18       		.uleb128 0x18
 7520 2389 A2000000 		.4byte	0xa2
 7521 238d 18       		.uleb128 0x18
 7522 238e CB210000 		.4byte	0x21cb
 7523 2392 00       		.byte	0
 7524 2393 15       		.uleb128 0x15
 7525 2394 04       		.byte	0x4
 7526 2395 83230000 		.4byte	0x2383
 7527 2399 17       		.uleb128 0x17
 7528 239a A9230000 		.4byte	0x23a9
 7529 239e 18       		.uleb128 0x18
 7530 239f A2000000 		.4byte	0xa2
 7531 23a3 18       		.uleb128 0x18
 7532 23a4 A2000000 		.4byte	0xa2
 7533 23a8 00       		.byte	0
 7534 23a9 15       		.uleb128 0x15
 7535 23aa 04       		.byte	0x4
 7536 23ab 99230000 		.4byte	0x2399
 7537 23af 1B       		.uleb128 0x1b
 7538 23b0 BE230000 		.4byte	0x23be
 7539 23b4 BE230000 		.4byte	0x23be
 7540 23b8 18       		.uleb128 0x18
 7541 23b9 A2000000 		.4byte	0xa2
 7542 23bd 00       		.byte	0
 7543 23be 03       		.uleb128 0x3
 7544 23bf 01       		.byte	0x1
 7545 23c0 02       		.byte	0x2
 7546 23c1 D0010000 		.4byte	.LASF520
 7547 23c5 15       		.uleb128 0x15
 7548 23c6 04       		.byte	0x4
 7549 23c7 AF230000 		.4byte	0x23af
 7550 23cb 1B       		.uleb128 0x1b
 7551 23cc BE230000 		.4byte	0x23be
 7552 23d0 E4230000 		.4byte	0x23e4
 7553 23d4 18       		.uleb128 0x18
 7554 23d5 A2000000 		.4byte	0xa2
 7555 23d9 18       		.uleb128 0x18
 7556 23da AD000000 		.4byte	0xad
 7557 23de 18       		.uleb128 0x18
 7558 23df 97000000 		.4byte	0x97
 7559 23e3 00       		.byte	0
 7560 23e4 15       		.uleb128 0x15
 7561 23e5 04       		.byte	0x4
 7562 23e6 CB230000 		.4byte	0x23cb
 7563 23ea 17       		.uleb128 0x17
 7564 23eb FA230000 		.4byte	0x23fa
 7565 23ef 18       		.uleb128 0x18
ARM GAS  e:\temp\ccdoSeHU.s 			page 160


 7566 23f0 A2000000 		.4byte	0xa2
 7567 23f4 18       		.uleb128 0x18
 7568 23f5 E8210000 		.4byte	0x21e8
 7569 23f9 00       		.byte	0
 7570 23fa 15       		.uleb128 0x15
 7571 23fb 04       		.byte	0x4
 7572 23fc EA230000 		.4byte	0x23ea
 7573 2400 17       		.uleb128 0x17
 7574 2401 15240000 		.4byte	0x2415
 7575 2405 18       		.uleb128 0x18
 7576 2406 A2000000 		.4byte	0xa2
 7577 240a 18       		.uleb128 0x18
 7578 240b 70210000 		.4byte	0x2170
 7579 240f 18       		.uleb128 0x18
 7580 2410 7B210000 		.4byte	0x217b
 7581 2414 00       		.byte	0
 7582 2415 15       		.uleb128 0x15
 7583 2416 04       		.byte	0x4
 7584 2417 00240000 		.4byte	0x2400
 7585 241b 17       		.uleb128 0x17
 7586 241c 30240000 		.4byte	0x2430
 7587 2420 18       		.uleb128 0x18
 7588 2421 A2000000 		.4byte	0xa2
 7589 2425 18       		.uleb128 0x18
 7590 2426 EF1E0000 		.4byte	0x1eef
 7591 242a 18       		.uleb128 0x18
 7592 242b 7B210000 		.4byte	0x217b
 7593 242f 00       		.byte	0
 7594 2430 15       		.uleb128 0x15
 7595 2431 04       		.byte	0x4
 7596 2432 1B240000 		.4byte	0x241b
 7597 2436 17       		.uleb128 0x17
 7598 2437 46240000 		.4byte	0x2446
 7599 243b 18       		.uleb128 0x18
 7600 243c A2000000 		.4byte	0xa2
 7601 2440 18       		.uleb128 0x18
 7602 2441 7B210000 		.4byte	0x217b
 7603 2445 00       		.byte	0
 7604 2446 15       		.uleb128 0x15
 7605 2447 04       		.byte	0x4
 7606 2448 36240000 		.4byte	0x2436
 7607 244c 17       		.uleb128 0x17
 7608 244d 61240000 		.4byte	0x2461
 7609 2451 18       		.uleb128 0x18
 7610 2452 A2000000 		.4byte	0xa2
 7611 2456 18       		.uleb128 0x18
 7612 2457 70210000 		.4byte	0x2170
 7613 245b 18       		.uleb128 0x18
 7614 245c A3210000 		.4byte	0x21a3
 7615 2460 00       		.byte	0
 7616 2461 15       		.uleb128 0x15
 7617 2462 04       		.byte	0x4
 7618 2463 4C240000 		.4byte	0x244c
 7619 2467 1B       		.uleb128 0x1b
 7620 2468 AD000000 		.4byte	0xad
 7621 246c 76240000 		.4byte	0x2476
 7622 2470 18       		.uleb128 0x18
ARM GAS  e:\temp\ccdoSeHU.s 			page 161


 7623 2471 A2000000 		.4byte	0xa2
 7624 2475 00       		.byte	0
 7625 2476 15       		.uleb128 0x15
 7626 2477 04       		.byte	0x4
 7627 2478 67240000 		.4byte	0x2467
 7628 247c 08       		.uleb128 0x8
 7629 247d 42250000 		.4byte	.LASF521
 7630 2481 04       		.byte	0x4
 7631 2482 7E0A     		.2byte	0xa7e
 7632 2484 16220000 		.4byte	0x2216
 7633 2488 1C       		.uleb128 0x1c
 7634 2489 8C01     		.2byte	0x18c
 7635 248b 04       		.byte	0x4
 7636 248c 880A     		.2byte	0xa88
 7637 248e 2A2A0000 		.4byte	0x2a2a
 7638 2492 14       		.uleb128 0x14
 7639 2493 111F0000 		.4byte	.LASF522
 7640 2497 04       		.byte	0x4
 7641 2498 8A0A     		.2byte	0xa8a
 7642 249a A2000000 		.4byte	0xa2
 7643 249e 00       		.byte	0
 7644 249f 14       		.uleb128 0x14
 7645 24a0 FE0A0000 		.4byte	.LASF523
 7646 24a4 04       		.byte	0x4
 7647 24a5 8B0A     		.2byte	0xa8b
 7648 24a7 A2000000 		.4byte	0xa2
 7649 24ab 01       		.byte	0x1
 7650 24ac 14       		.uleb128 0x14
 7651 24ad 66260000 		.4byte	.LASF524
 7652 24b1 04       		.byte	0x4
 7653 24b2 8C0A     		.2byte	0xa8c
 7654 24b4 A2000000 		.4byte	0xa2
 7655 24b8 02       		.byte	0x2
 7656 24b9 14       		.uleb128 0x14
 7657 24ba 7C280000 		.4byte	.LASF525
 7658 24be 04       		.byte	0x4
 7659 24bf 8D0A     		.2byte	0xa8d
 7660 24c1 A2000000 		.4byte	0xa2
 7661 24c5 03       		.byte	0x3
 7662 24c6 14       		.uleb128 0x14
 7663 24c7 53020000 		.4byte	.LASF526
 7664 24cb 04       		.byte	0x4
 7665 24cc 8E0A     		.2byte	0xa8e
 7666 24ce A2000000 		.4byte	0xa2
 7667 24d2 04       		.byte	0x4
 7668 24d3 14       		.uleb128 0x14
 7669 24d4 4B1E0000 		.4byte	.LASF527
 7670 24d8 04       		.byte	0x4
 7671 24d9 8F0A     		.2byte	0xa8f
 7672 24db A2000000 		.4byte	0xa2
 7673 24df 05       		.byte	0x5
 7674 24e0 14       		.uleb128 0x14
 7675 24e1 691C0000 		.4byte	.LASF528
 7676 24e5 04       		.byte	0x4
 7677 24e6 900A     		.2byte	0xa90
 7678 24e8 A2000000 		.4byte	0xa2
 7679 24ec 06       		.byte	0x6
ARM GAS  e:\temp\ccdoSeHU.s 			page 162


 7680 24ed 14       		.uleb128 0x14
 7681 24ee E1090000 		.4byte	.LASF529
 7682 24f2 04       		.byte	0x4
 7683 24f3 910A     		.2byte	0xa91
 7684 24f5 A2000000 		.4byte	0xa2
 7685 24f9 07       		.byte	0x7
 7686 24fa 14       		.uleb128 0x14
 7687 24fb 6E150000 		.4byte	.LASF530
 7688 24ff 04       		.byte	0x4
 7689 2500 980A     		.2byte	0xa98
 7690 2502 A2000000 		.4byte	0xa2
 7691 2506 08       		.byte	0x8
 7692 2507 14       		.uleb128 0x14
 7693 2508 C2030000 		.4byte	.LASF531
 7694 250c 04       		.byte	0x4
 7695 250d 990A     		.2byte	0xa99
 7696 250f A2000000 		.4byte	0xa2
 7697 2513 09       		.byte	0x9
 7698 2514 14       		.uleb128 0x14
 7699 2515 D8250000 		.4byte	.LASF532
 7700 2519 04       		.byte	0x4
 7701 251a 9A0A     		.2byte	0xa9a
 7702 251c A2000000 		.4byte	0xa2
 7703 2520 0A       		.byte	0xa
 7704 2521 14       		.uleb128 0x14
 7705 2522 50240000 		.4byte	.LASF533
 7706 2526 04       		.byte	0x4
 7707 2527 9B0A     		.2byte	0xa9b
 7708 2529 A2000000 		.4byte	0xa2
 7709 252d 0B       		.byte	0xb
 7710 252e 14       		.uleb128 0x14
 7711 252f 4B290000 		.4byte	.LASF534
 7712 2533 04       		.byte	0x4
 7713 2534 9C0A     		.2byte	0xa9c
 7714 2536 A2000000 		.4byte	0xa2
 7715 253a 0C       		.byte	0xc
 7716 253b 14       		.uleb128 0x14
 7717 253c 22110000 		.4byte	.LASF535
 7718 2540 04       		.byte	0x4
 7719 2541 9D0A     		.2byte	0xa9d
 7720 2543 A2000000 		.4byte	0xa2
 7721 2547 0D       		.byte	0xd
 7722 2548 14       		.uleb128 0x14
 7723 2549 00100000 		.4byte	.LASF536
 7724 254d 04       		.byte	0x4
 7725 254e A30A     		.2byte	0xaa3
 7726 2550 A2000000 		.4byte	0xa2
 7727 2554 0E       		.byte	0xe
 7728 2555 14       		.uleb128 0x14
 7729 2556 5A260000 		.4byte	.LASF537
 7730 255a 04       		.byte	0x4
 7731 255b A40A     		.2byte	0xaa4
 7732 255d A2000000 		.4byte	0xa2
 7733 2561 0F       		.byte	0xf
 7734 2562 14       		.uleb128 0x14
 7735 2563 1F060000 		.4byte	.LASF538
 7736 2567 04       		.byte	0x4
ARM GAS  e:\temp\ccdoSeHU.s 			page 163


 7737 2568 A50A     		.2byte	0xaa5
 7738 256a A2000000 		.4byte	0xa2
 7739 256e 10       		.byte	0x10
 7740 256f 14       		.uleb128 0x14
 7741 2570 6E1B0000 		.4byte	.LASF539
 7742 2574 04       		.byte	0x4
 7743 2575 A60A     		.2byte	0xaa6
 7744 2577 A2000000 		.4byte	0xa2
 7745 257b 11       		.byte	0x11
 7746 257c 14       		.uleb128 0x14
 7747 257d A42B0000 		.4byte	.LASF540
 7748 2581 04       		.byte	0x4
 7749 2582 A70A     		.2byte	0xaa7
 7750 2584 A2000000 		.4byte	0xa2
 7751 2588 12       		.byte	0x12
 7752 2589 14       		.uleb128 0x14
 7753 258a 9A1D0000 		.4byte	.LASF541
 7754 258e 04       		.byte	0x4
 7755 258f A80A     		.2byte	0xaa8
 7756 2591 A2000000 		.4byte	0xa2
 7757 2595 13       		.byte	0x13
 7758 2596 14       		.uleb128 0x14
 7759 2597 BE0D0000 		.4byte	.LASF542
 7760 259b 04       		.byte	0x4
 7761 259c A90A     		.2byte	0xaa9
 7762 259e A2000000 		.4byte	0xa2
 7763 25a2 14       		.byte	0x14
 7764 25a3 14       		.uleb128 0x14
 7765 25a4 72100000 		.4byte	.LASF543
 7766 25a8 04       		.byte	0x4
 7767 25a9 AA0A     		.2byte	0xaaa
 7768 25ab A2000000 		.4byte	0xa2
 7769 25af 15       		.byte	0x15
 7770 25b0 14       		.uleb128 0x14
 7771 25b1 AD120000 		.4byte	.LASF544
 7772 25b5 04       		.byte	0x4
 7773 25b6 AC0A     		.2byte	0xaac
 7774 25b8 841F0000 		.4byte	0x1f84
 7775 25bc 16       		.byte	0x16
 7776 25bd 14       		.uleb128 0x14
 7777 25be 82030000 		.4byte	.LASF545
 7778 25c2 04       		.byte	0x4
 7779 25c3 AE0A     		.2byte	0xaae
 7780 25c5 15200000 		.4byte	0x2015
 7781 25c9 20       		.byte	0x20
 7782 25ca 14       		.uleb128 0x14
 7783 25cb C3180000 		.4byte	.LASF546
 7784 25cf 04       		.byte	0x4
 7785 25d0 AF0A     		.2byte	0xaaf
 7786 25d2 15200000 		.4byte	0x2015
 7787 25d6 3C       		.byte	0x3c
 7788 25d7 14       		.uleb128 0x14
 7789 25d8 982B0000 		.4byte	.LASF547
 7790 25dc 04       		.byte	0x4
 7791 25dd B00A     		.2byte	0xab0
 7792 25df 941F0000 		.4byte	0x1f94
 7793 25e3 58       		.byte	0x58
ARM GAS  e:\temp\ccdoSeHU.s 			page 164


 7794 25e4 14       		.uleb128 0x14
 7795 25e5 B4090000 		.4byte	.LASF548
 7796 25e9 04       		.byte	0x4
 7797 25ea B20A     		.2byte	0xab2
 7798 25ec 21020000 		.4byte	0x221
 7799 25f0 66       		.byte	0x66
 7800 25f1 14       		.uleb128 0x14
 7801 25f2 93080000 		.4byte	.LASF549
 7802 25f6 04       		.byte	0x4
 7803 25f7 B30A     		.2byte	0xab3
 7804 25f9 F5010000 		.4byte	0x1f5
 7805 25fd 67       		.byte	0x67
 7806 25fe 14       		.uleb128 0x14
 7807 25ff A51C0000 		.4byte	.LASF550
 7808 2603 04       		.byte	0x4
 7809 2604 B40A     		.2byte	0xab4
 7810 2606 7F1F0000 		.4byte	0x1f7f
 7811 260a 68       		.byte	0x68
 7812 260b 14       		.uleb128 0x14
 7813 260c 02230000 		.4byte	.LASF551
 7814 2610 04       		.byte	0x4
 7815 2611 B50A     		.2byte	0xab5
 7816 2613 7F1F0000 		.4byte	0x1f7f
 7817 2617 69       		.byte	0x69
 7818 2618 14       		.uleb128 0x14
 7819 2619 E1130000 		.4byte	.LASF552
 7820 261d 04       		.byte	0x4
 7821 261e B60A     		.2byte	0xab6
 7822 2620 7F1F0000 		.4byte	0x1f7f
 7823 2624 6A       		.byte	0x6a
 7824 2625 14       		.uleb128 0x14
 7825 2626 7F080000 		.4byte	.LASF553
 7826 262a 04       		.byte	0x4
 7827 262b B70A     		.2byte	0xab7
 7828 262d A2000000 		.4byte	0xa2
 7829 2631 6B       		.byte	0x6b
 7830 2632 14       		.uleb128 0x14
 7831 2633 64120000 		.4byte	.LASF554
 7832 2637 04       		.byte	0x4
 7833 2638 B80A     		.2byte	0xab8
 7834 263a A2000000 		.4byte	0xa2
 7835 263e 6C       		.byte	0x6c
 7836 263f 14       		.uleb128 0x14
 7837 2640 7A2C0000 		.4byte	.LASF555
 7838 2644 04       		.byte	0x4
 7839 2645 B90A     		.2byte	0xab9
 7840 2647 A2000000 		.4byte	0xa2
 7841 264b 6D       		.byte	0x6d
 7842 264c 14       		.uleb128 0x14
 7843 264d 24010000 		.4byte	.LASF556
 7844 2651 04       		.byte	0x4
 7845 2652 BA0A     		.2byte	0xaba
 7846 2654 7F1F0000 		.4byte	0x1f7f
 7847 2658 6E       		.byte	0x6e
 7848 2659 14       		.uleb128 0x14
 7849 265a DB160000 		.4byte	.LASF557
 7850 265e 04       		.byte	0x4
ARM GAS  e:\temp\ccdoSeHU.s 			page 165


 7851 265f BC0A     		.2byte	0xabc
 7852 2661 A2000000 		.4byte	0xa2
 7853 2665 6F       		.byte	0x6f
 7854 2666 14       		.uleb128 0x14
 7855 2667 41120000 		.4byte	.LASF558
 7856 266b 04       		.byte	0x4
 7857 266c BD0A     		.2byte	0xabd
 7858 266e A2000000 		.4byte	0xa2
 7859 2672 70       		.byte	0x70
 7860 2673 14       		.uleb128 0x14
 7861 2674 B8120000 		.4byte	.LASF559
 7862 2678 04       		.byte	0x4
 7863 2679 BE0A     		.2byte	0xabe
 7864 267b 7F1F0000 		.4byte	0x1f7f
 7865 267f 71       		.byte	0x71
 7866 2680 14       		.uleb128 0x14
 7867 2681 830A0000 		.4byte	.LASF560
 7868 2685 04       		.byte	0x4
 7869 2686 BF0A     		.2byte	0xabf
 7870 2688 7F1F0000 		.4byte	0x1f7f
 7871 268c 72       		.byte	0x72
 7872 268d 14       		.uleb128 0x14
 7873 268e C42B0000 		.4byte	.LASF561
 7874 2692 04       		.byte	0x4
 7875 2693 C00A     		.2byte	0xac0
 7876 2695 F5010000 		.4byte	0x1f5
 7877 2699 73       		.byte	0x73
 7878 269a 14       		.uleb128 0x14
 7879 269b F3240000 		.4byte	.LASF562
 7880 269f 04       		.byte	0x4
 7881 26a0 C10A     		.2byte	0xac1
 7882 26a2 61030000 		.4byte	0x361
 7883 26a6 74       		.byte	0x74
 7884 26a7 14       		.uleb128 0x14
 7885 26a8 B4040000 		.4byte	.LASF563
 7886 26ac 04       		.byte	0x4
 7887 26ad C20A     		.2byte	0xac2
 7888 26af 7F1F0000 		.4byte	0x1f7f
 7889 26b3 75       		.byte	0x75
 7890 26b4 14       		.uleb128 0x14
 7891 26b5 77120000 		.4byte	.LASF564
 7892 26b9 04       		.byte	0x4
 7893 26ba C30A     		.2byte	0xac3
 7894 26bc 7F1F0000 		.4byte	0x1f7f
 7895 26c0 76       		.byte	0x76
 7896 26c1 14       		.uleb128 0x14
 7897 26c2 2C220000 		.4byte	.LASF565
 7898 26c6 04       		.byte	0x4
 7899 26c7 C40A     		.2byte	0xac4
 7900 26c9 7F1F0000 		.4byte	0x1f7f
 7901 26cd 77       		.byte	0x77
 7902 26ce 14       		.uleb128 0x14
 7903 26cf 3F090000 		.4byte	.LASF566
 7904 26d3 04       		.byte	0x4
 7905 26d4 C50A     		.2byte	0xac5
 7906 26d6 7F1F0000 		.4byte	0x1f7f
 7907 26da 78       		.byte	0x78
ARM GAS  e:\temp\ccdoSeHU.s 			page 166


 7908 26db 14       		.uleb128 0x14
 7909 26dc B6200000 		.4byte	.LASF567
 7910 26e0 04       		.byte	0x4
 7911 26e1 C60A     		.2byte	0xac6
 7912 26e3 7F1F0000 		.4byte	0x1f7f
 7913 26e7 79       		.byte	0x79
 7914 26e8 14       		.uleb128 0x14
 7915 26e9 C5220000 		.4byte	.LASF568
 7916 26ed 04       		.byte	0x4
 7917 26ee C70A     		.2byte	0xac7
 7918 26f0 7F1F0000 		.4byte	0x1f7f
 7919 26f4 7A       		.byte	0x7a
 7920 26f5 14       		.uleb128 0x14
 7921 26f6 82290000 		.4byte	.LASF417
 7922 26fa 04       		.byte	0x4
 7923 26fb C90A     		.2byte	0xac9
 7924 26fd 1D040000 		.4byte	0x41d
 7925 2701 7B       		.byte	0x7b
 7926 2702 14       		.uleb128 0x14
 7927 2703 FE100000 		.4byte	.LASF569
 7928 2707 04       		.byte	0x4
 7929 2708 CA0A     		.2byte	0xaca
 7930 270a 4F040000 		.4byte	0x44f
 7931 270e 7C       		.byte	0x7c
 7932 270f 14       		.uleb128 0x14
 7933 2710 CA020000 		.4byte	.LASF570
 7934 2714 04       		.byte	0x4
 7935 2715 CB0A     		.2byte	0xacb
 7936 2717 7F1F0000 		.4byte	0x1f7f
 7937 271b 7D       		.byte	0x7d
 7938 271c 14       		.uleb128 0x14
 7939 271d B1180000 		.4byte	.LASF571
 7940 2721 04       		.byte	0x4
 7941 2722 CC0A     		.2byte	0xacc
 7942 2724 A2000000 		.4byte	0xa2
 7943 2728 7E       		.byte	0x7e
 7944 2729 14       		.uleb128 0x14
 7945 272a DE010000 		.4byte	.LASF572
 7946 272e 04       		.byte	0x4
 7947 272f CD0A     		.2byte	0xacd
 7948 2731 A2000000 		.4byte	0xa2
 7949 2735 7F       		.byte	0x7f
 7950 2736 14       		.uleb128 0x14
 7951 2737 282A0000 		.4byte	.LASF573
 7952 273b 04       		.byte	0x4
 7953 273c CE0A     		.2byte	0xace
 7954 273e A2000000 		.4byte	0xa2
 7955 2742 80       		.byte	0x80
 7956 2743 14       		.uleb128 0x14
 7957 2744 CA260000 		.4byte	.LASF574
 7958 2748 04       		.byte	0x4
 7959 2749 CF0A     		.2byte	0xacf
 7960 274b A7040000 		.4byte	0x4a7
 7961 274f 81       		.byte	0x81
 7962 2750 14       		.uleb128 0x14
 7963 2751 500E0000 		.4byte	.LASF575
 7964 2755 04       		.byte	0x4
ARM GAS  e:\temp\ccdoSeHU.s 			page 167


 7965 2756 D00A     		.2byte	0xad0
 7966 2758 A2000000 		.4byte	0xa2
 7967 275c 82       		.byte	0x82
 7968 275d 14       		.uleb128 0x14
 7969 275e 280F0000 		.4byte	.LASF576
 7970 2762 04       		.byte	0x4
 7971 2763 D20A     		.2byte	0xad2
 7972 2765 79050000 		.4byte	0x579
 7973 2769 83       		.byte	0x83
 7974 276a 14       		.uleb128 0x14
 7975 276b 14060000 		.4byte	.LASF577
 7976 276f 04       		.byte	0x4
 7977 2770 D30A     		.2byte	0xad3
 7978 2772 23030000 		.4byte	0x323
 7979 2776 84       		.byte	0x84
 7980 2777 14       		.uleb128 0x14
 7981 2778 07220000 		.4byte	.LASF578
 7982 277c 04       		.byte	0x4
 7983 277d D40A     		.2byte	0xad4
 7984 277f A2000000 		.4byte	0xa2
 7985 2783 85       		.byte	0x85
 7986 2784 14       		.uleb128 0x14
 7987 2785 530F0000 		.4byte	.LASF579
 7988 2789 04       		.byte	0x4
 7989 278a D50A     		.2byte	0xad5
 7990 278c A2000000 		.4byte	0xa2
 7991 2790 86       		.byte	0x86
 7992 2791 14       		.uleb128 0x14
 7993 2792 B5250000 		.4byte	.LASF580
 7994 2796 04       		.byte	0x4
 7995 2797 D60A     		.2byte	0xad6
 7996 2799 BE230000 		.4byte	0x23be
 7997 279d 87       		.byte	0x87
 7998 279e 14       		.uleb128 0x14
 7999 279f 970F0000 		.4byte	.LASF581
 8000 27a3 04       		.byte	0x4
 8001 27a4 D70A     		.2byte	0xad7
 8002 27a6 BE230000 		.4byte	0x23be
 8003 27aa 88       		.byte	0x88
 8004 27ab 14       		.uleb128 0x14
 8005 27ac D1080000 		.4byte	.LASF582
 8006 27b0 04       		.byte	0x4
 8007 27b1 D90A     		.2byte	0xad9
 8008 27b3 A2000000 		.4byte	0xa2
 8009 27b7 89       		.byte	0x89
 8010 27b8 14       		.uleb128 0x14
 8011 27b9 06060000 		.4byte	.LASF583
 8012 27bd 04       		.byte	0x4
 8013 27be DD0A     		.2byte	0xadd
 8014 27c0 E5040000 		.4byte	0x4e5
 8015 27c4 8A       		.byte	0x8a
 8016 27c5 14       		.uleb128 0x14
 8017 27c6 0D0B0000 		.4byte	.LASF584
 8018 27ca 04       		.byte	0x4
 8019 27cb DE0A     		.2byte	0xade
 8020 27cd A2000000 		.4byte	0xa2
 8021 27d1 8B       		.byte	0x8b
ARM GAS  e:\temp\ccdoSeHU.s 			page 168


 8022 27d2 14       		.uleb128 0x14
 8023 27d3 00250000 		.4byte	.LASF585
 8024 27d7 04       		.byte	0x4
 8025 27d8 DF0A     		.2byte	0xadf
 8026 27da 38080000 		.4byte	0x838
 8027 27de 8C       		.byte	0x8c
 8028 27df 14       		.uleb128 0x14
 8029 27e0 D8020000 		.4byte	.LASF586
 8030 27e4 04       		.byte	0x4
 8031 27e5 E00A     		.2byte	0xae0
 8032 27e7 38080000 		.4byte	0x838
 8033 27eb 8E       		.byte	0x8e
 8034 27ec 14       		.uleb128 0x14
 8035 27ed C6240000 		.4byte	.LASF587
 8036 27f1 04       		.byte	0x4
 8037 27f2 E10A     		.2byte	0xae1
 8038 27f4 38080000 		.4byte	0x838
 8039 27f8 90       		.byte	0x90
 8040 27f9 14       		.uleb128 0x14
 8041 27fa 680D0000 		.4byte	.LASF588
 8042 27fe 04       		.byte	0x4
 8043 27ff E20A     		.2byte	0xae2
 8044 2801 38080000 		.4byte	0x838
 8045 2805 92       		.byte	0x92
 8046 2806 14       		.uleb128 0x14
 8047 2807 E3120000 		.4byte	.LASF589
 8048 280b 04       		.byte	0x4
 8049 280c E30A     		.2byte	0xae3
 8050 280e 11010000 		.4byte	0x111
 8051 2812 94       		.byte	0x94
 8052 2813 14       		.uleb128 0x14
 8053 2814 951A0000 		.4byte	.LASF590
 8054 2818 04       		.byte	0x4
 8055 2819 E50A     		.2byte	0xae5
 8056 281b 11010000 		.4byte	0x111
 8057 281f 95       		.byte	0x95
 8058 2820 14       		.uleb128 0x14
 8059 2821 A1190000 		.4byte	.LASF591
 8060 2825 04       		.byte	0x4
 8061 2826 E60A     		.2byte	0xae6
 8062 2828 11010000 		.4byte	0x111
 8063 282c 96       		.byte	0x96
 8064 282d 14       		.uleb128 0x14
 8065 282e 6B130000 		.4byte	.LASF592
 8066 2832 04       		.byte	0x4
 8067 2833 E70A     		.2byte	0xae7
 8068 2835 11010000 		.4byte	0x111
 8069 2839 97       		.byte	0x97
 8070 283a 14       		.uleb128 0x14
 8071 283b 1A1C0000 		.4byte	.LASF593
 8072 283f 04       		.byte	0x4
 8073 2840 E80A     		.2byte	0xae8
 8074 2842 BE230000 		.4byte	0x23be
 8075 2846 98       		.byte	0x98
 8076 2847 14       		.uleb128 0x14
 8077 2848 04260000 		.4byte	.LASF594
 8078 284c 04       		.byte	0x4
ARM GAS  e:\temp\ccdoSeHU.s 			page 169


 8079 284d E90A     		.2byte	0xae9
 8080 284f BE230000 		.4byte	0x23be
 8081 2853 99       		.byte	0x99
 8082 2854 14       		.uleb128 0x14
 8083 2855 EC1A0000 		.4byte	.LASF595
 8084 2859 04       		.byte	0x4
 8085 285a EA0A     		.2byte	0xaea
 8086 285c BE230000 		.4byte	0x23be
 8087 2860 9A       		.byte	0x9a
 8088 2861 14       		.uleb128 0x14
 8089 2862 41240000 		.4byte	.LASF403
 8090 2866 04       		.byte	0x4
 8091 2867 EB0A     		.2byte	0xaeb
 8092 2869 BE230000 		.4byte	0x23be
 8093 286d 9B       		.byte	0x9b
 8094 286e 14       		.uleb128 0x14
 8095 286f FF2B0000 		.4byte	.LASF596
 8096 2873 04       		.byte	0x4
 8097 2874 EC0A     		.2byte	0xaec
 8098 2876 C5070000 		.4byte	0x7c5
 8099 287a 9C       		.byte	0x9c
 8100 287b 14       		.uleb128 0x14
 8101 287c FF000000 		.4byte	.LASF597
 8102 2880 04       		.byte	0x4
 8103 2881 F00A     		.2byte	0xaf0
 8104 2883 BE230000 		.4byte	0x23be
 8105 2887 9D       		.byte	0x9d
 8106 2888 14       		.uleb128 0x14
 8107 2889 770C0000 		.4byte	.LASF598
 8108 288d 04       		.byte	0x4
 8109 288e F10A     		.2byte	0xaf1
 8110 2890 BE230000 		.4byte	0x23be
 8111 2894 9E       		.byte	0x9e
 8112 2895 14       		.uleb128 0x14
 8113 2896 DD0F0000 		.4byte	.LASF599
 8114 289a 04       		.byte	0x4
 8115 289b F20A     		.2byte	0xaf2
 8116 289d BE230000 		.4byte	0x23be
 8117 28a1 9F       		.byte	0x9f
 8118 28a2 14       		.uleb128 0x14
 8119 28a3 FB280000 		.4byte	.LASF600
 8120 28a7 04       		.byte	0x4
 8121 28a8 F30A     		.2byte	0xaf3
 8122 28aa BE230000 		.4byte	0x23be
 8123 28ae A0       		.byte	0xa0
 8124 28af 14       		.uleb128 0x14
 8125 28b0 E4000000 		.4byte	.LASF601
 8126 28b4 04       		.byte	0x4
 8127 28b5 F40A     		.2byte	0xaf4
 8128 28b7 2A2A0000 		.4byte	0x2a2a
 8129 28bb A1       		.byte	0xa1
 8130 28bc 14       		.uleb128 0x14
 8131 28bd E5250000 		.4byte	.LASF602
 8132 28c1 04       		.byte	0x4
 8133 28c2 F50A     		.2byte	0xaf5
 8134 28c4 89060000 		.4byte	0x689
 8135 28c8 A2       		.byte	0xa2
ARM GAS  e:\temp\ccdoSeHU.s 			page 170


 8136 28c9 14       		.uleb128 0x14
 8137 28ca 3A030000 		.4byte	.LASF603
 8138 28ce 04       		.byte	0x4
 8139 28cf F60A     		.2byte	0xaf6
 8140 28d1 E6000000 		.4byte	0xe6
 8141 28d5 A4       		.byte	0xa4
 8142 28d6 14       		.uleb128 0x14
 8143 28d7 511F0000 		.4byte	.LASF604
 8144 28db 04       		.byte	0x4
 8145 28dc F70A     		.2byte	0xaf7
 8146 28de E6000000 		.4byte	0xe6
 8147 28e2 A8       		.byte	0xa8
 8148 28e3 14       		.uleb128 0x14
 8149 28e4 C31C0000 		.4byte	.LASF605
 8150 28e8 04       		.byte	0x4
 8151 28e9 F80A     		.2byte	0xaf8
 8152 28eb D9200000 		.4byte	0x20d9
 8153 28ef AC       		.byte	0xac
 8154 28f0 14       		.uleb128 0x14
 8155 28f1 682C0000 		.4byte	.LASF606
 8156 28f5 04       		.byte	0x4
 8157 28f6 F90A     		.2byte	0xaf9
 8158 28f8 EF1E0000 		.4byte	0x1eef
 8159 28fc B4       		.byte	0xb4
 8160 28fd 14       		.uleb128 0x14
 8161 28fe BB1C0000 		.4byte	.LASF607
 8162 2902 04       		.byte	0x4
 8163 2903 FB0A     		.2byte	0xafb
 8164 2905 EF1E0000 		.4byte	0x1eef
 8165 2909 B8       		.byte	0xb8
 8166 290a 14       		.uleb128 0x14
 8167 290b F21E0000 		.4byte	.LASF608
 8168 290f 04       		.byte	0x4
 8169 2910 FC0A     		.2byte	0xafc
 8170 2912 BE230000 		.4byte	0x23be
 8171 2916 BC       		.byte	0xbc
 8172 2917 14       		.uleb128 0x14
 8173 2918 27060000 		.4byte	.LASF609
 8174 291c 04       		.byte	0x4
 8175 291d FE0A     		.2byte	0xafe
 8176 291f 2F2A0000 		.4byte	0x2a2f
 8177 2923 C0       		.byte	0xc0
 8178 2924 14       		.uleb128 0x14
 8179 2925 3F2A0000 		.4byte	.LASF610
 8180 2929 04       		.byte	0x4
 8181 292a FF0A     		.2byte	0xaff
 8182 292c 49210000 		.4byte	0x2149
 8183 2930 C4       		.byte	0xc4
 8184 2931 14       		.uleb128 0x14
 8185 2932 312A0000 		.4byte	.LASF611
 8186 2936 04       		.byte	0x4
 8187 2937 000B     		.2byte	0xb00
 8188 2939 F4210000 		.4byte	0x21f4
 8189 293d C8       		.byte	0xc8
 8190 293e 14       		.uleb128 0x14
 8191 293f 5B1F0000 		.4byte	.LASF612
 8192 2943 04       		.byte	0x4
ARM GAS  e:\temp\ccdoSeHU.s 			page 171


 8193 2944 010B     		.2byte	0xb01
 8194 2946 352A0000 		.4byte	0x2a35
 8195 294a CC       		.byte	0xcc
 8196 294b 14       		.uleb128 0x14
 8197 294c 01180000 		.4byte	.LASF613
 8198 2950 04       		.byte	0x4
 8199 2951 020B     		.2byte	0xb02
 8200 2953 9C200000 		.4byte	0x209c
 8201 2957 D0       		.byte	0xd0
 8202 2958 14       		.uleb128 0x14
 8203 2959 BB0C0000 		.4byte	.LASF614
 8204 295d 04       		.byte	0x4
 8205 295e 040B     		.2byte	0xb04
 8206 2960 941F0000 		.4byte	0x1f94
 8207 2964 FC       		.byte	0xfc
 8208 2965 1D       		.uleb128 0x1d
 8209 2966 E8040000 		.4byte	.LASF615
 8210 296a 04       		.byte	0x4
 8211 296b 050B     		.2byte	0xb05
 8212 296d 15200000 		.4byte	0x2015
 8213 2971 0C01     		.2byte	0x10c
 8214 2973 1D       		.uleb128 0x1d
 8215 2974 4C0B0000 		.4byte	.LASF616
 8216 2978 04       		.byte	0x4
 8217 2979 060B     		.2byte	0xb06
 8218 297b 15200000 		.4byte	0x2015
 8219 297f 2801     		.2byte	0x128
 8220 2981 1D       		.uleb128 0x1d
 8221 2982 340E0000 		.4byte	.LASF617
 8222 2986 04       		.byte	0x4
 8223 2987 070B     		.2byte	0xb07
 8224 2989 EF1E0000 		.4byte	0x1eef
 8225 298d 4401     		.2byte	0x144
 8226 298f 1D       		.uleb128 0x1d
 8227 2990 A30B0000 		.4byte	.LASF618
 8228 2994 04       		.byte	0x4
 8229 2995 080B     		.2byte	0xb08
 8230 2997 EF1E0000 		.4byte	0x1eef
 8231 299b 4801     		.2byte	0x148
 8232 299d 1D       		.uleb128 0x1d
 8233 299e F60A0000 		.4byte	.LASF619
 8234 29a2 04       		.byte	0x4
 8235 29a3 090B     		.2byte	0xb09
 8236 29a5 EF1E0000 		.4byte	0x1eef
 8237 29a9 4C01     		.2byte	0x14c
 8238 29ab 1D       		.uleb128 0x1d
 8239 29ac A1100000 		.4byte	.LASF620
 8240 29b0 04       		.byte	0x4
 8241 29b1 0B0B     		.2byte	0xb0b
 8242 29b3 EF1E0000 		.4byte	0x1eef
 8243 29b7 5001     		.2byte	0x150
 8244 29b9 1D       		.uleb128 0x1d
 8245 29ba 42220000 		.4byte	.LASF621
 8246 29be 04       		.byte	0x4
 8247 29bf 0D0B     		.2byte	0xb0d
 8248 29c1 EF1E0000 		.4byte	0x1eef
 8249 29c5 5401     		.2byte	0x154
ARM GAS  e:\temp\ccdoSeHU.s 			page 172


 8250 29c7 1D       		.uleb128 0x1d
 8251 29c8 28020000 		.4byte	.LASF622
 8252 29cc 04       		.byte	0x4
 8253 29cd 0E0B     		.2byte	0xb0e
 8254 29cf EF1E0000 		.4byte	0x1eef
 8255 29d3 5801     		.2byte	0x158
 8256 29d5 1D       		.uleb128 0x1d
 8257 29d6 55210000 		.4byte	.LASF623
 8258 29da 04       		.byte	0x4
 8259 29db 100B     		.2byte	0xb10
 8260 29dd 3B2A0000 		.4byte	0x2a3b
 8261 29e1 5C01     		.2byte	0x15c
 8262 29e3 1D       		.uleb128 0x1d
 8263 29e4 B9170000 		.4byte	.LASF624
 8264 29e8 04       		.byte	0x4
 8265 29e9 130B     		.2byte	0xb13
 8266 29eb B8000000 		.4byte	0xb8
 8267 29ef 6001     		.2byte	0x160
 8268 29f1 1D       		.uleb128 0x1d
 8269 29f2 66190000 		.4byte	.LASF625
 8270 29f6 04       		.byte	0x4
 8271 29f7 140B     		.2byte	0xb14
 8272 29f9 631F0000 		.4byte	0x1f63
 8273 29fd 6401     		.2byte	0x164
 8274 29ff 1D       		.uleb128 0x1d
 8275 2a00 1D120000 		.4byte	.LASF626
 8276 2a04 04       		.byte	0x4
 8277 2a05 150B     		.2byte	0xb15
 8278 2a07 412A0000 		.4byte	0x2a41
 8279 2a0b 6C01     		.2byte	0x16c
 8280 2a0d 1D       		.uleb128 0x1d
 8281 2a0e D6130000 		.4byte	.LASF627
 8282 2a12 04       		.byte	0x4
 8283 2a13 160B     		.2byte	0xb16
 8284 2a15 A41F0000 		.4byte	0x1fa4
 8285 2a19 8401     		.2byte	0x184
 8286 2a1b 1D       		.uleb128 0x1d
 8287 2a1c 36050000 		.4byte	.LASF628
 8288 2a20 04       		.byte	0x4
 8289 2a21 170B     		.2byte	0xb17
 8290 2a23 A2000000 		.4byte	0xa2
 8291 2a27 8801     		.2byte	0x188
 8292 2a29 00       		.byte	0
 8293 2a2a 05       		.uleb128 0x5
 8294 2a2b BE230000 		.4byte	0x23be
 8295 2a2f 15       		.uleb128 0x15
 8296 2a30 04       		.byte	0x4
 8297 2a31 7C240000 		.4byte	0x247c
 8298 2a35 15       		.uleb128 0x15
 8299 2a36 04       		.byte	0x4
 8300 2a37 9C200000 		.4byte	0x209c
 8301 2a3b 15       		.uleb128 0x15
 8302 2a3c 04       		.byte	0x4
 8303 2a3d 3D210000 		.4byte	0x213d
 8304 2a41 0D       		.uleb128 0xd
 8305 2a42 A2000000 		.4byte	0xa2
 8306 2a46 512A0000 		.4byte	0x2a51
ARM GAS  e:\temp\ccdoSeHU.s 			page 173


 8307 2a4a 0E       		.uleb128 0xe
 8308 2a4b DF000000 		.4byte	0xdf
 8309 2a4f 17       		.byte	0x17
 8310 2a50 00       		.byte	0
 8311 2a51 08       		.uleb128 0x8
 8312 2a52 58180000 		.4byte	.LASF629
 8313 2a56 04       		.byte	0x4
 8314 2a57 2E0B     		.2byte	0xb2e
 8315 2a59 88240000 		.4byte	0x2488
 8316 2a5d 1E       		.uleb128 0x1e
 8317 2a5e D0160000 		.4byte	.LASF769
 8318 2a62 01       		.byte	0x1
 8319 2a63 30000000 		.4byte	0x30
 8320 2a67 05       		.byte	0x5
 8321 2a68 48       		.byte	0x48
 8322 2a69 D42A0000 		.4byte	0x2ad4
 8323 2a6d 1F       		.uleb128 0x1f
 8324 2a6e A52A0000 		.4byte	.LASF630
 8325 2a72 7E       		.sleb128 -2
 8326 2a73 07       		.uleb128 0x7
 8327 2a74 8E130000 		.4byte	.LASF631
 8328 2a78 00       		.byte	0
 8329 2a79 07       		.uleb128 0x7
 8330 2a7a 93180000 		.4byte	.LASF632
 8331 2a7e 01       		.byte	0x1
 8332 2a7f 07       		.uleb128 0x7
 8333 2a80 B6160000 		.4byte	.LASF633
 8334 2a84 02       		.byte	0x2
 8335 2a85 07       		.uleb128 0x7
 8336 2a86 75140000 		.4byte	.LASF634
 8337 2a8a 03       		.byte	0x3
 8338 2a8b 07       		.uleb128 0x7
 8339 2a8c 12240000 		.4byte	.LASF635
 8340 2a90 05       		.byte	0x5
 8341 2a91 07       		.uleb128 0x7
 8342 2a92 B1220000 		.4byte	.LASF636
 8343 2a96 06       		.byte	0x6
 8344 2a97 07       		.uleb128 0x7
 8345 2a98 852C0000 		.4byte	.LASF637
 8346 2a9c 07       		.byte	0x7
 8347 2a9d 07       		.uleb128 0x7
 8348 2a9e 6C0A0000 		.4byte	.LASF638
 8349 2aa2 08       		.byte	0x8
 8350 2aa3 07       		.uleb128 0x7
 8351 2aa4 86110000 		.4byte	.LASF639
 8352 2aa8 09       		.byte	0x9
 8353 2aa9 07       		.uleb128 0x7
 8354 2aaa 3D070000 		.4byte	.LASF640
 8355 2aae 0A       		.byte	0xa
 8356 2aaf 07       		.uleb128 0x7
 8357 2ab0 84100000 		.4byte	.LASF641
 8358 2ab4 0B       		.byte	0xb
 8359 2ab5 07       		.uleb128 0x7
 8360 2ab6 2F060000 		.4byte	.LASF642
 8361 2aba 0C       		.byte	0xc
 8362 2abb 07       		.uleb128 0x7
 8363 2abc FE1E0000 		.4byte	.LASF643
ARM GAS  e:\temp\ccdoSeHU.s 			page 174


 8364 2ac0 0D       		.byte	0xd
 8365 2ac1 07       		.uleb128 0x7
 8366 2ac2 23180000 		.4byte	.LASF644
 8367 2ac6 0E       		.byte	0xe
 8368 2ac7 07       		.uleb128 0x7
 8369 2ac8 BA2A0000 		.4byte	.LASF645
 8370 2acc 0F       		.byte	0xf
 8371 2acd 07       		.uleb128 0x7
 8372 2ace 071E0000 		.4byte	.LASF646
 8373 2ad2 10       		.byte	0x10
 8374 2ad3 00       		.byte	0
 8375 2ad4 02       		.uleb128 0x2
 8376 2ad5 09090000 		.4byte	.LASF647
 8377 2ad9 05       		.byte	0x5
 8378 2ada 5E       		.byte	0x5e
 8379 2adb 5D2A0000 		.4byte	0x2a5d
 8380 2adf 06       		.uleb128 0x6
 8381 2ae0 01       		.byte	0x1
 8382 2ae1 42000000 		.4byte	0x42
 8383 2ae5 06       		.byte	0x6
 8384 2ae6 5501     		.2byte	0x155
 8385 2ae8 112B0000 		.4byte	0x2b11
 8386 2aec 07       		.uleb128 0x7
 8387 2aed 11190000 		.4byte	.LASF648
 8388 2af1 00       		.byte	0
 8389 2af2 07       		.uleb128 0x7
 8390 2af3 D8190000 		.4byte	.LASF649
 8391 2af7 01       		.byte	0x1
 8392 2af8 07       		.uleb128 0x7
 8393 2af9 47170000 		.4byte	.LASF650
 8394 2afd 02       		.byte	0x2
 8395 2afe 07       		.uleb128 0x7
 8396 2aff FF190000 		.4byte	.LASF651
 8397 2b03 04       		.byte	0x4
 8398 2b04 07       		.uleb128 0x7
 8399 2b05 592B0000 		.4byte	.LASF652
 8400 2b09 08       		.byte	0x8
 8401 2b0a 07       		.uleb128 0x7
 8402 2b0b 83170000 		.4byte	.LASF653
 8403 2b0f 80       		.byte	0x80
 8404 2b10 00       		.byte	0
 8405 2b11 20       		.uleb128 0x20
 8406 2b12 01       		.byte	0x1
 8407 2b13 42000000 		.4byte	0x42
 8408 2b17 07       		.byte	0x7
 8409 2b18 63       		.byte	0x63
 8410 2b19 4E2B0000 		.4byte	0x2b4e
 8411 2b1d 07       		.uleb128 0x7
 8412 2b1e 28050000 		.4byte	.LASF654
 8413 2b22 00       		.byte	0
 8414 2b23 07       		.uleb128 0x7
 8415 2b24 3B1C0000 		.4byte	.LASF655
 8416 2b28 01       		.byte	0x1
 8417 2b29 07       		.uleb128 0x7
 8418 2b2a 5F060000 		.4byte	.LASF656
 8419 2b2e 02       		.byte	0x2
 8420 2b2f 07       		.uleb128 0x7
ARM GAS  e:\temp\ccdoSeHU.s 			page 175


 8421 2b30 08070000 		.4byte	.LASF657
 8422 2b34 03       		.byte	0x3
 8423 2b35 07       		.uleb128 0x7
 8424 2b36 8E010000 		.4byte	.LASF658
 8425 2b3a 04       		.byte	0x4
 8426 2b3b 07       		.uleb128 0x7
 8427 2b3c A3270000 		.4byte	.LASF659
 8428 2b40 05       		.byte	0x5
 8429 2b41 07       		.uleb128 0x7
 8430 2b42 680F0000 		.4byte	.LASF660
 8431 2b46 06       		.byte	0x6
 8432 2b47 07       		.uleb128 0x7
 8433 2b48 571C0000 		.4byte	.LASF661
 8434 2b4c 07       		.byte	0x7
 8435 2b4d 00       		.byte	0
 8436 2b4e 02       		.uleb128 0x2
 8437 2b4f 92040000 		.4byte	.LASF662
 8438 2b53 07       		.byte	0x7
 8439 2b54 6E       		.byte	0x6e
 8440 2b55 112B0000 		.4byte	0x2b11
 8441 2b59 20       		.uleb128 0x20
 8442 2b5a 01       		.byte	0x1
 8443 2b5b 42000000 		.4byte	0x42
 8444 2b5f 07       		.byte	0x7
 8445 2b60 77       		.byte	0x77
 8446 2b61 7E2B0000 		.4byte	0x2b7e
 8447 2b65 07       		.uleb128 0x7
 8448 2b66 191A0000 		.4byte	.LASF663
 8449 2b6a 00       		.byte	0
 8450 2b6b 07       		.uleb128 0x7
 8451 2b6c BA150000 		.4byte	.LASF664
 8452 2b70 01       		.byte	0x1
 8453 2b71 07       		.uleb128 0x7
 8454 2b72 A7020000 		.4byte	.LASF665
 8455 2b76 02       		.byte	0x2
 8456 2b77 07       		.uleb128 0x7
 8457 2b78 56050000 		.4byte	.LASF666
 8458 2b7c 03       		.byte	0x3
 8459 2b7d 00       		.byte	0
 8460 2b7e 02       		.uleb128 0x2
 8461 2b7f 870D0000 		.4byte	.LASF667
 8462 2b83 07       		.byte	0x7
 8463 2b84 7D       		.byte	0x7d
 8464 2b85 592B0000 		.4byte	0x2b59
 8465 2b89 21       		.uleb128 0x21
 8466 2b8a 1C       		.byte	0x1c
 8467 2b8b 07       		.byte	0x7
 8468 2b8c 89       		.byte	0x89
 8469 2b8d CE2B0000 		.4byte	0x2bce
 8470 2b91 22       		.uleb128 0x22
 8471 2b92 5F210000 		.4byte	.LASF668
 8472 2b96 07       		.byte	0x7
 8473 2b97 8B       		.byte	0x8b
 8474 2b98 EF1E0000 		.4byte	0x1eef
 8475 2b9c 00       		.byte	0
 8476 2b9d 22       		.uleb128 0x22
 8477 2b9e 36280000 		.4byte	.LASF669
ARM GAS  e:\temp\ccdoSeHU.s 			page 176


 8478 2ba2 07       		.byte	0x7
 8479 2ba3 8C       		.byte	0x8c
 8480 2ba4 EF1E0000 		.4byte	0x1eef
 8481 2ba8 04       		.byte	0x4
 8482 2ba9 22       		.uleb128 0x22
 8483 2baa BB1C0000 		.4byte	.LASF607
 8484 2bae 07       		.byte	0x7
 8485 2baf 8D       		.byte	0x8d
 8486 2bb0 CE2B0000 		.4byte	0x2bce
 8487 2bb4 08       		.byte	0x8
 8488 2bb5 22       		.uleb128 0x22
 8489 2bb6 7E1A0000 		.4byte	.LASF670
 8490 2bba 07       		.byte	0x7
 8491 2bbb 8E       		.byte	0x8e
 8492 2bbc 6F1F0000 		.4byte	0x1f6f
 8493 2bc0 0C       		.byte	0xc
 8494 2bc1 22       		.uleb128 0x22
 8495 2bc2 E2020000 		.4byte	.LASF671
 8496 2bc6 07       		.byte	0x7
 8497 2bc7 8F       		.byte	0x8f
 8498 2bc8 6F1F0000 		.4byte	0x1f6f
 8499 2bcc 14       		.byte	0x14
 8500 2bcd 00       		.byte	0
 8501 2bce 15       		.uleb128 0x15
 8502 2bcf 04       		.byte	0x4
 8503 2bd0 D42B0000 		.4byte	0x2bd4
 8504 2bd4 19       		.uleb128 0x19
 8505 2bd5 EF1E0000 		.4byte	0x1eef
 8506 2bd9 02       		.uleb128 0x2
 8507 2bda 30100000 		.4byte	.LASF672
 8508 2bde 07       		.byte	0x7
 8509 2bdf 91       		.byte	0x91
 8510 2be0 892B0000 		.4byte	0x2b89
 8511 2be4 21       		.uleb128 0x21
 8512 2be5 24       		.byte	0x24
 8513 2be6 07       		.byte	0x7
 8514 2be7 99       		.byte	0x99
 8515 2be8 1D2C0000 		.4byte	0x2c1d
 8516 2bec 22       		.uleb128 0x22
 8517 2bed 6C030000 		.4byte	.LASF673
 8518 2bf1 07       		.byte	0x7
 8519 2bf2 9B       		.byte	0x9b
 8520 2bf3 EF1E0000 		.4byte	0x1eef
 8521 2bf7 00       		.byte	0
 8522 2bf8 22       		.uleb128 0x22
 8523 2bf9 B2210000 		.4byte	.LASF674
 8524 2bfd 07       		.byte	0x7
 8525 2bfe 9C       		.byte	0x9c
 8526 2bff A2000000 		.4byte	0xa2
 8527 2c03 04       		.byte	0x4
 8528 2c04 22       		.uleb128 0x22
 8529 2c05 2D2B0000 		.4byte	.LASF675
 8530 2c09 07       		.byte	0x7
 8531 2c0a 9D       		.byte	0x9d
 8532 2c0b A2000000 		.4byte	0xa2
 8533 2c0f 05       		.byte	0x5
 8534 2c10 23       		.uleb128 0x23
ARM GAS  e:\temp\ccdoSeHU.s 			page 177


 8535 2c11 76646F00 		.ascii	"vdo\000"
 8536 2c15 07       		.byte	0x7
 8537 2c16 9E       		.byte	0x9e
 8538 2c17 15200000 		.4byte	0x2015
 8539 2c1b 08       		.byte	0x8
 8540 2c1c 00       		.byte	0
 8541 2c1d 02       		.uleb128 0x2
 8542 2c1e B00B0000 		.4byte	.LASF676
 8543 2c22 07       		.byte	0x7
 8544 2c23 A0       		.byte	0xa0
 8545 2c24 E42B0000 		.4byte	0x2be4
 8546 2c28 20       		.uleb128 0x20
 8547 2c29 01       		.byte	0x1
 8548 2c2a 42000000 		.4byte	0x42
 8549 2c2e 08       		.byte	0x8
 8550 2c2f EC       		.byte	0xec
 8551 2c30 4D2C0000 		.4byte	0x2c4d
 8552 2c34 07       		.uleb128 0x7
 8553 2c35 271F0000 		.4byte	.LASF677
 8554 2c39 00       		.byte	0
 8555 2c3a 07       		.uleb128 0x7
 8556 2c3b 4B280000 		.4byte	.LASF678
 8557 2c3f 01       		.byte	0x1
 8558 2c40 07       		.uleb128 0x7
 8559 2c41 121B0000 		.4byte	.LASF679
 8560 2c45 02       		.byte	0x2
 8561 2c46 07       		.uleb128 0x7
 8562 2c47 3C0D0000 		.4byte	.LASF680
 8563 2c4b 03       		.byte	0x3
 8564 2c4c 00       		.byte	0
 8565 2c4d 02       		.uleb128 0x2
 8566 2c4e EC1C0000 		.4byte	.LASF681
 8567 2c52 08       		.byte	0x8
 8568 2c53 F1       		.byte	0xf1
 8569 2c54 282C0000 		.4byte	0x2c28
 8570 2c58 21       		.uleb128 0x21
 8571 2c59 48       		.byte	0x48
 8572 2c5a 01       		.byte	0x1
 8573 2c5b 36       		.byte	0x36
 8574 2c5c B52C0000 		.4byte	0x2cb5
 8575 2c60 22       		.uleb128 0x22
 8576 2c61 FD230000 		.4byte	.LASF682
 8577 2c65 01       		.byte	0x1
 8578 2c66 39       		.byte	0x39
 8579 2c67 4E2B0000 		.4byte	0x2b4e
 8580 2c6b 00       		.byte	0
 8581 2c6c 22       		.uleb128 0x22
 8582 2c6d 9B160000 		.4byte	.LASF683
 8583 2c71 01       		.byte	0x1
 8584 2c72 3B       		.byte	0x3b
 8585 2c73 7E2B0000 		.4byte	0x2b7e
 8586 2c77 01       		.byte	0x1
 8587 2c78 22       		.uleb128 0x22
 8588 2c79 80020000 		.4byte	.LASF684
 8589 2c7d 01       		.byte	0x1
 8590 2c7e 3D       		.byte	0x3d
 8591 2c7f D92B0000 		.4byte	0x2bd9
ARM GAS  e:\temp\ccdoSeHU.s 			page 178


 8592 2c83 04       		.byte	0x4
 8593 2c84 22       		.uleb128 0x22
 8594 2c85 640A0000 		.4byte	.LASF685
 8595 2c89 01       		.byte	0x1
 8596 2c8a 3F       		.byte	0x3f
 8597 2c8b 1D2C0000 		.4byte	0x2c1d
 8598 2c8f 20       		.byte	0x20
 8599 2c90 22       		.uleb128 0x22
 8600 2c91 85180000 		.4byte	.LASF686
 8601 2c95 01       		.byte	0x1
 8602 2c96 41       		.byte	0x41
 8603 2c97 A2000000 		.4byte	0xa2
 8604 2c9b 44       		.byte	0x44
 8605 2c9c 22       		.uleb128 0x22
 8606 2c9d 8A080000 		.4byte	.LASF687
 8607 2ca1 01       		.byte	0x1
 8608 2ca2 43       		.byte	0x43
 8609 2ca3 A2000000 		.4byte	0xa2
 8610 2ca7 45       		.byte	0x45
 8611 2ca8 22       		.uleb128 0x22
 8612 2ca9 68200000 		.4byte	.LASF688
 8613 2cad 01       		.byte	0x1
 8614 2cae 45       		.byte	0x45
 8615 2caf A2000000 		.4byte	0xa2
 8616 2cb3 46       		.byte	0x46
 8617 2cb4 00       		.byte	0
 8618 2cb5 02       		.uleb128 0x2
 8619 2cb6 72210000 		.4byte	.LASF689
 8620 2cba 01       		.byte	0x1
 8621 2cbb 46       		.byte	0x46
 8622 2cbc 582C0000 		.4byte	0x2c58
 8623 2cc0 20       		.uleb128 0x20
 8624 2cc1 01       		.byte	0x1
 8625 2cc2 42000000 		.4byte	0x42
 8626 2cc6 01       		.byte	0x1
 8627 2cc7 81       		.byte	0x81
 8628 2cc8 E52C0000 		.4byte	0x2ce5
 8629 2ccc 07       		.uleb128 0x7
 8630 2ccd 002A0000 		.4byte	.LASF690
 8631 2cd1 00       		.byte	0
 8632 2cd2 07       		.uleb128 0x7
 8633 2cd3 0E110000 		.4byte	.LASF691
 8634 2cd7 01       		.byte	0x1
 8635 2cd8 07       		.uleb128 0x7
 8636 2cd9 270C0000 		.4byte	.LASF692
 8637 2cdd 02       		.byte	0x2
 8638 2cde 07       		.uleb128 0x7
 8639 2cdf CC1C0000 		.4byte	.LASF693
 8640 2ce3 03       		.byte	0x3
 8641 2ce4 00       		.byte	0
 8642 2ce5 02       		.uleb128 0x2
 8643 2ce6 AB110000 		.4byte	.LASF694
 8644 2cea 01       		.byte	0x1
 8645 2ceb 86       		.byte	0x86
 8646 2cec C02C0000 		.4byte	0x2cc0
 8647 2cf0 24       		.uleb128 0x24
 8648 2cf1 022B0000 		.4byte	.LASF699
ARM GAS  e:\temp\ccdoSeHU.s 			page 179


 8649 2cf5 01       		.byte	0x1
 8650 2cf6 2902     		.2byte	0x229
 8651 2cf8 BE230000 		.4byte	0x23be
 8652 2cfc 00000000 		.4byte	.LFB40
 8653 2d00 1C000000 		.4byte	.LFE40-.LFB40
 8654 2d04 01       		.uleb128 0x1
 8655 2d05 9C       		.byte	0x9c
 8656 2d06 392D0000 		.4byte	0x2d39
 8657 2d0a 25       		.uleb128 0x25
 8658 2d0b 9C1C0000 		.4byte	.LASF695
 8659 2d0f 01       		.byte	0x1
 8660 2d10 2902     		.2byte	0x229
 8661 2d12 392D0000 		.4byte	0x2d39
 8662 2d16 00000000 		.4byte	.LLST0
 8663 2d1a 26       		.uleb128 0x26
 8664 2d1b 380F0000 		.4byte	.LASF320
 8665 2d1f 01       		.byte	0x1
 8666 2d20 2902     		.2byte	0x229
 8667 2d22 AD000000 		.4byte	0xad
 8668 2d26 01       		.uleb128 0x1
 8669 2d27 51       		.byte	0x51
 8670 2d28 27       		.uleb128 0x27
 8671 2d29 69647800 		.ascii	"idx\000"
 8672 2d2d 01       		.byte	0x1
 8673 2d2e 2B02     		.2byte	0x22b
 8674 2d30 A2000000 		.4byte	0xa2
 8675 2d34 3A000000 		.4byte	.LLST1
 8676 2d38 00       		.byte	0
 8677 2d39 15       		.uleb128 0x15
 8678 2d3a 04       		.byte	0x4
 8679 2d3b AD000000 		.4byte	0xad
 8680 2d3f 28       		.uleb128 0x28
 8681 2d40 FD1A0000 		.4byte	.LASF701
 8682 2d44 01       		.byte	0x1
 8683 2d45 6903     		.2byte	0x369
 8684 2d47 00000000 		.4byte	.LFB46
 8685 2d4b 34000000 		.4byte	.LFE46-.LFB46
 8686 2d4f 01       		.uleb128 0x1
 8687 2d50 9C       		.byte	0x9c
 8688 2d51 822D0000 		.4byte	0x2d82
 8689 2d55 26       		.uleb128 0x26
 8690 2d56 F5210000 		.4byte	.LASF696
 8691 2d5a 01       		.byte	0x1
 8692 2d5b 6903     		.2byte	0x369
 8693 2d5d A2000000 		.4byte	0xa2
 8694 2d61 01       		.uleb128 0x1
 8695 2d62 50       		.byte	0x50
 8696 2d63 26       		.uleb128 0x26
 8697 2d64 7F100000 		.4byte	.LASF697
 8698 2d68 01       		.byte	0x1
 8699 2d69 6903     		.2byte	0x369
 8700 2d6b 91020000 		.4byte	0x291
 8701 2d6f 01       		.uleb128 0x1
 8702 2d70 51       		.byte	0x51
 8703 2d71 25       		.uleb128 0x25
 8704 2d72 AE190000 		.4byte	.LASF698
 8705 2d76 01       		.byte	0x1
ARM GAS  e:\temp\ccdoSeHU.s 			page 180


 8706 2d77 6903     		.2byte	0x369
 8707 2d79 70210000 		.4byte	0x2170
 8708 2d7d 64000000 		.4byte	.LLST2
 8709 2d81 00       		.byte	0
 8710 2d82 24       		.uleb128 0x24
 8711 2d83 8F210000 		.4byte	.LASF700
 8712 2d87 01       		.byte	0x1
 8713 2d88 3D04     		.2byte	0x43d
 8714 2d8a AD2D0000 		.4byte	0x2dad
 8715 2d8e 00000000 		.4byte	.LFB56
 8716 2d92 14000000 		.4byte	.LFE56-.LFB56
 8717 2d96 01       		.uleb128 0x1
 8718 2d97 9C       		.byte	0x9c
 8719 2d98 AD2D0000 		.4byte	0x2dad
 8720 2d9c 25       		.uleb128 0x25
 8721 2d9d F5210000 		.4byte	.LASF696
 8722 2da1 01       		.byte	0x1
 8723 2da2 3D04     		.2byte	0x43d
 8724 2da4 A2000000 		.4byte	0xa2
 8725 2da8 9E000000 		.4byte	.LLST3
 8726 2dac 00       		.byte	0
 8727 2dad 15       		.uleb128 0x15
 8728 2dae 04       		.byte	0x4
 8729 2daf 1D2C0000 		.4byte	0x2c1d
 8730 2db3 28       		.uleb128 0x28
 8731 2db4 63050000 		.4byte	.LASF702
 8732 2db8 01       		.byte	0x1
 8733 2db9 8602     		.2byte	0x286
 8734 2dbb 00000000 		.4byte	.LFB42
 8735 2dbf 24000000 		.4byte	.LFE42-.LFB42
 8736 2dc3 01       		.uleb128 0x1
 8737 2dc4 9C       		.byte	0x9c
 8738 2dc5 012E0000 		.4byte	0x2e01
 8739 2dc9 25       		.uleb128 0x25
 8740 2dca F5210000 		.4byte	.LASF696
 8741 2dce 01       		.byte	0x1
 8742 2dcf 8602     		.2byte	0x286
 8743 2dd1 A2000000 		.4byte	0xa2
 8744 2dd5 BF000000 		.4byte	.LLST4
 8745 2dd9 29       		.uleb128 0x29
 8746 2dda 736F7000 		.ascii	"sop\000"
 8747 2dde 01       		.byte	0x1
 8748 2ddf 8602     		.2byte	0x286
 8749 2de1 A2000000 		.4byte	0xa2
 8750 2de5 E0000000 		.4byte	.LLST5
 8751 2de9 2A       		.uleb128 0x2a
 8752 2dea CB000000 		.4byte	.LASF703
 8753 2dee 01       		.byte	0x1
 8754 2def 8802     		.2byte	0x288
 8755 2df1 AD2D0000 		.4byte	0x2dad
 8756 2df5 01       		.uleb128 0x1
 8757 2df6 50       		.byte	0x50
 8758 2df7 2B       		.uleb128 0x2b
 8759 2df8 08000000 		.4byte	.LVL14
 8760 2dfc 822D0000 		.4byte	0x2d82
 8761 2e00 00       		.byte	0
 8762 2e01 24       		.uleb128 0x24
ARM GAS  e:\temp\ccdoSeHU.s 			page 181


 8763 2e02 38220000 		.4byte	.LASF704
 8764 2e06 01       		.byte	0x1
 8765 2e07 E103     		.2byte	0x3e1
 8766 2e09 A2000000 		.4byte	0xa2
 8767 2e0d 00000000 		.4byte	.LFB49
 8768 2e11 3C000000 		.4byte	.LFE49-.LFB49
 8769 2e15 01       		.uleb128 0x1
 8770 2e16 9C       		.byte	0x9c
 8771 2e17 652E0000 		.4byte	0x2e65
 8772 2e1b 25       		.uleb128 0x25
 8773 2e1c F5210000 		.4byte	.LASF696
 8774 2e20 01       		.byte	0x1
 8775 2e21 E103     		.2byte	0x3e1
 8776 2e23 A2000000 		.4byte	0xa2
 8777 2e27 01010000 		.4byte	.LLST6
 8778 2e2b 25       		.uleb128 0x25
 8779 2e2c A1240000 		.4byte	.LASF705
 8780 2e30 01       		.byte	0x1
 8781 2e31 E103     		.2byte	0x3e1
 8782 2e33 70210000 		.4byte	0x2170
 8783 2e37 22010000 		.4byte	.LLST7
 8784 2e3b 2C       		.uleb128 0x2c
 8785 2e3c 540A0000 		.4byte	.LASF706
 8786 2e40 01       		.byte	0x1
 8787 2e41 E303     		.2byte	0x3e3
 8788 2e43 A2000000 		.4byte	0xa2
 8789 2e47 4E010000 		.4byte	.LLST8
 8790 2e4b 2C       		.uleb128 0x2c
 8791 2e4c CB000000 		.4byte	.LASF703
 8792 2e50 01       		.byte	0x1
 8793 2e51 E403     		.2byte	0x3e4
 8794 2e53 AD2D0000 		.4byte	0x2dad
 8795 2e57 77010000 		.4byte	.LLST9
 8796 2e5b 2B       		.uleb128 0x2b
 8797 2e5c 08000000 		.4byte	.LVL16
 8798 2e60 822D0000 		.4byte	0x2d82
 8799 2e64 00       		.byte	0
 8800 2e65 24       		.uleb128 0x24
 8801 2e66 8B290000 		.4byte	.LASF707
 8802 2e6a 01       		.byte	0x1
 8803 2e6b 2404     		.2byte	0x424
 8804 2e6d BE230000 		.4byte	0x23be
 8805 2e71 00000000 		.4byte	.LFB51
 8806 2e75 12000000 		.4byte	.LFE51-.LFB51
 8807 2e79 01       		.uleb128 0x1
 8808 2e7a 9C       		.byte	0x9c
 8809 2e7b 992E0000 		.4byte	0x2e99
 8810 2e7f 25       		.uleb128 0x25
 8811 2e80 F5210000 		.4byte	.LASF696
 8812 2e84 01       		.byte	0x1
 8813 2e85 2404     		.2byte	0x424
 8814 2e87 A2000000 		.4byte	0xa2
 8815 2e8b 8A010000 		.4byte	.LLST10
 8816 2e8f 2B       		.uleb128 0x2b
 8817 2e90 06000000 		.4byte	.LVL26
 8818 2e94 403F0000 		.4byte	0x3f40
 8819 2e98 00       		.byte	0
ARM GAS  e:\temp\ccdoSeHU.s 			page 182


 8820 2e99 28       		.uleb128 0x28
 8821 2e9a D4060000 		.4byte	.LASF708
 8822 2e9e 01       		.byte	0x1
 8823 2e9f 4003     		.2byte	0x340
 8824 2ea1 00000000 		.4byte	.LFB44
 8825 2ea5 84000000 		.4byte	.LFE44-.LFB44
 8826 2ea9 01       		.uleb128 0x1
 8827 2eaa 9C       		.byte	0x9c
 8828 2eab 592F0000 		.4byte	0x2f59
 8829 2eaf 25       		.uleb128 0x25
 8830 2eb0 F5210000 		.4byte	.LASF696
 8831 2eb4 01       		.byte	0x1
 8832 2eb5 4003     		.2byte	0x340
 8833 2eb7 A2000000 		.4byte	0xa2
 8834 2ebb AB010000 		.4byte	.LLST11
 8835 2ebf 2D       		.uleb128 0x2d
 8836 2ec0 2C000000 		.4byte	.LVL29
 8837 2ec4 4C3F0000 		.4byte	0x3f4c
 8838 2ec8 DE2E0000 		.4byte	0x2ede
 8839 2ecc 2E       		.uleb128 0x2e
 8840 2ecd 01       		.uleb128 0x1
 8841 2ece 50       		.byte	0x50
 8842 2ecf 02       		.uleb128 0x2
 8843 2ed0 75       		.byte	0x75
 8844 2ed1 04       		.sleb128 4
 8845 2ed2 2E       		.uleb128 0x2e
 8846 2ed3 01       		.uleb128 0x1
 8847 2ed4 51       		.byte	0x51
 8848 2ed5 02       		.uleb128 0x2
 8849 2ed6 76       		.byte	0x76
 8850 2ed7 00       		.sleb128 0
 8851 2ed8 2E       		.uleb128 0x2e
 8852 2ed9 01       		.uleb128 0x1
 8853 2eda 52       		.byte	0x52
 8854 2edb 01       		.uleb128 0x1
 8855 2edc 4C       		.byte	0x4c
 8856 2edd 00       		.byte	0
 8857 2ede 2D       		.uleb128 0x2d
 8858 2edf 32000000 		.4byte	.LVL30
 8859 2ee3 553F0000 		.4byte	0x3f55
 8860 2ee7 F22E0000 		.4byte	0x2ef2
 8861 2eeb 2E       		.uleb128 0x2e
 8862 2eec 01       		.uleb128 0x1
 8863 2eed 50       		.byte	0x50
 8864 2eee 02       		.uleb128 0x2
 8865 2eef 74       		.byte	0x74
 8866 2ef0 00       		.sleb128 0
 8867 2ef1 00       		.byte	0
 8868 2ef2 2D       		.uleb128 0x2d
 8869 2ef3 48000000 		.4byte	.LVL31
 8870 2ef7 603F0000 		.4byte	0x3f60
 8871 2efb 0C2F0000 		.4byte	0x2f0c
 8872 2eff 2E       		.uleb128 0x2e
 8873 2f00 01       		.uleb128 0x1
 8874 2f01 50       		.byte	0x50
 8875 2f02 02       		.uleb128 0x2
 8876 2f03 74       		.byte	0x74
ARM GAS  e:\temp\ccdoSeHU.s 			page 183


 8877 2f04 00       		.sleb128 0
 8878 2f05 2E       		.uleb128 0x2e
 8879 2f06 01       		.uleb128 0x1
 8880 2f07 51       		.byte	0x51
 8881 2f08 02       		.uleb128 0x2
 8882 2f09 08       		.byte	0x8
 8883 2f0a 28       		.byte	0x28
 8884 2f0b 00       		.byte	0
 8885 2f0c 2D       		.uleb128 0x2d
 8886 2f0d 5E000000 		.4byte	.LVL32
 8887 2f11 4C3F0000 		.4byte	0x3f4c
 8888 2f15 352F0000 		.4byte	0x2f35
 8889 2f19 2E       		.uleb128 0x2e
 8890 2f1a 01       		.uleb128 0x1
 8891 2f1b 50       		.byte	0x50
 8892 2f1c 0C       		.uleb128 0xc
 8893 2f1d 77       		.byte	0x77
 8894 2f1e 00       		.sleb128 0
 8895 2f1f 74       		.byte	0x74
 8896 2f20 00       		.sleb128 0
 8897 2f21 1C       		.byte	0x1c
 8898 2f22 32       		.byte	0x32
 8899 2f23 24       		.byte	0x24
 8900 2f24 75       		.byte	0x75
 8901 2f25 00       		.sleb128 0
 8902 2f26 22       		.byte	0x22
 8903 2f27 23       		.byte	0x23
 8904 2f28 0C       		.uleb128 0xc
 8905 2f29 2E       		.uleb128 0x2e
 8906 2f2a 01       		.uleb128 0x1
 8907 2f2b 51       		.byte	0x51
 8908 2f2c 02       		.uleb128 0x2
 8909 2f2d 76       		.byte	0x76
 8910 2f2e 00       		.sleb128 0
 8911 2f2f 2E       		.uleb128 0x2e
 8912 2f30 01       		.uleb128 0x1
 8913 2f31 52       		.byte	0x52
 8914 2f32 01       		.uleb128 0x1
 8915 2f33 4C       		.byte	0x4c
 8916 2f34 00       		.byte	0
 8917 2f35 2F       		.uleb128 0x2f
 8918 2f36 76000000 		.4byte	.LVL33
 8919 2f3a 4C3F0000 		.4byte	0x3f4c
 8920 2f3e 2E       		.uleb128 0x2e
 8921 2f3f 01       		.uleb128 0x1
 8922 2f40 50       		.byte	0x50
 8923 2f41 09       		.uleb128 0x9
 8924 2f42 74       		.byte	0x74
 8925 2f43 00       		.sleb128 0
 8926 2f44 33       		.byte	0x33
 8927 2f45 24       		.byte	0x24
 8928 2f46 75       		.byte	0x75
 8929 2f47 00       		.sleb128 0
 8930 2f48 22       		.byte	0x22
 8931 2f49 23       		.byte	0x23
 8932 2f4a 48       		.uleb128 0x48
 8933 2f4b 2E       		.uleb128 0x2e
ARM GAS  e:\temp\ccdoSeHU.s 			page 184


 8934 2f4c 01       		.uleb128 0x1
 8935 2f4d 51       		.byte	0x51
 8936 2f4e 02       		.uleb128 0x2
 8937 2f4f 76       		.byte	0x76
 8938 2f50 00       		.sleb128 0
 8939 2f51 2E       		.uleb128 0x2e
 8940 2f52 01       		.uleb128 0x1
 8941 2f53 52       		.byte	0x52
 8942 2f54 02       		.uleb128 0x2
 8943 2f55 08       		.byte	0x8
 8944 2f56 48       		.byte	0x48
 8945 2f57 00       		.byte	0
 8946 2f58 00       		.byte	0
 8947 2f59 24       		.uleb128 0x24
 8948 2f5a F4190000 		.4byte	.LASF709
 8949 2f5e 01       		.byte	0x1
 8950 2f5f 3E02     		.2byte	0x23e
 8951 2f61 BE230000 		.4byte	0x23be
 8952 2f65 00000000 		.4byte	.LFB41
 8953 2f69 E8000000 		.4byte	.LFE41-.LFB41
 8954 2f6d 01       		.uleb128 0x1
 8955 2f6e 9C       		.byte	0x9c
 8956 2f6f 49300000 		.4byte	0x3049
 8957 2f73 25       		.uleb128 0x25
 8958 2f74 F5210000 		.4byte	.LASF696
 8959 2f78 01       		.byte	0x1
 8960 2f79 3E02     		.2byte	0x23e
 8961 2f7b A2000000 		.4byte	0xa2
 8962 2f7f CC010000 		.4byte	.LLST12
 8963 2f83 25       		.uleb128 0x25
 8964 2f84 9C1C0000 		.4byte	.LASF695
 8965 2f88 01       		.byte	0x1
 8966 2f89 3E02     		.2byte	0x23e
 8967 2f8b 392D0000 		.4byte	0x2d39
 8968 2f8f ED010000 		.4byte	.LLST13
 8969 2f93 25       		.uleb128 0x25
 8970 2f94 A5030000 		.4byte	.LASF710
 8971 2f98 01       		.byte	0x1
 8972 2f99 3E02     		.2byte	0x23e
 8973 2f9b A2000000 		.4byte	0xa2
 8974 2f9f 0C020000 		.4byte	.LLST14
 8975 2fa3 27       		.uleb128 0x27
 8976 2fa4 69647800 		.ascii	"idx\000"
 8977 2fa8 01       		.byte	0x1
 8978 2fa9 4002     		.2byte	0x240
 8979 2fab A2000000 		.4byte	0xa2
 8980 2faf 2D020000 		.4byte	.LLST15
 8981 2fb3 2C       		.uleb128 0x2c
 8982 2fb4 6E020000 		.4byte	.LASF711
 8983 2fb8 01       		.byte	0x1
 8984 2fb9 4002     		.2byte	0x240
 8985 2fbb A2000000 		.4byte	0xa2
 8986 2fbf 4B020000 		.4byte	.LLST16
 8987 2fc3 2C       		.uleb128 0x2c
 8988 2fc4 380F0000 		.4byte	.LASF320
 8989 2fc8 01       		.byte	0x1
 8990 2fc9 4102     		.2byte	0x241
ARM GAS  e:\temp\ccdoSeHU.s 			page 185


 8991 2fcb AD000000 		.4byte	0xad
 8992 2fcf 7F020000 		.4byte	.LLST17
 8993 2fd3 2C       		.uleb128 0x2c
 8994 2fd4 8A080000 		.4byte	.LASF687
 8995 2fd8 01       		.byte	0x1
 8996 2fd9 4202     		.2byte	0x242
 8997 2fdb A2000000 		.4byte	0xa2
 8998 2fdf A8020000 		.4byte	.LLST18
 8999 2fe3 2C       		.uleb128 0x2c
 9000 2fe4 D4260000 		.4byte	.LASF712
 9001 2fe8 01       		.byte	0x1
 9002 2fe9 4302     		.2byte	0x243
 9003 2feb BE230000 		.4byte	0x23be
 9004 2fef D2020000 		.4byte	.LLST19
 9005 2ff3 2C       		.uleb128 0x2c
 9006 2ff4 CB000000 		.4byte	.LASF703
 9007 2ff8 01       		.byte	0x1
 9008 2ff9 4402     		.2byte	0x244
 9009 2ffb AD2D0000 		.4byte	0x2dad
 9010 2fff F1020000 		.4byte	.LLST20
 9011 3003 2D       		.uleb128 0x2d
 9012 3004 26000000 		.4byte	.LVL37
 9013 3008 822D0000 		.4byte	0x2d82
 9014 300c 17300000 		.4byte	0x3017
 9015 3010 2E       		.uleb128 0x2e
 9016 3011 01       		.uleb128 0x1
 9017 3012 50       		.byte	0x50
 9018 3013 02       		.uleb128 0x2
 9019 3014 7B       		.byte	0x7b
 9020 3015 00       		.sleb128 0
 9021 3016 00       		.byte	0
 9022 3017 2D       		.uleb128 0x2d
 9023 3018 6A000000 		.4byte	.LVL47
 9024 301c F02C0000 		.4byte	0x2cf0
 9025 3020 32300000 		.4byte	0x3032
 9026 3024 2E       		.uleb128 0x2e
 9027 3025 01       		.uleb128 0x1
 9028 3026 50       		.byte	0x50
 9029 3027 03       		.uleb128 0x3
 9030 3028 91       		.byte	0x91
 9031 3029 54       		.sleb128 -44
 9032 302a 06       		.byte	0x6
 9033 302b 2E       		.uleb128 0x2e
 9034 302c 01       		.uleb128 0x1
 9035 302d 51       		.byte	0x51
 9036 302e 02       		.uleb128 0x2
 9037 302f 75       		.byte	0x75
 9038 3030 00       		.sleb128 0
 9039 3031 00       		.byte	0
 9040 3032 2F       		.uleb128 0x2f
 9041 3033 76000000 		.4byte	.LVL48
 9042 3037 6B3F0000 		.4byte	0x3f6b
 9043 303b 2E       		.uleb128 0x2e
 9044 303c 01       		.uleb128 0x1
 9045 303d 50       		.byte	0x50
 9046 303e 02       		.uleb128 0x2
 9047 303f 75       		.byte	0x75
ARM GAS  e:\temp\ccdoSeHU.s 			page 186


 9048 3040 00       		.sleb128 0
 9049 3041 2E       		.uleb128 0x2e
 9050 3042 01       		.uleb128 0x1
 9051 3043 51       		.byte	0x51
 9052 3044 02       		.uleb128 0x2
 9053 3045 7B       		.byte	0x7b
 9054 3046 00       		.sleb128 0
 9055 3047 00       		.byte	0
 9056 3048 00       		.byte	0
 9057 3049 24       		.uleb128 0x24
 9058 304a 3C0C0000 		.4byte	.LASF713
 9059 304e 01       		.byte	0x1
 9060 304f A503     		.2byte	0x3a5
 9061 3051 A2000000 		.4byte	0xa2
 9062 3055 00000000 		.4byte	.LFB48
 9063 3059 C0000000 		.4byte	.LFE48-.LFB48
 9064 305d 01       		.uleb128 0x1
 9065 305e 9C       		.byte	0x9c
 9066 305f F0300000 		.4byte	0x30f0
 9067 3063 25       		.uleb128 0x25
 9068 3064 F5210000 		.4byte	.LASF696
 9069 3068 01       		.byte	0x1
 9070 3069 A503     		.2byte	0x3a5
 9071 306b A2000000 		.4byte	0xa2
 9072 306f 0F030000 		.4byte	.LLST21
 9073 3073 27       		.uleb128 0x27
 9074 3074 69647800 		.ascii	"idx\000"
 9075 3078 01       		.byte	0x1
 9076 3079 A703     		.2byte	0x3a7
 9077 307b A2000000 		.4byte	0xa2
 9078 307f 30030000 		.4byte	.LLST22
 9079 3083 2C       		.uleb128 0x2c
 9080 3084 16090000 		.4byte	.LASF714
 9081 3088 01       		.byte	0x1
 9082 3089 A803     		.2byte	0x3a8
 9083 308b 352A0000 		.4byte	0x2a35
 9084 308f 59030000 		.4byte	.LLST23
 9085 3093 2C       		.uleb128 0x2c
 9086 3094 CB000000 		.4byte	.LASF703
 9087 3098 01       		.byte	0x1
 9088 3099 A903     		.2byte	0x3a9
 9089 309b AD2D0000 		.4byte	0x2dad
 9090 309f 77030000 		.4byte	.LLST24
 9091 30a3 2D       		.uleb128 0x2d
 9092 30a4 08000000 		.4byte	.LVL63
 9093 30a8 773F0000 		.4byte	0x3f77
 9094 30ac B7300000 		.4byte	0x30b7
 9095 30b0 2E       		.uleb128 0x2e
 9096 30b1 01       		.uleb128 0x1
 9097 30b2 50       		.byte	0x50
 9098 30b3 02       		.uleb128 0x2
 9099 30b4 76       		.byte	0x76
 9100 30b5 00       		.sleb128 0
 9101 30b6 00       		.byte	0
 9102 30b7 2D       		.uleb128 0x2d
 9103 30b8 10000000 		.4byte	.LVL66
 9104 30bc 822D0000 		.4byte	0x2d82
ARM GAS  e:\temp\ccdoSeHU.s 			page 187


 9105 30c0 CB300000 		.4byte	0x30cb
 9106 30c4 2E       		.uleb128 0x2e
 9107 30c5 01       		.uleb128 0x1
 9108 30c6 50       		.byte	0x50
 9109 30c7 02       		.uleb128 0x2
 9110 30c8 76       		.byte	0x76
 9111 30c9 00       		.sleb128 0
 9112 30ca 00       		.byte	0
 9113 30cb 2D       		.uleb128 0x2d
 9114 30cc 3C000000 		.4byte	.LVL69
 9115 30d0 403F0000 		.4byte	0x3f40
 9116 30d4 DF300000 		.4byte	0x30df
 9117 30d8 2E       		.uleb128 0x2e
 9118 30d9 01       		.uleb128 0x1
 9119 30da 50       		.byte	0x50
 9120 30db 02       		.uleb128 0x2
 9121 30dc 76       		.byte	0x76
 9122 30dd 00       		.sleb128 0
 9123 30de 00       		.byte	0
 9124 30df 2F       		.uleb128 0x2f
 9125 30e0 58000000 		.4byte	.LVL72
 9126 30e4 553F0000 		.4byte	0x3f55
 9127 30e8 2E       		.uleb128 0x2e
 9128 30e9 01       		.uleb128 0x1
 9129 30ea 50       		.byte	0x50
 9130 30eb 02       		.uleb128 0x2
 9131 30ec 76       		.byte	0x76
 9132 30ed 00       		.sleb128 0
 9133 30ee 00       		.byte	0
 9134 30ef 00       		.byte	0
 9135 30f0 28       		.uleb128 0x28
 9136 30f1 D4240000 		.4byte	.LASF715
 9137 30f5 01       		.byte	0x1
 9138 30f6 8503     		.2byte	0x385
 9139 30f8 00000000 		.4byte	.LFB47
 9140 30fc 50000000 		.4byte	.LFE47-.LFB47
 9141 3100 01       		.uleb128 0x1
 9142 3101 9C       		.byte	0x9c
 9143 3102 5A310000 		.4byte	0x315a
 9144 3106 25       		.uleb128 0x25
 9145 3107 F5210000 		.4byte	.LASF696
 9146 310b 01       		.byte	0x1
 9147 310c 8503     		.2byte	0x385
 9148 310e A2000000 		.4byte	0xa2
 9149 3112 C1030000 		.4byte	.LLST25
 9150 3116 2A       		.uleb128 0x2a
 9151 3117 B4260000 		.4byte	.LASF716
 9152 311b 01       		.byte	0x1
 9153 311c 8703     		.2byte	0x387
 9154 311e 9C200000 		.4byte	0x209c
 9155 3122 02       		.uleb128 0x2
 9156 3123 91       		.byte	0x91
 9157 3124 4C       		.sleb128 -52
 9158 3125 2C       		.uleb128 0x2c
 9159 3126 0A200000 		.4byte	.LASF717
 9160 312a 01       		.byte	0x1
 9161 312b 8803     		.2byte	0x388
ARM GAS  e:\temp\ccdoSeHU.s 			page 188


 9162 312d D42A0000 		.4byte	0x2ad4
 9163 3131 E2030000 		.4byte	.LLST26
 9164 3135 2F       		.uleb128 0x2f
 9165 3136 1E000000 		.4byte	.LVL84
 9166 313a 833F0000 		.4byte	0x3f83
 9167 313e 2E       		.uleb128 0x2e
 9168 313f 01       		.uleb128 0x1
 9169 3140 50       		.byte	0x50
 9170 3141 02       		.uleb128 0x2
 9171 3142 74       		.byte	0x74
 9172 3143 00       		.sleb128 0
 9173 3144 2E       		.uleb128 0x2e
 9174 3145 01       		.uleb128 0x1
 9175 3146 51       		.byte	0x51
 9176 3147 01       		.uleb128 0x1
 9177 3148 38       		.byte	0x38
 9178 3149 2E       		.uleb128 0x2e
 9179 314a 01       		.uleb128 0x1
 9180 314b 52       		.byte	0x52
 9181 314c 02       		.uleb128 0x2
 9182 314d 91       		.byte	0x91
 9183 314e 4C       		.sleb128 -52
 9184 314f 2E       		.uleb128 0x2e
 9185 3150 01       		.uleb128 0x1
 9186 3151 53       		.byte	0x53
 9187 3152 05       		.uleb128 0x5
 9188 3153 03       		.byte	0x3
 9189 3154 00000000 		.4byte	sop_dp_soft_reset_cb
 9190 3158 00       		.byte	0
 9191 3159 00       		.byte	0
 9192 315a 24       		.uleb128 0x24
 9193 315b 76080000 		.4byte	.LASF718
 9194 315f 01       		.byte	0x1
 9195 3160 F603     		.2byte	0x3f6
 9196 3162 4E2B0000 		.4byte	0x2b4e
 9197 3166 00000000 		.4byte	.LFB50
 9198 316a 80000000 		.4byte	.LFE50-.LFB50
 9199 316e 01       		.uleb128 0x1
 9200 316f 9C       		.byte	0x9c
 9201 3170 F3310000 		.4byte	0x31f3
 9202 3174 25       		.uleb128 0x25
 9203 3175 F5210000 		.4byte	.LASF696
 9204 3179 01       		.byte	0x1
 9205 317a F603     		.2byte	0x3f6
 9206 317c A2000000 		.4byte	0xa2
 9207 3180 00040000 		.4byte	.LLST27
 9208 3184 2D       		.uleb128 0x2d
 9209 3185 10000000 		.4byte	.LVL89
 9210 3189 773F0000 		.4byte	0x3f77
 9211 318d 98310000 		.4byte	0x3198
 9212 3191 2E       		.uleb128 0x2e
 9213 3192 01       		.uleb128 0x1
 9214 3193 50       		.byte	0x50
 9215 3194 02       		.uleb128 0x2
 9216 3195 74       		.byte	0x74
 9217 3196 00       		.sleb128 0
 9218 3197 00       		.byte	0
ARM GAS  e:\temp\ccdoSeHU.s 			page 189


 9219 3198 2D       		.uleb128 0x2d
 9220 3199 2C000000 		.4byte	.LVL90
 9221 319d F0300000 		.4byte	0x30f0
 9222 31a1 AC310000 		.4byte	0x31ac
 9223 31a5 2E       		.uleb128 0x2e
 9224 31a6 01       		.uleb128 0x1
 9225 31a7 50       		.byte	0x50
 9226 31a8 02       		.uleb128 0x2
 9227 31a9 74       		.byte	0x74
 9228 31aa 00       		.sleb128 0
 9229 31ab 00       		.byte	0
 9230 31ac 2D       		.uleb128 0x2d
 9231 31ad 36000000 		.4byte	.LVL91
 9232 31b1 403F0000 		.4byte	0x3f40
 9233 31b5 C0310000 		.4byte	0x31c0
 9234 31b9 2E       		.uleb128 0x2e
 9235 31ba 01       		.uleb128 0x1
 9236 31bb 50       		.byte	0x50
 9237 31bc 02       		.uleb128 0x2
 9238 31bd 74       		.byte	0x74
 9239 31be 00       		.sleb128 0
 9240 31bf 00       		.byte	0
 9241 31c0 2D       		.uleb128 0x2d
 9242 31c1 54000000 		.4byte	.LVL92
 9243 31c5 773F0000 		.4byte	0x3f77
 9244 31c9 D4310000 		.4byte	0x31d4
 9245 31cd 2E       		.uleb128 0x2e
 9246 31ce 01       		.uleb128 0x1
 9247 31cf 50       		.byte	0x50
 9248 31d0 02       		.uleb128 0x2
 9249 31d1 74       		.byte	0x74
 9250 31d2 00       		.sleb128 0
 9251 31d3 00       		.byte	0
 9252 31d4 2F       		.uleb128 0x2f
 9253 31d5 60000000 		.4byte	.LVL93
 9254 31d9 833F0000 		.4byte	0x3f83
 9255 31dd 2E       		.uleb128 0x2e
 9256 31de 01       		.uleb128 0x1
 9257 31df 50       		.byte	0x50
 9258 31e0 02       		.uleb128 0x2
 9259 31e1 74       		.byte	0x74
 9260 31e2 00       		.sleb128 0
 9261 31e3 2E       		.uleb128 0x2e
 9262 31e4 01       		.uleb128 0x1
 9263 31e5 51       		.byte	0x51
 9264 31e6 01       		.uleb128 0x1
 9265 31e7 3C       		.byte	0x3c
 9266 31e8 2E       		.uleb128 0x2e
 9267 31e9 01       		.uleb128 0x1
 9268 31ea 53       		.byte	0x53
 9269 31eb 05       		.uleb128 0x5
 9270 31ec 03       		.byte	0x3
 9271 31ed 00000000 		.4byte	vdm_rec_cbk
 9272 31f1 00       		.byte	0
 9273 31f2 00       		.byte	0
 9274 31f3 30       		.uleb128 0x30
 9275 31f4 4E220000 		.4byte	.LASF722
ARM GAS  e:\temp\ccdoSeHU.s 			page 190


 9276 31f8 01       		.byte	0x1
 9277 31f9 5803     		.2byte	0x358
 9278 31fb 00000000 		.4byte	.LFB45
 9279 31ff 48000000 		.4byte	.LFE45-.LFB45
 9280 3203 01       		.uleb128 0x1
 9281 3204 9C       		.byte	0x9c
 9282 3205 A7320000 		.4byte	0x32a7
 9283 3209 25       		.uleb128 0x25
 9284 320a F5210000 		.4byte	.LASF696
 9285 320e 01       		.byte	0x1
 9286 320f 5803     		.2byte	0x358
 9287 3211 A2000000 		.4byte	0xa2
 9288 3215 21040000 		.4byte	.LLST28
 9289 3219 2D       		.uleb128 0x2d
 9290 321a 08000000 		.4byte	.LVL95
 9291 321e 403F0000 		.4byte	0x3f40
 9292 3222 2D320000 		.4byte	0x322d
 9293 3226 2E       		.uleb128 0x2e
 9294 3227 01       		.uleb128 0x1
 9295 3228 50       		.byte	0x50
 9296 3229 02       		.uleb128 0x2
 9297 322a 74       		.byte	0x74
 9298 322b 00       		.sleb128 0
 9299 322c 00       		.byte	0
 9300 322d 2D       		.uleb128 0x2d
 9301 322e 14000000 		.4byte	.LVL96
 9302 3232 403F0000 		.4byte	0x3f40
 9303 3236 41320000 		.4byte	0x3241
 9304 323a 2E       		.uleb128 0x2e
 9305 323b 01       		.uleb128 0x1
 9306 323c 50       		.byte	0x50
 9307 323d 02       		.uleb128 0x2
 9308 323e 74       		.byte	0x74
 9309 323f 00       		.sleb128 0
 9310 3240 00       		.byte	0
 9311 3241 2D       		.uleb128 0x2d
 9312 3242 22000000 		.4byte	.LVL97
 9313 3246 992E0000 		.4byte	0x2e99
 9314 324a 55320000 		.4byte	0x3255
 9315 324e 2E       		.uleb128 0x2e
 9316 324f 01       		.uleb128 0x1
 9317 3250 50       		.byte	0x50
 9318 3251 02       		.uleb128 0x2
 9319 3252 74       		.byte	0x74
 9320 3253 00       		.sleb128 0
 9321 3254 00       		.byte	0
 9322 3255 2D       		.uleb128 0x2d
 9323 3256 28000000 		.4byte	.LVL98
 9324 325a 403F0000 		.4byte	0x3f40
 9325 325e 69320000 		.4byte	0x3269
 9326 3262 2E       		.uleb128 0x2e
 9327 3263 01       		.uleb128 0x1
 9328 3264 50       		.byte	0x50
 9329 3265 02       		.uleb128 0x2
 9330 3266 74       		.byte	0x74
 9331 3267 00       		.sleb128 0
 9332 3268 00       		.byte	0
ARM GAS  e:\temp\ccdoSeHU.s 			page 191


 9333 3269 2D       		.uleb128 0x2d
 9334 326a 34000000 		.4byte	.LVL99
 9335 326e 403F0000 		.4byte	0x3f40
 9336 3272 7D320000 		.4byte	0x327d
 9337 3276 2E       		.uleb128 0x2e
 9338 3277 01       		.uleb128 0x1
 9339 3278 50       		.byte	0x50
 9340 3279 02       		.uleb128 0x2
 9341 327a 74       		.byte	0x74
 9342 327b 00       		.sleb128 0
 9343 327c 00       		.byte	0
 9344 327d 2D       		.uleb128 0x2d
 9345 327e 40000000 		.4byte	.LVL100
 9346 3282 8E3F0000 		.4byte	0x3f8e
 9347 3286 96320000 		.4byte	0x3296
 9348 328a 2E       		.uleb128 0x2e
 9349 328b 01       		.uleb128 0x1
 9350 328c 50       		.byte	0x50
 9351 328d 02       		.uleb128 0x2
 9352 328e 74       		.byte	0x74
 9353 328f 00       		.sleb128 0
 9354 3290 2E       		.uleb128 0x2e
 9355 3291 01       		.uleb128 0x1
 9356 3292 51       		.byte	0x51
 9357 3293 01       		.uleb128 0x1
 9358 3294 33       		.byte	0x33
 9359 3295 00       		.byte	0
 9360 3296 2F       		.uleb128 0x2f
 9361 3297 46000000 		.4byte	.LVL101
 9362 329b 9A3F0000 		.4byte	0x3f9a
 9363 329f 2E       		.uleb128 0x2e
 9364 32a0 01       		.uleb128 0x1
 9365 32a1 50       		.byte	0x50
 9366 32a2 02       		.uleb128 0x2
 9367 32a3 74       		.byte	0x74
 9368 32a4 00       		.sleb128 0
 9369 32a5 00       		.byte	0
 9370 32a6 00       		.byte	0
 9371 32a7 31       		.uleb128 0x31
 9372 32a8 17020000 		.4byte	.LASF719
 9373 32ac 01       		.byte	0x1
 9374 32ad 2904     		.2byte	0x429
 9375 32af 7E2B0000 		.4byte	0x2b7e
 9376 32b3 00000000 		.4byte	.LFB52
 9377 32b7 14000000 		.4byte	.LFE52-.LFB52
 9378 32bb 01       		.uleb128 0x1
 9379 32bc 9C       		.byte	0x9c
 9380 32bd D2320000 		.4byte	0x32d2
 9381 32c1 25       		.uleb128 0x25
 9382 32c2 F5210000 		.4byte	.LASF696
 9383 32c6 01       		.byte	0x1
 9384 32c7 2904     		.2byte	0x429
 9385 32c9 A2000000 		.4byte	0xa2
 9386 32cd 42040000 		.4byte	.LLST29
 9387 32d1 00       		.byte	0
 9388 32d2 31       		.uleb128 0x31
 9389 32d3 F4230000 		.4byte	.LASF720
ARM GAS  e:\temp\ccdoSeHU.s 			page 192


 9390 32d7 01       		.byte	0x1
 9391 32d8 2E04     		.2byte	0x42e
 9392 32da 4E2B0000 		.4byte	0x2b4e
 9393 32de 00000000 		.4byte	.LFB53
 9394 32e2 10000000 		.4byte	.LFE53-.LFB53
 9395 32e6 01       		.uleb128 0x1
 9396 32e7 9C       		.byte	0x9c
 9397 32e8 FD320000 		.4byte	0x32fd
 9398 32ec 25       		.uleb128 0x25
 9399 32ed F5210000 		.4byte	.LASF696
 9400 32f1 01       		.byte	0x1
 9401 32f2 2E04     		.2byte	0x42e
 9402 32f4 A2000000 		.4byte	0xa2
 9403 32f8 63040000 		.4byte	.LLST30
 9404 32fc 00       		.byte	0
 9405 32fd 32       		.uleb128 0x32
 9406 32fe 0D280000 		.4byte	.LASF721
 9407 3302 01       		.byte	0x1
 9408 3303 C7       		.byte	0xc7
 9409 3304 BE230000 		.4byte	0x23be
 9410 3308 00000000 		.4byte	.LFB34
 9411 330c 3E000000 		.4byte	.LFE34-.LFB34
 9412 3310 01       		.uleb128 0x1
 9413 3311 9C       		.byte	0x9c
 9414 3312 78330000 		.4byte	0x3378
 9415 3316 33       		.uleb128 0x33
 9416 3317 F5210000 		.4byte	.LASF696
 9417 331b 01       		.byte	0x1
 9418 331c C7       		.byte	0xc7
 9419 331d A2000000 		.4byte	0xa2
 9420 3321 84040000 		.4byte	.LLST31
 9421 3325 2D       		.uleb128 0x2d
 9422 3326 08000000 		.4byte	.LVL107
 9423 332a 652E0000 		.4byte	0x2e65
 9424 332e 39330000 		.4byte	0x3339
 9425 3332 2E       		.uleb128 0x2e
 9426 3333 01       		.uleb128 0x1
 9427 3334 50       		.byte	0x50
 9428 3335 02       		.uleb128 0x2
 9429 3336 74       		.byte	0x74
 9430 3337 00       		.sleb128 0
 9431 3338 00       		.byte	0
 9432 3339 2D       		.uleb128 0x2d
 9433 333a 14000000 		.4byte	.LVL108
 9434 333e A53F0000 		.4byte	0x3fa5
 9435 3342 53330000 		.4byte	0x3353
 9436 3346 2E       		.uleb128 0x2e
 9437 3347 01       		.uleb128 0x1
 9438 3348 50       		.byte	0x50
 9439 3349 02       		.uleb128 0x2
 9440 334a 74       		.byte	0x74
 9441 334b 00       		.sleb128 0
 9442 334c 2E       		.uleb128 0x2e
 9443 334d 01       		.uleb128 0x1
 9444 334e 51       		.byte	0x51
 9445 334f 02       		.uleb128 0x2
 9446 3350 08       		.byte	0x8
ARM GAS  e:\temp\ccdoSeHU.s 			page 193


 9447 3351 28       		.byte	0x28
 9448 3352 00       		.byte	0
 9449 3353 2D       		.uleb128 0x2d
 9450 3354 1E000000 		.4byte	.LVL109
 9451 3358 D2320000 		.4byte	0x32d2
 9452 335c 67330000 		.4byte	0x3367
 9453 3360 2E       		.uleb128 0x2e
 9454 3361 01       		.uleb128 0x1
 9455 3362 50       		.byte	0x50
 9456 3363 02       		.uleb128 0x2
 9457 3364 74       		.byte	0x74
 9458 3365 00       		.sleb128 0
 9459 3366 00       		.byte	0
 9460 3367 2F       		.uleb128 0x2f
 9461 3368 28000000 		.4byte	.LVL110
 9462 336c B03F0000 		.4byte	0x3fb0
 9463 3370 2E       		.uleb128 0x2e
 9464 3371 01       		.uleb128 0x1
 9465 3372 50       		.byte	0x50
 9466 3373 02       		.uleb128 0x2
 9467 3374 74       		.byte	0x74
 9468 3375 00       		.sleb128 0
 9469 3376 00       		.byte	0
 9470 3377 00       		.byte	0
 9471 3378 30       		.uleb128 0x30
 9472 3379 C3200000 		.4byte	.LASF723
 9473 337d 01       		.byte	0x1
 9474 337e 3304     		.2byte	0x433
 9475 3380 00000000 		.4byte	.LFB54
 9476 3384 10000000 		.4byte	.LFE54-.LFB54
 9477 3388 01       		.uleb128 0x1
 9478 3389 9C       		.byte	0x9c
 9479 338a AD330000 		.4byte	0x33ad
 9480 338e 25       		.uleb128 0x25
 9481 338f F5210000 		.4byte	.LASF696
 9482 3393 01       		.byte	0x1
 9483 3394 3304     		.2byte	0x433
 9484 3396 A2000000 		.4byte	0xa2
 9485 339a A5040000 		.4byte	.LLST32
 9486 339e 26       		.uleb128 0x26
 9487 339f DE280000 		.4byte	.LASF724
 9488 33a3 01       		.byte	0x1
 9489 33a4 3304     		.2byte	0x433
 9490 33a6 4E2B0000 		.4byte	0x2b4e
 9491 33aa 01       		.uleb128 0x1
 9492 33ab 51       		.byte	0x51
 9493 33ac 00       		.byte	0
 9494 33ad 34       		.uleb128 0x34
 9495 33ae DD1E0000 		.4byte	.LASF725
 9496 33b2 01       		.byte	0x1
 9497 33b3 9B       		.byte	0x9b
 9498 33b4 00000000 		.4byte	.LFB32
 9499 33b8 32000000 		.4byte	.LFE32-.LFB32
 9500 33bc 01       		.uleb128 0x1
 9501 33bd 9C       		.byte	0x9c
 9502 33be 23340000 		.4byte	0x3423
 9503 33c2 33       		.uleb128 0x33
ARM GAS  e:\temp\ccdoSeHU.s 			page 194


 9504 33c3 F5210000 		.4byte	.LASF696
 9505 33c7 01       		.byte	0x1
 9506 33c8 9B       		.byte	0x9b
 9507 33c9 A2000000 		.4byte	0xa2
 9508 33cd C6040000 		.4byte	.LLST33
 9509 33d1 2D       		.uleb128 0x2d
 9510 33d2 08000000 		.4byte	.LVL114
 9511 33d6 403F0000 		.4byte	0x3f40
 9512 33da E5330000 		.4byte	0x33e5
 9513 33de 2E       		.uleb128 0x2e
 9514 33df 01       		.uleb128 0x1
 9515 33e0 50       		.byte	0x50
 9516 33e1 02       		.uleb128 0x2
 9517 33e2 74       		.byte	0x74
 9518 33e3 00       		.sleb128 0
 9519 33e4 00       		.byte	0
 9520 33e5 2D       		.uleb128 0x2d
 9521 33e6 18000000 		.4byte	.LVL115
 9522 33ea 78330000 		.4byte	0x3378
 9523 33ee FE330000 		.4byte	0x33fe
 9524 33f2 2E       		.uleb128 0x2e
 9525 33f3 01       		.uleb128 0x1
 9526 33f4 50       		.byte	0x50
 9527 33f5 02       		.uleb128 0x2
 9528 33f6 74       		.byte	0x74
 9529 33f7 00       		.sleb128 0
 9530 33f8 2E       		.uleb128 0x2e
 9531 33f9 01       		.uleb128 0x1
 9532 33fa 51       		.byte	0x51
 9533 33fb 01       		.uleb128 0x1
 9534 33fc 31       		.byte	0x31
 9535 33fd 00       		.byte	0
 9536 33fe 2D       		.uleb128 0x2d
 9537 33ff 1E000000 		.4byte	.LVL116
 9538 3403 403F0000 		.4byte	0x3f40
 9539 3407 12340000 		.4byte	0x3412
 9540 340b 2E       		.uleb128 0x2e
 9541 340c 01       		.uleb128 0x1
 9542 340d 50       		.byte	0x50
 9543 340e 02       		.uleb128 0x2
 9544 340f 74       		.byte	0x74
 9545 3410 00       		.sleb128 0
 9546 3411 00       		.byte	0
 9547 3412 2F       		.uleb128 0x2f
 9548 3413 2A000000 		.4byte	.LVL117
 9549 3417 403F0000 		.4byte	0x3f40
 9550 341b 2E       		.uleb128 0x2e
 9551 341c 01       		.uleb128 0x1
 9552 341d 50       		.byte	0x50
 9553 341e 02       		.uleb128 0x2
 9554 341f 74       		.byte	0x74
 9555 3420 00       		.sleb128 0
 9556 3421 00       		.byte	0
 9557 3422 00       		.byte	0
 9558 3423 30       		.uleb128 0x30
 9559 3424 D6010000 		.4byte	.LASF726
 9560 3428 01       		.byte	0x1
ARM GAS  e:\temp\ccdoSeHU.s 			page 195


 9561 3429 3804     		.2byte	0x438
 9562 342b 00000000 		.4byte	.LFB55
 9563 342f 14000000 		.4byte	.LFE55-.LFB55
 9564 3433 01       		.uleb128 0x1
 9565 3434 9C       		.byte	0x9c
 9566 3435 58340000 		.4byte	0x3458
 9567 3439 25       		.uleb128 0x25
 9568 343a F5210000 		.4byte	.LASF696
 9569 343e 01       		.byte	0x1
 9570 343f 3804     		.2byte	0x438
 9571 3441 A2000000 		.4byte	0xa2
 9572 3445 E7040000 		.4byte	.LLST34
 9573 3449 35       		.uleb128 0x35
 9574 344a 65767400 		.ascii	"evt\000"
 9575 344e 01       		.byte	0x1
 9576 344f 3804     		.2byte	0x438
 9577 3451 7E2B0000 		.4byte	0x2b7e
 9578 3455 01       		.uleb128 0x1
 9579 3456 51       		.byte	0x51
 9580 3457 00       		.byte	0
 9581 3458 36       		.uleb128 0x36
 9582 3459 251A0000 		.4byte	.LASF727
 9583 345d 01       		.byte	0x1
 9584 345e A6       		.byte	0xa6
 9585 345f 4E2B0000 		.4byte	0x2b4e
 9586 3463 00000000 		.4byte	.LFB33
 9587 3467 34000000 		.4byte	.LFE33-.LFB33
 9588 346b 01       		.uleb128 0x1
 9589 346c 9C       		.byte	0x9c
 9590 346d CD340000 		.4byte	0x34cd
 9591 3471 33       		.uleb128 0x33
 9592 3472 F5210000 		.4byte	.LASF696
 9593 3476 01       		.byte	0x1
 9594 3477 A6       		.byte	0xa6
 9595 3478 A2000000 		.4byte	0xa2
 9596 347c 08050000 		.4byte	.LLST35
 9597 3480 37       		.uleb128 0x37
 9598 3481 72657400 		.ascii	"ret\000"
 9599 3485 01       		.byte	0x1
 9600 3486 A8       		.byte	0xa8
 9601 3487 4E2B0000 		.4byte	0x2b4e
 9602 348b 29050000 		.4byte	.LLST36
 9603 348f 2D       		.uleb128 0x2d
 9604 3490 08000000 		.4byte	.LVL122
 9605 3494 992E0000 		.4byte	0x2e99
 9606 3498 A3340000 		.4byte	0x34a3
 9607 349c 2E       		.uleb128 0x2e
 9608 349d 01       		.uleb128 0x1
 9609 349e 50       		.byte	0x50
 9610 349f 02       		.uleb128 0x2
 9611 34a0 74       		.byte	0x74
 9612 34a1 00       		.sleb128 0
 9613 34a2 00       		.byte	0
 9614 34a3 2D       		.uleb128 0x2d
 9615 34a4 10000000 		.4byte	.LVL123
 9616 34a8 23340000 		.4byte	0x3423
 9617 34ac BC340000 		.4byte	0x34bc
ARM GAS  e:\temp\ccdoSeHU.s 			page 196


 9618 34b0 2E       		.uleb128 0x2e
 9619 34b1 01       		.uleb128 0x1
 9620 34b2 50       		.byte	0x50
 9621 34b3 02       		.uleb128 0x2
 9622 34b4 74       		.byte	0x74
 9623 34b5 00       		.sleb128 0
 9624 34b6 2E       		.uleb128 0x2e
 9625 34b7 01       		.uleb128 0x1
 9626 34b8 51       		.byte	0x51
 9627 34b9 01       		.uleb128 0x1
 9628 34ba 30       		.byte	0x30
 9629 34bb 00       		.byte	0
 9630 34bc 2F       		.uleb128 0x2f
 9631 34bd 16000000 		.4byte	.LVL124
 9632 34c1 BC3F0000 		.4byte	0x3fbc
 9633 34c5 2E       		.uleb128 0x2e
 9634 34c6 01       		.uleb128 0x1
 9635 34c7 50       		.byte	0x50
 9636 34c8 02       		.uleb128 0x2
 9637 34c9 74       		.byte	0x74
 9638 34ca 00       		.sleb128 0
 9639 34cb 00       		.byte	0
 9640 34cc 00       		.byte	0
 9641 34cd 24       		.uleb128 0x24
 9642 34ce C2110000 		.4byte	.LASF728
 9643 34d2 01       		.byte	0x1
 9644 34d3 C701     		.2byte	0x1c7
 9645 34d5 4E2B0000 		.4byte	0x2b4e
 9646 34d9 00000000 		.4byte	.LFB39
 9647 34dd FC000000 		.4byte	.LFE39-.LFB39
 9648 34e1 01       		.uleb128 0x1
 9649 34e2 9C       		.byte	0x9c
 9650 34e3 AD350000 		.4byte	0x35ad
 9651 34e7 25       		.uleb128 0x25
 9652 34e8 F5210000 		.4byte	.LASF696
 9653 34ec 01       		.byte	0x1
 9654 34ed C701     		.2byte	0x1c7
 9655 34ef A2000000 		.4byte	0xa2
 9656 34f3 48050000 		.4byte	.LLST37
 9657 34f7 25       		.uleb128 0x25
 9658 34f8 9B160000 		.4byte	.LASF683
 9659 34fc 01       		.byte	0x1
 9660 34fd C701     		.2byte	0x1c7
 9661 34ff 7E2B0000 		.4byte	0x2b7e
 9662 3503 69050000 		.4byte	.LLST38
 9663 3507 2C       		.uleb128 0x2c
 9664 3508 CB000000 		.4byte	.LASF703
 9665 350c 01       		.byte	0x1
 9666 350d C901     		.2byte	0x1c9
 9667 350f AD2D0000 		.4byte	0x2dad
 9668 3513 8A050000 		.4byte	.LLST39
 9669 3517 27       		.uleb128 0x27
 9670 3518 72657400 		.ascii	"ret\000"
 9671 351c 01       		.byte	0x1
 9672 351d CA01     		.2byte	0x1ca
 9673 351f 4E2B0000 		.4byte	0x2b4e
 9674 3523 A8050000 		.4byte	.LLST40
ARM GAS  e:\temp\ccdoSeHU.s 			page 197


 9675 3527 2C       		.uleb128 0x2c
 9676 3528 1E090000 		.4byte	.LASF729
 9677 352c 01       		.byte	0x1
 9678 352d CB01     		.2byte	0x1cb
 9679 352f AD350000 		.4byte	0x35ad
 9680 3533 F7050000 		.4byte	.LLST41
 9681 3537 2D       		.uleb128 0x2d
 9682 3538 0E000000 		.4byte	.LVL127
 9683 353c 822D0000 		.4byte	0x2d82
 9684 3540 4B350000 		.4byte	0x354b
 9685 3544 2E       		.uleb128 0x2e
 9686 3545 01       		.uleb128 0x1
 9687 3546 50       		.byte	0x50
 9688 3547 02       		.uleb128 0x2
 9689 3548 74       		.byte	0x74
 9690 3549 00       		.sleb128 0
 9691 354a 00       		.byte	0
 9692 354b 2D       		.uleb128 0x2d
 9693 354c 16000000 		.4byte	.LVL130
 9694 3550 553F0000 		.4byte	0x3f55
 9695 3554 5F350000 		.4byte	0x355f
 9696 3558 2E       		.uleb128 0x2e
 9697 3559 01       		.uleb128 0x1
 9698 355a 50       		.byte	0x50
 9699 355b 02       		.uleb128 0x2
 9700 355c 74       		.byte	0x74
 9701 355d 00       		.sleb128 0
 9702 355e 00       		.byte	0
 9703 355f 2D       		.uleb128 0x2d
 9704 3560 6A000000 		.4byte	.LVL136
 9705 3564 C83F0000 		.4byte	0x3fc8
 9706 3568 83350000 		.4byte	0x3583
 9707 356c 2E       		.uleb128 0x2e
 9708 356d 01       		.uleb128 0x1
 9709 356e 50       		.byte	0x50
 9710 356f 0C       		.uleb128 0xc
 9711 3570 76       		.byte	0x76
 9712 3571 00       		.sleb128 0
 9713 3572 74       		.byte	0x74
 9714 3573 00       		.sleb128 0
 9715 3574 1C       		.byte	0x1c
 9716 3575 32       		.byte	0x32
 9717 3576 24       		.byte	0x24
 9718 3577 78       		.byte	0x78
 9719 3578 00       		.sleb128 0
 9720 3579 22       		.byte	0x22
 9721 357a 23       		.byte	0x23
 9722 357b 10       		.uleb128 0x10
 9723 357c 2E       		.uleb128 0x2e
 9724 357d 01       		.uleb128 0x1
 9725 357e 51       		.byte	0x51
 9726 357f 02       		.uleb128 0x2
 9727 3580 75       		.byte	0x75
 9728 3581 08       		.sleb128 8
 9729 3582 00       		.byte	0
 9730 3583 2D       		.uleb128 0x2d
 9731 3584 C8000000 		.4byte	.LVL137
ARM GAS  e:\temp\ccdoSeHU.s 			page 198


 9732 3588 D13F0000 		.4byte	0x3fd1
 9733 358c 97350000 		.4byte	0x3597
 9734 3590 2E       		.uleb128 0x2e
 9735 3591 01       		.uleb128 0x1
 9736 3592 50       		.byte	0x50
 9737 3593 02       		.uleb128 0x2
 9738 3594 74       		.byte	0x74
 9739 3595 00       		.sleb128 0
 9740 3596 00       		.byte	0
 9741 3597 2F       		.uleb128 0x2f
 9742 3598 D6000000 		.4byte	.LVL138
 9743 359c 23340000 		.4byte	0x3423
 9744 35a0 2E       		.uleb128 0x2e
 9745 35a1 01       		.uleb128 0x1
 9746 35a2 50       		.byte	0x50
 9747 35a3 02       		.uleb128 0x2
 9748 35a4 74       		.byte	0x74
 9749 35a5 00       		.sleb128 0
 9750 35a6 2E       		.uleb128 0x2e
 9751 35a7 01       		.uleb128 0x1
 9752 35a8 51       		.byte	0x51
 9753 35a9 01       		.uleb128 0x1
 9754 35aa 30       		.byte	0x30
 9755 35ab 00       		.byte	0
 9756 35ac 00       		.byte	0
 9757 35ad 15       		.uleb128 0x15
 9758 35ae 04       		.byte	0x4
 9759 35af B3350000 		.4byte	0x35b3
 9760 35b3 19       		.uleb128 0x19
 9761 35b4 512A0000 		.4byte	0x2a51
 9762 35b8 24       		.uleb128 0x24
 9763 35b9 EA170000 		.4byte	.LASF730
 9764 35bd 01       		.byte	0x1
 9765 35be 9302     		.2byte	0x293
 9766 35c0 4E2B0000 		.4byte	0x2b4e
 9767 35c4 00000000 		.4byte	.LFB43
 9768 35c8 14020000 		.4byte	.LFE43-.LFB43
 9769 35cc 01       		.uleb128 0x1
 9770 35cd 9C       		.byte	0x9c
 9771 35ce 45380000 		.4byte	0x3845
 9772 35d2 25       		.uleb128 0x25
 9773 35d3 F5210000 		.4byte	.LASF696
 9774 35d7 01       		.byte	0x1
 9775 35d8 9302     		.2byte	0x293
 9776 35da A2000000 		.4byte	0xa2
 9777 35de 57060000 		.4byte	.LLST42
 9778 35e2 25       		.uleb128 0x25
 9779 35e3 9B160000 		.4byte	.LASF683
 9780 35e7 01       		.byte	0x1
 9781 35e8 9302     		.2byte	0x293
 9782 35ea 7E2B0000 		.4byte	0x2b7e
 9783 35ee 78060000 		.4byte	.LLST43
 9784 35f2 27       		.uleb128 0x27
 9785 35f3 72657400 		.ascii	"ret\000"
 9786 35f7 01       		.byte	0x1
 9787 35f8 9502     		.2byte	0x295
 9788 35fa 4E2B0000 		.4byte	0x2b4e
ARM GAS  e:\temp\ccdoSeHU.s 			page 199


 9789 35fe 99060000 		.4byte	.LLST44
 9790 3602 2C       		.uleb128 0x2c
 9791 3603 1E090000 		.4byte	.LASF729
 9792 3607 01       		.byte	0x1
 9793 3608 9602     		.2byte	0x296
 9794 360a AD350000 		.4byte	0x35ad
 9795 360e 78070000 		.4byte	.LLST45
 9796 3612 2C       		.uleb128 0x2c
 9797 3613 CB000000 		.4byte	.LASF703
 9798 3617 01       		.byte	0x1
 9799 3618 9702     		.2byte	0x297
 9800 361a AD2D0000 		.4byte	0x2dad
 9801 361e 96070000 		.4byte	.LLST46
 9802 3622 27       		.uleb128 0x27
 9803 3623 746D7000 		.ascii	"tmp\000"
 9804 3627 01       		.byte	0x1
 9805 3628 9902     		.2byte	0x299
 9806 362a B8000000 		.4byte	0xb8
 9807 362e 4E080000 		.4byte	.LLST47
 9808 3632 2D       		.uleb128 0x2d
 9809 3633 10000000 		.4byte	.LVL148
 9810 3637 553F0000 		.4byte	0x3f55
 9811 363b 46360000 		.4byte	0x3646
 9812 363f 2E       		.uleb128 0x2e
 9813 3640 01       		.uleb128 0x1
 9814 3641 50       		.byte	0x50
 9815 3642 02       		.uleb128 0x2
 9816 3643 74       		.byte	0x74
 9817 3644 00       		.sleb128 0
 9818 3645 00       		.byte	0
 9819 3646 2D       		.uleb128 0x2d
 9820 3647 18000000 		.4byte	.LVL151
 9821 364b 822D0000 		.4byte	0x2d82
 9822 364f 5A360000 		.4byte	0x365a
 9823 3653 2E       		.uleb128 0x2e
 9824 3654 01       		.uleb128 0x1
 9825 3655 50       		.byte	0x50
 9826 3656 02       		.uleb128 0x2
 9827 3657 74       		.byte	0x74
 9828 3658 00       		.sleb128 0
 9829 3659 00       		.byte	0
 9830 365a 2D       		.uleb128 0x2d
 9831 365b 32000000 		.4byte	.LVL154
 9832 365f B32D0000 		.4byte	0x2db3
 9833 3663 73360000 		.4byte	0x3673
 9834 3667 2E       		.uleb128 0x2e
 9835 3668 01       		.uleb128 0x1
 9836 3669 50       		.byte	0x50
 9837 366a 02       		.uleb128 0x2
 9838 366b 74       		.byte	0x74
 9839 366c 00       		.sleb128 0
 9840 366d 2E       		.uleb128 0x2e
 9841 366e 01       		.uleb128 0x1
 9842 366f 51       		.byte	0x51
 9843 3670 01       		.uleb128 0x1
 9844 3671 30       		.byte	0x30
 9845 3672 00       		.byte	0
ARM GAS  e:\temp\ccdoSeHU.s 			page 200


 9846 3673 2D       		.uleb128 0x2d
 9847 3674 80000000 		.4byte	.LVL157
 9848 3678 C83F0000 		.4byte	0x3fc8
 9849 367c 99360000 		.4byte	0x3699
 9850 3680 2E       		.uleb128 0x2e
 9851 3681 01       		.uleb128 0x1
 9852 3682 50       		.byte	0x50
 9853 3683 0E       		.uleb128 0xe
 9854 3684 74       		.byte	0x74
 9855 3685 00       		.sleb128 0
 9856 3686 33       		.byte	0x33
 9857 3687 24       		.byte	0x24
 9858 3688 74       		.byte	0x74
 9859 3689 00       		.sleb128 0
 9860 368a 22       		.byte	0x22
 9861 368b 33       		.byte	0x33
 9862 368c 24       		.byte	0x24
 9863 368d 75       		.byte	0x75
 9864 368e 00       		.sleb128 0
 9865 368f 22       		.byte	0x22
 9866 3690 23       		.byte	0x23
 9867 3691 4C       		.uleb128 0x4c
 9868 3692 2E       		.uleb128 0x2e
 9869 3693 01       		.uleb128 0x1
 9870 3694 51       		.byte	0x51
 9871 3695 02       		.uleb128 0x2
 9872 3696 76       		.byte	0x76
 9873 3697 08       		.sleb128 8
 9874 3698 00       		.byte	0
 9875 3699 2D       		.uleb128 0x2d
 9876 369a C2000000 		.4byte	.LVL161
 9877 369e C83F0000 		.4byte	0x3fc8
 9878 36a2 CC360000 		.4byte	0x36cc
 9879 36a6 2E       		.uleb128 0x2e
 9880 36a7 01       		.uleb128 0x1
 9881 36a8 50       		.byte	0x50
 9882 36a9 13       		.uleb128 0x13
 9883 36aa 74       		.byte	0x74
 9884 36ab 00       		.sleb128 0
 9885 36ac 33       		.byte	0x33
 9886 36ad 24       		.byte	0x24
 9887 36ae 74       		.byte	0x74
 9888 36af 00       		.sleb128 0
 9889 36b0 22       		.byte	0x22
 9890 36b1 31       		.byte	0x31
 9891 36b2 24       		.byte	0x24
 9892 36b3 79       		.byte	0x79
 9893 36b4 00       		.sleb128 0
 9894 36b5 22       		.byte	0x22
 9895 36b6 32       		.byte	0x32
 9896 36b7 24       		.byte	0x24
 9897 36b8 78       		.byte	0x78
 9898 36b9 00       		.sleb128 0
 9899 36ba 22       		.byte	0x22
 9900 36bb 23       		.byte	0x23
 9901 36bc 48       		.uleb128 0x48
 9902 36bd 2E       		.uleb128 0x2e
ARM GAS  e:\temp\ccdoSeHU.s 			page 201


 9903 36be 01       		.uleb128 0x1
 9904 36bf 51       		.byte	0x51
 9905 36c0 02       		.uleb128 0x2
 9906 36c1 76       		.byte	0x76
 9907 36c2 08       		.sleb128 8
 9908 36c3 2E       		.uleb128 0x2e
 9909 36c4 01       		.uleb128 0x1
 9910 36c5 52       		.byte	0x52
 9911 36c6 04       		.uleb128 0x4
 9912 36c7 75       		.byte	0x75
 9913 36c8 00       		.sleb128 0
 9914 36c9 32       		.byte	0x32
 9915 36ca 24       		.byte	0x24
 9916 36cb 00       		.byte	0
 9917 36cc 2D       		.uleb128 0x2d
 9918 36cd EA000000 		.4byte	.LVL163
 9919 36d1 592F0000 		.4byte	0x2f59
 9920 36d5 F8360000 		.4byte	0x36f8
 9921 36d9 2E       		.uleb128 0x2e
 9922 36da 01       		.uleb128 0x1
 9923 36db 50       		.byte	0x50
 9924 36dc 02       		.uleb128 0x2
 9925 36dd 74       		.byte	0x74
 9926 36de 00       		.sleb128 0
 9927 36df 2E       		.uleb128 0x2e
 9928 36e0 01       		.uleb128 0x1
 9929 36e1 51       		.byte	0x51
 9930 36e2 0F       		.uleb128 0xf
 9931 36e3 74       		.byte	0x74
 9932 36e4 00       		.sleb128 0
 9933 36e5 33       		.byte	0x33
 9934 36e6 24       		.byte	0x24
 9935 36e7 74       		.byte	0x74
 9936 36e8 00       		.sleb128 0
 9937 36e9 22       		.byte	0x22
 9938 36ea 33       		.byte	0x33
 9939 36eb 24       		.byte	0x24
 9940 36ec 03       		.byte	0x3
 9941 36ed 10000000 		.4byte	vdm_stat+16
 9942 36f1 22       		.byte	0x22
 9943 36f2 2E       		.uleb128 0x2e
 9944 36f3 01       		.uleb128 0x1
 9945 36f4 52       		.byte	0x52
 9946 36f5 01       		.uleb128 0x1
 9947 36f6 34       		.byte	0x34
 9948 36f7 00       		.byte	0
 9949 36f8 2D       		.uleb128 0x2d
 9950 36f9 0C010000 		.4byte	.LVL164
 9951 36fd 403F0000 		.4byte	0x3f40
 9952 3701 0C370000 		.4byte	0x370c
 9953 3705 2E       		.uleb128 0x2e
 9954 3706 01       		.uleb128 0x1
 9955 3707 50       		.byte	0x50
 9956 3708 02       		.uleb128 0x2
 9957 3709 74       		.byte	0x74
 9958 370a 00       		.sleb128 0
 9959 370b 00       		.byte	0
ARM GAS  e:\temp\ccdoSeHU.s 			page 202


 9960 370c 2D       		.uleb128 0x2d
 9961 370d 1A010000 		.4byte	.LVL165
 9962 3711 DD3F0000 		.4byte	0x3fdd
 9963 3715 20370000 		.4byte	0x3720
 9964 3719 2E       		.uleb128 0x2e
 9965 371a 01       		.uleb128 0x1
 9966 371b 50       		.byte	0x50
 9967 371c 02       		.uleb128 0x2
 9968 371d 74       		.byte	0x74
 9969 371e 00       		.sleb128 0
 9970 371f 00       		.byte	0
 9971 3720 2D       		.uleb128 0x2d
 9972 3721 28010000 		.4byte	.LVL166
 9973 3725 E93F0000 		.4byte	0x3fe9
 9974 3729 34370000 		.4byte	0x3734
 9975 372d 2E       		.uleb128 0x2e
 9976 372e 01       		.uleb128 0x1
 9977 372f 50       		.byte	0x50
 9978 3730 02       		.uleb128 0x2
 9979 3731 74       		.byte	0x74
 9980 3732 00       		.sleb128 0
 9981 3733 00       		.byte	0
 9982 3734 2D       		.uleb128 0x2d
 9983 3735 34010000 		.4byte	.LVL167
 9984 3739 F53F0000 		.4byte	0x3ff5
 9985 373d 59370000 		.4byte	0x3759
 9986 3741 2E       		.uleb128 0x2e
 9987 3742 01       		.uleb128 0x1
 9988 3743 50       		.byte	0x50
 9989 3744 02       		.uleb128 0x2
 9990 3745 74       		.byte	0x74
 9991 3746 00       		.sleb128 0
 9992 3747 2E       		.uleb128 0x2e
 9993 3748 01       		.uleb128 0x1
 9994 3749 51       		.byte	0x51
 9995 374a 02       		.uleb128 0x2
 9996 374b 08       		.byte	0x8
 9997 374c 28       		.byte	0x28
 9998 374d 2E       		.uleb128 0x2e
 9999 374e 01       		.uleb128 0x1
 10000 374f 52       		.byte	0x52
 10001 3750 02       		.uleb128 0x2
 10002 3751 08       		.byte	0x8
 10003 3752 37       		.byte	0x37
 10004 3753 2E       		.uleb128 0x2e
 10005 3754 01       		.uleb128 0x1
 10006 3755 53       		.byte	0x53
 10007 3756 01       		.uleb128 0x1
 10008 3757 30       		.byte	0x30
 10009 3758 00       		.byte	0
 10010 3759 2D       		.uleb128 0x2d
 10011 375a 54010000 		.4byte	.LVL168
 10012 375e B32D0000 		.4byte	0x2db3
 10013 3762 72370000 		.4byte	0x3772
 10014 3766 2E       		.uleb128 0x2e
 10015 3767 01       		.uleb128 0x1
 10016 3768 50       		.byte	0x50
ARM GAS  e:\temp\ccdoSeHU.s 			page 203


 10017 3769 02       		.uleb128 0x2
 10018 376a 74       		.byte	0x74
 10019 376b 00       		.sleb128 0
 10020 376c 2E       		.uleb128 0x2e
 10021 376d 01       		.uleb128 0x1
 10022 376e 51       		.byte	0x51
 10023 376f 01       		.uleb128 0x1
 10024 3770 31       		.byte	0x31
 10025 3771 00       		.byte	0
 10026 3772 2D       		.uleb128 0x2d
 10027 3773 60010000 		.4byte	.LVL170
 10028 3777 23340000 		.4byte	0x3423
 10029 377b 8B370000 		.4byte	0x378b
 10030 377f 2E       		.uleb128 0x2e
 10031 3780 01       		.uleb128 0x1
 10032 3781 50       		.byte	0x50
 10033 3782 02       		.uleb128 0x2
 10034 3783 74       		.byte	0x74
 10035 3784 00       		.sleb128 0
 10036 3785 2E       		.uleb128 0x2e
 10037 3786 01       		.uleb128 0x1
 10038 3787 51       		.byte	0x51
 10039 3788 01       		.uleb128 0x1
 10040 3789 30       		.byte	0x30
 10041 378a 00       		.byte	0
 10042 378b 2D       		.uleb128 0x2d
 10043 378c 6C010000 		.4byte	.LVL172
 10044 3790 23340000 		.4byte	0x3423
 10045 3794 A4370000 		.4byte	0x37a4
 10046 3798 2E       		.uleb128 0x2e
 10047 3799 01       		.uleb128 0x1
 10048 379a 50       		.byte	0x50
 10049 379b 02       		.uleb128 0x2
 10050 379c 74       		.byte	0x74
 10051 379d 00       		.sleb128 0
 10052 379e 2E       		.uleb128 0x2e
 10053 379f 01       		.uleb128 0x1
 10054 37a0 51       		.byte	0x51
 10055 37a1 01       		.uleb128 0x1
 10056 37a2 30       		.byte	0x30
 10057 37a3 00       		.byte	0
 10058 37a4 2D       		.uleb128 0x2d
 10059 37a5 78010000 		.4byte	.LVL174
 10060 37a9 B32D0000 		.4byte	0x2db3
 10061 37ad BD370000 		.4byte	0x37bd
 10062 37b1 2E       		.uleb128 0x2e
 10063 37b2 01       		.uleb128 0x1
 10064 37b3 50       		.byte	0x50
 10065 37b4 02       		.uleb128 0x2
 10066 37b5 74       		.byte	0x74
 10067 37b6 00       		.sleb128 0
 10068 37b7 2E       		.uleb128 0x2e
 10069 37b8 01       		.uleb128 0x1
 10070 37b9 51       		.byte	0x51
 10071 37ba 01       		.uleb128 0x1
 10072 37bb 30       		.byte	0x30
 10073 37bc 00       		.byte	0
ARM GAS  e:\temp\ccdoSeHU.s 			page 204


 10074 37bd 2D       		.uleb128 0x2d
 10075 37be 98010000 		.4byte	.LVL177
 10076 37c2 592F0000 		.4byte	0x2f59
 10077 37c6 E9370000 		.4byte	0x37e9
 10078 37ca 2E       		.uleb128 0x2e
 10079 37cb 01       		.uleb128 0x1
 10080 37cc 50       		.byte	0x50
 10081 37cd 02       		.uleb128 0x2
 10082 37ce 74       		.byte	0x74
 10083 37cf 00       		.sleb128 0
 10084 37d0 2E       		.uleb128 0x2e
 10085 37d1 01       		.uleb128 0x1
 10086 37d2 51       		.byte	0x51
 10087 37d3 0F       		.uleb128 0xf
 10088 37d4 74       		.byte	0x74
 10089 37d5 00       		.sleb128 0
 10090 37d6 33       		.byte	0x33
 10091 37d7 24       		.byte	0x24
 10092 37d8 74       		.byte	0x74
 10093 37d9 00       		.sleb128 0
 10094 37da 22       		.byte	0x22
 10095 37db 33       		.byte	0x33
 10096 37dc 24       		.byte	0x24
 10097 37dd 03       		.byte	0x3
 10098 37de 18000000 		.4byte	vdm_stat+24
 10099 37e2 22       		.byte	0x22
 10100 37e3 2E       		.uleb128 0x2e
 10101 37e4 01       		.uleb128 0x1
 10102 37e5 52       		.byte	0x52
 10103 37e6 01       		.uleb128 0x1
 10104 37e7 34       		.byte	0x34
 10105 37e8 00       		.byte	0
 10106 37e9 2D       		.uleb128 0x2d
 10107 37ea A4010000 		.4byte	.LVL178
 10108 37ee B32D0000 		.4byte	0x2db3
 10109 37f2 02380000 		.4byte	0x3802
 10110 37f6 2E       		.uleb128 0x2e
 10111 37f7 01       		.uleb128 0x1
 10112 37f8 50       		.byte	0x50
 10113 37f9 02       		.uleb128 0x2
 10114 37fa 74       		.byte	0x74
 10115 37fb 00       		.sleb128 0
 10116 37fc 2E       		.uleb128 0x2e
 10117 37fd 01       		.uleb128 0x1
 10118 37fe 51       		.byte	0x51
 10119 37ff 01       		.uleb128 0x1
 10120 3800 31       		.byte	0x31
 10121 3801 00       		.byte	0
 10122 3802 2D       		.uleb128 0x2d
 10123 3803 D2010000 		.4byte	.LVL180
 10124 3807 D13F0000 		.4byte	0x3fd1
 10125 380b 16380000 		.4byte	0x3816
 10126 380f 2E       		.uleb128 0x2e
 10127 3810 01       		.uleb128 0x1
 10128 3811 50       		.byte	0x50
 10129 3812 02       		.uleb128 0x2
 10130 3813 74       		.byte	0x74
ARM GAS  e:\temp\ccdoSeHU.s 			page 205


 10131 3814 00       		.sleb128 0
 10132 3815 00       		.byte	0
 10133 3816 2D       		.uleb128 0x2d
 10134 3817 DA010000 		.4byte	.LVL181
 10135 381b 23340000 		.4byte	0x3423
 10136 381f 2F380000 		.4byte	0x382f
 10137 3823 2E       		.uleb128 0x2e
 10138 3824 01       		.uleb128 0x1
 10139 3825 50       		.byte	0x50
 10140 3826 02       		.uleb128 0x2
 10141 3827 74       		.byte	0x74
 10142 3828 00       		.sleb128 0
 10143 3829 2E       		.uleb128 0x2e
 10144 382a 01       		.uleb128 0x1
 10145 382b 51       		.byte	0x51
 10146 382c 01       		.uleb128 0x1
 10147 382d 30       		.byte	0x30
 10148 382e 00       		.byte	0
 10149 382f 2F       		.uleb128 0x2f
 10150 3830 EC010000 		.4byte	.LVL184
 10151 3834 23340000 		.4byte	0x3423
 10152 3838 2E       		.uleb128 0x2e
 10153 3839 01       		.uleb128 0x1
 10154 383a 50       		.byte	0x50
 10155 383b 02       		.uleb128 0x2
 10156 383c 74       		.byte	0x74
 10157 383d 00       		.sleb128 0
 10158 383e 2E       		.uleb128 0x2e
 10159 383f 01       		.uleb128 0x1
 10160 3840 51       		.byte	0x51
 10161 3841 01       		.uleb128 0x1
 10162 3842 30       		.byte	0x30
 10163 3843 00       		.byte	0
 10164 3844 00       		.byte	0
 10165 3845 34       		.uleb128 0x34
 10166 3846 09000000 		.4byte	.LASF731
 10167 384a 01       		.byte	0x1
 10168 384b D5       		.byte	0xd5
 10169 384c 00000000 		.4byte	.LFB35
 10170 3850 EC000000 		.4byte	.LFE35-.LFB35
 10171 3854 01       		.uleb128 0x1
 10172 3855 9C       		.byte	0x9c
 10173 3856 693A0000 		.4byte	0x3a69
 10174 385a 33       		.uleb128 0x33
 10175 385b F5210000 		.4byte	.LASF696
 10176 385f 01       		.byte	0x1
 10177 3860 D5       		.byte	0xd5
 10178 3861 A2000000 		.4byte	0xa2
 10179 3865 61080000 		.4byte	.LLST48
 10180 3869 2D       		.uleb128 0x2d
 10181 386a 0A000000 		.4byte	.LVL194
 10182 386e A53F0000 		.4byte	0x3fa5
 10183 3872 83380000 		.4byte	0x3883
 10184 3876 2E       		.uleb128 0x2e
 10185 3877 01       		.uleb128 0x1
 10186 3878 50       		.byte	0x50
 10187 3879 02       		.uleb128 0x2
ARM GAS  e:\temp\ccdoSeHU.s 			page 206


 10188 387a 74       		.byte	0x74
 10189 387b 00       		.sleb128 0
 10190 387c 2E       		.uleb128 0x2e
 10191 387d 01       		.uleb128 0x1
 10192 387e 51       		.byte	0x51
 10193 387f 02       		.uleb128 0x2
 10194 3880 08       		.byte	0x8
 10195 3881 28       		.byte	0x28
 10196 3882 00       		.byte	0
 10197 3883 2D       		.uleb128 0x2d
 10198 3884 14000000 		.4byte	.LVL195
 10199 3888 D2320000 		.4byte	0x32d2
 10200 388c 97380000 		.4byte	0x3897
 10201 3890 2E       		.uleb128 0x2e
 10202 3891 01       		.uleb128 0x1
 10203 3892 50       		.byte	0x50
 10204 3893 02       		.uleb128 0x2
 10205 3894 74       		.byte	0x74
 10206 3895 00       		.sleb128 0
 10207 3896 00       		.byte	0
 10208 3897 2D       		.uleb128 0x2d
 10209 3898 26000000 		.4byte	.LVL196
 10210 389c 58340000 		.4byte	0x3458
 10211 38a0 AB380000 		.4byte	0x38ab
 10212 38a4 2E       		.uleb128 0x2e
 10213 38a5 01       		.uleb128 0x1
 10214 38a6 50       		.byte	0x50
 10215 38a7 02       		.uleb128 0x2
 10216 38a8 74       		.byte	0x74
 10217 38a9 00       		.sleb128 0
 10218 38aa 00       		.byte	0
 10219 38ab 2D       		.uleb128 0x2d
 10220 38ac 2E000000 		.4byte	.LVL197
 10221 38b0 78330000 		.4byte	0x3378
 10222 38b4 BF380000 		.4byte	0x38bf
 10223 38b8 2E       		.uleb128 0x2e
 10224 38b9 01       		.uleb128 0x1
 10225 38ba 50       		.byte	0x50
 10226 38bb 02       		.uleb128 0x2
 10227 38bc 74       		.byte	0x74
 10228 38bd 00       		.sleb128 0
 10229 38be 00       		.byte	0
 10230 38bf 2D       		.uleb128 0x2d
 10231 38c0 36000000 		.4byte	.LVL198
 10232 38c4 A7320000 		.4byte	0x32a7
 10233 38c8 D3380000 		.4byte	0x38d3
 10234 38cc 2E       		.uleb128 0x2e
 10235 38cd 01       		.uleb128 0x1
 10236 38ce 50       		.byte	0x50
 10237 38cf 02       		.uleb128 0x2
 10238 38d0 74       		.byte	0x74
 10239 38d1 00       		.sleb128 0
 10240 38d2 00       		.byte	0
 10241 38d3 2D       		.uleb128 0x2d
 10242 38d4 3E000000 		.4byte	.LVL199
 10243 38d8 CD340000 		.4byte	0x34cd
 10244 38dc E7380000 		.4byte	0x38e7
ARM GAS  e:\temp\ccdoSeHU.s 			page 207


 10245 38e0 2E       		.uleb128 0x2e
 10246 38e1 01       		.uleb128 0x1
 10247 38e2 50       		.byte	0x50
 10248 38e3 02       		.uleb128 0x2
 10249 38e4 74       		.byte	0x74
 10250 38e5 00       		.sleb128 0
 10251 38e6 00       		.byte	0
 10252 38e7 2D       		.uleb128 0x2d
 10253 38e8 46000000 		.4byte	.LVL200
 10254 38ec 78330000 		.4byte	0x3378
 10255 38f0 FB380000 		.4byte	0x38fb
 10256 38f4 2E       		.uleb128 0x2e
 10257 38f5 01       		.uleb128 0x1
 10258 38f6 50       		.byte	0x50
 10259 38f7 02       		.uleb128 0x2
 10260 38f8 74       		.byte	0x74
 10261 38f9 00       		.sleb128 0
 10262 38fa 00       		.byte	0
 10263 38fb 2D       		.uleb128 0x2d
 10264 38fc 4E000000 		.4byte	.LVL201
 10265 3900 A7320000 		.4byte	0x32a7
 10266 3904 0F390000 		.4byte	0x390f
 10267 3908 2E       		.uleb128 0x2e
 10268 3909 01       		.uleb128 0x1
 10269 390a 50       		.byte	0x50
 10270 390b 02       		.uleb128 0x2
 10271 390c 74       		.byte	0x74
 10272 390d 00       		.sleb128 0
 10273 390e 00       		.byte	0
 10274 390f 2D       		.uleb128 0x2d
 10275 3910 56000000 		.4byte	.LVL202
 10276 3914 B8350000 		.4byte	0x35b8
 10277 3918 23390000 		.4byte	0x3923
 10278 391c 2E       		.uleb128 0x2e
 10279 391d 01       		.uleb128 0x1
 10280 391e 50       		.byte	0x50
 10281 391f 02       		.uleb128 0x2
 10282 3920 74       		.byte	0x74
 10283 3921 00       		.sleb128 0
 10284 3922 00       		.byte	0
 10285 3923 2D       		.uleb128 0x2d
 10286 3924 5E000000 		.4byte	.LVL203
 10287 3928 78330000 		.4byte	0x3378
 10288 392c 37390000 		.4byte	0x3937
 10289 3930 2E       		.uleb128 0x2e
 10290 3931 01       		.uleb128 0x1
 10291 3932 50       		.byte	0x50
 10292 3933 02       		.uleb128 0x2
 10293 3934 74       		.byte	0x74
 10294 3935 00       		.sleb128 0
 10295 3936 00       		.byte	0
 10296 3937 2D       		.uleb128 0x2d
 10297 3938 66000000 		.4byte	.LVL204
 10298 393c 49300000 		.4byte	0x3049
 10299 3940 4B390000 		.4byte	0x394b
 10300 3944 2E       		.uleb128 0x2e
 10301 3945 01       		.uleb128 0x1
ARM GAS  e:\temp\ccdoSeHU.s 			page 208


 10302 3946 50       		.byte	0x50
 10303 3947 02       		.uleb128 0x2
 10304 3948 74       		.byte	0x74
 10305 3949 00       		.sleb128 0
 10306 394a 00       		.byte	0
 10307 394b 2D       		.uleb128 0x2d
 10308 394c 6C000000 		.4byte	.LVL205
 10309 3950 5A310000 		.4byte	0x315a
 10310 3954 5F390000 		.4byte	0x395f
 10311 3958 2E       		.uleb128 0x2e
 10312 3959 01       		.uleb128 0x1
 10313 395a 50       		.byte	0x50
 10314 395b 02       		.uleb128 0x2
 10315 395c 74       		.byte	0x74
 10316 395d 00       		.sleb128 0
 10317 395e 00       		.byte	0
 10318 395f 2D       		.uleb128 0x2d
 10319 3960 74000000 		.4byte	.LVL206
 10320 3964 78330000 		.4byte	0x3378
 10321 3968 73390000 		.4byte	0x3973
 10322 396c 2E       		.uleb128 0x2e
 10323 396d 01       		.uleb128 0x1
 10324 396e 50       		.byte	0x50
 10325 396f 02       		.uleb128 0x2
 10326 3970 74       		.byte	0x74
 10327 3971 00       		.sleb128 0
 10328 3972 00       		.byte	0
 10329 3973 2D       		.uleb128 0x2d
 10330 3974 7C000000 		.4byte	.LVL207
 10331 3978 822D0000 		.4byte	0x2d82
 10332 397c 87390000 		.4byte	0x3987
 10333 3980 2E       		.uleb128 0x2e
 10334 3981 01       		.uleb128 0x1
 10335 3982 50       		.byte	0x50
 10336 3983 02       		.uleb128 0x2
 10337 3984 74       		.byte	0x74
 10338 3985 00       		.sleb128 0
 10339 3986 00       		.byte	0
 10340 3987 2D       		.uleb128 0x2d
 10341 3988 90000000 		.4byte	.LVL208
 10342 398c 00400000 		.4byte	0x4000
 10343 3990 AE390000 		.4byte	0x39ae
 10344 3994 2E       		.uleb128 0x2e
 10345 3995 01       		.uleb128 0x1
 10346 3996 50       		.byte	0x50
 10347 3997 02       		.uleb128 0x2
 10348 3998 74       		.byte	0x74
 10349 3999 00       		.sleb128 0
 10350 399a 2E       		.uleb128 0x2e
 10351 399b 01       		.uleb128 0x1
 10352 399c 51       		.byte	0x51
 10353 399d 0F       		.uleb128 0xf
 10354 399e 74       		.byte	0x74
 10355 399f 00       		.sleb128 0
 10356 39a0 33       		.byte	0x33
 10357 39a1 24       		.byte	0x24
 10358 39a2 74       		.byte	0x74
ARM GAS  e:\temp\ccdoSeHU.s 			page 209


 10359 39a3 00       		.sleb128 0
 10360 39a4 22       		.byte	0x22
 10361 39a5 33       		.byte	0x33
 10362 39a6 24       		.byte	0x24
 10363 39a7 03       		.byte	0x3
 10364 39a8 04000000 		.4byte	vdm_stat+4
 10365 39ac 22       		.byte	0x22
 10366 39ad 00       		.byte	0
 10367 39ae 2D       		.uleb128 0x2d
 10368 39af 98000000 		.4byte	.LVL209
 10369 39b3 78330000 		.4byte	0x3378
 10370 39b7 C2390000 		.4byte	0x39c2
 10371 39bb 2E       		.uleb128 0x2e
 10372 39bc 01       		.uleb128 0x1
 10373 39bd 50       		.byte	0x50
 10374 39be 02       		.uleb128 0x2
 10375 39bf 74       		.byte	0x74
 10376 39c0 00       		.sleb128 0
 10377 39c1 00       		.byte	0
 10378 39c2 2D       		.uleb128 0x2d
 10379 39c3 A0000000 		.4byte	.LVL210
 10380 39c7 23340000 		.4byte	0x3423
 10381 39cb DB390000 		.4byte	0x39db
 10382 39cf 2E       		.uleb128 0x2e
 10383 39d0 01       		.uleb128 0x1
 10384 39d1 50       		.byte	0x50
 10385 39d2 02       		.uleb128 0x2
 10386 39d3 74       		.byte	0x74
 10387 39d4 00       		.sleb128 0
 10388 39d5 2E       		.uleb128 0x2e
 10389 39d6 01       		.uleb128 0x1
 10390 39d7 51       		.byte	0x51
 10391 39d8 01       		.uleb128 0x1
 10392 39d9 30       		.byte	0x30
 10393 39da 00       		.byte	0
 10394 39db 2D       		.uleb128 0x2d
 10395 39dc A8000000 		.4byte	.LVL211
 10396 39e0 A7320000 		.4byte	0x32a7
 10397 39e4 EF390000 		.4byte	0x39ef
 10398 39e8 2E       		.uleb128 0x2e
 10399 39e9 01       		.uleb128 0x1
 10400 39ea 50       		.byte	0x50
 10401 39eb 02       		.uleb128 0x2
 10402 39ec 74       		.byte	0x74
 10403 39ed 00       		.sleb128 0
 10404 39ee 00       		.byte	0
 10405 39ef 2D       		.uleb128 0x2d
 10406 39f0 B0000000 		.4byte	.LVL212
 10407 39f4 8E3F0000 		.4byte	0x3f8e
 10408 39f8 033A0000 		.4byte	0x3a03
 10409 39fc 2E       		.uleb128 0x2e
 10410 39fd 01       		.uleb128 0x1
 10411 39fe 50       		.byte	0x50
 10412 39ff 02       		.uleb128 0x2
 10413 3a00 74       		.byte	0x74
 10414 3a01 00       		.sleb128 0
 10415 3a02 00       		.byte	0
ARM GAS  e:\temp\ccdoSeHU.s 			page 210


 10416 3a03 2D       		.uleb128 0x2d
 10417 3a04 B8000000 		.4byte	.LVL213
 10418 3a08 78330000 		.4byte	0x3378
 10419 3a0c 173A0000 		.4byte	0x3a17
 10420 3a10 2E       		.uleb128 0x2e
 10421 3a11 01       		.uleb128 0x1
 10422 3a12 50       		.byte	0x50
 10423 3a13 02       		.uleb128 0x2
 10424 3a14 74       		.byte	0x74
 10425 3a15 00       		.sleb128 0
 10426 3a16 00       		.byte	0
 10427 3a17 2D       		.uleb128 0x2d
 10428 3a18 BE000000 		.4byte	.LVL214
 10429 3a1c D2320000 		.4byte	0x32d2
 10430 3a20 2B3A0000 		.4byte	0x3a2b
 10431 3a24 2E       		.uleb128 0x2e
 10432 3a25 01       		.uleb128 0x1
 10433 3a26 50       		.byte	0x50
 10434 3a27 02       		.uleb128 0x2
 10435 3a28 74       		.byte	0x74
 10436 3a29 00       		.sleb128 0
 10437 3a2a 00       		.byte	0
 10438 3a2b 2D       		.uleb128 0x2d
 10439 3a2c CE000000 		.4byte	.LVL215
 10440 3a30 23340000 		.4byte	0x3423
 10441 3a34 443A0000 		.4byte	0x3a44
 10442 3a38 2E       		.uleb128 0x2e
 10443 3a39 01       		.uleb128 0x1
 10444 3a3a 50       		.byte	0x50
 10445 3a3b 02       		.uleb128 0x2
 10446 3a3c 74       		.byte	0x74
 10447 3a3d 00       		.sleb128 0
 10448 3a3e 2E       		.uleb128 0x2e
 10449 3a3f 01       		.uleb128 0x1
 10450 3a40 51       		.byte	0x51
 10451 3a41 01       		.uleb128 0x1
 10452 3a42 30       		.byte	0x30
 10453 3a43 00       		.byte	0
 10454 3a44 2D       		.uleb128 0x2d
 10455 3a45 D6000000 		.4byte	.LVL216
 10456 3a49 F3310000 		.4byte	0x31f3
 10457 3a4d 583A0000 		.4byte	0x3a58
 10458 3a51 2E       		.uleb128 0x2e
 10459 3a52 01       		.uleb128 0x1
 10460 3a53 50       		.byte	0x50
 10461 3a54 02       		.uleb128 0x2
 10462 3a55 74       		.byte	0x74
 10463 3a56 00       		.sleb128 0
 10464 3a57 00       		.byte	0
 10465 3a58 2F       		.uleb128 0x2f
 10466 3a59 DC000000 		.4byte	.LVL217
 10467 3a5d 403F0000 		.4byte	0x3f40
 10468 3a61 2E       		.uleb128 0x2e
 10469 3a62 01       		.uleb128 0x1
 10470 3a63 50       		.byte	0x50
 10471 3a64 02       		.uleb128 0x2
 10472 3a65 74       		.byte	0x74
ARM GAS  e:\temp\ccdoSeHU.s 			page 211


 10473 3a66 00       		.sleb128 0
 10474 3a67 00       		.byte	0
 10475 3a68 00       		.byte	0
 10476 3a69 28       		.uleb128 0x28
 10477 3a6a 791C0000 		.4byte	.LASF732
 10478 3a6e 01       		.byte	0x1
 10479 3a6f 2401     		.2byte	0x124
 10480 3a71 00000000 		.4byte	.LFB37
 10481 3a75 50000000 		.4byte	.LFE37-.LFB37
 10482 3a79 01       		.uleb128 0x1
 10483 3a7a 9C       		.byte	0x9c
 10484 3a7b DD3A0000 		.4byte	0x3add
 10485 3a7f 25       		.uleb128 0x25
 10486 3a80 F5210000 		.4byte	.LASF696
 10487 3a84 01       		.byte	0x1
 10488 3a85 2401     		.2byte	0x124
 10489 3a87 A2000000 		.4byte	0xa2
 10490 3a8b 82080000 		.4byte	.LLST49
 10491 3a8f 25       		.uleb128 0x25
 10492 3a90 B8060000 		.4byte	.LASF733
 10493 3a94 01       		.byte	0x1
 10494 3a95 2401     		.2byte	0x124
 10495 3a97 4D2C0000 		.4byte	0x2c4d
 10496 3a9b A3080000 		.4byte	.LLST50
 10497 3a9f 2D       		.uleb128 0x2d
 10498 3aa0 1C000000 		.4byte	.LVL220
 10499 3aa4 23340000 		.4byte	0x3423
 10500 3aa8 B83A0000 		.4byte	0x3ab8
 10501 3aac 2E       		.uleb128 0x2e
 10502 3aad 01       		.uleb128 0x1
 10503 3aae 50       		.byte	0x50
 10504 3aaf 02       		.uleb128 0x2
 10505 3ab0 75       		.byte	0x75
 10506 3ab1 00       		.sleb128 0
 10507 3ab2 2E       		.uleb128 0x2e
 10508 3ab3 01       		.uleb128 0x1
 10509 3ab4 51       		.byte	0x51
 10510 3ab5 01       		.uleb128 0x1
 10511 3ab6 32       		.byte	0x32
 10512 3ab7 00       		.byte	0
 10513 3ab8 2D       		.uleb128 0x2d
 10514 3ab9 22000000 		.4byte	.LVL221
 10515 3abd 822D0000 		.4byte	0x2d82
 10516 3ac1 CC3A0000 		.4byte	0x3acc
 10517 3ac5 2E       		.uleb128 0x2e
 10518 3ac6 01       		.uleb128 0x1
 10519 3ac7 50       		.byte	0x50
 10520 3ac8 02       		.uleb128 0x2
 10521 3ac9 75       		.byte	0x75
 10522 3aca 00       		.sleb128 0
 10523 3acb 00       		.byte	0
 10524 3acc 2F       		.uleb128 0x2f
 10525 3acd 2A000000 		.4byte	.LVL222
 10526 3ad1 773F0000 		.4byte	0x3f77
 10527 3ad5 2E       		.uleb128 0x2e
 10528 3ad6 01       		.uleb128 0x1
 10529 3ad7 50       		.byte	0x50
ARM GAS  e:\temp\ccdoSeHU.s 			page 212


 10530 3ad8 02       		.uleb128 0x2
 10531 3ad9 75       		.byte	0x75
 10532 3ada 00       		.sleb128 0
 10533 3adb 00       		.byte	0
 10534 3adc 00       		.byte	0
 10535 3add 24       		.uleb128 0x24
 10536 3ade 971E0000 		.4byte	.LASF734
 10537 3ae2 01       		.byte	0x1
 10538 3ae3 1301     		.2byte	0x113
 10539 3ae5 BE230000 		.4byte	0x23be
 10540 3ae9 00000000 		.4byte	.LFB36
 10541 3aed 48000000 		.4byte	.LFE36-.LFB36
 10542 3af1 01       		.uleb128 0x1
 10543 3af2 9C       		.byte	0x9c
 10544 3af3 663B0000 		.4byte	0x3b66
 10545 3af7 25       		.uleb128 0x25
 10546 3af8 F5210000 		.4byte	.LASF696
 10547 3afc 01       		.byte	0x1
 10548 3afd 1301     		.2byte	0x113
 10549 3aff A2000000 		.4byte	0xa2
 10550 3b03 C4080000 		.4byte	.LLST51
 10551 3b07 25       		.uleb128 0x25
 10552 3b08 B8060000 		.4byte	.LASF733
 10553 3b0c 01       		.byte	0x1
 10554 3b0d 1301     		.2byte	0x113
 10555 3b0f 4D2C0000 		.4byte	0x2c4d
 10556 3b13 E5080000 		.4byte	.LLST52
 10557 3b17 2D       		.uleb128 0x2d
 10558 3b18 28000000 		.4byte	.LVL225
 10559 3b1c 693A0000 		.4byte	0x3a69
 10560 3b20 2B3B0000 		.4byte	0x3b2b
 10561 3b24 2E       		.uleb128 0x2e
 10562 3b25 01       		.uleb128 0x1
 10563 3b26 50       		.byte	0x50
 10564 3b27 02       		.uleb128 0x2
 10565 3b28 74       		.byte	0x74
 10566 3b29 00       		.sleb128 0
 10567 3b2a 00       		.byte	0
 10568 3b2b 2D       		.uleb128 0x2d
 10569 3b2c 34000000 		.4byte	.LVL228
 10570 3b30 78330000 		.4byte	0x3378
 10571 3b34 443B0000 		.4byte	0x3b44
 10572 3b38 2E       		.uleb128 0x2e
 10573 3b39 01       		.uleb128 0x1
 10574 3b3a 50       		.byte	0x50
 10575 3b3b 02       		.uleb128 0x2
 10576 3b3c 74       		.byte	0x74
 10577 3b3d 00       		.sleb128 0
 10578 3b3e 2E       		.uleb128 0x2e
 10579 3b3f 01       		.uleb128 0x1
 10580 3b40 51       		.byte	0x51
 10581 3b41 01       		.uleb128 0x1
 10582 3b42 36       		.byte	0x36
 10583 3b43 00       		.byte	0
 10584 3b44 2F       		.uleb128 0x2f
 10585 3b45 40000000 		.4byte	.LVL229
 10586 3b49 F53F0000 		.4byte	0x3ff5
ARM GAS  e:\temp\ccdoSeHU.s 			page 213


 10587 3b4d 2E       		.uleb128 0x2e
 10588 3b4e 01       		.uleb128 0x1
 10589 3b4f 50       		.byte	0x50
 10590 3b50 02       		.uleb128 0x2
 10591 3b51 74       		.byte	0x74
 10592 3b52 00       		.sleb128 0
 10593 3b53 2E       		.uleb128 0x2e
 10594 3b54 01       		.uleb128 0x1
 10595 3b55 51       		.byte	0x51
 10596 3b56 02       		.uleb128 0x2
 10597 3b57 08       		.byte	0x8
 10598 3b58 28       		.byte	0x28
 10599 3b59 2E       		.uleb128 0x2e
 10600 3b5a 01       		.uleb128 0x1
 10601 3b5b 52       		.byte	0x52
 10602 3b5c 02       		.uleb128 0x2
 10603 3b5d 08       		.byte	0x8
 10604 3b5e 64       		.byte	0x64
 10605 3b5f 2E       		.uleb128 0x2e
 10606 3b60 01       		.uleb128 0x1
 10607 3b61 53       		.byte	0x53
 10608 3b62 01       		.uleb128 0x1
 10609 3b63 30       		.byte	0x30
 10610 3b64 00       		.byte	0
 10611 3b65 00       		.byte	0
 10612 3b66 28       		.uleb128 0x28
 10613 3b67 F7130000 		.4byte	.LASF735
 10614 3b6b 01       		.byte	0x1
 10615 3b6c 3001     		.2byte	0x130
 10616 3b6e 00000000 		.4byte	.LFB38
 10617 3b72 C4010000 		.4byte	.LFE38-.LFB38
 10618 3b76 01       		.uleb128 0x1
 10619 3b77 9C       		.byte	0x9c
 10620 3b78 D03D0000 		.4byte	0x3dd0
 10621 3b7c 25       		.uleb128 0x25
 10622 3b7d F5210000 		.4byte	.LASF696
 10623 3b81 01       		.byte	0x1
 10624 3b82 3001     		.2byte	0x130
 10625 3b84 A2000000 		.4byte	0xa2
 10626 3b88 1F090000 		.4byte	.LLST53
 10627 3b8c 25       		.uleb128 0x25
 10628 3b8d 9A190000 		.4byte	.LASF736
 10629 3b91 01       		.byte	0x1
 10630 3b92 3001     		.2byte	0x130
 10631 3b94 91020000 		.4byte	0x291
 10632 3b98 72090000 		.4byte	.LLST54
 10633 3b9c 25       		.uleb128 0x25
 10634 3b9d A1240000 		.4byte	.LASF705
 10635 3ba1 01       		.byte	0x1
 10636 3ba2 3001     		.2byte	0x130
 10637 3ba4 70210000 		.4byte	0x2170
 10638 3ba8 C5090000 		.4byte	.LLST55
 10639 3bac 2C       		.uleb128 0x2c
 10640 3bad 11270000 		.4byte	.LASF737
 10641 3bb1 01       		.byte	0x1
 10642 3bb2 3201     		.2byte	0x132
 10643 3bb4 B8000000 		.4byte	0xb8
ARM GAS  e:\temp\ccdoSeHU.s 			page 214


 10644 3bb8 070A0000 		.4byte	.LLST56
 10645 3bbc 2C       		.uleb128 0x2c
 10646 3bbd 34020000 		.4byte	.LASF738
 10647 3bc1 01       		.byte	0x1
 10648 3bc2 3301     		.2byte	0x133
 10649 3bc4 BE230000 		.4byte	0x23be
 10650 3bc8 230A0000 		.4byte	.LLST57
 10651 3bcc 2D       		.uleb128 0x2d
 10652 3bcd 22000000 		.4byte	.LVL234
 10653 3bd1 403F0000 		.4byte	0x3f40
 10654 3bd5 E03B0000 		.4byte	0x3be0
 10655 3bd9 2E       		.uleb128 0x2e
 10656 3bda 01       		.uleb128 0x1
 10657 3bdb 50       		.byte	0x50
 10658 3bdc 02       		.uleb128 0x2
 10659 3bdd 74       		.byte	0x74
 10660 3bde 00       		.sleb128 0
 10661 3bdf 00       		.byte	0
 10662 3be0 2D       		.uleb128 0x2d
 10663 3be1 2A000000 		.4byte	.LVL235
 10664 3be5 403F0000 		.4byte	0x3f40
 10665 3be9 F43B0000 		.4byte	0x3bf4
 10666 3bed 2E       		.uleb128 0x2e
 10667 3bee 01       		.uleb128 0x1
 10668 3bef 50       		.byte	0x50
 10669 3bf0 02       		.uleb128 0x2
 10670 3bf1 74       		.byte	0x74
 10671 3bf2 00       		.sleb128 0
 10672 3bf3 00       		.byte	0
 10673 3bf4 2D       		.uleb128 0x2d
 10674 3bf5 3E000000 		.4byte	.LVL236
 10675 3bf9 403F0000 		.4byte	0x3f40
 10676 3bfd 083C0000 		.4byte	0x3c08
 10677 3c01 2E       		.uleb128 0x2e
 10678 3c02 01       		.uleb128 0x1
 10679 3c03 50       		.byte	0x50
 10680 3c04 02       		.uleb128 0x2
 10681 3c05 74       		.byte	0x74
 10682 3c06 00       		.sleb128 0
 10683 3c07 00       		.byte	0
 10684 3c08 2D       		.uleb128 0x2d
 10685 3c09 5C000000 		.4byte	.LVL237
 10686 3c0d 773F0000 		.4byte	0x3f77
 10687 3c11 1C3C0000 		.4byte	0x3c1c
 10688 3c15 2E       		.uleb128 0x2e
 10689 3c16 01       		.uleb128 0x1
 10690 3c17 50       		.byte	0x50
 10691 3c18 02       		.uleb128 0x2
 10692 3c19 74       		.byte	0x74
 10693 3c1a 00       		.sleb128 0
 10694 3c1b 00       		.byte	0
 10695 3c1c 2D       		.uleb128 0x2d
 10696 3c1d 6E000000 		.4byte	.LVL238
 10697 3c21 012E0000 		.4byte	0x2e01
 10698 3c25 363C0000 		.4byte	0x3c36
 10699 3c29 2E       		.uleb128 0x2e
 10700 3c2a 01       		.uleb128 0x1
ARM GAS  e:\temp\ccdoSeHU.s 			page 215


 10701 3c2b 50       		.byte	0x50
 10702 3c2c 02       		.uleb128 0x2
 10703 3c2d 74       		.byte	0x74
 10704 3c2e 00       		.sleb128 0
 10705 3c2f 2E       		.uleb128 0x2e
 10706 3c30 01       		.uleb128 0x1
 10707 3c31 51       		.byte	0x51
 10708 3c32 02       		.uleb128 0x2
 10709 3c33 76       		.byte	0x76
 10710 3c34 00       		.sleb128 0
 10711 3c35 00       		.byte	0
 10712 3c36 2D       		.uleb128 0x2d
 10713 3c37 76000000 		.4byte	.LVL239
 10714 3c3b 23340000 		.4byte	0x3423
 10715 3c3f 4F3C0000 		.4byte	0x3c4f
 10716 3c43 2E       		.uleb128 0x2e
 10717 3c44 01       		.uleb128 0x1
 10718 3c45 50       		.byte	0x50
 10719 3c46 02       		.uleb128 0x2
 10720 3c47 74       		.byte	0x74
 10721 3c48 00       		.sleb128 0
 10722 3c49 2E       		.uleb128 0x2e
 10723 3c4a 01       		.uleb128 0x1
 10724 3c4b 51       		.byte	0x51
 10725 3c4c 01       		.uleb128 0x1
 10726 3c4d 31       		.byte	0x31
 10727 3c4e 00       		.byte	0
 10728 3c4f 2D       		.uleb128 0x2d
 10729 3c50 92000000 		.4byte	.LVL240
 10730 3c54 693A0000 		.4byte	0x3a69
 10731 3c58 683C0000 		.4byte	0x3c68
 10732 3c5c 2E       		.uleb128 0x2e
 10733 3c5d 01       		.uleb128 0x1
 10734 3c5e 50       		.byte	0x50
 10735 3c5f 02       		.uleb128 0x2
 10736 3c60 74       		.byte	0x74
 10737 3c61 00       		.sleb128 0
 10738 3c62 2E       		.uleb128 0x2e
 10739 3c63 01       		.uleb128 0x1
 10740 3c64 51       		.byte	0x51
 10741 3c65 01       		.uleb128 0x1
 10742 3c66 32       		.byte	0x32
 10743 3c67 00       		.byte	0
 10744 3c68 2D       		.uleb128 0x2d
 10745 3c69 BC000000 		.4byte	.LVL241
 10746 3c6d 693A0000 		.4byte	0x3a69
 10747 3c71 813C0000 		.4byte	0x3c81
 10748 3c75 2E       		.uleb128 0x2e
 10749 3c76 01       		.uleb128 0x1
 10750 3c77 50       		.byte	0x50
 10751 3c78 02       		.uleb128 0x2
 10752 3c79 74       		.byte	0x74
 10753 3c7a 00       		.sleb128 0
 10754 3c7b 2E       		.uleb128 0x2e
 10755 3c7c 01       		.uleb128 0x1
 10756 3c7d 51       		.byte	0x51
 10757 3c7e 01       		.uleb128 0x1
ARM GAS  e:\temp\ccdoSeHU.s 			page 216


 10758 3c7f 30       		.byte	0x30
 10759 3c80 00       		.byte	0
 10760 3c81 2D       		.uleb128 0x2d
 10761 3c82 C8000000 		.4byte	.LVL243
 10762 3c86 78330000 		.4byte	0x3378
 10763 3c8a 9A3C0000 		.4byte	0x3c9a
 10764 3c8e 2E       		.uleb128 0x2e
 10765 3c8f 01       		.uleb128 0x1
 10766 3c90 50       		.byte	0x50
 10767 3c91 02       		.uleb128 0x2
 10768 3c92 74       		.byte	0x74
 10769 3c93 00       		.sleb128 0
 10770 3c94 2E       		.uleb128 0x2e
 10771 3c95 01       		.uleb128 0x1
 10772 3c96 51       		.byte	0x51
 10773 3c97 01       		.uleb128 0x1
 10774 3c98 36       		.byte	0x36
 10775 3c99 00       		.byte	0
 10776 3c9a 2D       		.uleb128 0x2d
 10777 3c9b D4000000 		.4byte	.LVL244
 10778 3c9f F53F0000 		.4byte	0x3ff5
 10779 3ca3 BF3C0000 		.4byte	0x3cbf
 10780 3ca7 2E       		.uleb128 0x2e
 10781 3ca8 01       		.uleb128 0x1
 10782 3ca9 50       		.byte	0x50
 10783 3caa 02       		.uleb128 0x2
 10784 3cab 74       		.byte	0x74
 10785 3cac 00       		.sleb128 0
 10786 3cad 2E       		.uleb128 0x2e
 10787 3cae 01       		.uleb128 0x1
 10788 3caf 51       		.byte	0x51
 10789 3cb0 02       		.uleb128 0x2
 10790 3cb1 08       		.byte	0x8
 10791 3cb2 28       		.byte	0x28
 10792 3cb3 2E       		.uleb128 0x2e
 10793 3cb4 01       		.uleb128 0x1
 10794 3cb5 52       		.byte	0x52
 10795 3cb6 02       		.uleb128 0x2
 10796 3cb7 08       		.byte	0x8
 10797 3cb8 32       		.byte	0x32
 10798 3cb9 2E       		.uleb128 0x2e
 10799 3cba 01       		.uleb128 0x1
 10800 3cbb 53       		.byte	0x53
 10801 3cbc 01       		.uleb128 0x1
 10802 3cbd 30       		.byte	0x30
 10803 3cbe 00       		.byte	0
 10804 3cbf 2D       		.uleb128 0x2d
 10805 3cc0 E0000000 		.4byte	.LVL245
 10806 3cc4 693A0000 		.4byte	0x3a69
 10807 3cc8 D83C0000 		.4byte	0x3cd8
 10808 3ccc 2E       		.uleb128 0x2e
 10809 3ccd 01       		.uleb128 0x1
 10810 3cce 50       		.byte	0x50
 10811 3ccf 02       		.uleb128 0x2
 10812 3cd0 74       		.byte	0x74
 10813 3cd1 00       		.sleb128 0
 10814 3cd2 2E       		.uleb128 0x2e
ARM GAS  e:\temp\ccdoSeHU.s 			page 217


 10815 3cd3 01       		.uleb128 0x1
 10816 3cd4 51       		.byte	0x51
 10817 3cd5 01       		.uleb128 0x1
 10818 3cd6 33       		.byte	0x33
 10819 3cd7 00       		.byte	0
 10820 3cd8 2D       		.uleb128 0x2d
 10821 3cd9 EA000000 		.4byte	.LVL248
 10822 3cdd 012E0000 		.4byte	0x2e01
 10823 3ce1 EC3C0000 		.4byte	0x3cec
 10824 3ce5 2E       		.uleb128 0x2e
 10825 3ce6 01       		.uleb128 0x1
 10826 3ce7 51       		.byte	0x51
 10827 3ce8 02       		.uleb128 0x2
 10828 3ce9 76       		.byte	0x76
 10829 3cea 00       		.sleb128 0
 10830 3ceb 00       		.byte	0
 10831 3cec 2D       		.uleb128 0x2d
 10832 3ced F2000000 		.4byte	.LVL249
 10833 3cf1 23340000 		.4byte	0x3423
 10834 3cf5 053D0000 		.4byte	0x3d05
 10835 3cf9 2E       		.uleb128 0x2e
 10836 3cfa 01       		.uleb128 0x1
 10837 3cfb 50       		.byte	0x50
 10838 3cfc 02       		.uleb128 0x2
 10839 3cfd 74       		.byte	0x74
 10840 3cfe 00       		.sleb128 0
 10841 3cff 2E       		.uleb128 0x2e
 10842 3d00 01       		.uleb128 0x1
 10843 3d01 51       		.byte	0x51
 10844 3d02 01       		.uleb128 0x1
 10845 3d03 31       		.byte	0x31
 10846 3d04 00       		.byte	0
 10847 3d05 2B       		.uleb128 0x2b
 10848 3d06 0A010000 		.4byte	.LVL252
 10849 3d0a 822D0000 		.4byte	0x2d82
 10850 3d0e 2D       		.uleb128 0x2d
 10851 3d0f 1E010000 		.4byte	.LVL253
 10852 3d13 D2320000 		.4byte	0x32d2
 10853 3d17 223D0000 		.4byte	0x3d22
 10854 3d1b 2E       		.uleb128 0x2e
 10855 3d1c 01       		.uleb128 0x1
 10856 3d1d 50       		.byte	0x50
 10857 3d1e 02       		.uleb128 0x2
 10858 3d1f 74       		.byte	0x74
 10859 3d20 00       		.sleb128 0
 10860 3d21 00       		.byte	0
 10861 3d22 2D       		.uleb128 0x2d
 10862 3d23 2A010000 		.4byte	.LVL254
 10863 3d27 603F0000 		.4byte	0x3f60
 10864 3d2b 3C3D0000 		.4byte	0x3d3c
 10865 3d2f 2E       		.uleb128 0x2e
 10866 3d30 01       		.uleb128 0x1
 10867 3d31 50       		.byte	0x50
 10868 3d32 02       		.uleb128 0x2
 10869 3d33 74       		.byte	0x74
 10870 3d34 00       		.sleb128 0
 10871 3d35 2E       		.uleb128 0x2e
ARM GAS  e:\temp\ccdoSeHU.s 			page 218


 10872 3d36 01       		.uleb128 0x1
 10873 3d37 51       		.byte	0x51
 10874 3d38 02       		.uleb128 0x2
 10875 3d39 08       		.byte	0x8
 10876 3d3a 28       		.byte	0x28
 10877 3d3b 00       		.byte	0
 10878 3d3c 2D       		.uleb128 0x2d
 10879 3d3d 32010000 		.4byte	.LVL255
 10880 3d41 23340000 		.4byte	0x3423
 10881 3d45 553D0000 		.4byte	0x3d55
 10882 3d49 2E       		.uleb128 0x2e
 10883 3d4a 01       		.uleb128 0x1
 10884 3d4b 50       		.byte	0x50
 10885 3d4c 02       		.uleb128 0x2
 10886 3d4d 74       		.byte	0x74
 10887 3d4e 00       		.sleb128 0
 10888 3d4f 2E       		.uleb128 0x2e
 10889 3d50 01       		.uleb128 0x1
 10890 3d51 51       		.byte	0x51
 10891 3d52 01       		.uleb128 0x1
 10892 3d53 31       		.byte	0x31
 10893 3d54 00       		.byte	0
 10894 3d55 2D       		.uleb128 0x2d
 10895 3d56 5E010000 		.4byte	.LVL258
 10896 3d5a DD3A0000 		.4byte	0x3add
 10897 3d5e 6F3D0000 		.4byte	0x3d6f
 10898 3d62 2E       		.uleb128 0x2e
 10899 3d63 01       		.uleb128 0x1
 10900 3d64 50       		.byte	0x50
 10901 3d65 02       		.uleb128 0x2
 10902 3d66 74       		.byte	0x74
 10903 3d67 00       		.sleb128 0
 10904 3d68 2E       		.uleb128 0x2e
 10905 3d69 01       		.uleb128 0x1
 10906 3d6a 51       		.byte	0x51
 10907 3d6b 02       		.uleb128 0x2
 10908 3d6c 75       		.byte	0x75
 10909 3d6d 00       		.sleb128 0
 10910 3d6e 00       		.byte	0
 10911 3d6f 2D       		.uleb128 0x2d
 10912 3d70 72010000 		.4byte	.LVL259
 10913 3d74 78330000 		.4byte	0x3378
 10914 3d78 883D0000 		.4byte	0x3d88
 10915 3d7c 2E       		.uleb128 0x2e
 10916 3d7d 01       		.uleb128 0x1
 10917 3d7e 50       		.byte	0x50
 10918 3d7f 02       		.uleb128 0x2
 10919 3d80 74       		.byte	0x74
 10920 3d81 00       		.sleb128 0
 10921 3d82 2E       		.uleb128 0x2e
 10922 3d83 01       		.uleb128 0x1
 10923 3d84 51       		.byte	0x51
 10924 3d85 01       		.uleb128 0x1
 10925 3d86 36       		.byte	0x36
 10926 3d87 00       		.byte	0
 10927 3d88 2D       		.uleb128 0x2d
 10928 3d89 A8010000 		.4byte	.LVL262
ARM GAS  e:\temp\ccdoSeHU.s 			page 219


 10929 3d8d 78330000 		.4byte	0x3378
 10930 3d91 A13D0000 		.4byte	0x3da1
 10931 3d95 2E       		.uleb128 0x2e
 10932 3d96 01       		.uleb128 0x1
 10933 3d97 50       		.byte	0x50
 10934 3d98 02       		.uleb128 0x2
 10935 3d99 74       		.byte	0x74
 10936 3d9a 00       		.sleb128 0
 10937 3d9b 2E       		.uleb128 0x2e
 10938 3d9c 01       		.uleb128 0x1
 10939 3d9d 51       		.byte	0x51
 10940 3d9e 01       		.uleb128 0x1
 10941 3d9f 32       		.byte	0x32
 10942 3da0 00       		.byte	0
 10943 3da1 2D       		.uleb128 0x2d
 10944 3da2 B2010000 		.4byte	.LVL263
 10945 3da6 78330000 		.4byte	0x3378
 10946 3daa BA3D0000 		.4byte	0x3dba
 10947 3dae 2E       		.uleb128 0x2e
 10948 3daf 01       		.uleb128 0x1
 10949 3db0 50       		.byte	0x50
 10950 3db1 02       		.uleb128 0x2
 10951 3db2 74       		.byte	0x74
 10952 3db3 00       		.sleb128 0
 10953 3db4 2E       		.uleb128 0x2e
 10954 3db5 01       		.uleb128 0x1
 10955 3db6 51       		.byte	0x51
 10956 3db7 01       		.uleb128 0x1
 10957 3db8 33       		.byte	0x33
 10958 3db9 00       		.byte	0
 10959 3dba 2F       		.uleb128 0x2f
 10960 3dbb BC010000 		.4byte	.LVL264
 10961 3dbf 78330000 		.4byte	0x3378
 10962 3dc3 2E       		.uleb128 0x2e
 10963 3dc4 01       		.uleb128 0x1
 10964 3dc5 50       		.byte	0x50
 10965 3dc6 02       		.uleb128 0x2
 10966 3dc7 74       		.byte	0x74
 10967 3dc8 00       		.sleb128 0
 10968 3dc9 2E       		.uleb128 0x2e
 10969 3dca 01       		.uleb128 0x1
 10970 3dcb 51       		.byte	0x51
 10971 3dcc 01       		.uleb128 0x1
 10972 3dcd 37       		.byte	0x37
 10973 3dce 00       		.byte	0
 10974 3dcf 00       		.byte	0
 10975 3dd0 31       		.uleb128 0x31
 10976 3dd1 C7170000 		.4byte	.LASF739
 10977 3dd5 01       		.byte	0x1
 10978 3dd6 4304     		.2byte	0x443
 10979 3dd8 96200000 		.4byte	0x2096
 10980 3ddc 00000000 		.4byte	.LFB57
 10981 3de0 40000000 		.4byte	.LFE57-.LFB57
 10982 3de4 01       		.uleb128 0x1
 10983 3de5 9C       		.byte	0x9c
 10984 3de6 193E0000 		.4byte	0x3e19
 10985 3dea 25       		.uleb128 0x25
ARM GAS  e:\temp\ccdoSeHU.s 			page 220


 10986 3deb F5210000 		.4byte	.LASF696
 10987 3def 01       		.byte	0x1
 10988 3df0 4304     		.2byte	0x443
 10989 3df2 A2000000 		.4byte	0xa2
 10990 3df6 A20A0000 		.4byte	.LLST58
 10991 3dfa 26       		.uleb128 0x26
 10992 3dfb A71E0000 		.4byte	.LASF740
 10993 3dff 01       		.byte	0x1
 10994 3e00 4304     		.2byte	0x443
 10995 3e02 96200000 		.4byte	0x2096
 10996 3e06 01       		.uleb128 0x1
 10997 3e07 51       		.byte	0x51
 10998 3e08 27       		.uleb128 0x27
 10999 3e09 70747200 		.ascii	"ptr\000"
 11000 3e0d 01       		.byte	0x1
 11001 3e0e 4504     		.2byte	0x445
 11002 3e10 96200000 		.4byte	0x2096
 11003 3e14 0E0B0000 		.4byte	.LLST59
 11004 3e18 00       		.byte	0
 11005 3e19 31       		.uleb128 0x31
 11006 3e1a F31F0000 		.4byte	.LASF741
 11007 3e1e 01       		.byte	0x1
 11008 3e1f 5904     		.2byte	0x459
 11009 3e21 96200000 		.4byte	0x2096
 11010 3e25 00000000 		.4byte	.LFB58
 11011 3e29 44000000 		.4byte	.LFE58-.LFB58
 11012 3e2d 01       		.uleb128 0x1
 11013 3e2e 9C       		.byte	0x9c
 11014 3e2f 623E0000 		.4byte	0x3e62
 11015 3e33 25       		.uleb128 0x25
 11016 3e34 F5210000 		.4byte	.LASF696
 11017 3e38 01       		.byte	0x1
 11018 3e39 5904     		.2byte	0x459
 11019 3e3b A2000000 		.4byte	0xa2
 11020 3e3f 2E0B0000 		.4byte	.LLST60
 11021 3e43 26       		.uleb128 0x26
 11022 3e44 A71E0000 		.4byte	.LASF740
 11023 3e48 01       		.byte	0x1
 11024 3e49 5904     		.2byte	0x459
 11025 3e4b 96200000 		.4byte	0x2096
 11026 3e4f 01       		.uleb128 0x1
 11027 3e50 51       		.byte	0x51
 11028 3e51 27       		.uleb128 0x27
 11029 3e52 70747200 		.ascii	"ptr\000"
 11030 3e56 01       		.byte	0x1
 11031 3e57 5B04     		.2byte	0x45b
 11032 3e59 96200000 		.4byte	0x2096
 11033 3e5d 9A0B0000 		.4byte	.LLST61
 11034 3e61 00       		.byte	0
 11035 3e62 0D       		.uleb128 0xd
 11036 3e63 B8000000 		.4byte	0xb8
 11037 3e67 783E0000 		.4byte	0x3e78
 11038 3e6b 0E       		.uleb128 0xe
 11039 3e6c DF000000 		.4byte	0xdf
 11040 3e70 01       		.byte	0x1
 11041 3e71 0E       		.uleb128 0xe
 11042 3e72 DF000000 		.4byte	0xdf
ARM GAS  e:\temp\ccdoSeHU.s 			page 221


 11043 3e76 06       		.byte	0x6
 11044 3e77 00       		.byte	0
 11045 3e78 38       		.uleb128 0x38
 11046 3e79 42020000 		.4byte	.LASF742
 11047 3e7d 01       		.byte	0x1
 11048 3e7e 4E       		.byte	0x4e
 11049 3e7f 623E0000 		.4byte	0x3e62
 11050 3e83 05       		.uleb128 0x5
 11051 3e84 03       		.byte	0x3
 11052 3e85 0C000000 		.4byte	vdm_disc_id_resp
 11053 3e89 38       		.uleb128 0x38
 11054 3e8a DC030000 		.4byte	.LASF743
 11055 3e8e 01       		.byte	0x1
 11056 3e8f 4F       		.byte	0x4f
 11057 3e90 28080000 		.4byte	0x828
 11058 3e94 05       		.uleb128 0x5
 11059 3e95 03       		.byte	0x3
 11060 3e96 08000000 		.4byte	vdm_disc_id_resp_len
 11061 3e9a 0D       		.uleb128 0xd
 11062 3e9b B8000000 		.4byte	0xb8
 11063 3e9f B03E0000 		.4byte	0x3eb0
 11064 3ea3 0E       		.uleb128 0xe
 11065 3ea4 DF000000 		.4byte	0xdf
 11066 3ea8 01       		.byte	0x1
 11067 3ea9 0E       		.uleb128 0xe
 11068 3eaa DF000000 		.4byte	0xdf
 11069 3eae 11       		.byte	0x11
 11070 3eaf 00       		.byte	0
 11071 3eb0 38       		.uleb128 0x38
 11072 3eb1 0B0A0000 		.4byte	.LASF744
 11073 3eb5 01       		.byte	0x1
 11074 3eb6 52       		.byte	0x52
 11075 3eb7 9A3E0000 		.4byte	0x3e9a
 11076 3ebb 05       		.uleb128 0x5
 11077 3ebc 03       		.byte	0x3
 11078 3ebd 48000000 		.4byte	vdm_disc_svid_resp
 11079 3ec1 38       		.uleb128 0x38
 11080 3ec2 521D0000 		.4byte	.LASF745
 11081 3ec6 01       		.byte	0x1
 11082 3ec7 53       		.byte	0x53
 11083 3ec8 28080000 		.4byte	0x828
 11084 3ecc 05       		.uleb128 0x5
 11085 3ecd 03       		.byte	0x3
 11086 3ece 44000000 		.4byte	vdm_disc_svid_resp_len
 11087 3ed2 0D       		.uleb128 0xd
 11088 3ed3 E52C0000 		.4byte	0x2ce5
 11089 3ed7 E23E0000 		.4byte	0x3ee2
 11090 3edb 0E       		.uleb128 0xe
 11091 3edc DF000000 		.4byte	0xdf
 11092 3ee0 01       		.byte	0x1
 11093 3ee1 00       		.byte	0
 11094 3ee2 38       		.uleb128 0x38
 11095 3ee3 D60B0000 		.4byte	.LASF746
 11096 3ee7 01       		.byte	0x1
 11097 3ee8 8B       		.byte	0x8b
 11098 3ee9 D23E0000 		.4byte	0x3ed2
 11099 3eed 05       		.uleb128 0x5
ARM GAS  e:\temp\ccdoSeHU.s 			page 222


 11100 3eee 03       		.byte	0x3
 11101 3eef 00000000 		.4byte	vdm_emca_rst_state
 11102 3ef3 38       		.uleb128 0x38
 11103 3ef4 CA050000 		.4byte	.LASF747
 11104 3ef8 01       		.byte	0x1
 11105 3ef9 93       		.byte	0x93
 11106 3efa 28080000 		.4byte	0x828
 11107 3efe 05       		.uleb128 0x5
 11108 3eff 03       		.byte	0x3
 11109 3f00 04000000 		.4byte	vdm_emca_rst_count
 11110 3f04 0D       		.uleb128 0xd
 11111 3f05 21020000 		.4byte	0x221
 11112 3f09 143F0000 		.4byte	0x3f14
 11113 3f0d 0E       		.uleb128 0xe
 11114 3f0e DF000000 		.4byte	0xdf
 11115 3f12 01       		.byte	0x1
 11116 3f13 00       		.byte	0
 11117 3f14 39       		.uleb128 0x39
 11118 3f15 25190000 		.4byte	.LASF748
 11119 3f19 09       		.byte	0x9
 11120 3f1a 3B       		.byte	0x3b
 11121 3f1b 043F0000 		.4byte	0x3f04
 11122 3f1f 0D       		.uleb128 0xd
 11123 3f20 B52C0000 		.4byte	0x2cb5
 11124 3f24 2F3F0000 		.4byte	0x3f2f
 11125 3f28 0E       		.uleb128 0xe
 11126 3f29 DF000000 		.4byte	0xdf
 11127 3f2d 01       		.byte	0x1
 11128 3f2e 00       		.byte	0
 11129 3f2f 3A       		.uleb128 0x3a
 11130 3f30 38140000 		.4byte	.LASF749
 11131 3f34 01       		.byte	0x1
 11132 3f35 58       		.byte	0x58
 11133 3f36 1F3F0000 		.4byte	0x3f1f
 11134 3f3a 05       		.uleb128 0x5
 11135 3f3b 03       		.byte	0x3
 11136 3f3c 00000000 		.4byte	vdm_stat
 11137 3f40 3B       		.uleb128 0x3b
 11138 3f41 09230000 		.4byte	.LASF750
 11139 3f45 09230000 		.4byte	.LASF750
 11140 3f49 06       		.byte	0x6
 11141 3f4a DA01     		.2byte	0x1da
 11142 3f4c 3C       		.uleb128 0x3c
 11143 3f4d C9160000 		.4byte	.LASF761
 11144 3f51 C9160000 		.4byte	.LASF761
 11145 3f55 3D       		.uleb128 0x3d
 11146 3f56 E1100000 		.4byte	.LASF751
 11147 3f5a E1100000 		.4byte	.LASF751
 11148 3f5e 09       		.byte	0x9
 11149 3f5f 8F       		.byte	0x8f
 11150 3f60 3D       		.uleb128 0x3d
 11151 3f61 451A0000 		.4byte	.LASF752
 11152 3f65 451A0000 		.4byte	.LASF752
 11153 3f69 0A       		.byte	0xa
 11154 3f6a B1       		.byte	0xb1
 11155 3f6b 3B       		.uleb128 0x3b
 11156 3f6c F2250000 		.4byte	.LASF753
ARM GAS  e:\temp\ccdoSeHU.s 			page 223


 11157 3f70 F2250000 		.4byte	.LASF753
 11158 3f74 08       		.byte	0x8
 11159 3f75 DA01     		.2byte	0x1da
 11160 3f77 3B       		.uleb128 0x3b
 11161 3f78 41140000 		.4byte	.LASF754
 11162 3f7c 41140000 		.4byte	.LASF754
 11163 3f80 08       		.byte	0x8
 11164 3f81 D001     		.2byte	0x1d0
 11165 3f83 3D       		.uleb128 0x3d
 11166 3f84 9D250000 		.4byte	.LASF755
 11167 3f88 9D250000 		.4byte	.LASF755
 11168 3f8c 09       		.byte	0x9
 11169 3f8d DD       		.byte	0xdd
 11170 3f8e 3B       		.uleb128 0x3b
 11171 3f8f CF270000 		.4byte	.LASF756
 11172 3f93 CF270000 		.4byte	.LASF756
 11173 3f97 08       		.byte	0x8
 11174 3f98 7E01     		.2byte	0x17e
 11175 3f9a 3D       		.uleb128 0x3d
 11176 3f9b 87280000 		.4byte	.LASF757
 11177 3f9f 87280000 		.4byte	.LASF757
 11178 3fa3 0B       		.byte	0xb
 11179 3fa4 A2       		.byte	0xa2
 11180 3fa5 3D       		.uleb128 0x3d
 11181 3fa6 E61B0000 		.4byte	.LASF758
 11182 3faa E61B0000 		.4byte	.LASF758
 11183 3fae 0A       		.byte	0xa
 11184 3faf BB       		.byte	0xbb
 11185 3fb0 3B       		.uleb128 0x3b
 11186 3fb1 74260000 		.4byte	.LASF759
 11187 3fb5 74260000 		.4byte	.LASF759
 11188 3fb9 08       		.byte	0x8
 11189 3fba AC01     		.2byte	0x1ac
 11190 3fbc 3B       		.uleb128 0x3b
 11191 3fbd CF090000 		.4byte	.LASF760
 11192 3fc1 CF090000 		.4byte	.LASF760
 11193 3fc5 08       		.byte	0x8
 11194 3fc6 F001     		.2byte	0x1f0
 11195 3fc8 3C       		.uleb128 0x3c
 11196 3fc9 B4050000 		.4byte	.LASF762
 11197 3fcd B4050000 		.4byte	.LASF762
 11198 3fd1 3B       		.uleb128 0x3b
 11199 3fd2 A6040000 		.4byte	.LASF503
 11200 3fd6 A6040000 		.4byte	.LASF503
 11201 3fda 06       		.byte	0x6
 11202 3fdb 0B02     		.2byte	0x20b
 11203 3fdd 3B       		.uleb128 0x3b
 11204 3fde 4A2A0000 		.4byte	.LASF504
 11205 3fe2 4A2A0000 		.4byte	.LASF504
 11206 3fe6 06       		.byte	0x6
 11207 3fe7 1402     		.2byte	0x214
 11208 3fe9 3B       		.uleb128 0x3b
 11209 3fea 241B0000 		.4byte	.LASF502
 11210 3fee 241B0000 		.4byte	.LASF502
 11211 3ff2 06       		.byte	0x6
 11212 3ff3 0102     		.2byte	0x201
 11213 3ff5 3D       		.uleb128 0x3d
ARM GAS  e:\temp\ccdoSeHU.s 			page 224


 11214 3ff6 6E2C0000 		.4byte	.LASF763
 11215 3ffa 6E2C0000 		.4byte	.LASF763
 11216 3ffe 0A       		.byte	0xa
 11217 3fff 97       		.byte	0x97
 11218 4000 3B       		.uleb128 0x3b
 11219 4001 2C000000 		.4byte	.LASF764
 11220 4005 2C000000 		.4byte	.LASF764
 11221 4009 08       		.byte	0x8
 11222 400a 7401     		.2byte	0x174
 11223 400c 00       		.byte	0
 11224              		.section	.debug_abbrev,"",%progbits
 11225              	.Ldebug_abbrev0:
 11226 0000 01       		.uleb128 0x1
 11227 0001 11       		.uleb128 0x11
 11228 0002 01       		.byte	0x1
 11229 0003 25       		.uleb128 0x25
 11230 0004 0E       		.uleb128 0xe
 11231 0005 13       		.uleb128 0x13
 11232 0006 0B       		.uleb128 0xb
 11233 0007 03       		.uleb128 0x3
 11234 0008 0E       		.uleb128 0xe
 11235 0009 1B       		.uleb128 0x1b
 11236 000a 0E       		.uleb128 0xe
 11237 000b 55       		.uleb128 0x55
 11238 000c 17       		.uleb128 0x17
 11239 000d 11       		.uleb128 0x11
 11240 000e 01       		.uleb128 0x1
 11241 000f 10       		.uleb128 0x10
 11242 0010 17       		.uleb128 0x17
 11243 0011 00       		.byte	0
 11244 0012 00       		.byte	0
 11245 0013 02       		.uleb128 0x2
 11246 0014 16       		.uleb128 0x16
 11247 0015 00       		.byte	0
 11248 0016 03       		.uleb128 0x3
 11249 0017 0E       		.uleb128 0xe
 11250 0018 3A       		.uleb128 0x3a
 11251 0019 0B       		.uleb128 0xb
 11252 001a 3B       		.uleb128 0x3b
 11253 001b 0B       		.uleb128 0xb
 11254 001c 49       		.uleb128 0x49
 11255 001d 13       		.uleb128 0x13
 11256 001e 00       		.byte	0
 11257 001f 00       		.byte	0
 11258 0020 03       		.uleb128 0x3
 11259 0021 24       		.uleb128 0x24
 11260 0022 00       		.byte	0
 11261 0023 0B       		.uleb128 0xb
 11262 0024 0B       		.uleb128 0xb
 11263 0025 3E       		.uleb128 0x3e
 11264 0026 0B       		.uleb128 0xb
 11265 0027 03       		.uleb128 0x3
 11266 0028 0E       		.uleb128 0xe
 11267 0029 00       		.byte	0
 11268 002a 00       		.byte	0
 11269 002b 04       		.uleb128 0x4
 11270 002c 24       		.uleb128 0x24
ARM GAS  e:\temp\ccdoSeHU.s 			page 225


 11271 002d 00       		.byte	0
 11272 002e 0B       		.uleb128 0xb
 11273 002f 0B       		.uleb128 0xb
 11274 0030 3E       		.uleb128 0x3e
 11275 0031 0B       		.uleb128 0xb
 11276 0032 03       		.uleb128 0x3
 11277 0033 08       		.uleb128 0x8
 11278 0034 00       		.byte	0
 11279 0035 00       		.byte	0
 11280 0036 05       		.uleb128 0x5
 11281 0037 35       		.uleb128 0x35
 11282 0038 00       		.byte	0
 11283 0039 49       		.uleb128 0x49
 11284 003a 13       		.uleb128 0x13
 11285 003b 00       		.byte	0
 11286 003c 00       		.byte	0
 11287 003d 06       		.uleb128 0x6
 11288 003e 04       		.uleb128 0x4
 11289 003f 01       		.byte	0x1
 11290 0040 0B       		.uleb128 0xb
 11291 0041 0B       		.uleb128 0xb
 11292 0042 49       		.uleb128 0x49
 11293 0043 13       		.uleb128 0x13
 11294 0044 3A       		.uleb128 0x3a
 11295 0045 0B       		.uleb128 0xb
 11296 0046 3B       		.uleb128 0x3b
 11297 0047 05       		.uleb128 0x5
 11298 0048 01       		.uleb128 0x1
 11299 0049 13       		.uleb128 0x13
 11300 004a 00       		.byte	0
 11301 004b 00       		.byte	0
 11302 004c 07       		.uleb128 0x7
 11303 004d 28       		.uleb128 0x28
 11304 004e 00       		.byte	0
 11305 004f 03       		.uleb128 0x3
 11306 0050 0E       		.uleb128 0xe
 11307 0051 1C       		.uleb128 0x1c
 11308 0052 0B       		.uleb128 0xb
 11309 0053 00       		.byte	0
 11310 0054 00       		.byte	0
 11311 0055 08       		.uleb128 0x8
 11312 0056 16       		.uleb128 0x16
 11313 0057 00       		.byte	0
 11314 0058 03       		.uleb128 0x3
 11315 0059 0E       		.uleb128 0xe
 11316 005a 3A       		.uleb128 0x3a
 11317 005b 0B       		.uleb128 0xb
 11318 005c 3B       		.uleb128 0x3b
 11319 005d 05       		.uleb128 0x5
 11320 005e 49       		.uleb128 0x49
 11321 005f 13       		.uleb128 0x13
 11322 0060 00       		.byte	0
 11323 0061 00       		.byte	0
 11324 0062 09       		.uleb128 0x9
 11325 0063 28       		.uleb128 0x28
 11326 0064 00       		.byte	0
 11327 0065 03       		.uleb128 0x3
ARM GAS  e:\temp\ccdoSeHU.s 			page 226


 11328 0066 08       		.uleb128 0x8
 11329 0067 1C       		.uleb128 0x1c
 11330 0068 0B       		.uleb128 0xb
 11331 0069 00       		.byte	0
 11332 006a 00       		.byte	0
 11333 006b 0A       		.uleb128 0xa
 11334 006c 17       		.uleb128 0x17
 11335 006d 01       		.byte	0x1
 11336 006e 03       		.uleb128 0x3
 11337 006f 0E       		.uleb128 0xe
 11338 0070 0B       		.uleb128 0xb
 11339 0071 0B       		.uleb128 0xb
 11340 0072 3A       		.uleb128 0x3a
 11341 0073 0B       		.uleb128 0xb
 11342 0074 3B       		.uleb128 0x3b
 11343 0075 05       		.uleb128 0x5
 11344 0076 01       		.uleb128 0x1
 11345 0077 13       		.uleb128 0x13
 11346 0078 00       		.byte	0
 11347 0079 00       		.byte	0
 11348 007a 0B       		.uleb128 0xb
 11349 007b 0D       		.uleb128 0xd
 11350 007c 00       		.byte	0
 11351 007d 03       		.uleb128 0x3
 11352 007e 0E       		.uleb128 0xe
 11353 007f 3A       		.uleb128 0x3a
 11354 0080 0B       		.uleb128 0xb
 11355 0081 3B       		.uleb128 0x3b
 11356 0082 05       		.uleb128 0x5
 11357 0083 49       		.uleb128 0x49
 11358 0084 13       		.uleb128 0x13
 11359 0085 00       		.byte	0
 11360 0086 00       		.byte	0
 11361 0087 0C       		.uleb128 0xc
 11362 0088 0D       		.uleb128 0xd
 11363 0089 00       		.byte	0
 11364 008a 03       		.uleb128 0x3
 11365 008b 08       		.uleb128 0x8
 11366 008c 3A       		.uleb128 0x3a
 11367 008d 0B       		.uleb128 0xb
 11368 008e 3B       		.uleb128 0x3b
 11369 008f 05       		.uleb128 0x5
 11370 0090 49       		.uleb128 0x49
 11371 0091 13       		.uleb128 0x13
 11372 0092 00       		.byte	0
 11373 0093 00       		.byte	0
 11374 0094 0D       		.uleb128 0xd
 11375 0095 01       		.uleb128 0x1
 11376 0096 01       		.byte	0x1
 11377 0097 49       		.uleb128 0x49
 11378 0098 13       		.uleb128 0x13
 11379 0099 01       		.uleb128 0x1
 11380 009a 13       		.uleb128 0x13
 11381 009b 00       		.byte	0
 11382 009c 00       		.byte	0
 11383 009d 0E       		.uleb128 0xe
 11384 009e 21       		.uleb128 0x21
ARM GAS  e:\temp\ccdoSeHU.s 			page 227


 11385 009f 00       		.byte	0
 11386 00a0 49       		.uleb128 0x49
 11387 00a1 13       		.uleb128 0x13
 11388 00a2 2F       		.uleb128 0x2f
 11389 00a3 0B       		.uleb128 0xb
 11390 00a4 00       		.byte	0
 11391 00a5 00       		.byte	0
 11392 00a6 0F       		.uleb128 0xf
 11393 00a7 13       		.uleb128 0x13
 11394 00a8 01       		.byte	0x1
 11395 00a9 03       		.uleb128 0x3
 11396 00aa 0E       		.uleb128 0xe
 11397 00ab 0B       		.uleb128 0xb
 11398 00ac 0B       		.uleb128 0xb
 11399 00ad 3A       		.uleb128 0x3a
 11400 00ae 0B       		.uleb128 0xb
 11401 00af 3B       		.uleb128 0x3b
 11402 00b0 05       		.uleb128 0x5
 11403 00b1 01       		.uleb128 0x1
 11404 00b2 13       		.uleb128 0x13
 11405 00b3 00       		.byte	0
 11406 00b4 00       		.byte	0
 11407 00b5 10       		.uleb128 0x10
 11408 00b6 0D       		.uleb128 0xd
 11409 00b7 00       		.byte	0
 11410 00b8 03       		.uleb128 0x3
 11411 00b9 0E       		.uleb128 0xe
 11412 00ba 3A       		.uleb128 0x3a
 11413 00bb 0B       		.uleb128 0xb
 11414 00bc 3B       		.uleb128 0x3b
 11415 00bd 05       		.uleb128 0x5
 11416 00be 49       		.uleb128 0x49
 11417 00bf 13       		.uleb128 0x13
 11418 00c0 0B       		.uleb128 0xb
 11419 00c1 0B       		.uleb128 0xb
 11420 00c2 0D       		.uleb128 0xd
 11421 00c3 0B       		.uleb128 0xb
 11422 00c4 0C       		.uleb128 0xc
 11423 00c5 0B       		.uleb128 0xb
 11424 00c6 38       		.uleb128 0x38
 11425 00c7 0B       		.uleb128 0xb
 11426 00c8 00       		.byte	0
 11427 00c9 00       		.byte	0
 11428 00ca 11       		.uleb128 0x11
 11429 00cb 0D       		.uleb128 0xd
 11430 00cc 00       		.byte	0
 11431 00cd 03       		.uleb128 0x3
 11432 00ce 08       		.uleb128 0x8
 11433 00cf 3A       		.uleb128 0x3a
 11434 00d0 0B       		.uleb128 0xb
 11435 00d1 3B       		.uleb128 0x3b
 11436 00d2 05       		.uleb128 0x5
 11437 00d3 49       		.uleb128 0x49
 11438 00d4 13       		.uleb128 0x13
 11439 00d5 0B       		.uleb128 0xb
 11440 00d6 0B       		.uleb128 0xb
 11441 00d7 0D       		.uleb128 0xd
ARM GAS  e:\temp\ccdoSeHU.s 			page 228


 11442 00d8 0B       		.uleb128 0xb
 11443 00d9 0C       		.uleb128 0xc
 11444 00da 0B       		.uleb128 0xb
 11445 00db 38       		.uleb128 0x38
 11446 00dc 0B       		.uleb128 0xb
 11447 00dd 00       		.byte	0
 11448 00de 00       		.byte	0
 11449 00df 12       		.uleb128 0x12
 11450 00e0 17       		.uleb128 0x17
 11451 00e1 01       		.byte	0x1
 11452 00e2 0B       		.uleb128 0xb
 11453 00e3 0B       		.uleb128 0xb
 11454 00e4 3A       		.uleb128 0x3a
 11455 00e5 0B       		.uleb128 0xb
 11456 00e6 3B       		.uleb128 0x3b
 11457 00e7 05       		.uleb128 0x5
 11458 00e8 01       		.uleb128 0x1
 11459 00e9 13       		.uleb128 0x13
 11460 00ea 00       		.byte	0
 11461 00eb 00       		.byte	0
 11462 00ec 13       		.uleb128 0x13
 11463 00ed 13       		.uleb128 0x13
 11464 00ee 01       		.byte	0x1
 11465 00ef 0B       		.uleb128 0xb
 11466 00f0 0B       		.uleb128 0xb
 11467 00f1 3A       		.uleb128 0x3a
 11468 00f2 0B       		.uleb128 0xb
 11469 00f3 3B       		.uleb128 0x3b
 11470 00f4 05       		.uleb128 0x5
 11471 00f5 01       		.uleb128 0x1
 11472 00f6 13       		.uleb128 0x13
 11473 00f7 00       		.byte	0
 11474 00f8 00       		.byte	0
 11475 00f9 14       		.uleb128 0x14
 11476 00fa 0D       		.uleb128 0xd
 11477 00fb 00       		.byte	0
 11478 00fc 03       		.uleb128 0x3
 11479 00fd 0E       		.uleb128 0xe
 11480 00fe 3A       		.uleb128 0x3a
 11481 00ff 0B       		.uleb128 0xb
 11482 0100 3B       		.uleb128 0x3b
 11483 0101 05       		.uleb128 0x5
 11484 0102 49       		.uleb128 0x49
 11485 0103 13       		.uleb128 0x13
 11486 0104 38       		.uleb128 0x38
 11487 0105 0B       		.uleb128 0xb
 11488 0106 00       		.byte	0
 11489 0107 00       		.byte	0
 11490 0108 15       		.uleb128 0x15
 11491 0109 0F       		.uleb128 0xf
 11492 010a 00       		.byte	0
 11493 010b 0B       		.uleb128 0xb
 11494 010c 0B       		.uleb128 0xb
 11495 010d 49       		.uleb128 0x49
 11496 010e 13       		.uleb128 0x13
 11497 010f 00       		.byte	0
 11498 0110 00       		.byte	0
ARM GAS  e:\temp\ccdoSeHU.s 			page 229


 11499 0111 16       		.uleb128 0x16
 11500 0112 0D       		.uleb128 0xd
 11501 0113 00       		.byte	0
 11502 0114 03       		.uleb128 0x3
 11503 0115 08       		.uleb128 0x8
 11504 0116 3A       		.uleb128 0x3a
 11505 0117 0B       		.uleb128 0xb
 11506 0118 3B       		.uleb128 0x3b
 11507 0119 05       		.uleb128 0x5
 11508 011a 49       		.uleb128 0x49
 11509 011b 13       		.uleb128 0x13
 11510 011c 38       		.uleb128 0x38
 11511 011d 0B       		.uleb128 0xb
 11512 011e 00       		.byte	0
 11513 011f 00       		.byte	0
 11514 0120 17       		.uleb128 0x17
 11515 0121 15       		.uleb128 0x15
 11516 0122 01       		.byte	0x1
 11517 0123 27       		.uleb128 0x27
 11518 0124 19       		.uleb128 0x19
 11519 0125 01       		.uleb128 0x1
 11520 0126 13       		.uleb128 0x13
 11521 0127 00       		.byte	0
 11522 0128 00       		.byte	0
 11523 0129 18       		.uleb128 0x18
 11524 012a 05       		.uleb128 0x5
 11525 012b 00       		.byte	0
 11526 012c 49       		.uleb128 0x49
 11527 012d 13       		.uleb128 0x13
 11528 012e 00       		.byte	0
 11529 012f 00       		.byte	0
 11530 0130 19       		.uleb128 0x19
 11531 0131 26       		.uleb128 0x26
 11532 0132 00       		.byte	0
 11533 0133 49       		.uleb128 0x49
 11534 0134 13       		.uleb128 0x13
 11535 0135 00       		.byte	0
 11536 0136 00       		.byte	0
 11537 0137 1A       		.uleb128 0x1a
 11538 0138 26       		.uleb128 0x26
 11539 0139 00       		.byte	0
 11540 013a 00       		.byte	0
 11541 013b 00       		.byte	0
 11542 013c 1B       		.uleb128 0x1b
 11543 013d 15       		.uleb128 0x15
 11544 013e 01       		.byte	0x1
 11545 013f 27       		.uleb128 0x27
 11546 0140 19       		.uleb128 0x19
 11547 0141 49       		.uleb128 0x49
 11548 0142 13       		.uleb128 0x13
 11549 0143 01       		.uleb128 0x1
 11550 0144 13       		.uleb128 0x13
 11551 0145 00       		.byte	0
 11552 0146 00       		.byte	0
 11553 0147 1C       		.uleb128 0x1c
 11554 0148 13       		.uleb128 0x13
 11555 0149 01       		.byte	0x1
ARM GAS  e:\temp\ccdoSeHU.s 			page 230


 11556 014a 0B       		.uleb128 0xb
 11557 014b 05       		.uleb128 0x5
 11558 014c 3A       		.uleb128 0x3a
 11559 014d 0B       		.uleb128 0xb
 11560 014e 3B       		.uleb128 0x3b
 11561 014f 05       		.uleb128 0x5
 11562 0150 01       		.uleb128 0x1
 11563 0151 13       		.uleb128 0x13
 11564 0152 00       		.byte	0
 11565 0153 00       		.byte	0
 11566 0154 1D       		.uleb128 0x1d
 11567 0155 0D       		.uleb128 0xd
 11568 0156 00       		.byte	0
 11569 0157 03       		.uleb128 0x3
 11570 0158 0E       		.uleb128 0xe
 11571 0159 3A       		.uleb128 0x3a
 11572 015a 0B       		.uleb128 0xb
 11573 015b 3B       		.uleb128 0x3b
 11574 015c 05       		.uleb128 0x5
 11575 015d 49       		.uleb128 0x49
 11576 015e 13       		.uleb128 0x13
 11577 015f 38       		.uleb128 0x38
 11578 0160 05       		.uleb128 0x5
 11579 0161 00       		.byte	0
 11580 0162 00       		.byte	0
 11581 0163 1E       		.uleb128 0x1e
 11582 0164 04       		.uleb128 0x4
 11583 0165 01       		.byte	0x1
 11584 0166 03       		.uleb128 0x3
 11585 0167 0E       		.uleb128 0xe
 11586 0168 0B       		.uleb128 0xb
 11587 0169 0B       		.uleb128 0xb
 11588 016a 49       		.uleb128 0x49
 11589 016b 13       		.uleb128 0x13
 11590 016c 3A       		.uleb128 0x3a
 11591 016d 0B       		.uleb128 0xb
 11592 016e 3B       		.uleb128 0x3b
 11593 016f 0B       		.uleb128 0xb
 11594 0170 01       		.uleb128 0x1
 11595 0171 13       		.uleb128 0x13
 11596 0172 00       		.byte	0
 11597 0173 00       		.byte	0
 11598 0174 1F       		.uleb128 0x1f
 11599 0175 28       		.uleb128 0x28
 11600 0176 00       		.byte	0
 11601 0177 03       		.uleb128 0x3
 11602 0178 0E       		.uleb128 0xe
 11603 0179 1C       		.uleb128 0x1c
 11604 017a 0D       		.uleb128 0xd
 11605 017b 00       		.byte	0
 11606 017c 00       		.byte	0
 11607 017d 20       		.uleb128 0x20
 11608 017e 04       		.uleb128 0x4
 11609 017f 01       		.byte	0x1
 11610 0180 0B       		.uleb128 0xb
 11611 0181 0B       		.uleb128 0xb
 11612 0182 49       		.uleb128 0x49
ARM GAS  e:\temp\ccdoSeHU.s 			page 231


 11613 0183 13       		.uleb128 0x13
 11614 0184 3A       		.uleb128 0x3a
 11615 0185 0B       		.uleb128 0xb
 11616 0186 3B       		.uleb128 0x3b
 11617 0187 0B       		.uleb128 0xb
 11618 0188 01       		.uleb128 0x1
 11619 0189 13       		.uleb128 0x13
 11620 018a 00       		.byte	0
 11621 018b 00       		.byte	0
 11622 018c 21       		.uleb128 0x21
 11623 018d 13       		.uleb128 0x13
 11624 018e 01       		.byte	0x1
 11625 018f 0B       		.uleb128 0xb
 11626 0190 0B       		.uleb128 0xb
 11627 0191 3A       		.uleb128 0x3a
 11628 0192 0B       		.uleb128 0xb
 11629 0193 3B       		.uleb128 0x3b
 11630 0194 0B       		.uleb128 0xb
 11631 0195 01       		.uleb128 0x1
 11632 0196 13       		.uleb128 0x13
 11633 0197 00       		.byte	0
 11634 0198 00       		.byte	0
 11635 0199 22       		.uleb128 0x22
 11636 019a 0D       		.uleb128 0xd
 11637 019b 00       		.byte	0
 11638 019c 03       		.uleb128 0x3
 11639 019d 0E       		.uleb128 0xe
 11640 019e 3A       		.uleb128 0x3a
 11641 019f 0B       		.uleb128 0xb
 11642 01a0 3B       		.uleb128 0x3b
 11643 01a1 0B       		.uleb128 0xb
 11644 01a2 49       		.uleb128 0x49
 11645 01a3 13       		.uleb128 0x13
 11646 01a4 38       		.uleb128 0x38
 11647 01a5 0B       		.uleb128 0xb
 11648 01a6 00       		.byte	0
 11649 01a7 00       		.byte	0
 11650 01a8 23       		.uleb128 0x23
 11651 01a9 0D       		.uleb128 0xd
 11652 01aa 00       		.byte	0
 11653 01ab 03       		.uleb128 0x3
 11654 01ac 08       		.uleb128 0x8
 11655 01ad 3A       		.uleb128 0x3a
 11656 01ae 0B       		.uleb128 0xb
 11657 01af 3B       		.uleb128 0x3b
 11658 01b0 0B       		.uleb128 0xb
 11659 01b1 49       		.uleb128 0x49
 11660 01b2 13       		.uleb128 0x13
 11661 01b3 38       		.uleb128 0x38
 11662 01b4 0B       		.uleb128 0xb
 11663 01b5 00       		.byte	0
 11664 01b6 00       		.byte	0
 11665 01b7 24       		.uleb128 0x24
 11666 01b8 2E       		.uleb128 0x2e
 11667 01b9 01       		.byte	0x1
 11668 01ba 03       		.uleb128 0x3
 11669 01bb 0E       		.uleb128 0xe
ARM GAS  e:\temp\ccdoSeHU.s 			page 232


 11670 01bc 3A       		.uleb128 0x3a
 11671 01bd 0B       		.uleb128 0xb
 11672 01be 3B       		.uleb128 0x3b
 11673 01bf 05       		.uleb128 0x5
 11674 01c0 27       		.uleb128 0x27
 11675 01c1 19       		.uleb128 0x19
 11676 01c2 49       		.uleb128 0x49
 11677 01c3 13       		.uleb128 0x13
 11678 01c4 11       		.uleb128 0x11
 11679 01c5 01       		.uleb128 0x1
 11680 01c6 12       		.uleb128 0x12
 11681 01c7 06       		.uleb128 0x6
 11682 01c8 40       		.uleb128 0x40
 11683 01c9 18       		.uleb128 0x18
 11684 01ca 9742     		.uleb128 0x2117
 11685 01cc 19       		.uleb128 0x19
 11686 01cd 01       		.uleb128 0x1
 11687 01ce 13       		.uleb128 0x13
 11688 01cf 00       		.byte	0
 11689 01d0 00       		.byte	0
 11690 01d1 25       		.uleb128 0x25
 11691 01d2 05       		.uleb128 0x5
 11692 01d3 00       		.byte	0
 11693 01d4 03       		.uleb128 0x3
 11694 01d5 0E       		.uleb128 0xe
 11695 01d6 3A       		.uleb128 0x3a
 11696 01d7 0B       		.uleb128 0xb
 11697 01d8 3B       		.uleb128 0x3b
 11698 01d9 05       		.uleb128 0x5
 11699 01da 49       		.uleb128 0x49
 11700 01db 13       		.uleb128 0x13
 11701 01dc 02       		.uleb128 0x2
 11702 01dd 17       		.uleb128 0x17
 11703 01de 00       		.byte	0
 11704 01df 00       		.byte	0
 11705 01e0 26       		.uleb128 0x26
 11706 01e1 05       		.uleb128 0x5
 11707 01e2 00       		.byte	0
 11708 01e3 03       		.uleb128 0x3
 11709 01e4 0E       		.uleb128 0xe
 11710 01e5 3A       		.uleb128 0x3a
 11711 01e6 0B       		.uleb128 0xb
 11712 01e7 3B       		.uleb128 0x3b
 11713 01e8 05       		.uleb128 0x5
 11714 01e9 49       		.uleb128 0x49
 11715 01ea 13       		.uleb128 0x13
 11716 01eb 02       		.uleb128 0x2
 11717 01ec 18       		.uleb128 0x18
 11718 01ed 00       		.byte	0
 11719 01ee 00       		.byte	0
 11720 01ef 27       		.uleb128 0x27
 11721 01f0 34       		.uleb128 0x34
 11722 01f1 00       		.byte	0
 11723 01f2 03       		.uleb128 0x3
 11724 01f3 08       		.uleb128 0x8
 11725 01f4 3A       		.uleb128 0x3a
 11726 01f5 0B       		.uleb128 0xb
ARM GAS  e:\temp\ccdoSeHU.s 			page 233


 11727 01f6 3B       		.uleb128 0x3b
 11728 01f7 05       		.uleb128 0x5
 11729 01f8 49       		.uleb128 0x49
 11730 01f9 13       		.uleb128 0x13
 11731 01fa 02       		.uleb128 0x2
 11732 01fb 17       		.uleb128 0x17
 11733 01fc 00       		.byte	0
 11734 01fd 00       		.byte	0
 11735 01fe 28       		.uleb128 0x28
 11736 01ff 2E       		.uleb128 0x2e
 11737 0200 01       		.byte	0x1
 11738 0201 03       		.uleb128 0x3
 11739 0202 0E       		.uleb128 0xe
 11740 0203 3A       		.uleb128 0x3a
 11741 0204 0B       		.uleb128 0xb
 11742 0205 3B       		.uleb128 0x3b
 11743 0206 05       		.uleb128 0x5
 11744 0207 27       		.uleb128 0x27
 11745 0208 19       		.uleb128 0x19
 11746 0209 11       		.uleb128 0x11
 11747 020a 01       		.uleb128 0x1
 11748 020b 12       		.uleb128 0x12
 11749 020c 06       		.uleb128 0x6
 11750 020d 40       		.uleb128 0x40
 11751 020e 18       		.uleb128 0x18
 11752 020f 9742     		.uleb128 0x2117
 11753 0211 19       		.uleb128 0x19
 11754 0212 01       		.uleb128 0x1
 11755 0213 13       		.uleb128 0x13
 11756 0214 00       		.byte	0
 11757 0215 00       		.byte	0
 11758 0216 29       		.uleb128 0x29
 11759 0217 05       		.uleb128 0x5
 11760 0218 00       		.byte	0
 11761 0219 03       		.uleb128 0x3
 11762 021a 08       		.uleb128 0x8
 11763 021b 3A       		.uleb128 0x3a
 11764 021c 0B       		.uleb128 0xb
 11765 021d 3B       		.uleb128 0x3b
 11766 021e 05       		.uleb128 0x5
 11767 021f 49       		.uleb128 0x49
 11768 0220 13       		.uleb128 0x13
 11769 0221 02       		.uleb128 0x2
 11770 0222 17       		.uleb128 0x17
 11771 0223 00       		.byte	0
 11772 0224 00       		.byte	0
 11773 0225 2A       		.uleb128 0x2a
 11774 0226 34       		.uleb128 0x34
 11775 0227 00       		.byte	0
 11776 0228 03       		.uleb128 0x3
 11777 0229 0E       		.uleb128 0xe
 11778 022a 3A       		.uleb128 0x3a
 11779 022b 0B       		.uleb128 0xb
 11780 022c 3B       		.uleb128 0x3b
 11781 022d 05       		.uleb128 0x5
 11782 022e 49       		.uleb128 0x49
 11783 022f 13       		.uleb128 0x13
ARM GAS  e:\temp\ccdoSeHU.s 			page 234


 11784 0230 02       		.uleb128 0x2
 11785 0231 18       		.uleb128 0x18
 11786 0232 00       		.byte	0
 11787 0233 00       		.byte	0
 11788 0234 2B       		.uleb128 0x2b
 11789 0235 898201   		.uleb128 0x4109
 11790 0238 00       		.byte	0
 11791 0239 11       		.uleb128 0x11
 11792 023a 01       		.uleb128 0x1
 11793 023b 31       		.uleb128 0x31
 11794 023c 13       		.uleb128 0x13
 11795 023d 00       		.byte	0
 11796 023e 00       		.byte	0
 11797 023f 2C       		.uleb128 0x2c
 11798 0240 34       		.uleb128 0x34
 11799 0241 00       		.byte	0
 11800 0242 03       		.uleb128 0x3
 11801 0243 0E       		.uleb128 0xe
 11802 0244 3A       		.uleb128 0x3a
 11803 0245 0B       		.uleb128 0xb
 11804 0246 3B       		.uleb128 0x3b
 11805 0247 05       		.uleb128 0x5
 11806 0248 49       		.uleb128 0x49
 11807 0249 13       		.uleb128 0x13
 11808 024a 02       		.uleb128 0x2
 11809 024b 17       		.uleb128 0x17
 11810 024c 00       		.byte	0
 11811 024d 00       		.byte	0
 11812 024e 2D       		.uleb128 0x2d
 11813 024f 898201   		.uleb128 0x4109
 11814 0252 01       		.byte	0x1
 11815 0253 11       		.uleb128 0x11
 11816 0254 01       		.uleb128 0x1
 11817 0255 31       		.uleb128 0x31
 11818 0256 13       		.uleb128 0x13
 11819 0257 01       		.uleb128 0x1
 11820 0258 13       		.uleb128 0x13
 11821 0259 00       		.byte	0
 11822 025a 00       		.byte	0
 11823 025b 2E       		.uleb128 0x2e
 11824 025c 8A8201   		.uleb128 0x410a
 11825 025f 00       		.byte	0
 11826 0260 02       		.uleb128 0x2
 11827 0261 18       		.uleb128 0x18
 11828 0262 9142     		.uleb128 0x2111
 11829 0264 18       		.uleb128 0x18
 11830 0265 00       		.byte	0
 11831 0266 00       		.byte	0
 11832 0267 2F       		.uleb128 0x2f
 11833 0268 898201   		.uleb128 0x4109
 11834 026b 01       		.byte	0x1
 11835 026c 11       		.uleb128 0x11
 11836 026d 01       		.uleb128 0x1
 11837 026e 31       		.uleb128 0x31
 11838 026f 13       		.uleb128 0x13
 11839 0270 00       		.byte	0
 11840 0271 00       		.byte	0
ARM GAS  e:\temp\ccdoSeHU.s 			page 235


 11841 0272 30       		.uleb128 0x30
 11842 0273 2E       		.uleb128 0x2e
 11843 0274 01       		.byte	0x1
 11844 0275 3F       		.uleb128 0x3f
 11845 0276 19       		.uleb128 0x19
 11846 0277 03       		.uleb128 0x3
 11847 0278 0E       		.uleb128 0xe
 11848 0279 3A       		.uleb128 0x3a
 11849 027a 0B       		.uleb128 0xb
 11850 027b 3B       		.uleb128 0x3b
 11851 027c 05       		.uleb128 0x5
 11852 027d 27       		.uleb128 0x27
 11853 027e 19       		.uleb128 0x19
 11854 027f 11       		.uleb128 0x11
 11855 0280 01       		.uleb128 0x1
 11856 0281 12       		.uleb128 0x12
 11857 0282 06       		.uleb128 0x6
 11858 0283 40       		.uleb128 0x40
 11859 0284 18       		.uleb128 0x18
 11860 0285 9742     		.uleb128 0x2117
 11861 0287 19       		.uleb128 0x19
 11862 0288 01       		.uleb128 0x1
 11863 0289 13       		.uleb128 0x13
 11864 028a 00       		.byte	0
 11865 028b 00       		.byte	0
 11866 028c 31       		.uleb128 0x31
 11867 028d 2E       		.uleb128 0x2e
 11868 028e 01       		.byte	0x1
 11869 028f 3F       		.uleb128 0x3f
 11870 0290 19       		.uleb128 0x19
 11871 0291 03       		.uleb128 0x3
 11872 0292 0E       		.uleb128 0xe
 11873 0293 3A       		.uleb128 0x3a
 11874 0294 0B       		.uleb128 0xb
 11875 0295 3B       		.uleb128 0x3b
 11876 0296 05       		.uleb128 0x5
 11877 0297 27       		.uleb128 0x27
 11878 0298 19       		.uleb128 0x19
 11879 0299 49       		.uleb128 0x49
 11880 029a 13       		.uleb128 0x13
 11881 029b 11       		.uleb128 0x11
 11882 029c 01       		.uleb128 0x1
 11883 029d 12       		.uleb128 0x12
 11884 029e 06       		.uleb128 0x6
 11885 029f 40       		.uleb128 0x40
 11886 02a0 18       		.uleb128 0x18
 11887 02a1 9742     		.uleb128 0x2117
 11888 02a3 19       		.uleb128 0x19
 11889 02a4 01       		.uleb128 0x1
 11890 02a5 13       		.uleb128 0x13
 11891 02a6 00       		.byte	0
 11892 02a7 00       		.byte	0
 11893 02a8 32       		.uleb128 0x32
 11894 02a9 2E       		.uleb128 0x2e
 11895 02aa 01       		.byte	0x1
 11896 02ab 3F       		.uleb128 0x3f
 11897 02ac 19       		.uleb128 0x19
ARM GAS  e:\temp\ccdoSeHU.s 			page 236


 11898 02ad 03       		.uleb128 0x3
 11899 02ae 0E       		.uleb128 0xe
 11900 02af 3A       		.uleb128 0x3a
 11901 02b0 0B       		.uleb128 0xb
 11902 02b1 3B       		.uleb128 0x3b
 11903 02b2 0B       		.uleb128 0xb
 11904 02b3 27       		.uleb128 0x27
 11905 02b4 19       		.uleb128 0x19
 11906 02b5 49       		.uleb128 0x49
 11907 02b6 13       		.uleb128 0x13
 11908 02b7 11       		.uleb128 0x11
 11909 02b8 01       		.uleb128 0x1
 11910 02b9 12       		.uleb128 0x12
 11911 02ba 06       		.uleb128 0x6
 11912 02bb 40       		.uleb128 0x40
 11913 02bc 18       		.uleb128 0x18
 11914 02bd 9742     		.uleb128 0x2117
 11915 02bf 19       		.uleb128 0x19
 11916 02c0 01       		.uleb128 0x1
 11917 02c1 13       		.uleb128 0x13
 11918 02c2 00       		.byte	0
 11919 02c3 00       		.byte	0
 11920 02c4 33       		.uleb128 0x33
 11921 02c5 05       		.uleb128 0x5
 11922 02c6 00       		.byte	0
 11923 02c7 03       		.uleb128 0x3
 11924 02c8 0E       		.uleb128 0xe
 11925 02c9 3A       		.uleb128 0x3a
 11926 02ca 0B       		.uleb128 0xb
 11927 02cb 3B       		.uleb128 0x3b
 11928 02cc 0B       		.uleb128 0xb
 11929 02cd 49       		.uleb128 0x49
 11930 02ce 13       		.uleb128 0x13
 11931 02cf 02       		.uleb128 0x2
 11932 02d0 17       		.uleb128 0x17
 11933 02d1 00       		.byte	0
 11934 02d2 00       		.byte	0
 11935 02d3 34       		.uleb128 0x34
 11936 02d4 2E       		.uleb128 0x2e
 11937 02d5 01       		.byte	0x1
 11938 02d6 3F       		.uleb128 0x3f
 11939 02d7 19       		.uleb128 0x19
 11940 02d8 03       		.uleb128 0x3
 11941 02d9 0E       		.uleb128 0xe
 11942 02da 3A       		.uleb128 0x3a
 11943 02db 0B       		.uleb128 0xb
 11944 02dc 3B       		.uleb128 0x3b
 11945 02dd 0B       		.uleb128 0xb
 11946 02de 27       		.uleb128 0x27
 11947 02df 19       		.uleb128 0x19
 11948 02e0 11       		.uleb128 0x11
 11949 02e1 01       		.uleb128 0x1
 11950 02e2 12       		.uleb128 0x12
 11951 02e3 06       		.uleb128 0x6
 11952 02e4 40       		.uleb128 0x40
 11953 02e5 18       		.uleb128 0x18
 11954 02e6 9742     		.uleb128 0x2117
ARM GAS  e:\temp\ccdoSeHU.s 			page 237


 11955 02e8 19       		.uleb128 0x19
 11956 02e9 01       		.uleb128 0x1
 11957 02ea 13       		.uleb128 0x13
 11958 02eb 00       		.byte	0
 11959 02ec 00       		.byte	0
 11960 02ed 35       		.uleb128 0x35
 11961 02ee 05       		.uleb128 0x5
 11962 02ef 00       		.byte	0
 11963 02f0 03       		.uleb128 0x3
 11964 02f1 08       		.uleb128 0x8
 11965 02f2 3A       		.uleb128 0x3a
 11966 02f3 0B       		.uleb128 0xb
 11967 02f4 3B       		.uleb128 0x3b
 11968 02f5 05       		.uleb128 0x5
 11969 02f6 49       		.uleb128 0x49
 11970 02f7 13       		.uleb128 0x13
 11971 02f8 02       		.uleb128 0x2
 11972 02f9 18       		.uleb128 0x18
 11973 02fa 00       		.byte	0
 11974 02fb 00       		.byte	0
 11975 02fc 36       		.uleb128 0x36
 11976 02fd 2E       		.uleb128 0x2e
 11977 02fe 01       		.byte	0x1
 11978 02ff 03       		.uleb128 0x3
 11979 0300 0E       		.uleb128 0xe
 11980 0301 3A       		.uleb128 0x3a
 11981 0302 0B       		.uleb128 0xb
 11982 0303 3B       		.uleb128 0x3b
 11983 0304 0B       		.uleb128 0xb
 11984 0305 27       		.uleb128 0x27
 11985 0306 19       		.uleb128 0x19
 11986 0307 49       		.uleb128 0x49
 11987 0308 13       		.uleb128 0x13
 11988 0309 11       		.uleb128 0x11
 11989 030a 01       		.uleb128 0x1
 11990 030b 12       		.uleb128 0x12
 11991 030c 06       		.uleb128 0x6
 11992 030d 40       		.uleb128 0x40
 11993 030e 18       		.uleb128 0x18
 11994 030f 9742     		.uleb128 0x2117
 11995 0311 19       		.uleb128 0x19
 11996 0312 01       		.uleb128 0x1
 11997 0313 13       		.uleb128 0x13
 11998 0314 00       		.byte	0
 11999 0315 00       		.byte	0
 12000 0316 37       		.uleb128 0x37
 12001 0317 34       		.uleb128 0x34
 12002 0318 00       		.byte	0
 12003 0319 03       		.uleb128 0x3
 12004 031a 08       		.uleb128 0x8
 12005 031b 3A       		.uleb128 0x3a
 12006 031c 0B       		.uleb128 0xb
 12007 031d 3B       		.uleb128 0x3b
 12008 031e 0B       		.uleb128 0xb
 12009 031f 49       		.uleb128 0x49
 12010 0320 13       		.uleb128 0x13
 12011 0321 02       		.uleb128 0x2
ARM GAS  e:\temp\ccdoSeHU.s 			page 238


 12012 0322 17       		.uleb128 0x17
 12013 0323 00       		.byte	0
 12014 0324 00       		.byte	0
 12015 0325 38       		.uleb128 0x38
 12016 0326 34       		.uleb128 0x34
 12017 0327 00       		.byte	0
 12018 0328 03       		.uleb128 0x3
 12019 0329 0E       		.uleb128 0xe
 12020 032a 3A       		.uleb128 0x3a
 12021 032b 0B       		.uleb128 0xb
 12022 032c 3B       		.uleb128 0x3b
 12023 032d 0B       		.uleb128 0xb
 12024 032e 49       		.uleb128 0x49
 12025 032f 13       		.uleb128 0x13
 12026 0330 02       		.uleb128 0x2
 12027 0331 18       		.uleb128 0x18
 12028 0332 00       		.byte	0
 12029 0333 00       		.byte	0
 12030 0334 39       		.uleb128 0x39
 12031 0335 34       		.uleb128 0x34
 12032 0336 00       		.byte	0
 12033 0337 03       		.uleb128 0x3
 12034 0338 0E       		.uleb128 0xe
 12035 0339 3A       		.uleb128 0x3a
 12036 033a 0B       		.uleb128 0xb
 12037 033b 3B       		.uleb128 0x3b
 12038 033c 0B       		.uleb128 0xb
 12039 033d 49       		.uleb128 0x49
 12040 033e 13       		.uleb128 0x13
 12041 033f 3F       		.uleb128 0x3f
 12042 0340 19       		.uleb128 0x19
 12043 0341 3C       		.uleb128 0x3c
 12044 0342 19       		.uleb128 0x19
 12045 0343 00       		.byte	0
 12046 0344 00       		.byte	0
 12047 0345 3A       		.uleb128 0x3a
 12048 0346 34       		.uleb128 0x34
 12049 0347 00       		.byte	0
 12050 0348 03       		.uleb128 0x3
 12051 0349 0E       		.uleb128 0xe
 12052 034a 3A       		.uleb128 0x3a
 12053 034b 0B       		.uleb128 0xb
 12054 034c 3B       		.uleb128 0x3b
 12055 034d 0B       		.uleb128 0xb
 12056 034e 49       		.uleb128 0x49
 12057 034f 13       		.uleb128 0x13
 12058 0350 3F       		.uleb128 0x3f
 12059 0351 19       		.uleb128 0x19
 12060 0352 02       		.uleb128 0x2
 12061 0353 18       		.uleb128 0x18
 12062 0354 00       		.byte	0
 12063 0355 00       		.byte	0
 12064 0356 3B       		.uleb128 0x3b
 12065 0357 2E       		.uleb128 0x2e
 12066 0358 00       		.byte	0
 12067 0359 3F       		.uleb128 0x3f
 12068 035a 19       		.uleb128 0x19
ARM GAS  e:\temp\ccdoSeHU.s 			page 239


 12069 035b 3C       		.uleb128 0x3c
 12070 035c 19       		.uleb128 0x19
 12071 035d 6E       		.uleb128 0x6e
 12072 035e 0E       		.uleb128 0xe
 12073 035f 03       		.uleb128 0x3
 12074 0360 0E       		.uleb128 0xe
 12075 0361 3A       		.uleb128 0x3a
 12076 0362 0B       		.uleb128 0xb
 12077 0363 3B       		.uleb128 0x3b
 12078 0364 05       		.uleb128 0x5
 12079 0365 00       		.byte	0
 12080 0366 00       		.byte	0
 12081 0367 3C       		.uleb128 0x3c
 12082 0368 2E       		.uleb128 0x2e
 12083 0369 00       		.byte	0
 12084 036a 3F       		.uleb128 0x3f
 12085 036b 19       		.uleb128 0x19
 12086 036c 3C       		.uleb128 0x3c
 12087 036d 19       		.uleb128 0x19
 12088 036e 6E       		.uleb128 0x6e
 12089 036f 0E       		.uleb128 0xe
 12090 0370 03       		.uleb128 0x3
 12091 0371 0E       		.uleb128 0xe
 12092 0372 00       		.byte	0
 12093 0373 00       		.byte	0
 12094 0374 3D       		.uleb128 0x3d
 12095 0375 2E       		.uleb128 0x2e
 12096 0376 00       		.byte	0
 12097 0377 3F       		.uleb128 0x3f
 12098 0378 19       		.uleb128 0x19
 12099 0379 3C       		.uleb128 0x3c
 12100 037a 19       		.uleb128 0x19
 12101 037b 6E       		.uleb128 0x6e
 12102 037c 0E       		.uleb128 0xe
 12103 037d 03       		.uleb128 0x3
 12104 037e 0E       		.uleb128 0xe
 12105 037f 3A       		.uleb128 0x3a
 12106 0380 0B       		.uleb128 0xb
 12107 0381 3B       		.uleb128 0x3b
 12108 0382 0B       		.uleb128 0xb
 12109 0383 00       		.byte	0
 12110 0384 00       		.byte	0
 12111 0385 00       		.byte	0
 12112              		.section	.debug_loc,"",%progbits
 12113              	.Ldebug_loc0:
 12114              	.LLST0:
 12115 0000 00000000 		.4byte	.LVL0
 12116 0004 16000000 		.4byte	.LVL4
 12117 0008 0100     		.2byte	0x1
 12118 000a 50       		.byte	0x50
 12119 000b 16000000 		.4byte	.LVL4
 12120 000f 18000000 		.4byte	.LVL5
 12121 0013 0400     		.2byte	0x4
 12122 0015 F3       		.byte	0xf3
 12123 0016 01       		.uleb128 0x1
 12124 0017 50       		.byte	0x50
 12125 0018 9F       		.byte	0x9f
ARM GAS  e:\temp\ccdoSeHU.s 			page 240


 12126 0019 18000000 		.4byte	.LVL5
 12127 001d 1A000000 		.4byte	.LVL6
 12128 0021 0100     		.2byte	0x1
 12129 0023 50       		.byte	0x50
 12130 0024 1A000000 		.4byte	.LVL6
 12131 0028 1C000000 		.4byte	.LFE40
 12132 002c 0400     		.2byte	0x4
 12133 002e F3       		.byte	0xf3
 12134 002f 01       		.uleb128 0x1
 12135 0030 50       		.byte	0x50
 12136 0031 9F       		.byte	0x9f
 12137 0032 00000000 		.4byte	0
 12138 0036 00000000 		.4byte	0
 12139              	.LLST1:
 12140 003a 00000000 		.4byte	.LVL0
 12141 003e 04000000 		.4byte	.LVL1
 12142 0042 0200     		.2byte	0x2
 12143 0044 30       		.byte	0x30
 12144 0045 9F       		.byte	0x9f
 12145 0046 04000000 		.4byte	.LVL1
 12146 004a 0E000000 		.4byte	.LVL2
 12147 004e 0100     		.2byte	0x1
 12148 0050 53       		.byte	0x53
 12149 0051 10000000 		.4byte	.LVL3
 12150 0055 1C000000 		.4byte	.LFE40
 12151 0059 0100     		.2byte	0x1
 12152 005b 53       		.byte	0x53
 12153 005c 00000000 		.4byte	0
 12154 0060 00000000 		.4byte	0
 12155              	.LLST2:
 12156 0064 00000000 		.4byte	.LVL7
 12157 0068 0A000000 		.4byte	.LVL8
 12158 006c 0100     		.2byte	0x1
 12159 006e 52       		.byte	0x52
 12160 006f 0A000000 		.4byte	.LVL8
 12161 0073 10000000 		.4byte	.LVL9
 12162 0077 0400     		.2byte	0x4
 12163 0079 F3       		.byte	0xf3
 12164 007a 01       		.uleb128 0x1
 12165 007b 52       		.byte	0x52
 12166 007c 9F       		.byte	0x9f
 12167 007d 10000000 		.4byte	.LVL9
 12168 0081 12000000 		.4byte	.LVL10
 12169 0085 0100     		.2byte	0x1
 12170 0087 52       		.byte	0x52
 12171 0088 12000000 		.4byte	.LVL10
 12172 008c 34000000 		.4byte	.LFE46
 12173 0090 0400     		.2byte	0x4
 12174 0092 F3       		.byte	0xf3
 12175 0093 01       		.uleb128 0x1
 12176 0094 52       		.byte	0x52
 12177 0095 9F       		.byte	0x9f
 12178 0096 00000000 		.4byte	0
 12179 009a 00000000 		.4byte	0
 12180              	.LLST3:
 12181 009e 00000000 		.4byte	.LVL11
 12182 00a2 04000000 		.4byte	.LVL12
ARM GAS  e:\temp\ccdoSeHU.s 			page 241


 12183 00a6 0100     		.2byte	0x1
 12184 00a8 50       		.byte	0x50
 12185 00a9 04000000 		.4byte	.LVL12
 12186 00ad 14000000 		.4byte	.LFE56
 12187 00b1 0400     		.2byte	0x4
 12188 00b3 F3       		.byte	0xf3
 12189 00b4 01       		.uleb128 0x1
 12190 00b5 50       		.byte	0x50
 12191 00b6 9F       		.byte	0x9f
 12192 00b7 00000000 		.4byte	0
 12193 00bb 00000000 		.4byte	0
 12194              	.LLST4:
 12195 00bf 00000000 		.4byte	.LVL13
 12196 00c3 07000000 		.4byte	.LVL14-1
 12197 00c7 0100     		.2byte	0x1
 12198 00c9 50       		.byte	0x50
 12199 00ca 07000000 		.4byte	.LVL14-1
 12200 00ce 24000000 		.4byte	.LFE42
 12201 00d2 0400     		.2byte	0x4
 12202 00d4 F3       		.byte	0xf3
 12203 00d5 01       		.uleb128 0x1
 12204 00d6 50       		.byte	0x50
 12205 00d7 9F       		.byte	0x9f
 12206 00d8 00000000 		.4byte	0
 12207 00dc 00000000 		.4byte	0
 12208              	.LLST5:
 12209 00e0 00000000 		.4byte	.LVL13
 12210 00e4 07000000 		.4byte	.LVL14-1
 12211 00e8 0100     		.2byte	0x1
 12212 00ea 51       		.byte	0x51
 12213 00eb 07000000 		.4byte	.LVL14-1
 12214 00ef 24000000 		.4byte	.LFE42
 12215 00f3 0400     		.2byte	0x4
 12216 00f5 F3       		.byte	0xf3
 12217 00f6 01       		.uleb128 0x1
 12218 00f7 51       		.byte	0x51
 12219 00f8 9F       		.byte	0x9f
 12220 00f9 00000000 		.4byte	0
 12221 00fd 00000000 		.4byte	0
 12222              	.LLST6:
 12223 0101 00000000 		.4byte	.LVL15
 12224 0105 07000000 		.4byte	.LVL16-1
 12225 0109 0100     		.2byte	0x1
 12226 010b 50       		.byte	0x50
 12227 010c 07000000 		.4byte	.LVL16-1
 12228 0110 3C000000 		.4byte	.LFE49
 12229 0114 0400     		.2byte	0x4
 12230 0116 F3       		.byte	0xf3
 12231 0117 01       		.uleb128 0x1
 12232 0118 50       		.byte	0x50
 12233 0119 9F       		.byte	0x9f
 12234 011a 00000000 		.4byte	0
 12235 011e 00000000 		.4byte	0
 12236              	.LLST7:
 12237 0122 00000000 		.4byte	.LVL15
 12238 0126 07000000 		.4byte	.LVL16-1
 12239 012a 0100     		.2byte	0x1
ARM GAS  e:\temp\ccdoSeHU.s 			page 242


 12240 012c 51       		.byte	0x51
 12241 012d 07000000 		.4byte	.LVL16-1
 12242 0131 3A000000 		.4byte	.LVL24
 12243 0135 0100     		.2byte	0x1
 12244 0137 54       		.byte	0x54
 12245 0138 3A000000 		.4byte	.LVL24
 12246 013c 3C000000 		.4byte	.LFE49
 12247 0140 0400     		.2byte	0x4
 12248 0142 F3       		.byte	0xf3
 12249 0143 01       		.uleb128 0x1
 12250 0144 51       		.byte	0x51
 12251 0145 9F       		.byte	0x9f
 12252 0146 00000000 		.4byte	0
 12253 014a 00000000 		.4byte	0
 12254              	.LLST8:
 12255 014e 1E000000 		.4byte	.LVL17
 12256 0152 28000000 		.4byte	.LVL18
 12257 0156 0100     		.2byte	0x1
 12258 0158 53       		.byte	0x53
 12259 0159 2E000000 		.4byte	.LVL19
 12260 015d 30000000 		.4byte	.LVL20
 12261 0161 0100     		.2byte	0x1
 12262 0163 53       		.byte	0x53
 12263 0164 32000000 		.4byte	.LVL21
 12264 0168 38000000 		.4byte	.LVL22
 12265 016c 0100     		.2byte	0x1
 12266 016e 53       		.byte	0x53
 12267 016f 00000000 		.4byte	0
 12268 0173 00000000 		.4byte	0
 12269              	.LLST9:
 12270 0177 08000000 		.4byte	.LVL16
 12271 017b 3A000000 		.4byte	.LVL23
 12272 017f 0100     		.2byte	0x1
 12273 0181 50       		.byte	0x50
 12274 0182 00000000 		.4byte	0
 12275 0186 00000000 		.4byte	0
 12276              	.LLST10:
 12277 018a 00000000 		.4byte	.LVL25
 12278 018e 05000000 		.4byte	.LVL26-1
 12279 0192 0100     		.2byte	0x1
 12280 0194 50       		.byte	0x50
 12281 0195 05000000 		.4byte	.LVL26-1
 12282 0199 12000000 		.4byte	.LFE51
 12283 019d 0400     		.2byte	0x4
 12284 019f F3       		.byte	0xf3
 12285 01a0 01       		.uleb128 0x1
 12286 01a1 50       		.byte	0x50
 12287 01a2 9F       		.byte	0x9f
 12288 01a3 00000000 		.4byte	0
 12289 01a7 00000000 		.4byte	0
 12290              	.LLST11:
 12291 01ab 00000000 		.4byte	.LVL27
 12292 01af 24000000 		.4byte	.LVL28
 12293 01b3 0100     		.2byte	0x1
 12294 01b5 50       		.byte	0x50
 12295 01b6 24000000 		.4byte	.LVL28
 12296 01ba 84000000 		.4byte	.LFE44
ARM GAS  e:\temp\ccdoSeHU.s 			page 243


 12297 01be 0400     		.2byte	0x4
 12298 01c0 F3       		.byte	0xf3
 12299 01c1 01       		.uleb128 0x1
 12300 01c2 50       		.byte	0x50
 12301 01c3 9F       		.byte	0x9f
 12302 01c4 00000000 		.4byte	0
 12303 01c8 00000000 		.4byte	0
 12304              	.LLST12:
 12305 01cc 00000000 		.4byte	.LVL34
 12306 01d0 25000000 		.4byte	.LVL37-1
 12307 01d4 0100     		.2byte	0x1
 12308 01d6 50       		.byte	0x50
 12309 01d7 25000000 		.4byte	.LVL37-1
 12310 01db E8000000 		.4byte	.LFE41
 12311 01df 0400     		.2byte	0x4
 12312 01e1 F3       		.byte	0xf3
 12313 01e2 01       		.uleb128 0x1
 12314 01e3 50       		.byte	0x50
 12315 01e4 9F       		.byte	0x9f
 12316 01e5 00000000 		.4byte	0
 12317 01e9 00000000 		.4byte	0
 12318              	.LLST13:
 12319 01ed 00000000 		.4byte	.LVL34
 12320 01f1 25000000 		.4byte	.LVL37-1
 12321 01f5 0100     		.2byte	0x1
 12322 01f7 51       		.byte	0x51
 12323 01f8 25000000 		.4byte	.LVL37-1
 12324 01fc E8000000 		.4byte	.LFE41
 12325 0200 0200     		.2byte	0x2
 12326 0202 91       		.byte	0x91
 12327 0203 54       		.sleb128 -44
 12328 0204 00000000 		.4byte	0
 12329 0208 00000000 		.4byte	0
 12330              	.LLST14:
 12331 020c 00000000 		.4byte	.LVL34
 12332 0210 16000000 		.4byte	.LVL35
 12333 0214 0100     		.2byte	0x1
 12334 0216 52       		.byte	0x52
 12335 0217 16000000 		.4byte	.LVL35
 12336 021b E8000000 		.4byte	.LFE41
 12337 021f 0400     		.2byte	0x4
 12338 0221 F3       		.byte	0xf3
 12339 0222 01       		.uleb128 0x1
 12340 0223 52       		.byte	0x52
 12341 0224 9F       		.byte	0x9f
 12342 0225 00000000 		.4byte	0
 12343 0229 00000000 		.4byte	0
 12344              	.LLST15:
 12345 022d 3E000000 		.4byte	.LVL43
 12346 0231 8C000000 		.4byte	.LVL52
 12347 0235 0100     		.2byte	0x1
 12348 0237 54       		.byte	0x54
 12349 0238 8E000000 		.4byte	.LVL53
 12350 023c D8000000 		.4byte	.LVL57
 12351 0240 0100     		.2byte	0x1
 12352 0242 54       		.byte	0x54
 12353 0243 00000000 		.4byte	0
ARM GAS  e:\temp\ccdoSeHU.s 			page 244


 12354 0247 00000000 		.4byte	0
 12355              	.LLST16:
 12356 024b 2C000000 		.4byte	.LVL39
 12357 024f 32000000 		.4byte	.LVL40
 12358 0253 0100     		.2byte	0x1
 12359 0255 53       		.byte	0x53
 12360 0256 32000000 		.4byte	.LVL40
 12361 025a 36000000 		.4byte	.LVL41
 12362 025e 0100     		.2byte	0x1
 12363 0260 58       		.byte	0x58
 12364 0261 36000000 		.4byte	.LVL41
 12365 0265 38000000 		.4byte	.LVL42
 12366 0269 0100     		.2byte	0x1
 12367 026b 53       		.byte	0x53
 12368 026c 38000000 		.4byte	.LVL42
 12369 0270 D8000000 		.4byte	.LVL60
 12370 0274 0100     		.2byte	0x1
 12371 0276 58       		.byte	0x58
 12372 0277 00000000 		.4byte	0
 12373 027b 00000000 		.4byte	0
 12374              	.LLST17:
 12375 027f 4C000000 		.4byte	.LVL44
 12376 0283 4E000000 		.4byte	.LVL45
 12377 0287 0100     		.2byte	0x1
 12378 0289 55       		.byte	0x55
 12379 028a 56000000 		.4byte	.LVL46
 12380 028e 8E000000 		.4byte	.LVL53
 12381 0292 0100     		.2byte	0x1
 12382 0294 55       		.byte	0x55
 12383 0295 98000000 		.4byte	.LVL54
 12384 0299 9C000000 		.4byte	.LVL55
 12385 029d 0100     		.2byte	0x1
 12386 029f 55       		.byte	0x55
 12387 02a0 00000000 		.4byte	0
 12388 02a4 00000000 		.4byte	0
 12389              	.LLST18:
 12390 02a8 22000000 		.4byte	.LVL36
 12391 02ac 82000000 		.4byte	.LVL49
 12392 02b0 0100     		.2byte	0x1
 12393 02b2 56       		.byte	0x56
 12394 02b3 84000000 		.4byte	.LVL50
 12395 02b7 D8000000 		.4byte	.LVL58
 12396 02bb 0100     		.2byte	0x1
 12397 02bd 56       		.byte	0x56
 12398 02be D8000000 		.4byte	.LVL58
 12399 02c2 E8000000 		.4byte	.LFE41
 12400 02c6 0200     		.2byte	0x2
 12401 02c8 71       		.byte	0x71
 12402 02c9 7F       		.sleb128 -1
 12403 02ca 00000000 		.4byte	0
 12404 02ce 00000000 		.4byte	0
 12405              	.LLST19:
 12406 02d2 22000000 		.4byte	.LVL36
 12407 02d6 3E000000 		.4byte	.LVL43
 12408 02da 0200     		.2byte	0x2
 12409 02dc 30       		.byte	0x30
 12410 02dd 9F       		.byte	0x9f
ARM GAS  e:\temp\ccdoSeHU.s 			page 245


 12411 02de 3E000000 		.4byte	.LVL43
 12412 02e2 D8000000 		.4byte	.LVL61
 12413 02e6 0100     		.2byte	0x1
 12414 02e8 59       		.byte	0x59
 12415 02e9 00000000 		.4byte	0
 12416 02ed 00000000 		.4byte	0
 12417              	.LLST20:
 12418 02f1 28000000 		.4byte	.LVL38
 12419 02f5 3E000000 		.4byte	.LVL43
 12420 02f9 0100     		.2byte	0x1
 12421 02fb 50       		.byte	0x50
 12422 02fc 3E000000 		.4byte	.LVL43
 12423 0300 D8000000 		.4byte	.LVL59
 12424 0304 0100     		.2byte	0x1
 12425 0306 57       		.byte	0x57
 12426 0307 00000000 		.4byte	0
 12427 030b 00000000 		.4byte	0
 12428              	.LLST21:
 12429 030f 00000000 		.4byte	.LVL62
 12430 0313 07000000 		.4byte	.LVL63-1
 12431 0317 0100     		.2byte	0x1
 12432 0319 50       		.byte	0x50
 12433 031a 07000000 		.4byte	.LVL63-1
 12434 031e C0000000 		.4byte	.LFE48
 12435 0322 0400     		.2byte	0x4
 12436 0324 F3       		.byte	0xf3
 12437 0325 01       		.uleb128 0x1
 12438 0326 50       		.byte	0x50
 12439 0327 9F       		.byte	0x9f
 12440 0328 00000000 		.4byte	0
 12441 032c 00000000 		.4byte	0
 12442              	.LLST22:
 12443 0330 A2000000 		.4byte	.LVL75
 12444 0334 AC000000 		.4byte	.LVL76
 12445 0338 0100     		.2byte	0x1
 12446 033a 53       		.byte	0x53
 12447 033b B2000000 		.4byte	.LVL77
 12448 033f B4000000 		.4byte	.LVL78
 12449 0343 0100     		.2byte	0x1
 12450 0345 53       		.byte	0x53
 12451 0346 B6000000 		.4byte	.LVL79
 12452 034a BC000000 		.4byte	.LVL80
 12453 034e 0100     		.2byte	0x1
 12454 0350 53       		.byte	0x53
 12455 0351 00000000 		.4byte	0
 12456 0355 00000000 		.4byte	0
 12457              	.LLST23:
 12458 0359 0A000000 		.4byte	.LVL64
 12459 035d 0C000000 		.4byte	.LVL65
 12460 0361 0100     		.2byte	0x1
 12461 0363 50       		.byte	0x50
 12462 0364 0C000000 		.4byte	.LVL65
 12463 0368 BE000000 		.4byte	.LVL82
 12464 036c 0100     		.2byte	0x1
 12465 036e 55       		.byte	0x55
 12466 036f 00000000 		.4byte	0
 12467 0373 00000000 		.4byte	0
ARM GAS  e:\temp\ccdoSeHU.s 			page 246


 12468              	.LLST24:
 12469 0377 12000000 		.4byte	.LVL67
 12470 037b 38000000 		.4byte	.LVL68
 12471 037f 0100     		.2byte	0x1
 12472 0381 50       		.byte	0x50
 12473 0382 38000000 		.4byte	.LVL68
 12474 0386 52000000 		.4byte	.LVL70
 12475 038a 0100     		.2byte	0x1
 12476 038c 54       		.byte	0x54
 12477 038d 52000000 		.4byte	.LVL70
 12478 0391 54000000 		.4byte	.LVL71
 12479 0395 0100     		.2byte	0x1
 12480 0397 50       		.byte	0x50
 12481 0398 54000000 		.4byte	.LVL71
 12482 039c 96000000 		.4byte	.LVL73
 12483 03a0 0100     		.2byte	0x1
 12484 03a2 54       		.byte	0x54
 12485 03a3 96000000 		.4byte	.LVL73
 12486 03a7 9A000000 		.4byte	.LVL74
 12487 03ab 0100     		.2byte	0x1
 12488 03ad 50       		.byte	0x50
 12489 03ae 9A000000 		.4byte	.LVL74
 12490 03b2 BE000000 		.4byte	.LVL81
 12491 03b6 0100     		.2byte	0x1
 12492 03b8 54       		.byte	0x54
 12493 03b9 00000000 		.4byte	0
 12494 03bd 00000000 		.4byte	0
 12495              	.LLST25:
 12496 03c1 00000000 		.4byte	.LVL83
 12497 03c5 1D000000 		.4byte	.LVL84-1
 12498 03c9 0100     		.2byte	0x1
 12499 03cb 50       		.byte	0x50
 12500 03cc 1D000000 		.4byte	.LVL84-1
 12501 03d0 50000000 		.4byte	.LFE47
 12502 03d4 0400     		.2byte	0x4
 12503 03d6 F3       		.byte	0xf3
 12504 03d7 01       		.uleb128 0x1
 12505 03d8 50       		.byte	0x50
 12506 03d9 9F       		.byte	0x9f
 12507 03da 00000000 		.4byte	0
 12508 03de 00000000 		.4byte	0
 12509              	.LLST26:
 12510 03e2 1E000000 		.4byte	.LVL84
 12511 03e6 26000000 		.4byte	.LVL85
 12512 03ea 0100     		.2byte	0x1
 12513 03ec 50       		.byte	0x50
 12514 03ed 2E000000 		.4byte	.LVL86
 12515 03f1 36000000 		.4byte	.LVL87
 12516 03f5 0100     		.2byte	0x1
 12517 03f7 50       		.byte	0x50
 12518 03f8 00000000 		.4byte	0
 12519 03fc 00000000 		.4byte	0
 12520              	.LLST27:
 12521 0400 00000000 		.4byte	.LVL88
 12522 0404 0F000000 		.4byte	.LVL89-1
 12523 0408 0100     		.2byte	0x1
 12524 040a 50       		.byte	0x50
ARM GAS  e:\temp\ccdoSeHU.s 			page 247


 12525 040b 0F000000 		.4byte	.LVL89-1
 12526 040f 80000000 		.4byte	.LFE50
 12527 0413 0400     		.2byte	0x4
 12528 0415 F3       		.byte	0xf3
 12529 0416 01       		.uleb128 0x1
 12530 0417 50       		.byte	0x50
 12531 0418 9F       		.byte	0x9f
 12532 0419 00000000 		.4byte	0
 12533 041d 00000000 		.4byte	0
 12534              	.LLST28:
 12535 0421 00000000 		.4byte	.LVL94
 12536 0425 07000000 		.4byte	.LVL95-1
 12537 0429 0100     		.2byte	0x1
 12538 042b 50       		.byte	0x50
 12539 042c 07000000 		.4byte	.LVL95-1
 12540 0430 48000000 		.4byte	.LFE45
 12541 0434 0400     		.2byte	0x4
 12542 0436 F3       		.byte	0xf3
 12543 0437 01       		.uleb128 0x1
 12544 0438 50       		.byte	0x50
 12545 0439 9F       		.byte	0x9f
 12546 043a 00000000 		.4byte	0
 12547 043e 00000000 		.4byte	0
 12548              	.LLST29:
 12549 0442 00000000 		.4byte	.LVL102
 12550 0446 04000000 		.4byte	.LVL103
 12551 044a 0100     		.2byte	0x1
 12552 044c 50       		.byte	0x50
 12553 044d 04000000 		.4byte	.LVL103
 12554 0451 14000000 		.4byte	.LFE52
 12555 0455 0400     		.2byte	0x4
 12556 0457 F3       		.byte	0xf3
 12557 0458 01       		.uleb128 0x1
 12558 0459 50       		.byte	0x50
 12559 045a 9F       		.byte	0x9f
 12560 045b 00000000 		.4byte	0
 12561 045f 00000000 		.4byte	0
 12562              	.LLST30:
 12563 0463 00000000 		.4byte	.LVL104
 12564 0467 04000000 		.4byte	.LVL105
 12565 046b 0100     		.2byte	0x1
 12566 046d 50       		.byte	0x50
 12567 046e 04000000 		.4byte	.LVL105
 12568 0472 10000000 		.4byte	.LFE53
 12569 0476 0400     		.2byte	0x4
 12570 0478 F3       		.byte	0xf3
 12571 0479 01       		.uleb128 0x1
 12572 047a 50       		.byte	0x50
 12573 047b 9F       		.byte	0x9f
 12574 047c 00000000 		.4byte	0
 12575 0480 00000000 		.4byte	0
 12576              	.LLST31:
 12577 0484 00000000 		.4byte	.LVL106
 12578 0488 07000000 		.4byte	.LVL107-1
 12579 048c 0100     		.2byte	0x1
 12580 048e 50       		.byte	0x50
 12581 048f 07000000 		.4byte	.LVL107-1
ARM GAS  e:\temp\ccdoSeHU.s 			page 248


 12582 0493 3E000000 		.4byte	.LFE34
 12583 0497 0400     		.2byte	0x4
 12584 0499 F3       		.byte	0xf3
 12585 049a 01       		.uleb128 0x1
 12586 049b 50       		.byte	0x50
 12587 049c 9F       		.byte	0x9f
 12588 049d 00000000 		.4byte	0
 12589 04a1 00000000 		.4byte	0
 12590              	.LLST32:
 12591 04a5 00000000 		.4byte	.LVL111
 12592 04a9 04000000 		.4byte	.LVL112
 12593 04ad 0100     		.2byte	0x1
 12594 04af 50       		.byte	0x50
 12595 04b0 04000000 		.4byte	.LVL112
 12596 04b4 10000000 		.4byte	.LFE54
 12597 04b8 0400     		.2byte	0x4
 12598 04ba F3       		.byte	0xf3
 12599 04bb 01       		.uleb128 0x1
 12600 04bc 50       		.byte	0x50
 12601 04bd 9F       		.byte	0x9f
 12602 04be 00000000 		.4byte	0
 12603 04c2 00000000 		.4byte	0
 12604              	.LLST33:
 12605 04c6 00000000 		.4byte	.LVL113
 12606 04ca 07000000 		.4byte	.LVL114-1
 12607 04ce 0100     		.2byte	0x1
 12608 04d0 50       		.byte	0x50
 12609 04d1 07000000 		.4byte	.LVL114-1
 12610 04d5 32000000 		.4byte	.LFE32
 12611 04d9 0400     		.2byte	0x4
 12612 04db F3       		.byte	0xf3
 12613 04dc 01       		.uleb128 0x1
 12614 04dd 50       		.byte	0x50
 12615 04de 9F       		.byte	0x9f
 12616 04df 00000000 		.4byte	0
 12617 04e3 00000000 		.4byte	0
 12618              	.LLST34:
 12619 04e7 00000000 		.4byte	.LVL118
 12620 04eb 04000000 		.4byte	.LVL119
 12621 04ef 0100     		.2byte	0x1
 12622 04f1 50       		.byte	0x50
 12623 04f2 04000000 		.4byte	.LVL119
 12624 04f6 14000000 		.4byte	.LFE55
 12625 04fa 0400     		.2byte	0x4
 12626 04fc F3       		.byte	0xf3
 12627 04fd 01       		.uleb128 0x1
 12628 04fe 50       		.byte	0x50
 12629 04ff 9F       		.byte	0x9f
 12630 0500 00000000 		.4byte	0
 12631 0504 00000000 		.4byte	0
 12632              	.LLST35:
 12633 0508 00000000 		.4byte	.LVL120
 12634 050c 07000000 		.4byte	.LVL122-1
 12635 0510 0100     		.2byte	0x1
 12636 0512 50       		.byte	0x50
 12637 0513 07000000 		.4byte	.LVL122-1
 12638 0517 34000000 		.4byte	.LFE33
ARM GAS  e:\temp\ccdoSeHU.s 			page 249


 12639 051b 0400     		.2byte	0x4
 12640 051d F3       		.byte	0xf3
 12641 051e 01       		.uleb128 0x1
 12642 051f 50       		.byte	0x50
 12643 0520 9F       		.byte	0x9f
 12644 0521 00000000 		.4byte	0
 12645 0525 00000000 		.4byte	0
 12646              	.LLST36:
 12647 0529 04000000 		.4byte	.LVL121
 12648 052d 2C000000 		.4byte	.LVL125
 12649 0531 0200     		.2byte	0x2
 12650 0533 35       		.byte	0x35
 12651 0534 9F       		.byte	0x9f
 12652 0535 2C000000 		.4byte	.LVL125
 12653 0539 34000000 		.4byte	.LFE33
 12654 053d 0100     		.2byte	0x1
 12655 053f 50       		.byte	0x50
 12656 0540 00000000 		.4byte	0
 12657 0544 00000000 		.4byte	0
 12658              	.LLST37:
 12659 0548 00000000 		.4byte	.LVL126
 12660 054c 0D000000 		.4byte	.LVL127-1
 12661 0550 0100     		.2byte	0x1
 12662 0552 50       		.byte	0x50
 12663 0553 0D000000 		.4byte	.LVL127-1
 12664 0557 FC000000 		.4byte	.LFE39
 12665 055b 0400     		.2byte	0x4
 12666 055d F3       		.byte	0xf3
 12667 055e 01       		.uleb128 0x1
 12668 055f 50       		.byte	0x50
 12669 0560 9F       		.byte	0x9f
 12670 0561 00000000 		.4byte	0
 12671 0565 00000000 		.4byte	0
 12672              	.LLST38:
 12673 0569 00000000 		.4byte	.LVL126
 12674 056d 0D000000 		.4byte	.LVL127-1
 12675 0571 0100     		.2byte	0x1
 12676 0573 51       		.byte	0x51
 12677 0574 0D000000 		.4byte	.LVL127-1
 12678 0578 FC000000 		.4byte	.LFE39
 12679 057c 0400     		.2byte	0x4
 12680 057e F3       		.byte	0xf3
 12681 057f 01       		.uleb128 0x1
 12682 0580 51       		.byte	0x51
 12683 0581 9F       		.byte	0x9f
 12684 0582 00000000 		.4byte	0
 12685 0586 00000000 		.4byte	0
 12686              	.LLST39:
 12687 058a 10000000 		.4byte	.LVL128
 12688 058e 12000000 		.4byte	.LVL129
 12689 0592 0100     		.2byte	0x1
 12690 0594 50       		.byte	0x50
 12691 0595 12000000 		.4byte	.LVL129
 12692 0599 E4000000 		.4byte	.LVL144
 12693 059d 0100     		.2byte	0x1
 12694 059f 55       		.byte	0x55
 12695 05a0 00000000 		.4byte	0
ARM GAS  e:\temp\ccdoSeHU.s 			page 250


 12696 05a4 00000000 		.4byte	0
 12697              	.LLST40:
 12698 05a8 10000000 		.4byte	.LVL128
 12699 05ac 36000000 		.4byte	.LVL132
 12700 05b0 0200     		.2byte	0x2
 12701 05b2 35       		.byte	0x35
 12702 05b3 9F       		.byte	0x9f
 12703 05b4 36000000 		.4byte	.LVL132
 12704 05b8 3A000000 		.4byte	.LVL134
 12705 05bc 0200     		.2byte	0x2
 12706 05be 36       		.byte	0x36
 12707 05bf 9F       		.byte	0x9f
 12708 05c0 3A000000 		.4byte	.LVL134
 12709 05c4 D6000000 		.4byte	.LVL138
 12710 05c8 0200     		.2byte	0x2
 12711 05ca 35       		.byte	0x35
 12712 05cb 9F       		.byte	0x9f
 12713 05cc D6000000 		.4byte	.LVL138
 12714 05d0 DA000000 		.4byte	.LVL139
 12715 05d4 0200     		.2byte	0x2
 12716 05d6 33       		.byte	0x33
 12717 05d7 9F       		.byte	0x9f
 12718 05d8 DA000000 		.4byte	.LVL139
 12719 05dc E4000000 		.4byte	.LVL143
 12720 05e0 0200     		.2byte	0x2
 12721 05e2 35       		.byte	0x35
 12722 05e3 9F       		.byte	0x9f
 12723 05e4 E4000000 		.4byte	.LVL143
 12724 05e8 FC000000 		.4byte	.LFE39
 12725 05ec 0100     		.2byte	0x1
 12726 05ee 50       		.byte	0x50
 12727 05ef 00000000 		.4byte	0
 12728 05f3 00000000 		.4byte	0
 12729              	.LLST41:
 12730 05f7 18000000 		.4byte	.LVL131
 12731 05fb 38000000 		.4byte	.LVL133
 12732 05ff 0100     		.2byte	0x1
 12733 0601 50       		.byte	0x50
 12734 0602 38000000 		.4byte	.LVL133
 12735 0606 3A000000 		.4byte	.LVL134
 12736 060a 0100     		.2byte	0x1
 12737 060c 57       		.byte	0x57
 12738 060d 3A000000 		.4byte	.LVL134
 12739 0611 54000000 		.4byte	.LVL135
 12740 0615 0100     		.2byte	0x1
 12741 0617 50       		.byte	0x50
 12742 0618 54000000 		.4byte	.LVL135
 12743 061c DA000000 		.4byte	.LVL139
 12744 0620 0100     		.2byte	0x1
 12745 0622 57       		.byte	0x57
 12746 0623 DA000000 		.4byte	.LVL139
 12747 0627 DC000000 		.4byte	.LVL140
 12748 062b 0100     		.2byte	0x1
 12749 062d 50       		.byte	0x50
 12750 062e DC000000 		.4byte	.LVL140
 12751 0632 DE000000 		.4byte	.LVL141
 12752 0636 0100     		.2byte	0x1
ARM GAS  e:\temp\ccdoSeHU.s 			page 251


 12753 0638 57       		.byte	0x57
 12754 0639 DE000000 		.4byte	.LVL141
 12755 063d E0000000 		.4byte	.LVL142
 12756 0641 0100     		.2byte	0x1
 12757 0643 50       		.byte	0x50
 12758 0644 E0000000 		.4byte	.LVL142
 12759 0648 E4000000 		.4byte	.LVL145
 12760 064c 0100     		.2byte	0x1
 12761 064e 57       		.byte	0x57
 12762 064f 00000000 		.4byte	0
 12763 0653 00000000 		.4byte	0
 12764              	.LLST42:
 12765 0657 00000000 		.4byte	.LVL146
 12766 065b 0F000000 		.4byte	.LVL148-1
 12767 065f 0100     		.2byte	0x1
 12768 0661 50       		.byte	0x50
 12769 0662 0F000000 		.4byte	.LVL148-1
 12770 0666 14020000 		.4byte	.LFE43
 12771 066a 0400     		.2byte	0x4
 12772 066c F3       		.byte	0xf3
 12773 066d 01       		.uleb128 0x1
 12774 066e 50       		.byte	0x50
 12775 066f 9F       		.byte	0x9f
 12776 0670 00000000 		.4byte	0
 12777 0674 00000000 		.4byte	0
 12778              	.LLST43:
 12779 0678 00000000 		.4byte	.LVL146
 12780 067c 0F000000 		.4byte	.LVL148-1
 12781 0680 0100     		.2byte	0x1
 12782 0682 51       		.byte	0x51
 12783 0683 0F000000 		.4byte	.LVL148-1
 12784 0687 14020000 		.4byte	.LFE43
 12785 068b 0400     		.2byte	0x4
 12786 068d F3       		.byte	0xf3
 12787 068e 01       		.uleb128 0x1
 12788 068f 51       		.byte	0x51
 12789 0690 9F       		.byte	0x9f
 12790 0691 00000000 		.4byte	0
 12791 0695 00000000 		.4byte	0
 12792              	.LLST44:
 12793 0699 0C000000 		.4byte	.LVL147
 12794 069d 32000000 		.4byte	.LVL154
 12795 06a1 0200     		.2byte	0x2
 12796 06a3 35       		.byte	0x35
 12797 06a4 9F       		.byte	0x9f
 12798 06a5 32000000 		.4byte	.LVL154
 12799 06a9 36000000 		.4byte	.LVL155
 12800 06ad 0200     		.2byte	0x2
 12801 06af 36       		.byte	0x36
 12802 06b0 9F       		.byte	0x9f
 12803 06b1 36000000 		.4byte	.LVL155
 12804 06b5 54010000 		.4byte	.LVL168
 12805 06b9 0200     		.2byte	0x2
 12806 06bb 35       		.byte	0x35
 12807 06bc 9F       		.byte	0x9f
 12808 06bd 54010000 		.4byte	.LVL168
 12809 06c1 58010000 		.4byte	.LVL169
ARM GAS  e:\temp\ccdoSeHU.s 			page 252


 12810 06c5 0200     		.2byte	0x2
 12811 06c7 36       		.byte	0x36
 12812 06c8 9F       		.byte	0x9f
 12813 06c9 58010000 		.4byte	.LVL169
 12814 06cd 60010000 		.4byte	.LVL170
 12815 06d1 0200     		.2byte	0x2
 12816 06d3 35       		.byte	0x35
 12817 06d4 9F       		.byte	0x9f
 12818 06d5 60010000 		.4byte	.LVL170
 12819 06d9 64010000 		.4byte	.LVL171
 12820 06dd 0200     		.2byte	0x2
 12821 06df 34       		.byte	0x34
 12822 06e0 9F       		.byte	0x9f
 12823 06e1 64010000 		.4byte	.LVL171
 12824 06e5 6C010000 		.4byte	.LVL172
 12825 06e9 0200     		.2byte	0x2
 12826 06eb 35       		.byte	0x35
 12827 06ec 9F       		.byte	0x9f
 12828 06ed 6C010000 		.4byte	.LVL172
 12829 06f1 70010000 		.4byte	.LVL173
 12830 06f5 0200     		.2byte	0x2
 12831 06f7 34       		.byte	0x34
 12832 06f8 9F       		.byte	0x9f
 12833 06f9 70010000 		.4byte	.LVL173
 12834 06fd 78010000 		.4byte	.LVL174
 12835 0701 0200     		.2byte	0x2
 12836 0703 35       		.byte	0x35
 12837 0704 9F       		.byte	0x9f
 12838 0705 78010000 		.4byte	.LVL174
 12839 0709 7C010000 		.4byte	.LVL175
 12840 070d 0200     		.2byte	0x2
 12841 070f 36       		.byte	0x36
 12842 0710 9F       		.byte	0x9f
 12843 0711 7C010000 		.4byte	.LVL175
 12844 0715 A4010000 		.4byte	.LVL178
 12845 0719 0200     		.2byte	0x2
 12846 071b 35       		.byte	0x35
 12847 071c 9F       		.byte	0x9f
 12848 071d A4010000 		.4byte	.LVL178
 12849 0721 A8010000 		.4byte	.LVL179
 12850 0725 0200     		.2byte	0x2
 12851 0727 36       		.byte	0x36
 12852 0728 9F       		.byte	0x9f
 12853 0729 A8010000 		.4byte	.LVL179
 12854 072d DA010000 		.4byte	.LVL181
 12855 0731 0200     		.2byte	0x2
 12856 0733 35       		.byte	0x35
 12857 0734 9F       		.byte	0x9f
 12858 0735 DA010000 		.4byte	.LVL181
 12859 0739 DE010000 		.4byte	.LVL182
 12860 073d 0200     		.2byte	0x2
 12861 073f 34       		.byte	0x34
 12862 0740 9F       		.byte	0x9f
 12863 0741 DE010000 		.4byte	.LVL182
 12864 0745 EC010000 		.4byte	.LVL184
 12865 0749 0200     		.2byte	0x2
 12866 074b 35       		.byte	0x35
ARM GAS  e:\temp\ccdoSeHU.s 			page 253


 12867 074c 9F       		.byte	0x9f
 12868 074d EC010000 		.4byte	.LVL184
 12869 0751 F0010000 		.4byte	.LVL185
 12870 0755 0200     		.2byte	0x2
 12871 0757 34       		.byte	0x34
 12872 0758 9F       		.byte	0x9f
 12873 0759 F0010000 		.4byte	.LVL185
 12874 075d FE010000 		.4byte	.LVL190
 12875 0761 0200     		.2byte	0x2
 12876 0763 35       		.byte	0x35
 12877 0764 9F       		.byte	0x9f
 12878 0765 FE010000 		.4byte	.LVL190
 12879 0769 14020000 		.4byte	.LFE43
 12880 076d 0100     		.2byte	0x1
 12881 076f 50       		.byte	0x50
 12882 0770 00000000 		.4byte	0
 12883 0774 00000000 		.4byte	0
 12884              	.LLST45:
 12885 0778 12000000 		.4byte	.LVL149
 12886 077c 14000000 		.4byte	.LVL150
 12887 0780 0100     		.2byte	0x1
 12888 0782 50       		.byte	0x50
 12889 0783 14000000 		.4byte	.LVL150
 12890 0787 FE010000 		.4byte	.LVL192
 12891 078b 0100     		.2byte	0x1
 12892 078d 57       		.byte	0x57
 12893 078e 00000000 		.4byte	0
 12894 0792 00000000 		.4byte	0
 12895              	.LLST46:
 12896 0796 1A000000 		.4byte	.LVL152
 12897 079a 2E000000 		.4byte	.LVL153
 12898 079e 0100     		.2byte	0x1
 12899 07a0 50       		.byte	0x50
 12900 07a1 2E000000 		.4byte	.LVL153
 12901 07a5 36000000 		.4byte	.LVL155
 12902 07a9 0100     		.2byte	0x1
 12903 07ab 56       		.byte	0x56
 12904 07ac 36000000 		.4byte	.LVL155
 12905 07b0 6A000000 		.4byte	.LVL156
 12906 07b4 0100     		.2byte	0x1
 12907 07b6 50       		.byte	0x50
 12908 07b7 6A000000 		.4byte	.LVL156
 12909 07bb 8C000000 		.4byte	.LVL158
 12910 07bf 0100     		.2byte	0x1
 12911 07c1 56       		.byte	0x56
 12912 07c2 8C000000 		.4byte	.LVL158
 12913 07c6 AA000000 		.4byte	.LVL160
 12914 07ca 0100     		.2byte	0x1
 12915 07cc 50       		.byte	0x50
 12916 07cd AA000000 		.4byte	.LVL160
 12917 07d1 7C010000 		.4byte	.LVL175
 12918 07d5 0100     		.2byte	0x1
 12919 07d7 56       		.byte	0x56
 12920 07d8 7C010000 		.4byte	.LVL175
 12921 07dc 94010000 		.4byte	.LVL176
 12922 07e0 0100     		.2byte	0x1
 12923 07e2 50       		.byte	0x50
ARM GAS  e:\temp\ccdoSeHU.s 			page 254


 12924 07e3 94010000 		.4byte	.LVL176
 12925 07e7 DE010000 		.4byte	.LVL182
 12926 07eb 0100     		.2byte	0x1
 12927 07ed 56       		.byte	0x56
 12928 07ee DE010000 		.4byte	.LVL182
 12929 07f2 E8010000 		.4byte	.LVL183
 12930 07f6 0100     		.2byte	0x1
 12931 07f8 50       		.byte	0x50
 12932 07f9 E8010000 		.4byte	.LVL183
 12933 07fd F0010000 		.4byte	.LVL185
 12934 0801 0100     		.2byte	0x1
 12935 0803 56       		.byte	0x56
 12936 0804 F0010000 		.4byte	.LVL185
 12937 0808 F2010000 		.4byte	.LVL186
 12938 080c 0100     		.2byte	0x1
 12939 080e 50       		.byte	0x50
 12940 080f F2010000 		.4byte	.LVL186
 12941 0813 F4010000 		.4byte	.LVL187
 12942 0817 0100     		.2byte	0x1
 12943 0819 56       		.byte	0x56
 12944 081a F4010000 		.4byte	.LVL187
 12945 081e F6010000 		.4byte	.LVL188
 12946 0822 0100     		.2byte	0x1
 12947 0824 50       		.byte	0x50
 12948 0825 F6010000 		.4byte	.LVL188
 12949 0829 FC010000 		.4byte	.LVL189
 12950 082d 0100     		.2byte	0x1
 12951 082f 56       		.byte	0x56
 12952 0830 FC010000 		.4byte	.LVL189
 12953 0834 FE010000 		.4byte	.LVL190
 12954 0838 0100     		.2byte	0x1
 12955 083a 50       		.byte	0x50
 12956 083b FE010000 		.4byte	.LVL190
 12957 083f FE010000 		.4byte	.LVL191
 12958 0843 0100     		.2byte	0x1
 12959 0845 56       		.byte	0x56
 12960 0846 00000000 		.4byte	0
 12961 084a 00000000 		.4byte	0
 12962              	.LLST47:
 12963 084e A4000000 		.4byte	.LVL159
 12964 0852 C8000000 		.4byte	.LVL162
 12965 0856 0100     		.2byte	0x1
 12966 0858 55       		.byte	0x55
 12967 0859 00000000 		.4byte	0
 12968 085d 00000000 		.4byte	0
 12969              	.LLST48:
 12970 0861 00000000 		.4byte	.LVL193
 12971 0865 09000000 		.4byte	.LVL194-1
 12972 0869 0100     		.2byte	0x1
 12973 086b 50       		.byte	0x50
 12974 086c 09000000 		.4byte	.LVL194-1
 12975 0870 EC000000 		.4byte	.LFE35
 12976 0874 0400     		.2byte	0x4
 12977 0876 F3       		.byte	0xf3
 12978 0877 01       		.uleb128 0x1
 12979 0878 50       		.byte	0x50
 12980 0879 9F       		.byte	0x9f
ARM GAS  e:\temp\ccdoSeHU.s 			page 255


 12981 087a 00000000 		.4byte	0
 12982 087e 00000000 		.4byte	0
 12983              	.LLST49:
 12984 0882 00000000 		.4byte	.LVL218
 12985 0886 1B000000 		.4byte	.LVL220-1
 12986 088a 0100     		.2byte	0x1
 12987 088c 50       		.byte	0x50
 12988 088d 1B000000 		.4byte	.LVL220-1
 12989 0891 50000000 		.4byte	.LFE37
 12990 0895 0400     		.2byte	0x4
 12991 0897 F3       		.byte	0xf3
 12992 0898 01       		.uleb128 0x1
 12993 0899 50       		.byte	0x50
 12994 089a 9F       		.byte	0x9f
 12995 089b 00000000 		.4byte	0
 12996 089f 00000000 		.4byte	0
 12997              	.LLST50:
 12998 08a3 00000000 		.4byte	.LVL218
 12999 08a7 18000000 		.4byte	.LVL219
 13000 08ab 0100     		.2byte	0x1
 13001 08ad 51       		.byte	0x51
 13002 08ae 18000000 		.4byte	.LVL219
 13003 08b2 50000000 		.4byte	.LFE37
 13004 08b6 0400     		.2byte	0x4
 13005 08b8 F3       		.byte	0xf3
 13006 08b9 01       		.uleb128 0x1
 13007 08ba 51       		.byte	0x51
 13008 08bb 9F       		.byte	0x9f
 13009 08bc 00000000 		.4byte	0
 13010 08c0 00000000 		.4byte	0
 13011              	.LLST51:
 13012 08c4 00000000 		.4byte	.LVL223
 13013 08c8 08000000 		.4byte	.LVL224
 13014 08cc 0100     		.2byte	0x1
 13015 08ce 50       		.byte	0x50
 13016 08cf 08000000 		.4byte	.LVL224
 13017 08d3 48000000 		.4byte	.LFE36
 13018 08d7 0400     		.2byte	0x4
 13019 08d9 F3       		.byte	0xf3
 13020 08da 01       		.uleb128 0x1
 13021 08db 50       		.byte	0x50
 13022 08dc 9F       		.byte	0x9f
 13023 08dd 00000000 		.4byte	0
 13024 08e1 00000000 		.4byte	0
 13025              	.LLST52:
 13026 08e5 00000000 		.4byte	.LVL223
 13027 08e9 27000000 		.4byte	.LVL225-1
 13028 08ed 0100     		.2byte	0x1
 13029 08ef 51       		.byte	0x51
 13030 08f0 27000000 		.4byte	.LVL225-1
 13031 08f4 2C000000 		.4byte	.LVL226
 13032 08f8 0400     		.2byte	0x4
 13033 08fa F3       		.byte	0xf3
 13034 08fb 01       		.uleb128 0x1
 13035 08fc 51       		.byte	0x51
 13036 08fd 9F       		.byte	0x9f
 13037 08fe 2C000000 		.4byte	.LVL226
ARM GAS  e:\temp\ccdoSeHU.s 			page 256


 13038 0902 2E000000 		.4byte	.LVL227
 13039 0906 0100     		.2byte	0x1
 13040 0908 51       		.byte	0x51
 13041 0909 2E000000 		.4byte	.LVL227
 13042 090d 48000000 		.4byte	.LFE36
 13043 0911 0400     		.2byte	0x4
 13044 0913 F3       		.byte	0xf3
 13045 0914 01       		.uleb128 0x1
 13046 0915 51       		.byte	0x51
 13047 0916 9F       		.byte	0x9f
 13048 0917 00000000 		.4byte	0
 13049 091b 00000000 		.4byte	0
 13050              	.LLST53:
 13051 091f 00000000 		.4byte	.LVL230
 13052 0923 21000000 		.4byte	.LVL234-1
 13053 0927 0100     		.2byte	0x1
 13054 0929 50       		.byte	0x50
 13055 092a 21000000 		.4byte	.LVL234-1
 13056 092e E4000000 		.4byte	.LVL246
 13057 0932 0400     		.2byte	0x4
 13058 0934 F3       		.byte	0xf3
 13059 0935 01       		.uleb128 0x1
 13060 0936 50       		.byte	0x50
 13061 0937 9F       		.byte	0x9f
 13062 0938 E4000000 		.4byte	.LVL246
 13063 093c E9000000 		.4byte	.LVL248-1
 13064 0940 0100     		.2byte	0x1
 13065 0942 50       		.byte	0x50
 13066 0943 E9000000 		.4byte	.LVL248-1
 13067 0947 06010000 		.4byte	.LVL251
 13068 094b 0400     		.2byte	0x4
 13069 094d F3       		.byte	0xf3
 13070 094e 01       		.uleb128 0x1
 13071 094f 50       		.byte	0x50
 13072 0950 9F       		.byte	0x9f
 13073 0951 06010000 		.4byte	.LVL251
 13074 0955 09010000 		.4byte	.LVL252-1
 13075 0959 0100     		.2byte	0x1
 13076 095b 50       		.byte	0x50
 13077 095c 09010000 		.4byte	.LVL252-1
 13078 0960 C4010000 		.4byte	.LFE38
 13079 0964 0400     		.2byte	0x4
 13080 0966 F3       		.byte	0xf3
 13081 0967 01       		.uleb128 0x1
 13082 0968 50       		.byte	0x50
 13083 0969 9F       		.byte	0x9f
 13084 096a 00000000 		.4byte	0
 13085 096e 00000000 		.4byte	0
 13086              	.LLST54:
 13087 0972 00000000 		.4byte	.LVL230
 13088 0976 21000000 		.4byte	.LVL234-1
 13089 097a 0100     		.2byte	0x1
 13090 097c 51       		.byte	0x51
 13091 097d 21000000 		.4byte	.LVL234-1
 13092 0981 E4000000 		.4byte	.LVL246
 13093 0985 0400     		.2byte	0x4
 13094 0987 F3       		.byte	0xf3
ARM GAS  e:\temp\ccdoSeHU.s 			page 257


 13095 0988 01       		.uleb128 0x1
 13096 0989 51       		.byte	0x51
 13097 098a 9F       		.byte	0x9f
 13098 098b E4000000 		.4byte	.LVL246
 13099 098f E6000000 		.4byte	.LVL247
 13100 0993 0100     		.2byte	0x1
 13101 0995 51       		.byte	0x51
 13102 0996 E6000000 		.4byte	.LVL247
 13103 099a 06010000 		.4byte	.LVL251
 13104 099e 0400     		.2byte	0x4
 13105 09a0 F3       		.byte	0xf3
 13106 09a1 01       		.uleb128 0x1
 13107 09a2 51       		.byte	0x51
 13108 09a3 9F       		.byte	0x9f
 13109 09a4 06010000 		.4byte	.LVL251
 13110 09a8 09010000 		.4byte	.LVL252-1
 13111 09ac 0100     		.2byte	0x1
 13112 09ae 51       		.byte	0x51
 13113 09af 09010000 		.4byte	.LVL252-1
 13114 09b3 C4010000 		.4byte	.LFE38
 13115 09b7 0400     		.2byte	0x4
 13116 09b9 F3       		.byte	0xf3
 13117 09ba 01       		.uleb128 0x1
 13118 09bb 51       		.byte	0x51
 13119 09bc 9F       		.byte	0x9f
 13120 09bd 00000000 		.4byte	0
 13121 09c1 00000000 		.4byte	0
 13122              	.LLST55:
 13123 09c5 00000000 		.4byte	.LVL230
 13124 09c9 10000000 		.4byte	.LVL232
 13125 09cd 0100     		.2byte	0x1
 13126 09cf 52       		.byte	0x52
 13127 09d0 10000000 		.4byte	.LVL232
 13128 09d4 06010000 		.4byte	.LVL251
 13129 09d8 0100     		.2byte	0x1
 13130 09da 56       		.byte	0x56
 13131 09db 06010000 		.4byte	.LVL251
 13132 09df 09010000 		.4byte	.LVL252-1
 13133 09e3 0100     		.2byte	0x1
 13134 09e5 52       		.byte	0x52
 13135 09e6 09010000 		.4byte	.LVL252-1
 13136 09ea BC010000 		.4byte	.LVL265
 13137 09ee 0100     		.2byte	0x1
 13138 09f0 56       		.byte	0x56
 13139 09f1 BC010000 		.4byte	.LVL265
 13140 09f5 C4010000 		.4byte	.LFE38
 13141 09f9 0400     		.2byte	0x4
 13142 09fb F3       		.byte	0xf3
 13143 09fc 01       		.uleb128 0x1
 13144 09fd 52       		.byte	0x52
 13145 09fe 9F       		.byte	0x9f
 13146 09ff 00000000 		.4byte	0
 13147 0a03 00000000 		.4byte	0
 13148              	.LLST56:
 13149 0a07 18000000 		.4byte	.LVL233
 13150 0a0b 21000000 		.4byte	.LVL234-1
 13151 0a0f 0A00     		.2byte	0xa
ARM GAS  e:\temp\ccdoSeHU.s 			page 258


 13152 0a11 76       		.byte	0x76
 13153 0a12 08       		.sleb128 8
 13154 0a13 94       		.byte	0x94
 13155 0a14 01       		.byte	0x1
 13156 0a15 36       		.byte	0x36
 13157 0a16 25       		.byte	0x25
 13158 0a17 08       		.byte	0x8
 13159 0a18 FF       		.byte	0xff
 13160 0a19 1A       		.byte	0x1a
 13161 0a1a 9F       		.byte	0x9f
 13162 0a1b 00000000 		.4byte	0
 13163 0a1f 00000000 		.4byte	0
 13164              	.LLST57:
 13165 0a23 08000000 		.4byte	.LVL231
 13166 0a27 BC000000 		.4byte	.LVL241
 13167 0a2b 0200     		.2byte	0x2
 13168 0a2d 30       		.byte	0x30
 13169 0a2e 9F       		.byte	0x9f
 13170 0a2f BC000000 		.4byte	.LVL241
 13171 0a33 C0000000 		.4byte	.LVL242
 13172 0a37 0200     		.2byte	0x2
 13173 0a39 31       		.byte	0x31
 13174 0a3a 9F       		.byte	0x9f
 13175 0a3b C0000000 		.4byte	.LVL242
 13176 0a3f E0000000 		.4byte	.LVL245
 13177 0a43 0200     		.2byte	0x2
 13178 0a45 30       		.byte	0x30
 13179 0a46 9F       		.byte	0x9f
 13180 0a47 E0000000 		.4byte	.LVL245
 13181 0a4b E4000000 		.4byte	.LVL246
 13182 0a4f 0200     		.2byte	0x2
 13183 0a51 31       		.byte	0x31
 13184 0a52 9F       		.byte	0x9f
 13185 0a53 E4000000 		.4byte	.LVL246
 13186 0a57 02010000 		.4byte	.LVL250
 13187 0a5b 0200     		.2byte	0x2
 13188 0a5d 30       		.byte	0x30
 13189 0a5e 9F       		.byte	0x9f
 13190 0a5f 02010000 		.4byte	.LVL250
 13191 0a63 06010000 		.4byte	.LVL251
 13192 0a67 0200     		.2byte	0x2
 13193 0a69 31       		.byte	0x31
 13194 0a6a 9F       		.byte	0x9f
 13195 0a6b 06010000 		.4byte	.LVL251
 13196 0a6f 42010000 		.4byte	.LVL256
 13197 0a73 0200     		.2byte	0x2
 13198 0a75 30       		.byte	0x30
 13199 0a76 9F       		.byte	0x9f
 13200 0a77 42010000 		.4byte	.LVL256
 13201 0a7b 46010000 		.4byte	.LVL257
 13202 0a7f 0200     		.2byte	0x2
 13203 0a81 31       		.byte	0x31
 13204 0a82 9F       		.byte	0x9f
 13205 0a83 46010000 		.4byte	.LVL257
 13206 0a87 80010000 		.4byte	.LVL260
 13207 0a8b 0200     		.2byte	0x2
 13208 0a8d 30       		.byte	0x30
ARM GAS  e:\temp\ccdoSeHU.s 			page 259


 13209 0a8e 9F       		.byte	0x9f
 13210 0a8f 80010000 		.4byte	.LVL260
 13211 0a93 8A010000 		.4byte	.LVL261
 13212 0a97 0100     		.2byte	0x1
 13213 0a99 53       		.byte	0x53
 13214 0a9a 00000000 		.4byte	0
 13215 0a9e 00000000 		.4byte	0
 13216              	.LLST58:
 13217 0aa2 00000000 		.4byte	.LVL266
 13218 0aa6 24000000 		.4byte	.LVL267
 13219 0aaa 0100     		.2byte	0x1
 13220 0aac 50       		.byte	0x50
 13221 0aad 24000000 		.4byte	.LVL267
 13222 0ab1 2A000000 		.4byte	.LVL269
 13223 0ab5 0400     		.2byte	0x4
 13224 0ab7 F3       		.byte	0xf3
 13225 0ab8 01       		.uleb128 0x1
 13226 0ab9 50       		.byte	0x50
 13227 0aba 9F       		.byte	0x9f
 13228 0abb 2A000000 		.4byte	.LVL269
 13229 0abf 2C000000 		.4byte	.LVL270
 13230 0ac3 0100     		.2byte	0x1
 13231 0ac5 50       		.byte	0x50
 13232 0ac6 2C000000 		.4byte	.LVL270
 13233 0aca 2E000000 		.4byte	.LVL271
 13234 0ace 0400     		.2byte	0x4
 13235 0ad0 F3       		.byte	0xf3
 13236 0ad1 01       		.uleb128 0x1
 13237 0ad2 50       		.byte	0x50
 13238 0ad3 9F       		.byte	0x9f
 13239 0ad4 2E000000 		.4byte	.LVL271
 13240 0ad8 30000000 		.4byte	.LVL272
 13241 0adc 0100     		.2byte	0x1
 13242 0ade 50       		.byte	0x50
 13243 0adf 30000000 		.4byte	.LVL272
 13244 0ae3 32000000 		.4byte	.LVL273
 13245 0ae7 0400     		.2byte	0x4
 13246 0ae9 F3       		.byte	0xf3
 13247 0aea 01       		.uleb128 0x1
 13248 0aeb 50       		.byte	0x50
 13249 0aec 9F       		.byte	0x9f
 13250 0aed 32000000 		.4byte	.LVL273
 13251 0af1 34000000 		.4byte	.LVL274
 13252 0af5 0100     		.2byte	0x1
 13253 0af7 50       		.byte	0x50
 13254 0af8 34000000 		.4byte	.LVL274
 13255 0afc 40000000 		.4byte	.LFE57
 13256 0b00 0400     		.2byte	0x4
 13257 0b02 F3       		.byte	0xf3
 13258 0b03 01       		.uleb128 0x1
 13259 0b04 50       		.byte	0x50
 13260 0b05 9F       		.byte	0x9f
 13261 0b06 00000000 		.4byte	0
 13262 0b0a 00000000 		.4byte	0
 13263              	.LLST59:
 13264 0b0e 00000000 		.4byte	.LVL266
 13265 0b12 28000000 		.4byte	.LVL268
ARM GAS  e:\temp\ccdoSeHU.s 			page 260


 13266 0b16 0200     		.2byte	0x2
 13267 0b18 30       		.byte	0x30
 13268 0b19 9F       		.byte	0x9f
 13269 0b1a 2A000000 		.4byte	.LVL269
 13270 0b1e 34000000 		.4byte	.LVL274
 13271 0b22 0200     		.2byte	0x2
 13272 0b24 30       		.byte	0x30
 13273 0b25 9F       		.byte	0x9f
 13274 0b26 00000000 		.4byte	0
 13275 0b2a 00000000 		.4byte	0
 13276              	.LLST60:
 13277 0b2e 00000000 		.4byte	.LVL275
 13278 0b32 28000000 		.4byte	.LVL277
 13279 0b36 0100     		.2byte	0x1
 13280 0b38 50       		.byte	0x50
 13281 0b39 28000000 		.4byte	.LVL277
 13282 0b3d 2E000000 		.4byte	.LVL279
 13283 0b41 0400     		.2byte	0x4
 13284 0b43 F3       		.byte	0xf3
 13285 0b44 01       		.uleb128 0x1
 13286 0b45 50       		.byte	0x50
 13287 0b46 9F       		.byte	0x9f
 13288 0b47 2E000000 		.4byte	.LVL279
 13289 0b4b 30000000 		.4byte	.LVL280
 13290 0b4f 0100     		.2byte	0x1
 13291 0b51 50       		.byte	0x50
 13292 0b52 30000000 		.4byte	.LVL280
 13293 0b56 32000000 		.4byte	.LVL281
 13294 0b5a 0400     		.2byte	0x4
 13295 0b5c F3       		.byte	0xf3
 13296 0b5d 01       		.uleb128 0x1
 13297 0b5e 50       		.byte	0x50
 13298 0b5f 9F       		.byte	0x9f
 13299 0b60 32000000 		.4byte	.LVL281
 13300 0b64 34000000 		.4byte	.LVL282
 13301 0b68 0100     		.2byte	0x1
 13302 0b6a 50       		.byte	0x50
 13303 0b6b 34000000 		.4byte	.LVL282
 13304 0b6f 36000000 		.4byte	.LVL283
 13305 0b73 0400     		.2byte	0x4
 13306 0b75 F3       		.byte	0xf3
 13307 0b76 01       		.uleb128 0x1
 13308 0b77 50       		.byte	0x50
 13309 0b78 9F       		.byte	0x9f
 13310 0b79 36000000 		.4byte	.LVL283
 13311 0b7d 38000000 		.4byte	.LVL284
 13312 0b81 0100     		.2byte	0x1
 13313 0b83 50       		.byte	0x50
 13314 0b84 38000000 		.4byte	.LVL284
 13315 0b88 44000000 		.4byte	.LFE58
 13316 0b8c 0400     		.2byte	0x4
 13317 0b8e F3       		.byte	0xf3
 13318 0b8f 01       		.uleb128 0x1
 13319 0b90 50       		.byte	0x50
 13320 0b91 9F       		.byte	0x9f
 13321 0b92 00000000 		.4byte	0
 13322 0b96 00000000 		.4byte	0
ARM GAS  e:\temp\ccdoSeHU.s 			page 261


 13323              	.LLST61:
 13324 0b9a 02000000 		.4byte	.LVL276
 13325 0b9e 2C000000 		.4byte	.LVL278
 13326 0ba2 0200     		.2byte	0x2
 13327 0ba4 30       		.byte	0x30
 13328 0ba5 9F       		.byte	0x9f
 13329 0ba6 2E000000 		.4byte	.LVL279
 13330 0baa 38000000 		.4byte	.LVL284
 13331 0bae 0200     		.2byte	0x2
 13332 0bb0 30       		.byte	0x30
 13333 0bb1 9F       		.byte	0x9f
 13334 0bb2 00000000 		.4byte	0
 13335 0bb6 00000000 		.4byte	0
 13336              		.section	.debug_aranges,"",%progbits
 13337 0000 EC000000 		.4byte	0xec
 13338 0004 0200     		.2byte	0x2
 13339 0006 00000000 		.4byte	.Ldebug_info0
 13340 000a 04       		.byte	0x4
 13341 000b 00       		.byte	0
 13342 000c 0000     		.2byte	0
 13343 000e 0000     		.2byte	0
 13344 0010 00000000 		.4byte	.LFB40
 13345 0014 1C000000 		.4byte	.LFE40-.LFB40
 13346 0018 00000000 		.4byte	.LFB46
 13347 001c 34000000 		.4byte	.LFE46-.LFB46
 13348 0020 00000000 		.4byte	.LFB56
 13349 0024 14000000 		.4byte	.LFE56-.LFB56
 13350 0028 00000000 		.4byte	.LFB42
 13351 002c 24000000 		.4byte	.LFE42-.LFB42
 13352 0030 00000000 		.4byte	.LFB49
 13353 0034 3C000000 		.4byte	.LFE49-.LFB49
 13354 0038 00000000 		.4byte	.LFB51
 13355 003c 12000000 		.4byte	.LFE51-.LFB51
 13356 0040 00000000 		.4byte	.LFB44
 13357 0044 84000000 		.4byte	.LFE44-.LFB44
 13358 0048 00000000 		.4byte	.LFB41
 13359 004c E8000000 		.4byte	.LFE41-.LFB41
 13360 0050 00000000 		.4byte	.LFB48
 13361 0054 C0000000 		.4byte	.LFE48-.LFB48
 13362 0058 00000000 		.4byte	.LFB47
 13363 005c 50000000 		.4byte	.LFE47-.LFB47
 13364 0060 00000000 		.4byte	.LFB50
 13365 0064 80000000 		.4byte	.LFE50-.LFB50
 13366 0068 00000000 		.4byte	.LFB45
 13367 006c 48000000 		.4byte	.LFE45-.LFB45
 13368 0070 00000000 		.4byte	.LFB52
 13369 0074 14000000 		.4byte	.LFE52-.LFB52
 13370 0078 00000000 		.4byte	.LFB53
 13371 007c 10000000 		.4byte	.LFE53-.LFB53
 13372 0080 00000000 		.4byte	.LFB34
 13373 0084 3E000000 		.4byte	.LFE34-.LFB34
 13374 0088 00000000 		.4byte	.LFB54
 13375 008c 10000000 		.4byte	.LFE54-.LFB54
 13376 0090 00000000 		.4byte	.LFB32
 13377 0094 32000000 		.4byte	.LFE32-.LFB32
 13378 0098 00000000 		.4byte	.LFB55
 13379 009c 14000000 		.4byte	.LFE55-.LFB55
ARM GAS  e:\temp\ccdoSeHU.s 			page 262


 13380 00a0 00000000 		.4byte	.LFB33
 13381 00a4 34000000 		.4byte	.LFE33-.LFB33
 13382 00a8 00000000 		.4byte	.LFB39
 13383 00ac FC000000 		.4byte	.LFE39-.LFB39
 13384 00b0 00000000 		.4byte	.LFB43
 13385 00b4 14020000 		.4byte	.LFE43-.LFB43
 13386 00b8 00000000 		.4byte	.LFB35
 13387 00bc EC000000 		.4byte	.LFE35-.LFB35
 13388 00c0 00000000 		.4byte	.LFB37
 13389 00c4 50000000 		.4byte	.LFE37-.LFB37
 13390 00c8 00000000 		.4byte	.LFB36
 13391 00cc 48000000 		.4byte	.LFE36-.LFB36
 13392 00d0 00000000 		.4byte	.LFB38
 13393 00d4 C4010000 		.4byte	.LFE38-.LFB38
 13394 00d8 00000000 		.4byte	.LFB57
 13395 00dc 40000000 		.4byte	.LFE57-.LFB57
 13396 00e0 00000000 		.4byte	.LFB58
 13397 00e4 44000000 		.4byte	.LFE58-.LFB58
 13398 00e8 00000000 		.4byte	0
 13399 00ec 00000000 		.4byte	0
 13400              		.section	.debug_ranges,"",%progbits
 13401              	.Ldebug_ranges0:
 13402 0000 00000000 		.4byte	.LFB40
 13403 0004 1C000000 		.4byte	.LFE40
 13404 0008 00000000 		.4byte	.LFB46
 13405 000c 34000000 		.4byte	.LFE46
 13406 0010 00000000 		.4byte	.LFB56
 13407 0014 14000000 		.4byte	.LFE56
 13408 0018 00000000 		.4byte	.LFB42
 13409 001c 24000000 		.4byte	.LFE42
 13410 0020 00000000 		.4byte	.LFB49
 13411 0024 3C000000 		.4byte	.LFE49
 13412 0028 00000000 		.4byte	.LFB51
 13413 002c 12000000 		.4byte	.LFE51
 13414 0030 00000000 		.4byte	.LFB44
 13415 0034 84000000 		.4byte	.LFE44
 13416 0038 00000000 		.4byte	.LFB41
 13417 003c E8000000 		.4byte	.LFE41
 13418 0040 00000000 		.4byte	.LFB48
 13419 0044 C0000000 		.4byte	.LFE48
 13420 0048 00000000 		.4byte	.LFB47
 13421 004c 50000000 		.4byte	.LFE47
 13422 0050 00000000 		.4byte	.LFB50
 13423 0054 80000000 		.4byte	.LFE50
 13424 0058 00000000 		.4byte	.LFB45
 13425 005c 48000000 		.4byte	.LFE45
 13426 0060 00000000 		.4byte	.LFB52
 13427 0064 14000000 		.4byte	.LFE52
 13428 0068 00000000 		.4byte	.LFB53
 13429 006c 10000000 		.4byte	.LFE53
 13430 0070 00000000 		.4byte	.LFB34
 13431 0074 3E000000 		.4byte	.LFE34
 13432 0078 00000000 		.4byte	.LFB54
 13433 007c 10000000 		.4byte	.LFE54
 13434 0080 00000000 		.4byte	.LFB32
 13435 0084 32000000 		.4byte	.LFE32
 13436 0088 00000000 		.4byte	.LFB55
ARM GAS  e:\temp\ccdoSeHU.s 			page 263


 13437 008c 14000000 		.4byte	.LFE55
 13438 0090 00000000 		.4byte	.LFB33
 13439 0094 34000000 		.4byte	.LFE33
 13440 0098 00000000 		.4byte	.LFB39
 13441 009c FC000000 		.4byte	.LFE39
 13442 00a0 00000000 		.4byte	.LFB43
 13443 00a4 14020000 		.4byte	.LFE43
 13444 00a8 00000000 		.4byte	.LFB35
 13445 00ac EC000000 		.4byte	.LFE35
 13446 00b0 00000000 		.4byte	.LFB37
 13447 00b4 50000000 		.4byte	.LFE37
 13448 00b8 00000000 		.4byte	.LFB36
 13449 00bc 48000000 		.4byte	.LFE36
 13450 00c0 00000000 		.4byte	.LFB38
 13451 00c4 C4010000 		.4byte	.LFE38
 13452 00c8 00000000 		.4byte	.LFB57
 13453 00cc 40000000 		.4byte	.LFE57
 13454 00d0 00000000 		.4byte	.LFB58
 13455 00d4 44000000 		.4byte	.LFE58
 13456 00d8 00000000 		.4byte	0
 13457 00dc 00000000 		.4byte	0
 13458              		.section	.debug_line,"",%progbits
 13459              	.Ldebug_line0:
 13460 0000 96050000 		.section	.debug_str,"MS",%progbits,1
 13460      0200A201 
 13460      00000201 
 13460      FB0E0D00 
 13460      01010101 
 13461              	.LASF366:
 13462 0000 76636F6E 		.ascii	"vcon_req\000"
 13462      5F726571 
 13462      00
 13463              	.LASF731:
 13464 0009 76646D5F 		.ascii	"vdm_task_mngr\000"
 13464      7461736B 
 13464      5F6D6E67 
 13464      7200
 13465              	.LASF185:
 13466 0017 50455F46 		.ascii	"PE_FSM_VRS_VCONN_OFF\000"
 13466      534D5F56 
 13466      52535F56 
 13466      434F4E4E 
 13466      5F4F4646 
 13467              	.LASF764:
 13468 002c 7265675F 		.ascii	"reg_alt_mode_mngr\000"
 13468      616C745F 
 13468      6D6F6465 
 13468      5F6D6E67 
 13468      7200
 13469              	.LASF29:
 13470 003e 45585444 		.ascii	"EXTD_MSG_GET_BAT_CAP\000"
 13470      5F4D5347 
 13470      5F474554 
 13470      5F424154 
 13470      5F434150 
 13471              	.LASF157:
 13472 0053 74797065 		.ascii	"typec_fsm_state_t\000"
ARM GAS  e:\temp\ccdoSeHU.s 			page 264


 13472      635F6673 
 13472      6D5F7374 
 13472      6174655F 
 13472      7400
 13473              	.LASF127:
 13474 0065 43424C5F 		.ascii	"CBL_TERM_BOTH_ACT_VCONN_REQ\000"
 13474      5445524D 
 13474      5F424F54 
 13474      485F4143 
 13474      545F5643 
 13475              	.LASF241:
 13476 0081 6170705F 		.ascii	"app_evt_t\000"
 13476      6576745F 
 13476      7400
 13477              	.LASF274:
 13478 008b 72657365 		.ascii	"reserved\000"
 13478      72766564 
 13478      00
 13479              	.LASF239:
 13480 0094 4150505F 		.ascii	"APP_EVT_SRC_CAP_TRIED_WITH_NO_RESPONSE\000"
 13480      4556545F 
 13480      5352435F 
 13480      4341505F 
 13480      54524945 
 13481              	.LASF51:
 13482 00bb 5052545F 		.ascii	"PRT_ROLE_SOURCE\000"
 13482      524F4C45 
 13482      5F534F55 
 13482      52434500 
 13483              	.LASF703:
 13484 00cb 6D73675F 		.ascii	"msg_p\000"
 13484      7000
 13485              	.LASF111:
 13486 00d1 434D445F 		.ascii	"CMD_TYPE_RESP_BUSY\000"
 13486      54595045 
 13486      5F524553 
 13486      505F4255 
 13486      535900
 13487              	.LASF601:
 13488 00e4 6661756C 		.ascii	"fault_active\000"
 13488      745F6163 
 13488      74697665 
 13488      00
 13489              	.LASF347:
 13490 00f1 76627573 		.ascii	"vbus_thru_cbl\000"
 13490      5F746872 
 13490      755F6362 
 13490      6C00
 13491              	.LASF597:
 13492 00ff 66725F72 		.ascii	"fr_rx_disabled\000"
 13492      785F6469 
 13492      7361626C 
 13492      656400
 13493              	.LASF204:
 13494 010e 4150505F 		.ascii	"APP_EVT_EMCA_DETECTED\000"
 13494      4556545F 
 13494      454D4341 
ARM GAS  e:\temp\ccdoSeHU.s 			page 265


 13494      5F444554 
 13494      45435445 
 13495              	.LASF556:
 13496 0124 736B6970 		.ascii	"skip_scan\000"
 13496      5F736361 
 13496      6E00
 13497              	.LASF93:
 13498 012e 4445565F 		.ascii	"DEV_DBG_ACC\000"
 13498      4442475F 
 13498      41434300 
 13499              	.LASF355:
 13500 013a 74797065 		.ascii	"typec_plug\000"
 13500      635F706C 
 13500      756700
 13501              	.LASF216:
 13502 0145 4150505F 		.ascii	"APP_EVT_SENDER_RESPONSE_TIMEOUT\000"
 13502      4556545F 
 13502      53454E44 
 13502      45525F52 
 13502      4553504F 
 13503              	.LASF469:
 13504 0165 6576656E 		.ascii	"event_flags\000"
 13504      745F666C 
 13504      61677300 
 13505              	.LASF452:
 13506 0171 7374645F 		.ascii	"std_ama_vdo\000"
 13506      616D615F 
 13506      76646F00 
 13507              	.LASF392:
 13508 017d 7369676E 		.ascii	"sign\000"
 13508      00
 13509              	.LASF451:
 13510 0182 6163745F 		.ascii	"act_cbl_vdo\000"
 13510      63626C5F 
 13510      76646F00 
 13511              	.LASF658:
 13512 018e 56444D5F 		.ascii	"VDM_TASK_REG_ATCH_TGT_INFO\000"
 13512      5441534B 
 13512      5F524547 
 13512      5F415443 
 13512      485F5447 
 13513              	.LASF1:
 13514 01a9 5F5F7569 		.ascii	"__uint8_t\000"
 13514      6E74385F 
 13514      7400
 13515              	.LASF187:
 13516 01b3 50455F46 		.ascii	"PE_FSM_SWAP_SEND\000"
 13516      534D5F53 
 13516      5741505F 
 13516      53454E44 
 13516      00
 13517              	.LASF25:
 13518 01c4 50445F52 		.ascii	"PD_REV_RSVD\000"
 13518      45565F52 
 13518      53564400 
 13519              	.LASF520:
 13520 01d0 5F426F6F 		.ascii	"_Bool\000"
ARM GAS  e:\temp\ccdoSeHU.s 			page 266


 13520      6C00
 13521              	.LASF726:
 13522 01d6 7365745F 		.ascii	"set_evt\000"
 13522      65767400 
 13523              	.LASF572:
 13524 01de 6375725F 		.ascii	"cur_snk_pdo_count\000"
 13524      736E6B5F 
 13524      70646F5F 
 13524      636F756E 
 13524      7400
 13525              	.LASF198:
 13526 01f0 50455F46 		.ascii	"PE_FSM_MAX_STATES\000"
 13526      534D5F4D 
 13526      41585F53 
 13526      54415445 
 13526      5300
 13527              	.LASF477:
 13528 0202 646F5F63 		.ascii	"do_count\000"
 13528      6F756E74 
 13528      00
 13529              	.LASF439:
 13530 020b 72646F5F 		.ascii	"rdo_bat_gvb\000"
 13530      6261745F 
 13530      67766200 
 13531              	.LASF719:
 13532 0217 6765745F 		.ascii	"get_evt\000"
 13532      65767400 
 13533              	.LASF353:
 13534 021f 63626C5F 		.ascii	"cbl_term\000"
 13534      7465726D 
 13534      00
 13535              	.LASF622:
 13536 0228 7372635F 		.ascii	"src_sel_pdo\000"
 13536      73656C5F 
 13536      70646F00 
 13537              	.LASF738:
 13538 0234 72756E5F 		.ascii	"run_task_flag\000"
 13538      7461736B 
 13538      5F666C61 
 13538      6700
 13539              	.LASF742:
 13540 0242 76646D5F 		.ascii	"vdm_disc_id_resp\000"
 13540      64697363 
 13540      5F69645F 
 13540      72657370 
 13540      00
 13541              	.LASF526:
 13542 0253 69735F73 		.ascii	"is_snk_bat\000"
 13542      6E6B5F62 
 13542      617400
 13543              	.LASF437:
 13544 025e 72646F5F 		.ascii	"rdo_fix_var_gvb\000"
 13544      6669785F 
 13544      7661725F 
 13544      67766200 
 13545              	.LASF711:
 13546 026e 76646F5F 		.ascii	"vdo_count\000"
ARM GAS  e:\temp\ccdoSeHU.s 			page 267


 13546      636F756E 
 13546      7400
 13547              	.LASF434:
 13548 0278 7661725F 		.ascii	"var_snk\000"
 13548      736E6B00 
 13549              	.LASF684:
 13550 0280 61746368 		.ascii	"atch_tgt\000"
 13550      5F746774 
 13550      00
 13551              	.LASF360:
 13552 0289 6D61785F 		.ascii	"max_vbus_volt\000"
 13552      76627573 
 13552      5F766F6C 
 13552      7400
 13553              	.LASF280:
 13554 0297 6475616C 		.ascii	"dual_role_power\000"
 13554      5F726F6C 
 13554      655F706F 
 13554      77657200 
 13555              	.LASF665:
 13556 02a7 56444D5F 		.ascii	"VDM_EVT_FAIL\000"
 13556      4556545F 
 13556      4641494C 
 13556      00
 13557              	.LASF39:
 13558 02b4 45585444 		.ascii	"EXTD_MSG_COUNTRY_INFO\000"
 13558      5F4D5347 
 13558      5F434F55 
 13558      4E545259 
 13558      5F494E46 
 13559              	.LASF570:
 13560 02ca 76636F6E 		.ascii	"vconn_logical\000"
 13560      6E5F6C6F 
 13560      67696361 
 13560      6C00
 13561              	.LASF586:
 13562 02d8 63635F73 		.ascii	"cc_status\000"
 13562      74617475 
 13562      7300
 13563              	.LASF671:
 13564 02e2 63626C5F 		.ascii	"cbl_svid\000"
 13564      73766964 
 13564      00
 13565              	.LASF467:
 13566 02eb 70726573 		.ascii	"present_input\000"
 13566      656E745F 
 13566      696E7075 
 13566      7400
 13567              	.LASF476:
 13568 02f9 72657370 		.ascii	"resp_buf\000"
 13568      5F627566 
 13568      00
 13569              	.LASF245:
 13570 0302 70645F61 		.ascii	"pd_ams_type\000"
 13570      6D735F74 
 13570      79706500 
 13571              	.LASF472:
ARM GAS  e:\temp\ccdoSeHU.s 			page 268


 13572 030e 70645F70 		.ascii	"pd_power_status_t\000"
 13572      6F776572 
 13572      5F737461 
 13572      7475735F 
 13572      7400
 13573              	.LASF92:
 13574 0320 4445565F 		.ascii	"DEV_SRC\000"
 13574      53524300 
 13575              	.LASF104:
 13576 0328 56444D5F 		.ascii	"VDM_CMD_EXIT_MODE\000"
 13576      434D445F 
 13576      45584954 
 13576      5F4D4F44 
 13576      4500
 13577              	.LASF603:
 13578 033a 70655F65 		.ascii	"pe_evt\000"
 13578      767400
 13579              	.LASF475:
 13580 0341 6170705F 		.ascii	"app_resp_t\000"
 13580      72657370 
 13580      5F7400
 13581              	.LASF15:
 13582 034c 75696E74 		.ascii	"uint16_t\000"
 13582      31365F74 
 13582      00
 13583              	.LASF147:
 13584 0355 54595045 		.ascii	"TYPEC_FSM_TRY_WAIT_SNK\000"
 13584      435F4653 
 13584      4D5F5452 
 13584      595F5741 
 13584      49545F53 
 13585              	.LASF673:
 13586 036c 76646D5F 		.ascii	"vdm_header\000"
 13586      68656164 
 13586      657200
 13587              	.LASF273:
 13588 0377 706B5F63 		.ascii	"pk_current\000"
 13588      75727265 
 13588      6E7400
 13589              	.LASF545:
 13590 0382 7372635F 		.ascii	"src_pdo\000"
 13590      70646F00 
 13591              	.LASF306:
 13592 038a 6D696E5F 		.ascii	"min_op_current\000"
 13592      6F705F63 
 13592      75727265 
 13592      6E7400
 13593              	.LASF242:
 13594 0399 50445F41 		.ascii	"PD_AMS_NONE\000"
 13594      4D535F4E 
 13594      4F4E4500 
 13595              	.LASF710:
 13596 03a5 6D61785F 		.ascii	"max_svid\000"
 13596      73766964 
 13596      00
 13597              	.LASF45:
 13598 03ae 534F505F 		.ascii	"SOP_DP_DEBUG\000"
ARM GAS  e:\temp\ccdoSeHU.s 			page 269


 13598      44505F44 
 13598      45425547 
 13598      00
 13599              	.LASF486:
 13600 03bb 636D645F 		.ascii	"cmd_do\000"
 13600      646F00
 13601              	.LASF531:
 13602 03c2 7372635F 		.ascii	"src_pdo_count\000"
 13602      70646F5F 
 13602      636F756E 
 13602      7400
 13603              	.LASF490:
 13604 03d0 70645F70 		.ascii	"pd_packet_t\000"
 13604      61636B65 
 13604      745F7400 
 13605              	.LASF743:
 13606 03dc 76646D5F 		.ascii	"vdm_disc_id_resp_len\000"
 13606      64697363 
 13606      5F69645F 
 13606      72657370 
 13606      5F6C656E 
 13607              	.LASF169:
 13608 03f1 50455F46 		.ascii	"PE_FSM_SNK_WAIT_FOR_CAP\000"
 13608      534D5F53 
 13608      4E4B5F57 
 13608      4149545F 
 13608      464F525F 
 13609              	.LASF376:
 13610 0409 7369676E 		.ascii	"signal\000"
 13610      616C00
 13611              	.LASF319:
 13612 0410 76646D5F 		.ascii	"vdm_type\000"
 13612      74797065 
 13612      00
 13613              	.LASF77:
 13614 0419 44504D5F 		.ascii	"DPM_CMD_SEND_CABLE_RESET\000"
 13614      434D445F 
 13614      53454E44 
 13614      5F434142 
 13614      4C455F52 
 13615              	.LASF255:
 13616 0432 73706563 		.ascii	"spec_rev\000"
 13616      5F726576 
 13616      00
 13617              	.LASF383:
 13618 043b 6466705F 		.ascii	"dfp_ufp_conn\000"
 13618      7566705F 
 13618      636F6E6E 
 13618      00
 13619              	.LASF509:
 13620 0448 70736E6B 		.ascii	"psnk_set_current\000"
 13620      5F736574 
 13620      5F637572 
 13620      72656E74 
 13620      00
 13621              	.LASF236:
 13622 0459 4150505F 		.ascii	"APP_EVT_CC_OVP\000"
ARM GAS  e:\temp\ccdoSeHU.s 			page 270


 13622      4556545F 
 13622      43435F4F 
 13622      565000
 13623              	.LASF247:
 13624 0468 56444D5F 		.ascii	"VDM_AMS_RESP_NOT_REQ\000"
 13624      414D535F 
 13624      52455350 
 13624      5F4E4F54 
 13624      5F524551 
 13625              	.LASF71:
 13626 047d 44504D5F 		.ascii	"DPM_CMD_SNK_CAP_CHNG\000"
 13626      434D445F 
 13626      534E4B5F 
 13626      4341505F 
 13626      43484E47 
 13627              	.LASF662:
 13628 0492 76646D5F 		.ascii	"vdm_task_t\000"
 13628      7461736B 
 13628      5F7400
 13629              	.LASF367:
 13630 049d 76636F6E 		.ascii	"vcon_pwr\000"
 13630      5F707772 
 13630      00
 13631              	.LASF503:
 13632 04a6 76636F6E 		.ascii	"vconn_disable\000"
 13632      6E5F6469 
 13632      7361626C 
 13632      6500
 13633              	.LASF563:
 13634 04b4 636F6E74 		.ascii	"contract_exist\000"
 13634      72616374 
 13634      5F657869 
 13634      737400
 13635              	.LASF88:
 13636 04c3 44504D5F 		.ascii	"DPM_CMD_SEND_NOT_SUPPORTED\000"
 13636      434D445F 
 13636      53454E44 
 13636      5F4E4F54 
 13636      5F535550 
 13637              	.LASF415:
 13638 04de 63626C5F 		.ascii	"cbl_speed\000"
 13638      73706565 
 13638      6400
 13639              	.LASF615:
 13640 04e8 6375725F 		.ascii	"cur_src_pdo\000"
 13640      7372635F 
 13640      70646F00 
 13641              	.LASF257:
 13642 04f4 6D73675F 		.ascii	"msg_id\000"
 13642      696400
 13643              	.LASF259:
 13644 04fb 64617461 		.ascii	"data_size\000"
 13644      5F73697A 
 13644      6500
 13645              	.LASF200:
 13646 0505 4150505F 		.ascii	"APP_EVT_UNEXPECTED_VOLTAGE_ON_VBUS\000"
 13646      4556545F 
ARM GAS  e:\temp\ccdoSeHU.s 			page 271


 13646      554E4558 
 13646      50454354 
 13646      45445F56 
 13647              	.LASF654:
 13648 0528 56444D5F 		.ascii	"VDM_TASK_WAIT\000"
 13648      5441534B 
 13648      5F574149 
 13648      5400
 13649              	.LASF628:
 13650 0536 64706D5F 		.ascii	"dpm_err_info\000"
 13650      6572725F 
 13650      696E666F 
 13650      00
 13651              	.LASF178:
 13652 0543 50455F46 		.ascii	"PE_FSM_SRC_NEG_CAP\000"
 13652      534D5F53 
 13652      52435F4E 
 13652      45475F43 
 13652      415000
 13653              	.LASF666:
 13654 0556 56444D5F 		.ascii	"VDM_EVT_EXIT\000"
 13654      4556545F 
 13654      45584954 
 13654      00
 13655              	.LASF702:
 13656 0563 7365745F 		.ascii	"set_disc_svid_param\000"
 13656      64697363 
 13656      5F737669 
 13656      645F7061 
 13656      72616D00 
 13657              	.LASF264:
 13658 0577 70645F68 		.ascii	"pd_hdr_t\000"
 13658      64725F74 
 13658      00
 13659              	.LASF26:
 13660 0580 70645F72 		.ascii	"pd_rev_t\000"
 13660      65765F74 
 13660      00
 13661              	.LASF295:
 13662 0589 4241545F 		.ascii	"BAT_SNK\000"
 13662      534E4B00 
 13663              	.LASF277:
 13664 0591 7573625F 		.ascii	"usb_comm_cap\000"
 13664      636F6D6D 
 13664      5F636170 
 13664      00
 13665              	.LASF199:
 13666 059e 70655F66 		.ascii	"pe_fsm_state_t\000"
 13666      736D5F73 
 13666      74617465 
 13666      5F7400
 13667              	.LASF373:
 13668 05ad 73766964 		.ascii	"svid_n\000"
 13668      5F6E00
 13669              	.LASF762:
 13670 05b4 6D656D63 		.ascii	"memcpy\000"
 13670      707900
ARM GAS  e:\temp\ccdoSeHU.s 			page 272


 13671              	.LASF302:
 13672 05bb 67697665 		.ascii	"give_back_flag\000"
 13672      5F626163 
 13672      6B5F666C 
 13672      616700
 13673              	.LASF747:
 13674 05ca 76646D5F 		.ascii	"vdm_emca_rst_count\000"
 13674      656D6361 
 13674      5F727374 
 13674      5F636F75 
 13674      6E7400
 13675              	.LASF149:
 13676 05dd 54595045 		.ascii	"TYPEC_FSM_TRY_WAIT_SRC\000"
 13676      435F4653 
 13676      4D5F5452 
 13676      595F5741 
 13676      49545F53 
 13677              	.LASF115:
 13678 05f4 50524F44 		.ascii	"PROD_TYPE_PAS_CBL\000"
 13678      5F545950 
 13678      455F5041 
 13678      535F4342 
 13678      4C00
 13679              	.LASF583:
 13680 0606 64706D5F 		.ascii	"dpm_typec_cmd\000"
 13680      74797065 
 13680      635F636D 
 13680      6400
 13681              	.LASF577:
 13682 0614 64706D5F 		.ascii	"dpm_pd_cmd\000"
 13682      70645F63 
 13682      6D6400
 13683              	.LASF538:
 13684 061f 63626C5F 		.ascii	"cbl_dsc\000"
 13684      64736300 
 13685              	.LASF609:
 13686 0627 6170705F 		.ascii	"app_cbk\000"
 13686      63626B00 
 13687              	.LASF642:
 13688 062f 4343475F 		.ascii	"CCG_STAT_FAILURE\000"
 13688      53544154 
 13688      5F464149 
 13688      4C555245 
 13688      00
 13689              	.LASF191:
 13690 0640 50455F46 		.ascii	"PE_FSM_PRS_SRC_SNK_WAIT_PS_RDY\000"
 13690      534D5F50 
 13690      52535F53 
 13690      52435F53 
 13690      4E4B5F57 
 13691              	.LASF656:
 13692 065f 56444D5F 		.ascii	"VDM_TASK_DISC_ID\000"
 13692      5441534B 
 13692      5F444953 
 13692      435F4944 
 13692      00
 13693              	.LASF161:
ARM GAS  e:\temp\ccdoSeHU.s 			page 273


 13694 0670 50455F46 		.ascii	"PE_FSM_HR_SRC_RECOVER\000"
 13694      534D5F48 
 13694      525F5352 
 13694      435F5245 
 13694      434F5645 
 13695              	.LASF362:
 13696 0686 76646F5F 		.ascii	"vdo_version\000"
 13696      76657273 
 13696      696F6E00 
 13697              	.LASF275:
 13698 0692 756E6368 		.ascii	"unchunk_sup\000"
 13698      756E6B5F 
 13698      73757000 
 13699              	.LASF205:
 13700 069e 4150505F 		.ascii	"APP_EVT_EMCA_NOT_DETECTED\000"
 13700      4556545F 
 13700      454D4341 
 13700      5F4E4F54 
 13700      5F444554 
 13701              	.LASF733:
 13702 06b8 6661696C 		.ascii	"fail_stat\000"
 13702      5F737461 
 13702      7400
 13703              	.LASF389:
 13704 06c2 6870645F 		.ascii	"hpd_irq\000"
 13704      69727100 
 13705              	.LASF379:
 13706 06ca 6466705F 		.ascii	"dfp_d_pin\000"
 13706      645F7069 
 13706      6E00
 13707              	.LASF708:
 13708 06d4 72657365 		.ascii	"reset_vdm_mngr\000"
 13708      745F7664 
 13708      6D5F6D6E 
 13708      677200
 13709              	.LASF212:
 13710 06e3 4150505F 		.ascii	"APP_EVT_PKT_RCVD\000"
 13710      4556545F 
 13710      504B545F 
 13710      52435644 
 13710      00
 13711              	.LASF74:
 13712 06f4 44504D5F 		.ascii	"DPM_CMD_GET_SRC_CAP\000"
 13712      434D445F 
 13712      4745545F 
 13712      5352435F 
 13712      43415000 
 13713              	.LASF657:
 13714 0708 56444D5F 		.ascii	"VDM_TASK_DISC_SVID\000"
 13714      5441534B 
 13714      5F444953 
 13714      435F5356 
 13714      494400
 13715              	.LASF336:
 13716 071b 70726F64 		.ascii	"prod_type\000"
 13716      5F747970 
 13716      6500
ARM GAS  e:\temp\ccdoSeHU.s 			page 274


 13717              	.LASF179:
 13718 0725 50455F46 		.ascii	"PE_FSM_SRC_TRANS_SUPPLY\000"
 13718      534D5F53 
 13718      52435F54 
 13718      52414E53 
 13718      5F535550 
 13719              	.LASF640:
 13720 073d 4343475F 		.ascii	"CCG_STAT_TRANS_FAILURE\000"
 13720      53544154 
 13720      5F545241 
 13720      4E535F46 
 13720      41494C55 
 13721              	.LASF226:
 13722 0754 4150505F 		.ascii	"APP_EVT_VBUS_PORT_DISABLE\000"
 13722      4556545F 
 13722      56425553 
 13722      5F504F52 
 13722      545F4449 
 13723              	.LASF184:
 13724 076e 50455F46 		.ascii	"PE_FSM_VRS_VCONN_ON\000"
 13724      534D5F56 
 13724      52535F56 
 13724      434F4E4E 
 13724      5F4F4E00 
 13725              	.LASF765:
 13726 0782 474E5520 		.ascii	"GNU C11 5.4.1 20160609 (release) [ARM/embedded-5-br"
 13726      43313120 
 13726      352E342E 
 13726      31203230 
 13726      31363036 
 13727 07b5 616E6368 		.ascii	"anch revision 237715] -mcpu=cortex-m0 -mthumb -g -O"
 13727      20726576 
 13727      6973696F 
 13727      6E203233 
 13727      37373135 
 13728 07e8 67202D66 		.ascii	"g -ffunction-sections -ffat-lto-objects -finline-fu"
 13728      66756E63 
 13728      74696F6E 
 13728      2D736563 
 13728      74696F6E 
 13729 081b 6E637469 		.ascii	"nctions -fno-strict-aliasing\000"
 13729      6F6E7320 
 13729      2D666E6F 
 13729      2D737472 
 13729      6963742D 
 13730              	.LASF480:
 13731 0838 636D645F 		.ascii	"cmd_sop\000"
 13731      736F7000 
 13732              	.LASF230:
 13733 0840 4150505F 		.ascii	"APP_EVT_HANDLE_EXTENDED_MSG\000"
 13733      4556545F 
 13733      48414E44 
 13733      4C455F45 
 13733      5854454E 
 13734              	.LASF59:
 13735 085c 5245515F 		.ascii	"REQ_ACCEPT\000"
 13735      41434345 
ARM GAS  e:\temp\ccdoSeHU.s 			page 275


 13735      505400
 13736              	.LASF132:
 13737 0867 70655F63 		.ascii	"pe_cbl_state_t\000"
 13737      626C5F73 
 13737      74617465 
 13737      5F7400
 13738              	.LASF718:
 13739 0876 73656E64 		.ascii	"send_vdm\000"
 13739      5F76646D 
 13739      00
 13740              	.LASF553:
 13741 087f 6472705F 		.ascii	"drp_period\000"
 13741      70657269 
 13741      6F6400
 13742              	.LASF687:
 13743 088a 73766964 		.ascii	"svid_idx\000"
 13743      5F696478 
 13743      00
 13744              	.LASF549:
 13745 0893 6375725F 		.ascii	"cur_port_role\000"
 13745      706F7274 
 13745      5F726F6C 
 13745      6500
 13746              	.LASF188:
 13747 08a1 50455F46 		.ascii	"PE_FSM_DRS_CHANGE_ROLE\000"
 13747      534D5F44 
 13747      52535F43 
 13747      48414E47 
 13747      455F524F 
 13748              	.LASF181:
 13749 08b8 50455F46 		.ascii	"PE_FSM_SNK_TRANS\000"
 13749      534D5F53 
 13749      4E4B5F54 
 13749      52414E53 
 13749      00
 13750              	.LASF342:
 13751 08c9 6263645F 		.ascii	"bcd_dev\000"
 13751      64657600 
 13752              	.LASF582:
 13753 08d1 64706D5F 		.ascii	"dpm_safe_disable\000"
 13753      73616665 
 13753      5F646973 
 13753      61626C65 
 13753      00
 13754              	.LASF375:
 13755 08e2 706F7274 		.ascii	"port_cap\000"
 13755      5F636170 
 13755      00
 13756              	.LASF231:
 13757 08eb 4150505F 		.ascii	"APP_EVT_VBUS_UVP_FAULT\000"
 13757      4556545F 
 13757      56425553 
 13757      5F555650 
 13757      5F464155 
 13758              	.LASF266:
 13759 0902 50445F48 		.ascii	"PD_HDR\000"
 13759      445200
ARM GAS  e:\temp\ccdoSeHU.s 			page 276


 13760              	.LASF647:
 13761 0909 6363675F 		.ascii	"ccg_status_t\000"
 13761      73746174 
 13761      75735F74 
 13761      00
 13762              	.LASF714:
 13763 0916 76646D5F 		.ascii	"vdm_buf\000"
 13763      62756600 
 13764              	.LASF729:
 13765 091e 64706D5F 		.ascii	"dpm_stat\000"
 13765      73746174 
 13765      00
 13766              	.LASF243:
 13767 0927 50445F41 		.ascii	"PD_AMS_NON_INTR\000"
 13767      4D535F4E 
 13767      4F4E5F49 
 13767      4E545200 
 13768              	.LASF285:
 13769 0937 4241545F 		.ascii	"BAT_SRC\000"
 13769      53524300 
 13770              	.LASF566:
 13771 093f 72615F70 		.ascii	"ra_present\000"
 13771      72657365 
 13771      6E7400
 13772              	.LASF519:
 13773 094a 76627573 		.ascii	"vbus_get_value\000"
 13773      5F676574 
 13773      5F76616C 
 13773      756500
 13774              	.LASF507:
 13775 0959 76627573 		.ascii	"vbus_discharge_off\000"
 13775      5F646973 
 13775      63686172 
 13775      67655F6F 
 13775      666600
 13776              	.LASF438:
 13777 096c 72646F5F 		.ascii	"rdo_bat\000"
 13777      62617400 
 13778              	.LASF462:
 13779 0974 7462745F 		.ascii	"tbt_vdo\000"
 13779      76646F00 
 13780              	.LASF416:
 13781 097c 63626C5F 		.ascii	"cbl_gen\000"
 13781      67656E00 
 13782              	.LASF162:
 13783 0984 50455F46 		.ascii	"PE_FSM_HR_SRC_VBUS_ON\000"
 13783      534D5F48 
 13783      525F5352 
 13783      435F5642 
 13783      55535F4F 
 13784              	.LASF401:
 13785 099a 5050535F 		.ascii	"PPS_SNK\000"
 13785      534E4B00 
 13786              	.LASF497:
 13787 09a2 6170705F 		.ascii	"app_event_handler\000"
 13787      6576656E 
 13787      745F6861 
ARM GAS  e:\temp\ccdoSeHU.s 			page 277


 13787      6E646C65 
 13787      7200
 13788              	.LASF548:
 13789 09b4 6375725F 		.ascii	"cur_port_type\000"
 13789      706F7274 
 13789      5F747970 
 13789      6500
 13790              	.LASF313:
 13791 09c2 6F705F70 		.ascii	"op_power_cur\000"
 13791      6F776572 
 13791      5F637572 
 13791      00
 13792              	.LASF760:
 13793 09cf 6765745F 		.ascii	"get_alt_mode_numb\000"
 13793      616C745F 
 13793      6D6F6465 
 13793      5F6E756D 
 13793      6200
 13794              	.LASF529:
 13795 09e1 73776170 		.ascii	"swap_response\000"
 13795      5F726573 
 13795      706F6E73 
 13795      6500
 13796              	.LASF215:
 13797 09ef 4150505F 		.ascii	"APP_EVT_VCONN_SWAP_COMPLETE\000"
 13797      4556545F 
 13797      56434F4E 
 13797      4E5F5357 
 13797      41505F43 
 13798              	.LASF744:
 13799 0a0b 76646D5F 		.ascii	"vdm_disc_svid_resp\000"
 13799      64697363 
 13799      5F737669 
 13799      645F7265 
 13799      737000
 13800              	.LASF155:
 13801 0a1e 54595045 		.ascii	"TYPEC_FSM_ATTACHED_SNK\000"
 13801      435F4653 
 13801      4D5F4154 
 13801      54414348 
 13801      45445F53 
 13802              	.LASF372:
 13803 0a35 73766964 		.ascii	"svid_n1\000"
 13803      5F6E3100 
 13804              	.LASF48:
 13805 0a3d 534F505F 		.ascii	"SOP_INVALID\000"
 13805      494E5641 
 13805      4C494400 
 13806              	.LASF5:
 13807 0a49 5F5F7569 		.ascii	"__uint16_t\000"
 13807      6E743136 
 13807      5F7400
 13808              	.LASF706:
 13809 0a54 76646F5F 		.ascii	"vdo_idx\000"
 13809      69647800 
 13810              	.LASF343:
 13811 0a5c 7573625F 		.ascii	"usb_pid\000"
ARM GAS  e:\temp\ccdoSeHU.s 			page 278


 13811      70696400 
 13812              	.LASF685:
 13813 0a64 76646D5F 		.ascii	"vdm_msg\000"
 13813      6D736700 
 13814              	.LASF638:
 13815 0a6c 4343475F 		.ascii	"CCG_STAT_NOT_SUPPORTED\000"
 13815      53544154 
 13815      5F4E4F54 
 13815      5F535550 
 13815      504F5254 
 13816              	.LASF560:
 13817 0a83 61747461 		.ascii	"attach\000"
 13817      636800
 13818              	.LASF97:
 13819 0a8a 70645F64 		.ascii	"pd_devtype_t\000"
 13819      65767479 
 13819      70655F74 
 13819      00
 13820              	.LASF229:
 13821 0a97 4150505F 		.ascii	"APP_EVT_TEMPERATURE_FAULT\000"
 13821      4556545F 
 13821      54454D50 
 13821      45524154 
 13821      5552455F 
 13822              	.LASF385:
 13823 0ab1 6D756C74 		.ascii	"mult_fun\000"
 13823      5F66756E 
 13823      00
 13824              	.LASF80:
 13825 0aba 44504D5F 		.ascii	"DPM_CMD_SEND_PR_SWAP\000"
 13825      434D445F 
 13825      53454E44 
 13825      5F50525F 
 13825      53574150 
 13826              	.LASF448:
 13827 0acf 7374645F 		.ascii	"std_prod_vdo\000"
 13827      70726F64 
 13827      5F76646F 
 13827      00
 13828              	.LASF269:
 13829 0adc 6D6F6465 		.ascii	"mode\000"
 13829      00
 13830              	.LASF79:
 13831 0ae1 44504D5F 		.ascii	"DPM_CMD_SEND_DR_SWAP\000"
 13831      434D445F 
 13831      53454E44 
 13831      5F44525F 
 13831      53574150 
 13832              	.LASF619:
 13833 0af6 7372635F 		.ascii	"src_rdo\000"
 13833      72646F00 
 13834              	.LASF523:
 13835 0afe 64666C74 		.ascii	"dflt_port_role\000"
 13835      5F706F72 
 13835      745F726F 
 13835      6C6500
 13836              	.LASF584:
ARM GAS  e:\temp\ccdoSeHU.s 			page 279


 13837 0b0d 7372635F 		.ascii	"src_cur_level_live\000"
 13837      6375725F 
 13837      6C657665 
 13837      6C5F6C69 
 13837      766500
 13838              	.LASF506:
 13839 0b20 76627573 		.ascii	"vbus_discharge_on\000"
 13839      5F646973 
 13839      63686172 
 13839      67655F6F 
 13839      6E00
 13840              	.LASF52:
 13841 0b32 5052545F 		.ascii	"PRT_DUAL\000"
 13841      4455414C 
 13841      00
 13842              	.LASF499:
 13843 0b3b 70737263 		.ascii	"psrc_set_current\000"
 13843      5F736574 
 13843      5F637572 
 13843      72656E74 
 13843      00
 13844              	.LASF616:
 13845 0b4c 6375725F 		.ascii	"cur_snk_pdo\000"
 13845      736E6B5F 
 13845      70646F00 
 13846              	.LASF84:
 13847 0b58 44504D5F 		.ascii	"DPM_CMD_GET_SRC_CAP_EXTENDED\000"
 13847      434D445F 
 13847      4745545F 
 13847      5352435F 
 13847      4341505F 
 13848              	.LASF3:
 13849 0b75 756E7369 		.ascii	"unsigned char\000"
 13849      676E6564 
 13849      20636861 
 13849      7200
 13850              	.LASF41:
 13851 0b83 65787464 		.ascii	"extd_msg_t\000"
 13851      5F6D7367 
 13851      5F7400
 13852              	.LASF235:
 13853 0b8e 4150505F 		.ascii	"APP_EVT_TYPEC_ATTACH\000"
 13853      4556545F 
 13853      54595045 
 13853      435F4154 
 13853      54414348 
 13854              	.LASF618:
 13855 0ba3 7372635F 		.ascii	"src_last_rdo\000"
 13855      6C617374 
 13855      5F72646F 
 13855      00
 13856              	.LASF676:
 13857 0bb0 76646D5F 		.ascii	"vdm_msg_info_t\000"
 13857      6D73675F 
 13857      696E666F 
 13857      5F7400
 13858              	.LASF180:
ARM GAS  e:\temp\ccdoSeHU.s 			page 280


 13859 0bbf 50455F46 		.ascii	"PE_FSM_SRC_SEND_PS_RDY\000"
 13859      534D5F53 
 13859      52435F53 
 13859      454E445F 
 13859      50535F52 
 13860              	.LASF746:
 13861 0bd6 76646D5F 		.ascii	"vdm_emca_rst_state\000"
 13861      656D6361 
 13861      5F727374 
 13861      5F737461 
 13861      746500
 13862              	.LASF309:
 13863 0be9 52444F5F 		.ascii	"RDO_BAT_GIVEBACK\000"
 13863      4241545F 
 13863      47495645 
 13863      4241434B 
 13863      00
 13864              	.LASF119:
 13865 0bfa 5354445F 		.ascii	"STD_VDM_VER1\000"
 13865      56444D5F 
 13865      56455231 
 13865      00
 13866              	.LASF17:
 13867 0c07 666C6F61 		.ascii	"float\000"
 13867      7400
 13868              	.LASF121:
 13869 0c0d 5354445F 		.ascii	"STD_VDM_VER3\000"
 13869      56444D5F 
 13869      56455233 
 13869      00
 13870              	.LASF122:
 13871 0c1a 5354445F 		.ascii	"STD_VDM_VER4\000"
 13871      56444D5F 
 13871      56455234 
 13871      00
 13872              	.LASF692:
 13873 0c27 4341424C 		.ascii	"CABLE_DP_RESET_RETRY\000"
 13873      455F4450 
 13873      5F524553 
 13873      45545F52 
 13873      45545259 
 13874              	.LASF713:
 13875 0c3c 636F6D70 		.ascii	"compose_vdm\000"
 13875      6F73655F 
 13875      76646D00 
 13876              	.LASF384:
 13877 0c48 7077725F 		.ascii	"pwr_low\000"
 13877      6C6F7700 
 13878              	.LASF500:
 13879 0c50 70737263 		.ascii	"psrc_enable\000"
 13879      5F656E61 
 13879      626C6500 
 13880              	.LASF123:
 13881 0c5c 7374645F 		.ascii	"std_vdm_ver_t\000"
 13881      76646D5F 
 13881      7665725F 
 13881      7400
ARM GAS  e:\temp\ccdoSeHU.s 			page 281


 13882              	.LASF443:
 13883 0c6a 75737464 		.ascii	"ustd_vdm_hdr\000"
 13883      5F76646D 
 13883      5F686472 
 13883      00
 13884              	.LASF598:
 13885 0c77 66725F72 		.ascii	"fr_rx_en_live\000"
 13885      785F656E 
 13885      5F6C6976 
 13885      6500
 13886              	.LASF393:
 13887 0c85 6466705F 		.ascii	"dfp_asgmnt\000"
 13887      6173676D 
 13887      6E7400
 13888              	.LASF114:
 13889 0c90 50524F44 		.ascii	"PROD_TYPE_PERI\000"
 13889      5F545950 
 13889      455F5045 
 13889      524900
 13890              	.LASF457:
 13891 0c9f 64705F63 		.ascii	"dp_cfg_vdo\000"
 13891      66675F76 
 13891      646F00
 13892              	.LASF406:
 13893 0caa 6F75745F 		.ascii	"out_volt\000"
 13893      766F6C74 
 13893      00
 13894              	.LASF395:
 13895 0cb3 5050535F 		.ascii	"PPS_SRC\000"
 13895      53524300 
 13896              	.LASF614:
 13897 0cbb 6375725F 		.ascii	"cur_snk_max_min\000"
 13897      736E6B5F 
 13897      6D61785F 
 13897      6D696E00 
 13898              	.LASF460:
 13899 0ccb 72646F5F 		.ascii	"rdo_pps\000"
 13899      70707300 
 13900              	.LASF195:
 13901 0cd3 50455F46 		.ascii	"PE_FSM_FRS_SRC_SNK_CC_SIGNAL\000"
 13901      534D5F46 
 13901      52535F53 
 13901      52435F53 
 13901      4E4B5F43 
 13902              	.LASF371:
 13903 0cf0 5354445F 		.ascii	"STD_SVID_RESP_VDO\000"
 13903      53564944 
 13903      5F524553 
 13903      505F5644 
 13903      4F00
 13904              	.LASF49:
 13905 0d02 736F705F 		.ascii	"sop_t\000"
 13905      7400
 13906              	.LASF154:
 13907 0d08 54595045 		.ascii	"TYPEC_FSM_ATTACHED_SRC\000"
 13907      435F4653 
 13907      4D5F4154 
ARM GAS  e:\temp\ccdoSeHU.s 			page 282


 13907      54414348 
 13907      45445F53 
 13908              	.LASF107:
 13909 0d1f 56444D5F 		.ascii	"VDM_CMD_DP_CONFIGURE\000"
 13909      434D445F 
 13909      44505F43 
 13909      4F4E4649 
 13909      47555245 
 13910              	.LASF485:
 13911 0d34 74696D65 		.ascii	"timeout\000"
 13911      6F757400 
 13912              	.LASF680:
 13913 0d3c 4E41434B 		.ascii	"NACK\000"
 13913      00
 13914              	.LASF87:
 13915 0d41 44504D5F 		.ascii	"DPM_CMD_SEND_ALERT\000"
 13915      434D445F 
 13915      53454E44 
 13915      5F414C45 
 13915      525400
 13916              	.LASF73:
 13917 0d54 44504D5F 		.ascii	"DPM_CMD_GET_SNK_CAP\000"
 13917      434D445F 
 13917      4745545F 
 13917      534E4B5F 
 13917      43415000 
 13918              	.LASF588:
 13919 0d68 63635F72 		.ascii	"cc_rd_status\000"
 13919      645F7374 
 13919      61747573 
 13919      00
 13920              	.LASF152:
 13921 0d75 54595045 		.ascii	"TYPEC_FSM_AUD_ACC\000"
 13921      435F4653 
 13921      4D5F4155 
 13921      445F4143 
 13921      4300
 13922              	.LASF667:
 13923 0d87 76646D5F 		.ascii	"vdm_evt_t\000"
 13923      6576745F 
 13923      7400
 13924              	.LASF138:
 13925 0d91 44504D5F 		.ascii	"DPM_CMD_TYPEC_INVALID\000"
 13925      434D445F 
 13925      54595045 
 13925      435F494E 
 13925      56414C49 
 13926              	.LASF414:
 13927 0da7 696E7465 		.ascii	"intel_mode\000"
 13927      6C5F6D6F 
 13927      646500
 13928              	.LASF64:
 13929 0db2 5345515F 		.ascii	"SEQ_ABORTED\000"
 13929      41424F52 
 13929      54454400 
 13930              	.LASF542:
 13931 0dbe 6672735F 		.ascii	"frs_enable\000"
ARM GAS  e:\temp\ccdoSeHU.s 			page 283


 13931      656E6162 
 13931      6C6500
 13932              	.LASF207:
 13933 0dc9 4150505F 		.ascii	"APP_EVT_APP_HW\000"
 13933      4556545F 
 13933      4150505F 
 13933      485700
 13934              	.LASF38:
 13935 0dd8 45585444 		.ascii	"EXTD_MSG_PPS_STATUS\000"
 13935      5F4D5347 
 13935      5F505053 
 13935      5F535441 
 13935      54555300 
 13936              	.LASF81:
 13937 0dec 44504D5F 		.ascii	"DPM_CMD_SEND_VCONN_SWAP\000"
 13937      434D445F 
 13937      53454E44 
 13937      5F56434F 
 13937      4E4E5F53 
 13938              	.LASF167:
 13939 0e04 50455F46 		.ascii	"PE_FSM_BIST_CM2\000"
 13939      534D5F42 
 13939      4953545F 
 13939      434D3200 
 13940              	.LASF210:
 13941 0e14 4150505F 		.ascii	"APP_EVT_HARD_RESET_RCVD\000"
 13941      4556545F 
 13941      48415244 
 13941      5F524553 
 13941      45545F52 
 13942              	.LASF428:
 13943 0e2c 62697374 		.ascii	"bist_do\000"
 13943      5F646F00 
 13944              	.LASF617:
 13945 0e34 7372635F 		.ascii	"src_cur_rdo\000"
 13945      6375725F 
 13945      72646F00 
 13946              	.LASF444:
 13947 0e40 75737464 		.ascii	"ustd_qc_4_0_hdr\000"
 13947      5F71635F 
 13947      345F305F 
 13947      68647200 
 13948              	.LASF575:
 13949 0e50 63626C5F 		.ascii	"cbl_soft_reset_tried\000"
 13949      736F6674 
 13949      5F726573 
 13949      65745F74 
 13949      72696564 
 13950              	.LASF72:
 13951 0e65 44504D5F 		.ascii	"DPM_CMD_SEND_GO_TO_MIN\000"
 13951      434D445F 
 13951      53454E44 
 13951      5F474F5F 
 13951      544F5F4D 
 13952              	.LASF253:
 13953 0e7c 6D73675F 		.ascii	"msg_type\000"
 13953      74797065 
ARM GAS  e:\temp\ccdoSeHU.s 			page 284


 13953      00
 13954              	.LASF70:
 13955 0e85 44504D5F 		.ascii	"DPM_CMD_SRC_CAP_CHNG\000"
 13955      434D445F 
 13955      5352435F 
 13955      4341505F 
 13955      43484E47 
 13956              	.LASF28:
 13957 0e9a 45585444 		.ascii	"EXTD_MSG_STATUS\000"
 13957      5F4D5347 
 13957      5F535441 
 13957      54555300 
 13958              	.LASF316:
 13959 0eaa 5354445F 		.ascii	"STD_VDM_HDR\000"
 13959      56444D5F 
 13959      48445200 
 13960              	.LASF312:
 13961 0eb6 6D696E5F 		.ascii	"min_max_power_cur\000"
 13961      6D61785F 
 13961      706F7765 
 13961      725F6375 
 13961      7200
 13962              	.LASF54:
 13963 0ec8 5052545F 		.ascii	"PRT_TYPE_UFP\000"
 13963      54595045 
 13963      5F554650 
 13963      00
 13964              	.LASF203:
 13965 0ed5 4150505F 		.ascii	"APP_EVT_DISCONNECT\000"
 13965      4556545F 
 13965      44495343 
 13965      4F4E4E45 
 13965      435400
 13966              	.LASF314:
 13967 0ee8 52444F5F 		.ascii	"RDO_GEN_GVB\000"
 13967      47454E5F 
 13967      47564200 
 13968              	.LASF402:
 13969 0ef4 6F705F63 		.ascii	"op_cur\000"
 13969      757200
 13970              	.LASF137:
 13971 0efb 44504D5F 		.ascii	"DPM_CMD_TYPEC_ERR_RECOVERY\000"
 13971      434D445F 
 13971      54595045 
 13971      435F4552 
 13971      525F5245 
 13972              	.LASF148:
 13973 0f16 54595045 		.ascii	"TYPEC_FSM_TRY_SNK\000"
 13973      435F4653 
 13973      4D5F5452 
 13973      595F534E 
 13973      4B00
 13974              	.LASF576:
 13975 0f28 74797065 		.ascii	"typec_fsm_state\000"
 13975      635F6673 
 13975      6D5F7374 
 13975      61746500 
ARM GAS  e:\temp\ccdoSeHU.s 			page 285


 13976              	.LASF320:
 13977 0f38 73766964 		.ascii	"svid\000"
 13977      00
 13978              	.LASF166:
 13979 0f3d 50455F46 		.ascii	"PE_FSM_BIST_TEST_DATA\000"
 13979      534D5F42 
 13979      4953545F 
 13979      54455354 
 13979      5F444154 
 13980              	.LASF579:
 13981 0f53 64706D5F 		.ascii	"dpm_typec_cmd_active\000"
 13981      74797065 
 13981      635F636D 
 13981      645F6163 
 13981      74697665 
 13982              	.LASF660:
 13983 0f68 56444D5F 		.ascii	"VDM_TASK_SEND_MSG\000"
 13983      5441534B 
 13983      5F53454E 
 13983      445F4D53 
 13983      4700
 13984              	.LASF225:
 13985 0f7a 4150505F 		.ascii	"APP_EVT_VCONN_OCP_FAULT\000"
 13985      4556545F 
 13985      56434F4E 
 13985      4E5F4F43 
 13985      505F4641 
 13986              	.LASF387:
 13987 0f92 65786974 		.ascii	"exit\000"
 13987      00
 13988              	.LASF581:
 13989 0f97 64706D5F 		.ascii	"dpm_init\000"
 13989      696E6974 
 13989      00
 13990              	.LASF65:
 13991 0fa0 434D445F 		.ascii	"CMD_FAILED\000"
 13991      4641494C 
 13991      454400
 13992              	.LASF298:
 13993 0fab 6D61785F 		.ascii	"max_op_current\000"
 13993      6F705F63 
 13993      75727265 
 13993      6E7400
 13994              	.LASF495:
 13995 0fba 73696E6B 		.ascii	"sink_discharge_off_cbk_t\000"
 13995      5F646973 
 13995      63686172 
 13995      67655F6F 
 13995      66665F63 
 13996              	.LASF380:
 13997 0fd3 7566705F 		.ascii	"ufp_d_pin\000"
 13997      645F7069 
 13997      6E00
 13998              	.LASF599:
 13999 0fdd 66725F74 		.ascii	"fr_tx_disabled\000"
 13999      785F6469 
 13999      7361626C 
ARM GAS  e:\temp\ccdoSeHU.s 			page 286


 13999      656400
 14000              	.LASF176:
 14001 0fec 50455F46 		.ascii	"PE_FSM_SRC_SEND_CAP\000"
 14001      534D5F53 
 14001      52435F53 
 14001      454E445F 
 14001      43415000 
 14002              	.LASF536:
 14003 1000 70645F73 		.ascii	"pd_support\000"
 14003      7570706F 
 14003      727400
 14004              	.LASF515:
 14005 100b 6576616C 		.ascii	"eval_pr_swap\000"
 14005      5F70725F 
 14005      73776170 
 14005      00
 14006              	.LASF369:
 14007 1018 616D615F 		.ascii	"ama_hw_ver\000"
 14007      68775F76 
 14007      657200
 14008              	.LASF308:
 14009 1023 6D61785F 		.ascii	"max_op_power\000"
 14009      6F705F70 
 14009      6F776572 
 14009      00
 14010              	.LASF672:
 14011 1030 61746368 		.ascii	"atch_tgt_info_t\000"
 14011      5F746774 
 14011      5F696E66 
 14011      6F5F7400 
 14012              	.LASF32:
 14013 1040 45585444 		.ascii	"EXTD_MSG_GET_MANU_INFO\000"
 14013      5F4D5347 
 14013      5F474554 
 14013      5F4D414E 
 14013      555F494E 
 14014              	.LASF514:
 14015 1057 6576616C 		.ascii	"eval_dr_swap\000"
 14015      5F64725F 
 14015      73776170 
 14015      00
 14016              	.LASF299:
 14017 1064 72737276 		.ascii	"rsrvd1\000"
 14017      643100
 14018              	.LASF304:
 14019 106b 72737276 		.ascii	"rsrvd2\000"
 14019      643200
 14020              	.LASF543:
 14021 1072 76636F6E 		.ascii	"vconn_retain\000"
 14021      6E5F7265 
 14021      7461696E 
 14021      00
 14022              	.LASF697:
 14023 107f 72657370 		.ascii	"resp\000"
 14023      00
 14024              	.LASF641:
 14025 1084 4343475F 		.ascii	"CCG_STAT_CMD_FAILURE\000"
ARM GAS  e:\temp\ccdoSeHU.s 			page 287


 14025      53544154 
 14025      5F434D44 
 14025      5F464149 
 14025      4C555245 
 14026              	.LASF14:
 14027 1099 75696E74 		.ascii	"uint8_t\000"
 14027      385F7400 
 14028              	.LASF620:
 14029 10a1 736E6B5F 		.ascii	"snk_rdo\000"
 14029      72646F00 
 14030              	.LASF112:
 14031 10a9 50524F44 		.ascii	"PROD_TYPE_UNDEF\000"
 14031      5F545950 
 14031      455F554E 
 14031      44454600 
 14032              	.LASF432:
 14033 10b9 7372635F 		.ascii	"src_gen\000"
 14033      67656E00 
 14034              	.LASF358:
 14035 10c1 63626C5F 		.ascii	"cbl_hw_ver\000"
 14035      68775F76 
 14035      657200
 14036              	.LASF248:
 14037 10cc 56444D5F 		.ascii	"VDM_AMS_RESP_FROM_EC\000"
 14037      414D535F 
 14037      52455350 
 14037      5F46524F 
 14037      4D5F4543 
 14038              	.LASF751:
 14039 10e1 64706D5F 		.ascii	"dpm_get_info\000"
 14039      6765745F 
 14039      696E666F 
 14039      00
 14040              	.LASF378:
 14041 10ee 75736232 		.ascii	"usb2_0\000"
 14041      5F3000
 14042              	.LASF427:
 14043 10f5 64617461 		.ascii	"data_cnt\000"
 14043      5F636E74 
 14043      00
 14044              	.LASF569:
 14045 10fe 63626C5F 		.ascii	"cbl_vdm_version\000"
 14045      76646D5F 
 14045      76657273 
 14045      696F6E00 
 14046              	.LASF691:
 14047 110e 4341424C 		.ascii	"CABLE_DP_RESET_WAIT\000"
 14047      455F4450 
 14047      5F524553 
 14047      45545F57 
 14047      41495400 
 14048              	.LASF535:
 14049 1122 72705F73 		.ascii	"rp_supported\000"
 14049      7570706F 
 14049      72746564 
 14049      00
 14050              	.LASF394:
ARM GAS  e:\temp\ccdoSeHU.s 			page 288


 14051 112f 7566705F 		.ascii	"ufp_asgmnt\000"
 14051      6173676D 
 14051      6E7400
 14052              	.LASF146:
 14053 113a 54595045 		.ascii	"TYPEC_FSM_TRY_SRC\000"
 14053      435F4653 
 14053      4D5F5452 
 14053      595F5352 
 14053      4300
 14054              	.LASF508:
 14055 114c 70736E6B 		.ascii	"psnk_set_voltage\000"
 14055      5F736574 
 14055      5F766F6C 
 14055      74616765 
 14055      00
 14056              	.LASF113:
 14057 115d 50524F44 		.ascii	"PROD_TYPE_HUB\000"
 14057      5F545950 
 14057      455F4855 
 14057      4200
 14058              	.LASF408:
 14059 116b 686F745F 		.ascii	"hot_swap_bats\000"
 14059      73776170 
 14059      5F626174 
 14059      7300
 14060              	.LASF501:
 14061 1179 70737263 		.ascii	"psrc_disable\000"
 14061      5F646973 
 14061      61626C65 
 14061      00
 14062              	.LASF639:
 14063 1186 4343475F 		.ascii	"CCG_STAT_INVALID_SIGNATURE\000"
 14063      53544154 
 14063      5F494E56 
 14063      414C4944 
 14063      5F534947 
 14064              	.LASF42:
 14065 11a1 534F505F 		.ascii	"SOP_PRIME\000"
 14065      5052494D 
 14065      4500
 14066              	.LASF694:
 14067 11ab 6361626C 		.ascii	"cable_dp_reset_state_t\000"
 14067      655F6470 
 14067      5F726573 
 14067      65745F73 
 14067      74617465 
 14068              	.LASF728:
 14069 11c2 76646D5F 		.ascii	"vdm_task_mng_disc_id\000"
 14069      7461736B 
 14069      5F6D6E67 
 14069      5F646973 
 14069      635F6964 
 14070              	.LASF496:
 14071 11d7 64706D5F 		.ascii	"dpm_typec_cmd_cbk_t\000"
 14071      74797065 
 14071      635F636D 
 14071      645F6362 
ARM GAS  e:\temp\ccdoSeHU.s 			page 289


 14071      6B5F7400 
 14072              	.LASF265:
 14073 11eb 70645F65 		.ascii	"pd_extd_hdr_t\000"
 14073      7874645F 
 14073      6864725F 
 14073      7400
 14074              	.LASF67:
 14075 11f9 434D445F 		.ascii	"CMD_SENT\000"
 14075      53454E54 
 14075      00
 14076              	.LASF197:
 14077 1202 50455F46 		.ascii	"PE_FSM_SEND_MSG\000"
 14077      534D5F53 
 14077      454E445F 
 14077      4D534700 
 14078              	.LASF357:
 14079 1212 63626C5F 		.ascii	"cbl_fw_ver\000"
 14079      66775F76 
 14079      657200
 14080              	.LASF626:
 14081 121d 6578745F 		.ascii	"ext_src_cap\000"
 14081      7372635F 
 14081      63617000 
 14082              	.LASF310:
 14083 1229 6D696E5F 		.ascii	"min_op_power\000"
 14083      6F705F70 
 14083      6F776572 
 14083      00
 14084              	.LASF43:
 14085 1236 534F505F 		.ascii	"SOP_DPRIME\000"
 14085      44505249 
 14085      4D4500
 14086              	.LASF558:
 14087 1241 7265765F 		.ascii	"rev_pol\000"
 14087      706F6C00 
 14088              	.LASF165:
 14089 1249 50455F46 		.ascii	"PE_FSM_HR_SNK_WAIT_VBUS_ON\000"
 14089      534D5F48 
 14089      525F534E 
 14089      4B5F5741 
 14089      49545F56 
 14090              	.LASF554:
 14091 1264 7372635F 		.ascii	"src_period\000"
 14091      70657269 
 14091      6F6400
 14092              	.LASF465:
 14093 126f 70645F64 		.ascii	"pd_do_t\000"
 14093      6F5F7400 
 14094              	.LASF564:
 14095 1277 70645F63 		.ascii	"pd_connected\000"
 14095      6F6E6E65 
 14095      63746564 
 14095      00
 14096              	.LASF222:
 14097 1284 4150505F 		.ascii	"APP_EVT_PD_CONTRACT_NEGOTIATION_COMPLETE\000"
 14097      4556545F 
 14097      50445F43 
ARM GAS  e:\temp\ccdoSeHU.s 			page 290


 14097      4F4E5452 
 14097      4143545F 
 14098              	.LASF544:
 14099 12ad 72657365 		.ascii	"reserved_3\000"
 14099      72766564 
 14099      5F3300
 14100              	.LASF559:
 14101 12b8 636F6E6E 		.ascii	"connect\000"
 14101      65637400 
 14102              	.LASF466:
 14103 12c0 696E746C 		.ascii	"intl_temperature\000"
 14103      5F74656D 
 14103      70657261 
 14103      74757265 
 14103      00
 14104              	.LASF410:
 14105 12d1 6261745F 		.ascii	"bat_status_change\000"
 14105      73746174 
 14105      75735F63 
 14105      68616E67 
 14105      6500
 14106              	.LASF589:
 14107 12e3 73706563 		.ascii	"spec_rev_sop_live\000"
 14107      5F726576 
 14107      5F736F70 
 14107      5F6C6976 
 14107      6500
 14108              	.LASF766:
 14109 12f5 2E2E5C73 		.ascii	"..\\src\\app\\alt_mode\\vdm_task_mngr.c\000"
 14109      72635C61 
 14109      70705C61 
 14109      6C745F6D 
 14109      6F64655C 
 14110              	.LASF252:
 14111 1319 63635F73 		.ascii	"cc_state_t\000"
 14111      74617465 
 14111      5F7400
 14112              	.LASF151:
 14113 1324 54595045 		.ascii	"TYPEC_FSM_UNATTACHED_SNK\000"
 14113      435F4653 
 14113      4D5F554E 
 14113      41545441 
 14113      43484544 
 14114              	.LASF224:
 14115 133d 4150505F 		.ascii	"APP_EVT_VBUS_OCP_FAULT\000"
 14115      4556545F 
 14115      56425553 
 14115      5F4F4350 
 14115      5F464155 
 14116              	.LASF50:
 14117 1354 5052545F 		.ascii	"PRT_ROLE_SINK\000"
 14117      524F4C45 
 14117      5F53494E 
 14117      4B00
 14118              	.LASF338:
 14119 1362 7573625F 		.ascii	"usb_host\000"
 14119      686F7374 
ARM GAS  e:\temp\ccdoSeHU.s 			page 291


 14119      00
 14120              	.LASF592:
 14121 136b 73706563 		.ascii	"spec_rev_peer\000"
 14121      5F726576 
 14121      5F706565 
 14121      7200
 14122              	.LASF768:
 14123 1379 63635F73 		.ascii	"cc_state\000"
 14123      74617465 
 14123      00
 14124              	.LASF422:
 14125 1382 6D6F6475 		.ascii	"module_type\000"
 14125      6C655F74 
 14125      79706500 
 14126              	.LASF631:
 14127 138e 4343475F 		.ascii	"CCG_STAT_SUCCESS\000"
 14127      53544154 
 14127      5F535543 
 14127      43455353 
 14127      00
 14128              	.LASF232:
 14129 139f 4150505F 		.ascii	"APP_EVT_VBUS_SCP_FAULT\000"
 14129      4556545F 
 14129      56425553 
 14129      5F534350 
 14129      5F464155 
 14130              	.LASF120:
 14131 13b6 5354445F 		.ascii	"STD_VDM_VER2\000"
 14131      56444D5F 
 14131      56455232 
 14131      00
 14132              	.LASF261:
 14133 13c3 72657175 		.ascii	"request\000"
 14133      65737400 
 14134              	.LASF345:
 14135 13cb 7573625F 		.ascii	"usb_ss_sup\000"
 14135      73735F73 
 14135      757000
 14136              	.LASF627:
 14137 13d6 7070735F 		.ascii	"pps_status\000"
 14137      73746174 
 14137      757300
 14138              	.LASF552:
 14139 13e1 64656164 		.ascii	"dead_bat\000"
 14139      5F626174 
 14139      00
 14140              	.LASF454:
 14141 13ea 7374645F 		.ascii	"std_svid_res\000"
 14141      73766964 
 14141      5F726573 
 14141      00
 14142              	.LASF735:
 14143 13f7 76646D5F 		.ascii	"vdm_rec_cbk\000"
 14143      7265635F 
 14143      63626B00 
 14144              	.LASF98:
 14145 1403 56444D5F 		.ascii	"VDM_TYPE_UNSTRUCTURED\000"
ARM GAS  e:\temp\ccdoSeHU.s 			page 292


 14145      54595045 
 14145      5F554E53 
 14145      54525543 
 14145      54555245 
 14146              	.LASF276:
 14147 1419 64725F73 		.ascii	"dr_swap\000"
 14147      77617000 
 14148              	.LASF263:
 14149 1421 6368756E 		.ascii	"chunked\000"
 14149      6B656400 
 14150              	.LASF332:
 14151 1429 5354445F 		.ascii	"STD_VDM_ID_HDR\000"
 14151      56444D5F 
 14151      49445F48 
 14151      445200
 14152              	.LASF749:
 14153 1438 76646D5F 		.ascii	"vdm_stat\000"
 14153      73746174 
 14153      00
 14154              	.LASF754:
 14155 1441 6765745F 		.ascii	"get_vdm_buff\000"
 14155      76646D5F 
 14155      62756666 
 14155      00
 14156              	.LASF461:
 14157 144e 61646F5F 		.ascii	"ado_alert\000"
 14157      616C6572 
 14157      7400
 14158              	.LASF321:
 14159 1458 55535444 		.ascii	"USTD_VDM_HDR\000"
 14159      5F56444D 
 14159      5F484452 
 14159      00
 14160              	.LASF279:
 14161 1465 7573625F 		.ascii	"usb_suspend_sup\000"
 14161      73757370 
 14161      656E645F 
 14161      73757000 
 14162              	.LASF634:
 14163 1475 4343475F 		.ascii	"CCG_STAT_INVALID_COMMAND\000"
 14163      53544154 
 14163      5F494E56 
 14163      414C4944 
 14163      5F434F4D 
 14164              	.LASF217:
 14165 148e 4150505F 		.ascii	"APP_EVT_VENDOR_RESPONSE_TIMEOUT\000"
 14165      4556545F 
 14165      56454E44 
 14165      4F525F52 
 14165      4553504F 
 14166              	.LASF209:
 14167 14ae 4150505F 		.ascii	"APP_EVT_RP_CHANGE\000"
 14167      4556545F 
 14167      52505F43 
 14167      48414E47 
 14167      4500
 14168              	.LASF160:
ARM GAS  e:\temp\ccdoSeHU.s 			page 293


 14169 14c0 50455F46 		.ascii	"PE_FSM_HR_SRC_TRANS_DFLT\000"
 14169      534D5F48 
 14169      525F5352 
 14169      435F5452 
 14169      414E535F 
 14170              	.LASF96:
 14171 14d9 4445565F 		.ascii	"DEV_UNSUPORTED_ACC\000"
 14171      554E5355 
 14171      504F5254 
 14171      45445F41 
 14171      434300
 14172              	.LASF174:
 14173 14ec 50455F46 		.ascii	"PE_FSM_SRC_SEND_CBL_SR\000"
 14173      534D5F53 
 14173      52435F53 
 14173      454E445F 
 14173      43424C5F 
 14174              	.LASF175:
 14175 1503 50455F46 		.ascii	"PE_FSM_SRC_SEND_CBL_DSCID\000"
 14175      534D5F53 
 14175      52435F53 
 14175      454E445F 
 14175      43424C5F 
 14176              	.LASF436:
 14177 151d 72646F5F 		.ascii	"rdo_fix_var\000"
 14177      6669785F 
 14177      76617200 
 14178              	.LASF344:
 14179 1529 5354445F 		.ascii	"STD_CBL_VDO\000"
 14179      43424C5F 
 14179      56444F00 
 14180              	.LASF189:
 14181 1535 50455F46 		.ascii	"PE_FSM_PRS_SRC_SNK_TRANS\000"
 14181      534D5F50 
 14181      52535F53 
 14181      52435F53 
 14181      4E4B5F54 
 14182              	.LASF484:
 14183 154e 6461745F 		.ascii	"dat_ptr\000"
 14183      70747200 
 14184              	.LASF407:
 14185 1556 41444F5F 		.ascii	"ADO_ALERT\000"
 14185      414C4552 
 14185      5400
 14186              	.LASF459:
 14187 1560 7070735F 		.ascii	"pps_snk\000"
 14187      736E6B00 
 14188              	.LASF291:
 14189 1568 72737276 		.ascii	"rsrvd\000"
 14189      6400
 14190              	.LASF530:
 14191 156e 746F6767 		.ascii	"toggle\000"
 14191      6C6500
 14192              	.LASF125:
 14193 1575 43424C5F 		.ascii	"CBL_TERM_BOTH_PAS_VCONN_REQ\000"
 14193      5445524D 
 14193      5F424F54 
ARM GAS  e:\temp\ccdoSeHU.s 			page 294


 14193      485F5041 
 14193      535F5643 
 14194              	.LASF494:
 14195 1591 7077725F 		.ascii	"pwr_ready_cbk_t\000"
 14195      72656164 
 14195      795F6362 
 14195      6B5F7400 
 14196              	.LASF150:
 14197 15a1 54595045 		.ascii	"TYPEC_FSM_UNATTACHED_SRC\000"
 14197      435F4653 
 14197      4D5F554E 
 14197      41545441 
 14197      43484544 
 14198              	.LASF664:
 14199 15ba 56444D5F 		.ascii	"VDM_EVT_EVAL\000"
 14199      4556545F 
 14199      4556414C 
 14199      00
 14200              	.LASF89:
 14201 15c7 44504D5F 		.ascii	"DPM_CMD_SEND_INVALID\000"
 14201      434D445F 
 14201      53454E44 
 14201      5F494E56 
 14201      414C4944 
 14202              	.LASF767:
 14203 15dc 433A5C55 		.ascii	"C:\\Users\\Admin\\Desktop\\_FIRMWARE\\DBARLite\\CYP"
 14203      73657273 
 14203      5C41646D 
 14203      696E5C44 
 14203      65736B74 
 14204 1609 44353232 		.ascii	"D5225\\CYPD5225-96BZXI_notebook\\CYPD5225-96BZXI_no"
 14204      355C4359 
 14204      50443532 
 14204      32352D39 
 14204      36425A58 
 14205 163a 7465626F 		.ascii	"tebook.cydsn\\noboot.cydsn\000"
 14205      6F6B2E63 
 14205      7964736E 
 14205      5C6E6F62 
 14205      6F6F742E 
 14206              	.LASF61:
 14207 1654 5245515F 		.ascii	"REQ_WAIT\000"
 14207      57414954 
 14207      00
 14208              	.LASF296:
 14209 165d 6F705F70 		.ascii	"op_power\000"
 14209      6F776572 
 14209      00
 14210              	.LASF315:
 14211 1666 6D61785F 		.ascii	"max_power_cur\000"
 14211      706F7765 
 14211      725F6375 
 14211      7200
 14212              	.LASF171:
 14213 1674 50455F46 		.ascii	"PE_FSM_SNK_SEL_CAP\000"
 14213      534D5F53 
 14213      4E4B5F53 
ARM GAS  e:\temp\ccdoSeHU.s 			page 295


 14213      454C5F43 
 14213      415000
 14214              	.LASF53:
 14215 1687 706F7274 		.ascii	"port_role_t\000"
 14215      5F726F6C 
 14215      655F7400 
 14216              	.LASF311:
 14217 1693 52444F5F 		.ascii	"RDO_GEN\000"
 14217      47454E00 
 14218              	.LASF683:
 14219 169b 76646D5F 		.ascii	"vdm_evt\000"
 14219      65767400 
 14220              	.LASF143:
 14221 16a3 54595045 		.ascii	"TYPEC_FSM_DISABLED\000"
 14221      435F4653 
 14221      4D5F4449 
 14221      5341424C 
 14221      454400
 14222              	.LASF633:
 14223 16b6 4343475F 		.ascii	"CCG_STAT_BAD_PARAM\000"
 14223      53544154 
 14223      5F424144 
 14223      5F504152 
 14223      414D00
 14224              	.LASF761:
 14225 16c9 6D656D73 		.ascii	"memset\000"
 14225      657400
 14226              	.LASF769:
 14227 16d0 6363675F 		.ascii	"ccg_status\000"
 14227      73746174 
 14227      757300
 14228              	.LASF557:
 14229 16db 706F6C61 		.ascii	"polarity\000"
 14229      72697479 
 14229      00
 14230              	.LASF258:
 14231 16e4 65787464 		.ascii	"extd\000"
 14231      00
 14232              	.LASF13:
 14233 16e9 696E7438 		.ascii	"int8_t\000"
 14233      5F7400
 14234              	.LASF118:
 14235 16f0 7374645F 		.ascii	"std_vdm_prod_t\000"
 14235      76646D5F 
 14235      70726F64 
 14235      5F7400
 14236              	.LASF491:
 14237 16ff 64706D5F 		.ascii	"dpm_pd_cmd_cbk_t\000"
 14237      70645F63 
 14237      6D645F63 
 14237      626B5F74 
 14237      00
 14238              	.LASF192:
 14239 1710 50455F46 		.ascii	"PE_FSM_PRS_SNK_SRC_WAIT_PS_RDY\000"
 14239      534D5F50 
 14239      52535F53 
 14239      4E4B5F53 
ARM GAS  e:\temp\ccdoSeHU.s 			page 296


 14239      52435F57 
 14240              	.LASF219:
 14241 172f 4150505F 		.ascii	"APP_EVT_SOFT_RESET_SENT\000"
 14241      4556545F 
 14241      534F4654 
 14241      5F524553 
 14241      45545F53 
 14242              	.LASF650:
 14243 1747 4150505F 		.ascii	"APP_PORT_SINK_FAULT_ACTIVE\000"
 14243      504F5254 
 14243      5F53494E 
 14243      4B5F4641 
 14243      554C545F 
 14244              	.LASF498:
 14245 1762 70737263 		.ascii	"psrc_set_voltage\000"
 14245      5F736574 
 14245      5F766F6C 
 14245      74616765 
 14245      00
 14246              	.LASF453:
 14247 1773 7374645F 		.ascii	"std_ama_vdo_pd3\000"
 14247      616D615F 
 14247      76646F5F 
 14247      70643300 
 14248              	.LASF653:
 14249 1783 4150505F 		.ascii	"APP_PORT_DISABLE_IN_PROGRESS\000"
 14249      504F5254 
 14249      5F444953 
 14249      41424C45 
 14249      5F494E5F 
 14250              	.LASF424:
 14251 17a0 616D5F61 		.ascii	"am_addr\000"
 14251      64647200 
 14252              	.LASF348:
 14253 17a8 76627573 		.ascii	"vbus_cur\000"
 14253      5F637572 
 14253      00
 14254              	.LASF458:
 14255 17b1 7070735F 		.ascii	"pps_src\000"
 14255      73726300 
 14256              	.LASF624:
 14257 17b9 70616476 		.ascii	"padval\000"
 14257      616C00
 14258              	.LASF318:
 14259 17c0 73745F76 		.ascii	"st_ver\000"
 14259      657200
 14260              	.LASF739:
 14261 17c7 76646D5F 		.ascii	"vdm_get_disc_id_resp\000"
 14261      6765745F 
 14261      64697363 
 14261      5F69645F 
 14261      72657370 
 14262              	.LASF418:
 14263 17dc 6C696E6B 		.ascii	"link_training\000"
 14263      5F747261 
 14263      696E696E 
 14263      6700
ARM GAS  e:\temp\ccdoSeHU.s 			page 297


 14264              	.LASF730:
 14265 17ea 76646D5F 		.ascii	"vdm_task_mng_disc_svid\000"
 14265      7461736B 
 14265      5F6D6E67 
 14265      5F646973 
 14265      635F7376 
 14266              	.LASF613:
 14267 1801 64706D5F 		.ascii	"dpm_cmd_buf\000"
 14267      636D645F 
 14267      62756600 
 14268              	.LASF34:
 14269 180d 45585444 		.ascii	"EXTD_MSG_SECURITY_REQ\000"
 14269      5F4D5347 
 14269      5F534543 
 14269      55524954 
 14269      595F5245 
 14270              	.LASF644:
 14271 1823 4343475F 		.ascii	"CCG_STAT_NOT_READY\000"
 14271      53544154 
 14271      5F4E4F54 
 14271      5F524541 
 14271      445900
 14272              	.LASF317:
 14273 1836 636D645F 		.ascii	"cmd_type\000"
 14273      74797065 
 14273      00
 14274              	.LASF390:
 14275 183f 44505F43 		.ascii	"DP_CONFIG_VDO\000"
 14275      4F4E4649 
 14275      475F5644 
 14275      4F00
 14276              	.LASF474:
 14277 184d 7265715F 		.ascii	"req_status\000"
 14277      73746174 
 14277      757300
 14278              	.LASF629:
 14279 1858 64706D5F 		.ascii	"dpm_status_t\000"
 14279      73746174 
 14279      75735F74 
 14279      00
 14280              	.LASF21:
 14281 1865 73697A65 		.ascii	"sizetype\000"
 14281      74797065 
 14281      00
 14282              	.LASF305:
 14283 186e 52444F5F 		.ascii	"RDO_FIXED_VAR_GIVEBACK\000"
 14283      46495845 
 14283      445F5641 
 14283      525F4749 
 14283      56454241 
 14284              	.LASF686:
 14285 1885 7265635F 		.ascii	"rec_retry_cnt\000"
 14285      72657472 
 14285      795F636E 
 14285      7400
 14286              	.LASF632:
 14287 1893 4343475F 		.ascii	"CCG_STAT_FLASH_DATA_AVAILABLE\000"
ARM GAS  e:\temp\ccdoSeHU.s 			page 298


 14287      53544154 
 14287      5F464C41 
 14287      53485F44 
 14287      4154415F 
 14288              	.LASF571:
 14289 18b1 6375725F 		.ascii	"cur_src_pdo_count\000"
 14289      7372635F 
 14289      70646F5F 
 14289      636F756E 
 14289      7400
 14290              	.LASF546:
 14291 18c3 736E6B5F 		.ascii	"snk_pdo\000"
 14291      70646F00 
 14292              	.LASF492:
 14293 18cb 6170705F 		.ascii	"app_resp_cbk_t\000"
 14293      72657370 
 14293      5F63626B 
 14293      5F7400
 14294              	.LASF260:
 14295 18da 72737664 		.ascii	"rsvd1\000"
 14295      3100
 14296              	.LASF268:
 14297 18e0 72737664 		.ascii	"rsvd2\000"
 14297      3200
 14298              	.LASF361:
 14299 18e6 72737664 		.ascii	"rsvd3\000"
 14299      3300
 14300              	.LASF404:
 14301 18ec 72737664 		.ascii	"rsvd4\000"
 14301      3400
 14302              	.LASF6:
 14303 18f2 73686F72 		.ascii	"short unsigned int\000"
 14303      7420756E 
 14303      7369676E 
 14303      65642069 
 14303      6E7400
 14304              	.LASF2:
 14305 1905 7369676E 		.ascii	"signed char\000"
 14305      65642063 
 14305      68617200 
 14306              	.LASF648:
 14307 1911 4150505F 		.ascii	"APP_PORT_FAULT_NONE\000"
 14307      504F5254 
 14307      5F464155 
 14307      4C545F4E 
 14307      4F4E4500 
 14308              	.LASF748:
 14309 1925 676C5F64 		.ascii	"gl_dpm_port_type\000"
 14309      706D5F70 
 14309      6F72745F 
 14309      74797065 
 14309      00
 14310              	.LASF327:
 14311 1936 51435F34 		.ascii	"QC_4_0_DATA_VDO\000"
 14311      5F305F44 
 14311      4154415F 
 14311      56444F00 
ARM GAS  e:\temp\ccdoSeHU.s 			page 299


 14312              	.LASF405:
 14313 1946 52444F5F 		.ascii	"RDO_PPS\000"
 14313      50505300 
 14314              	.LASF218:
 14315 194e 4150505F 		.ascii	"APP_EVT_HARD_RESET_SENT\000"
 14315      4556545F 
 14315      48415244 
 14315      5F524553 
 14315      45545F53 
 14316              	.LASF625:
 14317 1966 706F7274 		.ascii	"port_status\000"
 14317      5F737461 
 14317      74757300 
 14318              	.LASF234:
 14319 1972 4150505F 		.ascii	"APP_EVT_TYPEC_ATTACH_WAIT_TO_UNATTACHED\000"
 14319      4556545F 
 14319      54595045 
 14319      435F4154 
 14319      54414348 
 14320              	.LASF736:
 14321 199a 73746174 		.ascii	"status\000"
 14321      757300
 14322              	.LASF591:
 14323 19a1 73706563 		.ascii	"spec_rev_cbl\000"
 14323      5F726576 
 14323      5F63626C 
 14323      00
 14324              	.LASF698:
 14325 19ae 706B745F 		.ascii	"pkt_ptr\000"
 14325      70747200 
 14326              	.LASF131:
 14327 19b6 43424C5F 		.ascii	"CBL_FSM_SEND_DSC_ID\000"
 14327      46534D5F 
 14327      53454E44 
 14327      5F445343 
 14327      5F494400 
 14328              	.LASF468:
 14329 19ca 62617474 		.ascii	"battery_input\000"
 14329      6572795F 
 14329      696E7075 
 14329      7400
 14330              	.LASF649:
 14331 19d8 4150505F 		.ascii	"APP_PORT_VCONN_FAULT_ACTIVE\000"
 14331      504F5254 
 14331      5F56434F 
 14331      4E4E5F46 
 14331      41554C54 
 14332              	.LASF709:
 14333 19f4 73617665 		.ascii	"save_svids\000"
 14333      5F737669 
 14333      647300
 14334              	.LASF651:
 14335 19ff 4150505F 		.ascii	"APP_PORT_SRC_FAULT_ACTIVE\000"
 14335      504F5254 
 14335      5F535243 
 14335      5F464155 
 14335      4C545F41 
ARM GAS  e:\temp\ccdoSeHU.s 			page 300


 14336              	.LASF663:
 14337 1a19 56444D5F 		.ascii	"VDM_EVT_RUN\000"
 14337      4556545F 
 14337      52554E00 
 14338              	.LASF727:
 14339 1a25 76646D5F 		.ascii	"vdm_task_mngr_init\000"
 14339      7461736B 
 14339      5F6D6E67 
 14339      725F696E 
 14339      697400
 14340              	.LASF483:
 14341 1a38 6E6F5F6F 		.ascii	"no_of_cmd_do\000"
 14341      665F636D 
 14341      645F646F 
 14341      00
 14342              	.LASF752:
 14343 1a45 74696D65 		.ascii	"timer_stop\000"
 14343      725F7374 
 14343      6F7000
 14344              	.LASF117:
 14345 1a50 50524F44 		.ascii	"PROD_TYPE_AMA\000"
 14345      5F545950 
 14345      455F414D 
 14345      4100
 14346              	.LASF297:
 14347 1a5e 52444F5F 		.ascii	"RDO_FIXED_VAR\000"
 14347      46495845 
 14347      445F5641 
 14347      5200
 14348              	.LASF109:
 14349 1a6c 434D445F 		.ascii	"CMD_TYPE_RESP_ACK\000"
 14349      54595045 
 14349      5F524553 
 14349      505F4143 
 14349      4B00
 14350              	.LASF670:
 14351 1a7e 7467745F 		.ascii	"tgt_svid\000"
 14351      73766964 
 14351      00
 14352              	.LASF382:
 14353 1a87 44505F53 		.ascii	"DP_STATUS_VDO\000"
 14353      54415455 
 14353      535F5644 
 14353      4F00
 14354              	.LASF590:
 14355 1a95 73706563 		.ascii	"spec_rev_sop_prime_live\000"
 14355      5F726576 
 14355      5F736F70 
 14355      5F707269 
 14355      6D655F6C 
 14356              	.LASF90:
 14357 1aad 64706D5F 		.ascii	"dpm_pd_cmd_t\000"
 14357      70645F63 
 14357      6D645F74 
 14357      00
 14358              	.LASF251:
 14359 1aba 73746174 		.ascii	"state\000"
ARM GAS  e:\temp\ccdoSeHU.s 			page 301


 14359      6500
 14360              	.LASF445:
 14361 1ac0 71635F34 		.ascii	"qc_4_0_data_vdo\000"
 14361      5F305F64 
 14361      6174615F 
 14361      76646F00 
 14362              	.LASF328:
 14363 1ad0 64617461 		.ascii	"data_0\000"
 14363      5F3000
 14364              	.LASF329:
 14365 1ad7 64617461 		.ascii	"data_1\000"
 14365      5F3100
 14366              	.LASF330:
 14367 1ade 64617461 		.ascii	"data_2\000"
 14367      5F3200
 14368              	.LASF331:
 14369 1ae5 64617461 		.ascii	"data_3\000"
 14369      5F3300
 14370              	.LASF595:
 14371 1aec 736E6B5F 		.ascii	"snk_rp_detach_en\000"
 14371      72705F64 
 14371      65746163 
 14371      685F656E 
 14371      00
 14372              	.LASF701:
 14373 1afd 736F705F 		.ascii	"sop_dp_soft_reset_cb\000"
 14373      64705F73 
 14373      6F66745F 
 14373      72657365 
 14373      745F6362 
 14374              	.LASF679:
 14375 1b12 54494D45 		.ascii	"TIMEOUT\000"
 14375      4F555400 
 14376              	.LASF250:
 14377 1b1a 76646D5F 		.ascii	"vdm_ams_t\000"
 14377      616D735F 
 14377      7400
 14378              	.LASF502:
 14379 1b24 76636F6E 		.ascii	"vconn_enable\000"
 14379      6E5F656E 
 14379      61626C65 
 14379      00
 14380              	.LASF488:
 14381 1b31 6375725F 		.ascii	"cur_pwr\000"
 14381      70777200 
 14382              	.LASF516:
 14383 1b39 6576616C 		.ascii	"eval_vconn_swap\000"
 14383      5F76636F 
 14383      6E6E5F73 
 14383      77617000 
 14384              	.LASF183:
 14385 1b49 50455F46 		.ascii	"PE_FSM_SR_RCVD\000"
 14385      534D5F53 
 14385      525F5243 
 14385      564400
 14386              	.LASF249:
 14387 1b58 56444D5F 		.ascii	"VDM_AMS_RESP_NOT_SUPP\000"
ARM GAS  e:\temp\ccdoSeHU.s 			page 302


 14387      414D535F 
 14387      52455350 
 14387      5F4E4F54 
 14387      5F535550 
 14388              	.LASF539:
 14389 1b6e 64625F73 		.ascii	"db_support\000"
 14389      7570706F 
 14389      727400
 14390              	.LASF442:
 14391 1b79 7374645F 		.ascii	"std_vdm_hdr\000"
 14391      76646D5F 
 14391      68647200 
 14392              	.LASF126:
 14393 1b85 43424C5F 		.ascii	"CBL_TERM_ONE_ACT_ONE_PAS_VCONN_REQ\000"
 14393      5445524D 
 14393      5F4F4E45 
 14393      5F414354 
 14393      5F4F4E45 
 14394              	.LASF463:
 14395 1ba8 736C6963 		.ascii	"slice_vdo\000"
 14395      655F7664 
 14395      6F00
 14396              	.LASF44:
 14397 1bb2 534F505F 		.ascii	"SOP_P_DEBUG\000"
 14397      505F4445 
 14397      42554700 
 14398              	.LASF158:
 14399 1bbe 50455F46 		.ascii	"PE_FSM_OFF\000"
 14399      534D5F4F 
 14399      464600
 14400              	.LASF441:
 14401 1bc9 72646F5F 		.ascii	"rdo_gen_gvb\000"
 14401      67656E5F 
 14401      67766200 
 14402              	.LASF303:
 14403 1bd5 6F626A5F 		.ascii	"obj_pos\000"
 14403      706F7300 
 14404              	.LASF513:
 14405 1bdd 6576616C 		.ascii	"eval_rdo\000"
 14405      5F72646F 
 14405      00
 14406              	.LASF758:
 14407 1be6 74696D65 		.ascii	"timer_is_running\000"
 14407      725F6973 
 14407      5F72756E 
 14407      6E696E67 
 14407      00
 14408              	.LASF206:
 14409 1bf7 4150505F 		.ascii	"APP_EVT_ALT_MODE\000"
 14409      4556545F 
 14409      414C545F 
 14409      4D4F4445 
 14409      00
 14410              	.LASF7:
 14411 1c08 6C6F6E67 		.ascii	"long int\000"
 14411      20696E74 
 14411      00
ARM GAS  e:\temp\ccdoSeHU.s 			page 303


 14412              	.LASF391:
 14413 1c11 73656C5F 		.ascii	"sel_conf\000"
 14413      636F6E66 
 14413      00
 14414              	.LASF593:
 14415 1c1a 756E6368 		.ascii	"unchunk_sup_live\000"
 14415      756E6B5F 
 14415      7375705F 
 14415      6C697665 
 14415      00
 14416              	.LASF324:
 14417 1c2b 55535444 		.ascii	"USTD_QC_4_0_HDR\000"
 14417      5F51435F 
 14417      345F305F 
 14417      48445200 
 14418              	.LASF655:
 14419 1c3b 56444D5F 		.ascii	"VDM_TASK_INIT\000"
 14419      5441534B 
 14419      5F494E49 
 14419      5400
 14420              	.LASF334:
 14421 1c49 70726F64 		.ascii	"prod_type_dfp\000"
 14421      5F747970 
 14421      655F6466 
 14421      7000
 14422              	.LASF661:
 14423 1c57 56444D5F 		.ascii	"VDM_TASK_ALT_MODE\000"
 14423      5441534B 
 14423      5F414C54 
 14423      5F4D4F44 
 14423      4500
 14424              	.LASF528:
 14425 1c69 736E6B5F 		.ascii	"snk_usb_comm_en\000"
 14425      7573625F 
 14425      636F6D6D 
 14425      5F656E00 
 14426              	.LASF732:
 14427 1c79 7365745F 		.ascii	"set_vdm_failed\000"
 14427      76646D5F 
 14427      6661696C 
 14427      656400
 14428              	.LASF221:
 14429 1c88 4150505F 		.ascii	"APP_EVT_PE_DISABLED\000"
 14429      4556545F 
 14429      50455F44 
 14429      49534142 
 14429      4C454400 
 14430              	.LASF695:
 14431 1c9c 73766964 		.ascii	"svid_arr\000"
 14431      5F617272 
 14431      00
 14432              	.LASF550:
 14433 1ca5 736E6B5F 		.ascii	"snk_cur_level\000"
 14433      6375725F 
 14433      6C657665 
 14433      6C00
 14434              	.LASF294:
ARM GAS  e:\temp\ccdoSeHU.s 			page 304


 14435 1cb3 5641525F 		.ascii	"VAR_SNK\000"
 14435      534E4B00 
 14436              	.LASF607:
 14437 1cbb 63626C5F 		.ascii	"cbl_vdo\000"
 14437      76646F00 
 14438              	.LASF605:
 14439 1cc3 636F6E74 		.ascii	"contract\000"
 14439      72616374 
 14439      00
 14440              	.LASF693:
 14441 1ccc 4341424C 		.ascii	"CABLE_DP_RESET_DONE\000"
 14441      455F4450 
 14441      5F524553 
 14441      45545F44 
 14441      4F4E4500 
 14442              	.LASF271:
 14443 1ce0 6D61785F 		.ascii	"max_current\000"
 14443      63757272 
 14443      656E7400 
 14444              	.LASF681:
 14445 1cec 6661696C 		.ascii	"fail_status_t\000"
 14445      5F737461 
 14445      7475735F 
 14445      7400
 14446              	.LASF16:
 14447 1cfa 75696E74 		.ascii	"uint32_t\000"
 14447      33325F74 
 14447      00
 14448              	.LASF374:
 14449 1d03 5354445F 		.ascii	"STD_DP_VDO\000"
 14449      44505F56 
 14449      444F00
 14450              	.LASF182:
 14451 1d0e 50455F46 		.ascii	"PE_FSM_SR_SEND\000"
 14451      534D5F53 
 14451      525F5345 
 14451      4E4400
 14452              	.LASF455:
 14453 1d1d 7374645F 		.ascii	"std_dp_vdo\000"
 14453      64705F76 
 14453      646F00
 14454              	.LASF240:
 14455 1d28 4150505F 		.ascii	"APP_EVT_PD_SINK_DEVICE_CONNECTED\000"
 14455      4556545F 
 14455      50445F53 
 14455      494E4B5F 
 14455      44455649 
 14456              	.LASF262:
 14457 1d49 6368756E 		.ascii	"chunk_no\000"
 14457      6B5F6E6F 
 14457      00
 14458              	.LASF745:
 14459 1d52 76646D5F 		.ascii	"vdm_disc_svid_resp_len\000"
 14459      64697363 
 14459      5F737669 
 14459      645F7265 
 14459      73705F6C 
ARM GAS  e:\temp\ccdoSeHU.s 			page 305


 14460              	.LASF20:
 14461 1d69 6C6F6E67 		.ascii	"long double\000"
 14461      20646F75 
 14461      626C6500 
 14462              	.LASF76:
 14463 1d75 44504D5F 		.ascii	"DPM_CMD_SEND_SOFT_RESET\000"
 14463      434D445F 
 14463      53454E44 
 14463      5F534F46 
 14463      545F5245 
 14464              	.LASF512:
 14465 1d8d 6576616C 		.ascii	"eval_src_cap\000"
 14465      5F737263 
 14465      5F636170 
 14465      00
 14466              	.LASF541:
 14467 1d9a 706F7274 		.ascii	"port_disable\000"
 14467      5F646973 
 14467      61626C65 
 14467      00
 14468              	.LASF164:
 14469 1da7 50455F46 		.ascii	"PE_FSM_HR_SNK_WAIT_VBUS_OFF\000"
 14469      534D5F48 
 14469      525F534E 
 14469      4B5F5741 
 14469      49545F56 
 14470              	.LASF55:
 14471 1dc3 5052545F 		.ascii	"PRT_TYPE_DFP\000"
 14471      54595045 
 14471      5F444650 
 14471      00
 14472              	.LASF433:
 14473 1dd0 66697865 		.ascii	"fixed_snk\000"
 14473      645F736E 
 14473      6B00
 14474              	.LASF9:
 14475 1dda 6C6F6E67 		.ascii	"long unsigned int\000"
 14475      20756E73 
 14475      69676E65 
 14475      6420696E 
 14475      7400
 14476              	.LASF419:
 14477 1dec 6C65675F 		.ascii	"leg_adpt\000"
 14477      61647074 
 14477      00
 14478              	.LASF102:
 14479 1df5 56444D5F 		.ascii	"VDM_CMD_DSC_MODES\000"
 14479      434D445F 
 14479      4453435F 
 14479      4D4F4445 
 14479      5300
 14480              	.LASF646:
 14481 1e07 4343475F 		.ascii	"CCG_STAT_TIMEOUT\000"
 14481      53544154 
 14481      5F54494D 
 14481      454F5554 
 14481      00
ARM GAS  e:\temp\ccdoSeHU.s 			page 306


 14482              	.LASF99:
 14483 1e18 56444D5F 		.ascii	"VDM_TYPE_STRUCTURED\000"
 14483      54595045 
 14483      5F535452 
 14483      55435455 
 14483      52454400 
 14484              	.LASF409:
 14485 1e2c 66697865 		.ascii	"fixed_bats\000"
 14485      645F6261 
 14485      747300
 14486              	.LASF244:
 14487 1e37 50445F41 		.ascii	"PD_AMS_INTR\000"
 14487      4D535F49 
 14487      4E545200 
 14488              	.LASF478:
 14489 1e43 6E6F5F72 		.ascii	"no_resp\000"
 14489      65737000 
 14490              	.LASF527:
 14491 1e4b 736E6B5F 		.ascii	"snk_usb_susp_en\000"
 14491      7573625F 
 14491      73757370 
 14491      5F656E00 
 14492              	.LASF412:
 14493 1e5b 7372635F 		.ascii	"src_input_change\000"
 14493      696E7075 
 14493      745F6368 
 14493      616E6765 
 14493      00
 14494              	.LASF106:
 14495 1e6c 56444D5F 		.ascii	"VDM_CMD_DP_STATUS_UPDT\000"
 14495      434D445F 
 14495      44505F53 
 14495      54415455 
 14495      535F5550 
 14496              	.LASF134:
 14497 1e83 44504D5F 		.ascii	"DPM_CMD_SET_RP_1_5A\000"
 14497      434D445F 
 14497      5345545F 
 14497      52505F31 
 14497      5F354100 
 14498              	.LASF734:
 14499 1e97 76646D5F 		.ascii	"vdm_retry_check\000"
 14499      72657472 
 14499      795F6368 
 14499      65636B00 
 14500              	.LASF740:
 14501 1ea7 72657370 		.ascii	"resp_len_p\000"
 14501      5F6C656E 
 14501      5F7000
 14502              	.LASF19:
 14503 1eb2 63686172 		.ascii	"char\000"
 14503      00
 14504              	.LASF423:
 14505 1eb7 534C4943 		.ascii	"SLICE_SUBHDR\000"
 14505      455F5355 
 14505      42484452 
 14505      00
ARM GAS  e:\temp\ccdoSeHU.s 			page 307


 14506              	.LASF325:
 14507 1ec4 636D645F 		.ascii	"cmd_0\000"
 14507      3000
 14508              	.LASF326:
 14509 1eca 636D645F 		.ascii	"cmd_1\000"
 14509      3100
 14510              	.LASF511:
 14511 1ed0 70736E6B 		.ascii	"psnk_disable\000"
 14511      5F646973 
 14511      61626C65 
 14511      00
 14512              	.LASF725:
 14513 1edd 656E6162 		.ascii	"enable_vdm_task_mngr\000"
 14513      6C655F76 
 14513      646D5F74 
 14513      61736B5F 
 14513      6D6E6772 
 14514              	.LASF608:
 14515 1ef2 63626C5F 		.ascii	"cbl_mode_en\000"
 14515      6D6F6465 
 14515      5F656E00 
 14516              	.LASF643:
 14517 1efe 4343475F 		.ascii	"CCG_STAT_READ_DATA\000"
 14517      53544154 
 14517      5F524541 
 14517      445F4441 
 14517      544100
 14518              	.LASF522:
 14519 1f11 706F7274 		.ascii	"port_role\000"
 14519      5F726F6C 
 14519      6500
 14520              	.LASF354:
 14521 1f1b 63626C5F 		.ascii	"cbl_latency\000"
 14521      6C617465 
 14521      6E637900 
 14522              	.LASF677:
 14523 1f27 42555359 		.ascii	"BUSY\000"
 14523      00
 14524              	.LASF130:
 14525 1f2c 43424C5F 		.ascii	"CBL_FSM_SEND_SOFT_RESET\000"
 14525      46534D5F 
 14525      53454E44 
 14525      5F534F46 
 14525      545F5245 
 14526              	.LASF447:
 14527 1f44 7374645F 		.ascii	"std_cert_vdo\000"
 14527      63657274 
 14527      5F76646F 
 14527      00
 14528              	.LASF604:
 14529 1f51 74797065 		.ascii	"typec_evt\000"
 14529      635F6576 
 14529      7400
 14530              	.LASF612:
 14531 1f5b 636D645F 		.ascii	"cmd_p\000"
 14531      7000
 14532              	.LASF282:
ARM GAS  e:\temp\ccdoSeHU.s 			page 308


 14533 1f61 5641525F 		.ascii	"VAR_SRC\000"
 14533      53524300 
 14534              	.LASF267:
 14535 1f69 42495354 		.ascii	"BIST_DO\000"
 14535      5F444F00 
 14536              	.LASF489:
 14537 1f71 636F6E74 		.ascii	"contract_t\000"
 14537      72616374 
 14537      5F7400
 14538              	.LASF128:
 14539 1f7c 43424C5F 		.ascii	"CBL_FSM_DISABLED\000"
 14539      46534D5F 
 14539      44495341 
 14539      424C4544 
 14539      00
 14540              	.LASF63:
 14541 1f8d 6170705F 		.ascii	"app_req_status_t\000"
 14541      7265715F 
 14541      73746174 
 14541      75735F74 
 14541      00
 14542              	.LASF411:
 14543 1f9e 6F705F63 		.ascii	"op_cond_change\000"
 14543      6F6E645F 
 14543      6368616E 
 14543      676500
 14544              	.LASF365:
 14545 1fad 76627573 		.ascii	"vbus_req\000"
 14545      5F726571 
 14545      00
 14546              	.LASF223:
 14547 1fb6 4150505F 		.ascii	"APP_EVT_VBUS_OVP_FAULT\000"
 14547      4556545F 
 14547      56425553 
 14547      5F4F5650 
 14547      5F464155 
 14548              	.LASF142:
 14549 1fcd 64706D5F 		.ascii	"dpm_typec_cmd_resp_t\000"
 14549      74797065 
 14549      635F636D 
 14549      645F7265 
 14549      73705F74 
 14550              	.LASF186:
 14551 1fe2 50455F46 		.ascii	"PE_FSM_SWAP_EVAL\000"
 14551      534D5F53 
 14551      5741505F 
 14551      4556414C 
 14551      00
 14552              	.LASF741:
 14553 1ff3 76646D5F 		.ascii	"vdm_get_disc_svid_resp\000"
 14553      6765745F 
 14553      64697363 
 14553      5F737669 
 14553      645F7265 
 14554              	.LASF717:
 14555 200a 6170695F 		.ascii	"api_stat\000"
 14555      73746174 
ARM GAS  e:\temp\ccdoSeHU.s 			page 309


 14555      00
 14556              	.LASF168:
 14557 2013 50455F46 		.ascii	"PE_FSM_SNK_STARTUP\000"
 14557      534D5F53 
 14557      4E4B5F53 
 14557      54415254 
 14557      555000
 14558              	.LASF141:
 14559 2026 44504D5F 		.ascii	"DPM_RESP_SUCCESS\000"
 14559      52455350 
 14559      5F535543 
 14559      43455353 
 14559      00
 14560              	.LASF237:
 14561 2037 4150505F 		.ascii	"APP_EVT_SBU_OVP\000"
 14561      4556545F 
 14561      5342555F 
 14561      4F565000 
 14562              	.LASF36:
 14563 2047 45585444 		.ascii	"EXTD_MSG_FW_UPDATE_REQ\000"
 14563      5F4D5347 
 14563      5F46575F 
 14563      55504441 
 14563      54455F52 
 14564              	.LASF429:
 14565 205e 66697865 		.ascii	"fixed_src\000"
 14565      645F7372 
 14565      6300
 14566              	.LASF688:
 14567 2068 64737669 		.ascii	"dsvid_cnt\000"
 14567      645F636E 
 14567      7400
 14568              	.LASF228:
 14569 2072 4150505F 		.ascii	"APP_EVT_FR_SWAP_COMPLETE\000"
 14569      4556545F 
 14569      46525F53 
 14569      5741505F 
 14569      434F4D50 
 14570              	.LASF103:
 14571 208b 56444D5F 		.ascii	"VDM_CMD_ENTER_MODE\000"
 14571      434D445F 
 14571      454E5445 
 14571      525F4D4F 
 14571      444500
 14572              	.LASF364:
 14573 209e 5354445F 		.ascii	"STD_AMA_VDO\000"
 14573      414D415F 
 14573      56444F00 
 14574              	.LASF363:
 14575 20aa 4143545F 		.ascii	"ACT_CBL_VDO\000"
 14575      43424C5F 
 14575      56444F00 
 14576              	.LASF567:
 14577 20b6 656D6361 		.ascii	"emca_present\000"
 14577      5F707265 
 14577      73656E74 
 14577      00
ARM GAS  e:\temp\ccdoSeHU.s 			page 310


 14578              	.LASF723:
 14579 20c3 7365745F 		.ascii	"set_task\000"
 14579      7461736B 
 14579      00
 14580              	.LASF163:
 14581 20cc 50455F46 		.ascii	"PE_FSM_HR_SNK_TRANS_DFLT\000"
 14581      534D5F48 
 14581      525F534E 
 14581      4B5F5452 
 14581      414E535F 
 14582              	.LASF440:
 14583 20e5 72646F5F 		.ascii	"rdo_gen\000"
 14583      67656E00 
 14584              	.LASF359:
 14585 20ed 5041535F 		.ascii	"PAS_CBL_VDO\000"
 14585      43424C5F 
 14585      56444F00 
 14586              	.LASF449:
 14587 20f9 7374645F 		.ascii	"std_cbl_vdo\000"
 14587      63626C5F 
 14587      76646F00 
 14588              	.LASF145:
 14589 2105 54595045 		.ascii	"TYPEC_FSM_ATTACH_WAIT\000"
 14589      435F4653 
 14589      4D5F4154 
 14589      54414348 
 14589      5F574149 
 14590              	.LASF190:
 14591 211b 50455F46 		.ascii	"PE_FSM_PRS_SRC_SNK_VBUS_OFF\000"
 14591      534D5F50 
 14591      52535F53 
 14591      52435F53 
 14591      4E4B5F56 
 14592              	.LASF201:
 14593 2137 4150505F 		.ascii	"APP_EVT_TYPE_C_ERROR_RECOVERY\000"
 14593      4556545F 
 14593      54595045 
 14593      5F435F45 
 14593      52524F52 
 14594              	.LASF623:
 14595 2155 7372635F 		.ascii	"src_cap_p\000"
 14595      6361705F 
 14595      7000
 14596              	.LASF668:
 14597 215f 7467745F 		.ascii	"tgt_id_header\000"
 14597      69645F68 
 14597      65616465 
 14597      7200
 14598              	.LASF381:
 14599 216d 72737664 		.ascii	"rsvd\000"
 14599      00
 14600              	.LASF689:
 14601 2172 76646D5F 		.ascii	"vdm_task_status_t\000"
 14601      7461736B 
 14601      5F737461 
 14601      7475735F 
 14601      7400
ARM GAS  e:\temp\ccdoSeHU.s 			page 311


 14602              	.LASF421:
 14603 2184 736C6963 		.ascii	"slice_mode\000"
 14603      655F6D6F 
 14603      646500
 14604              	.LASF700:
 14605 218f 6765745F 		.ascii	"get_msg\000"
 14605      6D736700 
 14606              	.LASF193:
 14607 2197 50455F46 		.ascii	"PE_FSM_PRS_SNK_SRC_VBUS_ON\000"
 14607      534D5F50 
 14607      52535F53 
 14607      4E4B5F53 
 14607      52435F56 
 14608              	.LASF674:
 14609 21b2 736F705F 		.ascii	"sop_type\000"
 14609      74797065 
 14609      00
 14610              	.LASF202:
 14611 21bb 4150505F 		.ascii	"APP_EVT_CONNECT\000"
 14611      4556545F 
 14611      434F4E4E 
 14611      45435400 
 14612              	.LASF481:
 14613 21cb 65787464 		.ascii	"extd_type\000"
 14613      5F747970 
 14613      6500
 14614              	.LASF18:
 14615 21d5 646F7562 		.ascii	"double\000"
 14615      6C6500
 14616              	.LASF86:
 14617 21dc 44504D5F 		.ascii	"DPM_CMD_SEND_BATT_STATUS\000"
 14617      434D445F 
 14617      53454E44 
 14617      5F424154 
 14617      545F5354 
 14618              	.LASF696:
 14619 21f5 706F7274 		.ascii	"port\000"
 14619      00
 14620              	.LASF518:
 14621 21fa 6576616C 		.ascii	"eval_fr_swap\000"
 14621      5F66725F 
 14621      73776170 
 14621      00
 14622              	.LASF578:
 14623 2207 64706D5F 		.ascii	"dpm_pd_cmd_active\000"
 14623      70645F63 
 14623      6D645F61 
 14623      63746976 
 14623      6500
 14624              	.LASF108:
 14625 2219 434D445F 		.ascii	"CMD_TYPE_INITIATOR\000"
 14625      54595045 
 14625      5F494E49 
 14625      54494154 
 14625      4F5200
 14626              	.LASF565:
 14627 222c 70645F64 		.ascii	"pd_disabled\000"
ARM GAS  e:\temp\ccdoSeHU.s 			page 312


 14627      69736162 
 14627      6C656400 
 14628              	.LASF704:
 14629 2238 70617273 		.ascii	"parse_vdm\000"
 14629      655F7664 
 14629      6D00
 14630              	.LASF621:
 14631 2242 736E6B5F 		.ascii	"snk_sel_pdo\000"
 14631      73656C5F 
 14631      70646F00 
 14632              	.LASF722:
 14633 224e 76646D5F 		.ascii	"vdm_task_mngr_deinit\000"
 14633      7461736B 
 14633      5F6D6E67 
 14633      725F6465 
 14633      696E6974 
 14634              	.LASF116:
 14635 2263 50524F44 		.ascii	"PROD_TYPE_ACT_CBL\000"
 14635      5F545950 
 14635      455F4143 
 14635      545F4342 
 14635      4C00
 14636              	.LASF214:
 14637 2275 4150505F 		.ascii	"APP_EVT_DR_SWAP_COMPLETE\000"
 14637      4556545F 
 14637      44525F53 
 14637      5741505F 
 14637      434F4D50 
 14638              	.LASF350:
 14639 228e 73737278 		.ascii	"ssrx1\000"
 14639      3100
 14640              	.LASF349:
 14641 2294 73737278 		.ascii	"ssrx2\000"
 14641      3200
 14642              	.LASF8:
 14643 229a 5F5F7569 		.ascii	"__uint32_t\000"
 14643      6E743332 
 14643      5F7400
 14644              	.LASF94:
 14645 22a5 4445565F 		.ascii	"DEV_AUD_ACC\000"
 14645      4155445F 
 14645      41434300 
 14646              	.LASF636:
 14647 22b1 4343475F 		.ascii	"CCG_STAT_INVALID_FW\000"
 14647      53544154 
 14647      5F494E56 
 14647      414C4944 
 14647      5F465700 
 14648              	.LASF568:
 14649 22c5 62697374 		.ascii	"bist_cm2_enabled\000"
 14649      5F636D32 
 14649      5F656E61 
 14649      626C6564 
 14649      00
 14650              	.LASF420:
 14651 22d6 534C4943 		.ascii	"SLICE_VDO\000"
 14651      455F5644 
ARM GAS  e:\temp\ccdoSeHU.s 			page 313


 14651      4F00
 14652              	.LASF333:
 14653 22e0 7573625F 		.ascii	"usb_vid\000"
 14653      76696400 
 14654              	.LASF425:
 14655 22e8 76646F5F 		.ascii	"vdo_cnt\000"
 14655      636E7400 
 14656              	.LASF110:
 14657 22f0 434D445F 		.ascii	"CMD_TYPE_RESP_NAK\000"
 14657      54595045 
 14657      5F524553 
 14657      505F4E41 
 14657      4B00
 14658              	.LASF551:
 14659 2302 626F6F74 		.ascii	"bootup\000"
 14659      757000
 14660              	.LASF750:
 14661 2309 6170705F 		.ascii	"app_get_status\000"
 14661      6765745F 
 14661      73746174 
 14661      757300
 14662              	.LASF58:
 14663 2318 5245515F 		.ascii	"REQ_SEND_HARD_RESET\000"
 14663      53454E44 
 14663      5F484152 
 14663      445F5245 
 14663      53455400 
 14664              	.LASF133:
 14665 232c 44504D5F 		.ascii	"DPM_CMD_SET_RP_DFLT\000"
 14665      434D445F 
 14665      5345545F 
 14665      52505F44 
 14665      464C5400 
 14666              	.LASF208:
 14667 2340 4150505F 		.ascii	"APP_EVT_BB\000"
 14667      4556545F 
 14667      424200
 14668              	.LASF78:
 14669 234b 44504D5F 		.ascii	"DPM_CMD_SEND_SOFT_RESET_EMCA\000"
 14669      434D445F 
 14669      53454E44 
 14669      5F534F46 
 14669      545F5245 
 14670              	.LASF256:
 14671 2368 7077725F 		.ascii	"pwr_role\000"
 14671      726F6C65 
 14671      00
 14672              	.LASF196:
 14673 2371 50455F46 		.ascii	"PE_FSM_READY\000"
 14673      534D5F52 
 14673      45414459 
 14673      00
 14674              	.LASF220:
 14675 237e 4150505F 		.ascii	"APP_EVT_CBL_RESET_SENT\000"
 14675      4556545F 
 14675      43424C5F 
 14675      52455345 
ARM GAS  e:\temp\ccdoSeHU.s 			page 314


 14675      545F5345 
 14676              	.LASF40:
 14677 2395 45585444 		.ascii	"EXTD_MSG_COUNTRY_CODES\000"
 14677      5F4D5347 
 14677      5F434F55 
 14677      4E545259 
 14677      5F434F44 
 14678              	.LASF301:
 14679 23ac 6361705F 		.ascii	"cap_mismatch\000"
 14679      6D69736D 
 14679      61746368 
 14679      00
 14680              	.LASF341:
 14681 23b9 5354445F 		.ascii	"STD_PROD_VDO\000"
 14681      50524F44 
 14681      5F56444F 
 14681      00
 14682              	.LASF135:
 14683 23c6 44504D5F 		.ascii	"DPM_CMD_SET_RP_3A\000"
 14683      434D445F 
 14683      5345545F 
 14683      52505F33 
 14683      4100
 14684              	.LASF211:
 14685 23d8 4150505F 		.ascii	"APP_EVT_HARD_RESET_COMPLETE\000"
 14685      4556545F 
 14685      48415244 
 14685      5F524553 
 14685      45545F43 
 14686              	.LASF720:
 14687 23f4 6765745F 		.ascii	"get_task\000"
 14687      7461736B 
 14687      00
 14688              	.LASF682:
 14689 23fd 76646D5F 		.ascii	"vdm_task\000"
 14689      7461736B 
 14689      00
 14690              	.LASF470:
 14691 2406 74656D70 		.ascii	"temp_status\000"
 14691      5F737461 
 14691      74757300 
 14692              	.LASF635:
 14693 2412 4343475F 		.ascii	"CCG_STAT_FLASH_UPDATE_FAILED\000"
 14693      53544154 
 14693      5F464C41 
 14693      53485F55 
 14693      50444154 
 14694              	.LASF101:
 14695 242f 56444D5F 		.ascii	"VDM_CMD_DSC_SVIDS\000"
 14695      434D445F 
 14695      4453435F 
 14695      53564944 
 14695      5300
 14696              	.LASF403:
 14697 2441 6375725F 		.ascii	"cur_fb\000"
 14697      666200
 14698              	.LASF473:
ARM GAS  e:\temp\ccdoSeHU.s 			page 315


 14699 2448 72657370 		.ascii	"resp_do\000"
 14699      5F646F00 
 14700              	.LASF533:
 14701 2450 736E6B5F 		.ascii	"snk_pdo_count\000"
 14701      70646F5F 
 14701      636F756E 
 14701      7400
 14702              	.LASF456:
 14703 245e 64705F73 		.ascii	"dp_stat_vdo\000"
 14703      7461745F 
 14703      76646F00 
 14704              	.LASF281:
 14705 246a 73757070 		.ascii	"supply_type\000"
 14705      6C795F74 
 14705      79706500 
 14706              	.LASF194:
 14707 2476 50455F46 		.ascii	"PE_FSM_FRS_CHECK_RP\000"
 14707      534D5F46 
 14707      52535F43 
 14707      4845434B 
 14707      5F525000 
 14708              	.LASF11:
 14709 248a 6C6F6E67 		.ascii	"long long unsigned int\000"
 14709      206C6F6E 
 14709      6720756E 
 14709      7369676E 
 14709      65642069 
 14710              	.LASF705:
 14711 24a1 7265635F 		.ascii	"rec_vdm\000"
 14711      76646D00 
 14712              	.LASF139:
 14713 24a9 64706D5F 		.ascii	"dpm_typec_cmd_t\000"
 14713      74797065 
 14713      635F636D 
 14713      645F7400 
 14714              	.LASF339:
 14715 24b9 5354445F 		.ascii	"STD_CERT_VDO\000"
 14715      43455254 
 14715      5F56444F 
 14715      00
 14716              	.LASF587:
 14717 24c6 63635F6F 		.ascii	"cc_old_status\000"
 14717      6C645F73 
 14717      74617475 
 14717      7300
 14718              	.LASF715:
 14719 24d4 73656E64 		.ascii	"send_sop_dp_soft_reset\000"
 14719      5F736F70 
 14719      5F64705F 
 14719      736F6674 
 14719      5F726573 
 14720              	.LASF292:
 14721 24eb 66725F73 		.ascii	"fr_swap\000"
 14721      77617000 
 14722              	.LASF562:
 14723 24f3 61747461 		.ascii	"attached_dev\000"
 14723      63686564 
ARM GAS  e:\temp\ccdoSeHU.s 			page 316


 14723      5F646576 
 14723      00
 14724              	.LASF585:
 14725 2500 63635F6C 		.ascii	"cc_live\000"
 14725      69766500 
 14726              	.LASF289:
 14727 2508 46495845 		.ascii	"FIXED_SNK\000"
 14727      445F534E 
 14727      4B00
 14728              	.LASF56:
 14729 2512 5052545F 		.ascii	"PRT_TYPE_DRP\000"
 14729      54595045 
 14729      5F445250 
 14729      00
 14730              	.LASF323:
 14731 251f 76646D5F 		.ascii	"vdm_ver\000"
 14731      76657200 
 14732              	.LASF510:
 14733 2527 70736E6B 		.ascii	"psnk_enable\000"
 14733      5F656E61 
 14733      626C6500 
 14734              	.LASF159:
 14735 2533 50455F46 		.ascii	"PE_FSM_HR_SEND\000"
 14735      534D5F48 
 14735      525F5345 
 14735      4E4400
 14736              	.LASF521:
 14737 2542 6170705F 		.ascii	"app_cbk_t\000"
 14737      63626B5F 
 14737      7400
 14738              	.LASF144:
 14739 254c 54595045 		.ascii	"TYPEC_FSM_ERR_RECOV\000"
 14739      435F4653 
 14739      4D5F4552 
 14739      525F5245 
 14739      434F5600 
 14740              	.LASF450:
 14741 2560 7061735F 		.ascii	"pas_cbl_vdo\000"
 14741      63626C5F 
 14741      76646F00 
 14742              	.LASF479:
 14743 256c 76646D5F 		.ascii	"vdm_resp_t\000"
 14743      72657370 
 14743      5F7400
 14744              	.LASF487:
 14745 2577 64706D5F 		.ascii	"dpm_pd_cmd_buf_t\000"
 14745      70645F63 
 14745      6D645F62 
 14745      75665F74 
 14745      00
 14746              	.LASF278:
 14747 2588 6578745F 		.ascii	"ext_powered\000"
 14747      706F7765 
 14747      72656400 
 14748              	.LASF397:
 14749 2594 6D696E5F 		.ascii	"min_volt\000"
 14749      766F6C74 
ARM GAS  e:\temp\ccdoSeHU.s 			page 317


 14749      00
 14750              	.LASF755:
 14751 259d 64706D5F 		.ascii	"dpm_pd_command\000"
 14751      70645F63 
 14751      6F6D6D61 
 14751      6E6400
 14752              	.LASF68:
 14753 25ac 5245535F 		.ascii	"RES_RCVD\000"
 14753      52435644 
 14753      00
 14754              	.LASF580:
 14755 25b5 64706D5F 		.ascii	"dpm_enabled\000"
 14755      656E6162 
 14755      6C656400 
 14756              	.LASF431:
 14757 25c1 6261745F 		.ascii	"bat_src\000"
 14757      73726300 
 14758              	.LASF300:
 14759 25c9 6E6F5F75 		.ascii	"no_usb_suspend\000"
 14759      73625F73 
 14759      75737065 
 14759      6E6400
 14760              	.LASF532:
 14761 25d8 7372635F 		.ascii	"src_pdo_mask\000"
 14761      70646F5F 
 14761      6D61736B 
 14761      00
 14762              	.LASF602:
 14763 25e5 70655F66 		.ascii	"pe_fsm_state\000"
 14763      736D5F73 
 14763      74617465 
 14763      00
 14764              	.LASF753:
 14765 25f2 69735F73 		.ascii	"is_svid_supported\000"
 14765      7669645F 
 14765      73757070 
 14765      6F727465 
 14765      6400
 14766              	.LASF594:
 14767 2604 756E6368 		.ascii	"unchunk_sup_peer\000"
 14767      756E6B5F 
 14767      7375705F 
 14767      70656572 
 14767      00
 14768              	.LASF370:
 14769 2615 5354445F 		.ascii	"STD_AMA_VDO_PD3\000"
 14769      414D415F 
 14769      56444F5F 
 14769      50443300 
 14770              	.LASF400:
 14771 2625 6170646F 		.ascii	"apdo_type\000"
 14771      5F747970 
 14771      6500
 14772              	.LASF22:
 14773 262f 50445F52 		.ascii	"PD_REV1\000"
 14773      45563100 
 14774              	.LASF23:
ARM GAS  e:\temp\ccdoSeHU.s 			page 318


 14775 2637 50445F52 		.ascii	"PD_REV2\000"
 14775      45563200 
 14776              	.LASF24:
 14777 263f 50445F52 		.ascii	"PD_REV3\000"
 14777      45563300 
 14778              	.LASF85:
 14779 2647 44504D5F 		.ascii	"DPM_CMD_GET_STATUS\000"
 14779      434D445F 
 14779      4745545F 
 14779      53544154 
 14779      555300
 14780              	.LASF537:
 14781 265a 7472795F 		.ascii	"try_src_snk\000"
 14781      7372635F 
 14781      736E6B00 
 14782              	.LASF524:
 14783 2666 7372635F 		.ascii	"src_cur_level\000"
 14783      6375725F 
 14783      6C657665 
 14783      6C00
 14784              	.LASF759:
 14785 2674 69735F61 		.ascii	"is_alt_mode_mngr_idle\000"
 14785      6C745F6D 
 14785      6F64655F 
 14785      6D6E6772 
 14785      5F69646C 
 14786              	.LASF129:
 14787 268a 43424C5F 		.ascii	"CBL_FSM_ENTRY\000"
 14787      46534D5F 
 14787      454E5452 
 14787      5900
 14788              	.LASF399:
 14789 2698 7070735F 		.ascii	"pps_pwr_limited\000"
 14789      7077725F 
 14789      6C696D69 
 14789      74656400 
 14790              	.LASF283:
 14791 26a8 6D696E5F 		.ascii	"min_voltage\000"
 14791      766F6C74 
 14791      61676500 
 14792              	.LASF716:
 14793 26b4 64706D5F 		.ascii	"dpm_cmd_param\000"
 14793      636D645F 
 14793      70617261 
 14793      6D00
 14794              	.LASF272:
 14795 26c2 766F6C74 		.ascii	"voltage\000"
 14795      61676500 
 14796              	.LASF574:
 14797 26ca 63626C5F 		.ascii	"cbl_state\000"
 14797      73746174 
 14797      6500
 14798              	.LASF712:
 14799 26d4 72657476 		.ascii	"retval\000"
 14799      616C00
 14800              	.LASF173:
 14801 26db 50455F46 		.ascii	"PE_FSM_SRC_WAIT_NEW_CAP\000"
ARM GAS  e:\temp\ccdoSeHU.s 			page 319


 14801      534D5F53 
 14801      52435F57 
 14801      4149545F 
 14801      4E45575F 
 14802              	.LASF33:
 14803 26f3 45585444 		.ascii	"EXTD_MSG_MANU_INFO\000"
 14803      5F4D5347 
 14803      5F4D414E 
 14803      555F494E 
 14803      464F00
 14804              	.LASF446:
 14805 2706 7374645F 		.ascii	"std_id_hdr\000"
 14805      69645F68 
 14805      647200
 14806              	.LASF737:
 14807 2711 72657370 		.ascii	"response\000"
 14807      6F6E7365 
 14807      00
 14808              	.LASF398:
 14809 271a 6D61785F 		.ascii	"max_volt\000"
 14809      766F6C74 
 14809      00
 14810              	.LASF435:
 14811 2723 6261745F 		.ascii	"bat_snk\000"
 14811      736E6B00 
 14812              	.LASF227:
 14813 272b 4150505F 		.ascii	"APP_EVT_TYPEC_STARTED\000"
 14813      4556545F 
 14813      54595045 
 14813      435F5354 
 14813      41525445 
 14814              	.LASF60:
 14815 2741 5245515F 		.ascii	"REQ_REJECT\000"
 14815      52454A45 
 14815      435400
 14816              	.LASF10:
 14817 274c 6C6F6E67 		.ascii	"long long int\000"
 14817      206C6F6E 
 14817      6720696E 
 14817      7400
 14818              	.LASF35:
 14819 275a 45585444 		.ascii	"EXTD_MSG_SECURITY_RESP\000"
 14819      5F4D5347 
 14819      5F534543 
 14819      55524954 
 14819      595F5245 
 14820              	.LASF290:
 14821 2771 6F705F63 		.ascii	"op_current\000"
 14821      75727265 
 14821      6E7400
 14822              	.LASF95:
 14823 277c 4445565F 		.ascii	"DEV_PWRD_ACC\000"
 14823      50575244 
 14823      5F414343 
 14823      00
 14824              	.LASF482:
 14825 2789 65787464 		.ascii	"extd_hdr\000"
ARM GAS  e:\temp\ccdoSeHU.s 			page 320


 14825      5F686472 
 14825      00
 14826              	.LASF82:
 14827 2792 44504D5F 		.ascii	"DPM_CMD_SEND_VDM\000"
 14827      434D445F 
 14827      53454E44 
 14827      5F56444D 
 14827      00
 14828              	.LASF659:
 14829 27a3 56444D5F 		.ascii	"VDM_TASK_EXIT\000"
 14829      5441534B 
 14829      5F455849 
 14829      5400
 14830              	.LASF386:
 14831 27b1 7573625F 		.ascii	"usb_cfg\000"
 14831      63666700 
 14832              	.LASF27:
 14833 27b9 45585444 		.ascii	"EXTD_MSG_SRC_CAP_EXTD\000"
 14833      5F4D5347 
 14833      5F535243 
 14833      5F434150 
 14833      5F455854 
 14834              	.LASF756:
 14835 27cf 76646D5F 		.ascii	"vdm_task_mngr_alt_mode_process\000"
 14835      7461736B 
 14835      5F6D6E67 
 14835      725F616C 
 14835      745F6D6F 
 14836              	.LASF346:
 14837 27ee 736F705F 		.ascii	"sop_dp\000"
 14837      647000
 14838              	.LASF30:
 14839 27f5 45585444 		.ascii	"EXTD_MSG_GET_BAT_STATUS\000"
 14839      5F4D5347 
 14839      5F474554 
 14839      5F424154 
 14839      5F535441 
 14840              	.LASF721:
 14841 280d 69735F76 		.ascii	"is_vdm_task_idle\000"
 14841      646D5F74 
 14841      61736B5F 
 14841      69646C65 
 14841      00
 14842              	.LASF47:
 14843 281e 4341424C 		.ascii	"CABLE_RESET\000"
 14843      455F5245 
 14843      53455400 
 14844              	.LASF284:
 14845 282a 6D61785F 		.ascii	"max_voltage\000"
 14845      766F6C74 
 14845      61676500 
 14846              	.LASF669:
 14847 2836 616D615F 		.ascii	"ama_vdo\000"
 14847      76646F00 
 14848              	.LASF464:
 14849 283e 736C6963 		.ascii	"slice_subhdr\000"
 14849      655F7375 
ARM GAS  e:\temp\ccdoSeHU.s 			page 321


 14849      62686472 
 14849      00
 14850              	.LASF678:
 14851 284b 474F4F44 		.ascii	"GOOD_CRC_NOT_RSVD\000"
 14851      5F435243 
 14851      5F4E4F54 
 14851      5F525356 
 14851      4400
 14852              	.LASF270:
 14853 285d 46495845 		.ascii	"FIXED_SRC\000"
 14853      445F5352 
 14853      4300
 14854              	.LASF136:
 14855 2867 44504D5F 		.ascii	"DPM_CMD_PORT_DISABLE\000"
 14855      434D445F 
 14855      504F5254 
 14855      5F444953 
 14855      41424C45 
 14856              	.LASF525:
 14857 287c 69735F73 		.ascii	"is_src_bat\000"
 14857      72635F62 
 14857      617400
 14858              	.LASF757:
 14859 2887 616C745F 		.ascii	"alt_mode_hw_deinit\000"
 14859      6D6F6465 
 14859      5F68775F 
 14859      6465696E 
 14859      697400
 14860              	.LASF246:
 14861 289a 56444D5F 		.ascii	"VDM_AMS_RESP_READY\000"
 14861      414D535F 
 14861      52455350 
 14861      5F524541 
 14861      445900
 14862              	.LASF238:
 14863 28ad 4150505F 		.ascii	"APP_EVT_ALERT_RECEIVED\000"
 14863      4556545F 
 14863      414C4552 
 14863      545F5245 
 14863      43454956 
 14864              	.LASF62:
 14865 28c4 5245515F 		.ascii	"REQ_NOT_SUPPORTED\000"
 14865      4E4F545F 
 14865      53555050 
 14865      4F525445 
 14865      4400
 14866              	.LASF287:
 14867 28d6 5352435F 		.ascii	"SRC_GEN\000"
 14867      47454E00 
 14868              	.LASF724:
 14869 28de 7461736B 		.ascii	"task\000"
 14869      00
 14870              	.LASF75:
 14871 28e3 44504D5F 		.ascii	"DPM_CMD_SEND_HARD_RESET\000"
 14871      434D445F 
 14871      53454E44 
 14871      5F484152 
ARM GAS  e:\temp\ccdoSeHU.s 			page 322


 14871      445F5245 
 14872              	.LASF600:
 14873 28fb 66725F74 		.ascii	"fr_tx_en_live\000"
 14873      785F656E 
 14873      5F6C6976 
 14873      6500
 14874              	.LASF288:
 14875 2909 6D61785F 		.ascii	"max_cur_power\000"
 14875      6375725F 
 14875      706F7765 
 14875      7200
 14876              	.LASF124:
 14877 2917 43424C5F 		.ascii	"CBL_TERM_BOTH_PAS_VCONN_NOT_REQ\000"
 14877      5445524D 
 14877      5F424F54 
 14877      485F5041 
 14877      535F5643 
 14878              	.LASF293:
 14879 2937 68696768 		.ascii	"high_cap\000"
 14879      5F636170 
 14879      00
 14880              	.LASF368:
 14881 2940 616D615F 		.ascii	"ama_fw_ver\000"
 14881      66775F76 
 14881      657200
 14882              	.LASF534:
 14883 294b 736E6B5F 		.ascii	"snk_pdo_mask\000"
 14883      70646F5F 
 14883      6D61736B 
 14883      00
 14884              	.LASF156:
 14885 2958 54595045 		.ascii	"TYPEC_FSM_MAX_STATES\000"
 14885      435F4653 
 14885      4D5F4D41 
 14885      585F5354 
 14885      41544553 
 14886              	.LASF177:
 14887 296d 50455F46 		.ascii	"PE_FSM_SRC_DISCOVERY\000"
 14887      534D5F53 
 14887      52435F44 
 14887      4953434F 
 14887      56455259 
 14888              	.LASF417:
 14889 2982 63626C5F 		.ascii	"cbl_type\000"
 14889      74797065 
 14889      00
 14890              	.LASF707:
 14891 298b 69735F76 		.ascii	"is_vdm_mngr_enabled\000"
 14891      646D5F6D 
 14891      6E67725F 
 14891      656E6162 
 14891      6C656400 
 14892              	.LASF307:
 14893 299f 52444F5F 		.ascii	"RDO_BAT\000"
 14893      42415400 
 14894              	.LASF322:
 14895 29a7 7365715F 		.ascii	"seq_num\000"
ARM GAS  e:\temp\ccdoSeHU.s 			page 323


 14895      6E756D00 
 14896              	.LASF413:
 14897 29af 5442545F 		.ascii	"TBT_VDO\000"
 14897      56444F00 
 14898              	.LASF153:
 14899 29b7 54595045 		.ascii	"TYPEC_FSM_DBG_ACC\000"
 14899      435F4653 
 14899      4D5F4442 
 14899      475F4143 
 14899      4300
 14900              	.LASF430:
 14901 29c9 7661725F 		.ascii	"var_src\000"
 14901      73726300 
 14902              	.LASF505:
 14903 29d1 76627573 		.ascii	"vbus_is_present\000"
 14903      5F69735F 
 14903      70726573 
 14903      656E7400 
 14904              	.LASF83:
 14905 29e1 44504D5F 		.ascii	"DPM_CMD_SEND_EXTENDED\000"
 14905      434D445F 
 14905      53454E44 
 14905      5F455854 
 14905      454E4445 
 14906              	.LASF0:
 14907 29f7 5F5F696E 		.ascii	"__int8_t\000"
 14907      74385F74 
 14907      00
 14908              	.LASF690:
 14909 2a00 4341424C 		.ascii	"CABLE_DP_RESET_IDLE\000"
 14909      455F4450 
 14909      5F524553 
 14909      45545F49 
 14909      444C4500 
 14910              	.LASF170:
 14911 2a14 50455F46 		.ascii	"PE_FSM_SNK_EVAL_CAP\000"
 14911      534D5F53 
 14911      4E4B5F45 
 14911      56414C5F 
 14911      43415000 
 14912              	.LASF573:
 14913 2a28 63626C5F 		.ascii	"cbl_wait\000"
 14913      77616974 
 14913      00
 14914              	.LASF611:
 14915 2a31 64706D5F 		.ascii	"dpm_typec_cbk\000"
 14915      74797065 
 14915      635F6362 
 14915      6B00
 14916              	.LASF610:
 14917 2a3f 64706D5F 		.ascii	"dpm_pd_cbk\000"
 14917      70645F63 
 14917      626B00
 14918              	.LASF504:
 14919 2a4a 76636F6E 		.ascii	"vconn_is_present\000"
 14919      6E5F6973 
 14919      5F707265 
ARM GAS  e:\temp\ccdoSeHU.s 			page 324


 14919      73656E74 
 14919      00
 14920              	.LASF388:
 14921 2a5b 6870645F 		.ascii	"hpd_state\000"
 14921      73746174 
 14921      6500
 14922              	.LASF69:
 14923 2a65 72657370 		.ascii	"resp_status_t\000"
 14923      5F737461 
 14923      7475735F 
 14923      7400
 14924              	.LASF335:
 14925 2a73 6D6F645F 		.ascii	"mod_support\000"
 14925      73757070 
 14925      6F727400 
 14926              	.LASF57:
 14927 2a7f 706F7274 		.ascii	"port_type_t\000"
 14927      5F747970 
 14927      655F7400 
 14928              	.LASF233:
 14929 2a8b 4150505F 		.ascii	"APP_EVT_TYPEC_ATTACH_WAIT\000"
 14929      4556545F 
 14929      54595045 
 14929      435F4154 
 14929      54414348 
 14930              	.LASF630:
 14931 2aa5 4343475F 		.ascii	"CCG_STAT_NO_RESPONSE\000"
 14931      53544154 
 14931      5F4E4F5F 
 14931      52455350 
 14931      4F4E5345 
 14932              	.LASF645:
 14933 2aba 4343475F 		.ascii	"CCG_STAT_BUSY\000"
 14933      53544154 
 14933      5F425553 
 14933      5900
 14934              	.LASF37:
 14935 2ac8 45585444 		.ascii	"EXTD_MSG_FW_UPDATE_RESP\000"
 14935      5F4D5347 
 14935      5F46575F 
 14935      55504441 
 14935      54455F52 
 14936              	.LASF12:
 14937 2ae0 756E7369 		.ascii	"unsigned int\000"
 14937      676E6564 
 14937      20696E74 
 14937      00
 14938              	.LASF100:
 14939 2aed 56444D5F 		.ascii	"VDM_CMD_DSC_IDENTITY\000"
 14939      434D445F 
 14939      4453435F 
 14939      4944454E 
 14939      54495459 
 14940              	.LASF699:
 14941 2b02 69735F73 		.ascii	"is_svid_stored\000"
 14941      7669645F 
 14941      73746F72 
ARM GAS  e:\temp\ccdoSeHU.s 			page 325


 14941      656400
 14942              	.LASF471:
 14943 2b11 64756D6D 		.ascii	"dummy\000"
 14943      7900
 14944              	.LASF46:
 14945 2b17 48415244 		.ascii	"HARD_RESET\000"
 14945      5F524553 
 14945      455400
 14946              	.LASF426:
 14947 2b22 6D756C74 		.ascii	"multi_part\000"
 14947      695F7061 
 14947      727400
 14948              	.LASF675:
 14949 2b2d 76646F5F 		.ascii	"vdo_numb\000"
 14949      6E756D62 
 14949      00
 14950              	.LASF356:
 14951 2b36 74797065 		.ascii	"typec_abc\000"
 14951      635F6162 
 14951      6300
 14952              	.LASF377:
 14953 2b40 72656365 		.ascii	"recep\000"
 14953      7000
 14954              	.LASF172:
 14955 2b46 50455F46 		.ascii	"PE_FSM_SRC_STARTUP\000"
 14955      534D5F53 
 14955      52435F53 
 14955      54415254 
 14955      555000
 14956              	.LASF652:
 14957 2b59 4150505F 		.ascii	"APP_PORT_VBUS_DROP_WAIT_ACTIVE\000"
 14957      504F5254 
 14957      5F564255 
 14957      535F4452 
 14957      4F505F57 
 14958              	.LASF4:
 14959 2b78 73686F72 		.ascii	"short int\000"
 14959      7420696E 
 14959      7400
 14960              	.LASF140:
 14961 2b82 44504D5F 		.ascii	"DPM_RESP_FAIL\000"
 14961      52455350 
 14961      5F464149 
 14961      4C00
 14962              	.LASF396:
 14963 2b90 6D61785F 		.ascii	"max_cur\000"
 14963      63757200 
 14964              	.LASF547:
 14965 2b98 736E6B5F 		.ascii	"snk_max_min\000"
 14965      6D61785F 
 14965      6D696E00 
 14966              	.LASF540:
 14967 2ba4 6572725F 		.ascii	"err_recov\000"
 14967      7265636F 
 14967      7600
 14968              	.LASF352:
 14969 2bae 73737478 		.ascii	"sstx1\000"
ARM GAS  e:\temp\ccdoSeHU.s 			page 326


 14969      3100
 14970              	.LASF351:
 14971 2bb4 73737478 		.ascii	"sstx2\000"
 14971      3200
 14972              	.LASF254:
 14973 2bba 64617461 		.ascii	"data_role\000"
 14973      5F726F6C 
 14973      6500
 14974              	.LASF561:
 14975 2bc4 726F6C65 		.ascii	"role_at_connect\000"
 14975      5F61745F 
 14975      636F6E6E 
 14975      65637400 
 14976              	.LASF31:
 14977 2bd4 45585444 		.ascii	"EXTD_MSG_BAT_CAP\000"
 14977      5F4D5347 
 14977      5F424154 
 14977      5F434150 
 14977      00
 14978              	.LASF105:
 14979 2be5 56444D5F 		.ascii	"VDM_CMD_ATTENTION\000"
 14979      434D445F 
 14979      41545445 
 14979      4E54494F 
 14979      4E00
 14980              	.LASF340:
 14981 2bf7 7573625F 		.ascii	"usb_xid\000"
 14981      78696400 
 14982              	.LASF596:
 14983 2bff 6E6F6E5F 		.ascii	"non_intr_response\000"
 14983      696E7472 
 14983      5F726573 
 14983      706F6E73 
 14983      6500
 14984              	.LASF517:
 14985 2c11 6576616C 		.ascii	"eval_vdm\000"
 14985      5F76646D 
 14985      00
 14986              	.LASF286:
 14987 2c1a 6D61785F 		.ascii	"max_power\000"
 14987      706F7765 
 14987      7200
 14988              	.LASF337:
 14989 2c24 7573625F 		.ascii	"usb_dev\000"
 14989      64657600 
 14990              	.LASF493:
 14991 2c2c 76646D5F 		.ascii	"vdm_resp_cbk_t\000"
 14991      72657370 
 14991      5F63626B 
 14991      5F7400
 14992              	.LASF66:
 14993 2c3b 5245535F 		.ascii	"RES_TIMEOUT\000"
 14993      54494D45 
 14993      4F555400 
 14994              	.LASF91:
 14995 2c47 4445565F 		.ascii	"DEV_SNK\000"
 14995      534E4B00 
ARM GAS  e:\temp\ccdoSeHU.s 			page 327


 14996              	.LASF213:
 14997 2c4f 4150505F 		.ascii	"APP_EVT_PR_SWAP_COMPLETE\000"
 14997      4556545F 
 14997      50525F53 
 14997      5741505F 
 14997      434F4D50 
 14998              	.LASF606:
 14999 2c68 616C6572 		.ascii	"alert\000"
 14999      7400
 15000              	.LASF763:
 15001 2c6e 74696D65 		.ascii	"timer_start\000"
 15001      725F7374 
 15001      61727400 
 15002              	.LASF555:
 15003 2c7a 736E6B5F 		.ascii	"snk_period\000"
 15003      70657269 
 15003      6F6400
 15004              	.LASF637:
 15005 2c85 4343475F 		.ascii	"CCG_STAT_INVALID_ARGUMENT\000"
 15005      53544154 
 15005      5F494E56 
 15005      414C4944 
 15005      5F415247 
 15006              		.ident	"GCC: (GNU Tools for ARM Embedded Processors) 5.4.1 20160609 (release) [ARM/embedded-5-bran
