ARM GAS  e:\temp\ccdoSeHU.s 			page 1


   1              		.syntax unified
   2              		.cpu cortex-m0
   3              		.fpu softvfp
   4              		.eabi_attribute 20, 1
   5              		.eabi_attribute 21, 1
   6              		.eabi_attribute 23, 3
   7              		.eabi_attribute 24, 1
   8              		.eabi_attribute 25, 1
   9              		.eabi_attribute 26, 1
  10              		.eabi_attribute 30, 1
  11              		.eabi_attribute 34, 0
  12              		.eabi_attribute 18, 4
  13              		.thumb
  14              		.syntax unified
  15              		.file	"vdm_task_mngr.c"
  16              		.text
  17              	.Ltext0:
  18              		.cfi_sections	.debug_frame
  19              		.section	.text.is_svid_stored,"ax",%progbits
  20              		.align	2
  21              		.code	16
  22              		.thumb_func
  23              		.type	is_svid_stored, %function
  24              	is_svid_stored:
  25              	.LFB40:
  26              		.file 1 "..\\src\\app\\alt_mode\\vdm_task_mngr.c"
   1:..\src\app\alt_mode/vdm_task_mngr.c **** /**
   2:..\src\app\alt_mode/vdm_task_mngr.c ****  * @file vdm_task_mngr.c
   3:..\src\app\alt_mode/vdm_task_mngr.c ****  *
   4:..\src\app\alt_mode/vdm_task_mngr.c ****  * @brief @{VDM task manager source file.@}
   5:..\src\app\alt_mode/vdm_task_mngr.c ****  *
   6:..\src\app\alt_mode/vdm_task_mngr.c ****  *******************************************************************************
   7:..\src\app\alt_mode/vdm_task_mngr.c ****  *
   8:..\src\app\alt_mode/vdm_task_mngr.c ****  * Copyright (2014-2018), Cypress Semiconductor Corporation or a subsidiary of
   9:..\src\app\alt_mode/vdm_task_mngr.c ****  * Cypress Semiconductor Corporation. All rights reserved.
  10:..\src\app\alt_mode/vdm_task_mngr.c ****  *
  11:..\src\app\alt_mode/vdm_task_mngr.c ****  * This software, including source code, documentation and related materials
  12:..\src\app\alt_mode/vdm_task_mngr.c ****  * (“Software”), is owned by Cypress Semiconductor Corporation or one of its
  13:..\src\app\alt_mode/vdm_task_mngr.c ****  * subsidiaries (“Cypress”) and is protected by and subject to worldwide patent
  14:..\src\app\alt_mode/vdm_task_mngr.c ****  * protection (United States and foreign), United States copyright laws and
  15:..\src\app\alt_mode/vdm_task_mngr.c ****  * international treaty provisions. Therefore, you may use this Software only
  16:..\src\app\alt_mode/vdm_task_mngr.c ****  * as provided in the license agreement accompanying the software package from
  17:..\src\app\alt_mode/vdm_task_mngr.c ****  * which you obtained this Software (“EULA”).
  18:..\src\app\alt_mode/vdm_task_mngr.c ****  *
  19:..\src\app\alt_mode/vdm_task_mngr.c ****  * If no EULA applies, Cypress hereby grants you a personal, nonexclusive,
  20:..\src\app\alt_mode/vdm_task_mngr.c ****  * non-transferable license to copy, modify, and compile the Software source
  21:..\src\app\alt_mode/vdm_task_mngr.c ****  * code solely for use in connection with Cypress’s integrated circuit
  22:..\src\app\alt_mode/vdm_task_mngr.c ****  * products. Any reproduction, modification, translation, compilation, or
  23:..\src\app\alt_mode/vdm_task_mngr.c ****  * representation of this Software except as specified above is prohibited
  24:..\src\app\alt_mode/vdm_task_mngr.c ****  * without the express written permission of Cypress. Disclaimer: THIS SOFTWARE
  25:..\src\app\alt_mode/vdm_task_mngr.c ****  * IS PROVIDED AS-IS, WITH NO WARRANTY OF ANY KIND, EXPRESS OR IMPLIED,
  26:..\src\app\alt_mode/vdm_task_mngr.c ****  * INCLUDING, BUT NOT LIMITED TO, NONINFRINGEMENT, IMPLIED WARRANTIES OF
  27:..\src\app\alt_mode/vdm_task_mngr.c ****  * MERCHANTABILITY AND FITNESS FOR A PARTICULAR PURPOSE. Cypress reserves the
  28:..\src\app\alt_mode/vdm_task_mngr.c ****  * right to make changes to the Software without notice. Cypress does not
  29:..\src\app\alt_mode/vdm_task_mngr.c ****  * assume any liability arising out of the application or use of the Software
  30:..\src\app\alt_mode/vdm_task_mngr.c ****  * or any product or circuit described in the Software. Cypress does not
  31:..\src\app\alt_mode/vdm_task_mngr.c ****  * authorize its products for use in any products where a malfunction or
ARM GAS  e:\temp\ccdoSeHU.s 			page 2


  32:..\src\app\alt_mode/vdm_task_mngr.c ****  * failure of the Cypress product may reasonably be expected to result in
  33:..\src\app\alt_mode/vdm_task_mngr.c ****  * significant property damage, injury or death (“High Risk Product”). By
  34:..\src\app\alt_mode/vdm_task_mngr.c ****  * including Cypress’s product in a High Risk Product, the manufacturer of such
  35:..\src\app\alt_mode/vdm_task_mngr.c ****  * system or application assumes all risk of such use and in doing so agrees to
  36:..\src\app\alt_mode/vdm_task_mngr.c ****  * indemnify Cypress against all liability.
  37:..\src\app\alt_mode/vdm_task_mngr.c ****  */
  38:..\src\app\alt_mode/vdm_task_mngr.c **** 
  39:..\src\app\alt_mode/vdm_task_mngr.c **** #include <vdm.h>
  40:..\src\app\alt_mode/vdm_task_mngr.c **** #include <pd.h>
  41:..\src\app\alt_mode/vdm_task_mngr.c **** #include <dpm.h>
  42:..\src\app\alt_mode/vdm_task_mngr.c **** #include <timer.h>
  43:..\src\app\alt_mode/vdm_task_mngr.c **** #include <app.h>
  44:..\src\app\alt_mode/vdm_task_mngr.c **** #include <alt_mode_hw.h>
  45:..\src\app\alt_mode/vdm_task_mngr.c **** #include <hpi.h>
  46:..\src\app\alt_mode/vdm_task_mngr.c **** #if ((DFP_ALT_MODE_SUPP) || (UFP_ALT_MODE_SUPP))
  47:..\src\app\alt_mode/vdm_task_mngr.c **** #include <vdm_task_mngr.h>
  48:..\src\app\alt_mode/vdm_task_mngr.c **** #include <alt_modes_mngr.h>
  49:..\src\app\alt_mode/vdm_task_mngr.c **** 
  50:..\src\app\alt_mode/vdm_task_mngr.c **** /**
  51:..\src\app\alt_mode/vdm_task_mngr.c ****  * @typedef vdm_task_status_t
  52:..\src\app\alt_mode/vdm_task_mngr.c ****  * @brief struct to hold vdm manager status
  53:..\src\app\alt_mode/vdm_task_mngr.c ****  */
  54:..\src\app\alt_mode/vdm_task_mngr.c **** typedef struct
  55:..\src\app\alt_mode/vdm_task_mngr.c **** {
  56:..\src\app\alt_mode/vdm_task_mngr.c ****     /* Current VDM manager state */
  57:..\src\app\alt_mode/vdm_task_mngr.c ****     vdm_task_t      vdm_task;
  58:..\src\app\alt_mode/vdm_task_mngr.c ****     /* Current VDM manager event */
  59:..\src\app\alt_mode/vdm_task_mngr.c ****     vdm_evt_t       vdm_evt;
  60:..\src\app\alt_mode/vdm_task_mngr.c ****     /* Info about cable, device/AMA */
  61:..\src\app\alt_mode/vdm_task_mngr.c ****     atch_tgt_info_t atch_tgt;
  62:..\src\app\alt_mode/vdm_task_mngr.c ****     /* Struct with received/sent VDM info */
  63:..\src\app\alt_mode/vdm_task_mngr.c ****     vdm_msg_info_t  vdm_msg;
  64:..\src\app\alt_mode/vdm_task_mngr.c ****     /* Sent/received VDM retry counters */
  65:..\src\app\alt_mode/vdm_task_mngr.c ****     uint8_t         rec_retry_cnt;
  66:..\src\app\alt_mode/vdm_task_mngr.c ****     /* Holds svid index if we have more than one Disc SVID response */
  67:..\src\app\alt_mode/vdm_task_mngr.c ****     uint8_t         svid_idx;
  68:..\src\app\alt_mode/vdm_task_mngr.c ****     /* Holds count of D_SVID requests sent. */
  69:..\src\app\alt_mode/vdm_task_mngr.c ****     uint8_t         dsvid_cnt;
  70:..\src\app\alt_mode/vdm_task_mngr.c **** }vdm_task_status_t;
  71:..\src\app\alt_mode/vdm_task_mngr.c **** 
  72:..\src\app\alt_mode/vdm_task_mngr.c **** #if VDM_RESP_QUERY_SUPPORTED
  73:..\src\app\alt_mode/vdm_task_mngr.c **** 
  74:..\src\app\alt_mode/vdm_task_mngr.c **** #define MAX_DISC_ID_RESP_LEN    (MAX_NO_OF_DO)
  75:..\src\app\alt_mode/vdm_task_mngr.c **** #define MAX_DISC_SVID_RESP_LEN  (18u)
  76:..\src\app\alt_mode/vdm_task_mngr.c **** 
  77:..\src\app\alt_mode/vdm_task_mngr.c **** /* Array to store the D_ID response received from the port partner. */
  78:..\src\app\alt_mode/vdm_task_mngr.c **** static uint32_t vdm_disc_id_resp[NO_OF_TYPEC_PORTS][MAX_DISC_ID_RESP_LEN];
  79:..\src\app\alt_mode/vdm_task_mngr.c **** static uint8_t  vdm_disc_id_resp_len[NO_OF_TYPEC_PORTS];
  80:..\src\app\alt_mode/vdm_task_mngr.c **** 
  81:..\src\app\alt_mode/vdm_task_mngr.c **** /* Array to store the D_SVID response received from the port partner. */
  82:..\src\app\alt_mode/vdm_task_mngr.c **** static uint32_t vdm_disc_svid_resp[NO_OF_TYPEC_PORTS][MAX_DISC_SVID_RESP_LEN];
  83:..\src\app\alt_mode/vdm_task_mngr.c **** static uint8_t  vdm_disc_svid_resp_len[NO_OF_TYPEC_PORTS];
  84:..\src\app\alt_mode/vdm_task_mngr.c **** 
  85:..\src\app\alt_mode/vdm_task_mngr.c **** #endif /* VDM_RESP_QUERY_SUPPORTED */
  86:..\src\app\alt_mode/vdm_task_mngr.c **** 
  87:..\src\app\alt_mode/vdm_task_mngr.c **** /* Main structure to hold variables for VDM task manager */
  88:..\src\app\alt_mode/vdm_task_mngr.c **** vdm_task_status_t vdm_stat[NO_OF_TYPEC_PORTS];
ARM GAS  e:\temp\ccdoSeHU.s 			page 3


  89:..\src\app\alt_mode/vdm_task_mngr.c **** 
  90:..\src\app\alt_mode/vdm_task_mngr.c **** /* Init VDM task mngr */
  91:..\src\app\alt_mode/vdm_task_mngr.c **** static vdm_task_t vdm_task_mngr_init(uint8_t port);
  92:..\src\app\alt_mode/vdm_task_mngr.c **** 
  93:..\src\app\alt_mode/vdm_task_mngr.c **** #if ((DFP_ALT_MODE_SUPP) || (UFP_MODE_DISC_ENABLE))
  94:..\src\app\alt_mode/vdm_task_mngr.c **** /* Discover ID cmd handler */
  95:..\src\app\alt_mode/vdm_task_mngr.c **** static vdm_task_t vdm_task_mng_disc_id(uint8_t port, vdm_evt_t vdm_evt);
  96:..\src\app\alt_mode/vdm_task_mngr.c **** /* Discovery SVID cmd handler */
  97:..\src\app\alt_mode/vdm_task_mngr.c **** static vdm_task_t vdm_task_mng_disc_svid(uint8_t port, vdm_evt_t vdm_evt);
  98:..\src\app\alt_mode/vdm_task_mngr.c **** #endif /* ((DFP_ALT_MODE_SUPP) || (UFP_MODE_DISC_ENABLE)) */
  99:..\src\app\alt_mode/vdm_task_mngr.c **** 
 100:..\src\app\alt_mode/vdm_task_mngr.c **** /* Sets recevied VDM response command as failed */
 101:..\src\app\alt_mode/vdm_task_mngr.c **** static void set_vdm_failed(uint8_t port, fail_status_t fail_stat);
 102:..\src\app\alt_mode/vdm_task_mngr.c **** /* Check VDM retries */
 103:..\src\app\alt_mode/vdm_task_mngr.c **** static bool vdm_retry_check(uint8_t port, fail_status_t fail_stat);
 104:..\src\app\alt_mode/vdm_task_mngr.c **** /* Parses received VDM resp to vdm_msg_info_t struct */
 105:..\src\app\alt_mode/vdm_task_mngr.c **** static uint8_t parse_vdm(uint8_t port, const pd_packet_t* rec_vdm);
 106:..\src\app\alt_mode/vdm_task_mngr.c **** /* Callback function for sent VDM */
 107:..\src\app\alt_mode/vdm_task_mngr.c **** static void vdm_rec_cbk(uint8_t port, resp_status_t status, const pd_packet_t *rec_vdm);
 108:..\src\app\alt_mode/vdm_task_mngr.c **** /* Function to send VDM */
 109:..\src\app\alt_mode/vdm_task_mngr.c **** static vdm_task_t send_vdm(uint8_t port);
 110:..\src\app\alt_mode/vdm_task_mngr.c **** /* Checks if VDM mngr is enabled */
 111:..\src\app\alt_mode/vdm_task_mngr.c **** static bool is_vdm_mngr_enabled(uint8_t port);
 112:..\src\app\alt_mode/vdm_task_mngr.c **** /* Returns pointer to vdm_msg_info_t struct */
 113:..\src\app\alt_mode/vdm_task_mngr.c **** static vdm_msg_info_t* get_msg(uint8_t port);
 114:..\src\app\alt_mode/vdm_task_mngr.c **** /* Composes vdm_msg_info_t data to dpm_pd_cmd_buf_t struct */
 115:..\src\app\alt_mode/vdm_task_mngr.c **** static uint8_t compose_vdm(uint8_t port);
 116:..\src\app\alt_mode/vdm_task_mngr.c **** /* Reset vdm mngr info */
 117:..\src\app\alt_mode/vdm_task_mngr.c **** static void reset_vdm_mngr(uint8_t port);
 118:..\src\app\alt_mode/vdm_task_mngr.c **** 
 119:..\src\app\alt_mode/vdm_task_mngr.c **** /* VDM field set/get functions. */
 120:..\src\app\alt_mode/vdm_task_mngr.c **** vdm_evt_t get_evt(uint8_t port);
 121:..\src\app\alt_mode/vdm_task_mngr.c **** vdm_task_t get_task(uint8_t port);
 122:..\src\app\alt_mode/vdm_task_mngr.c **** void set_task(uint8_t port, vdm_task_t task);
 123:..\src\app\alt_mode/vdm_task_mngr.c **** void set_evt(uint8_t port, vdm_evt_t evt);
 124:..\src\app\alt_mode/vdm_task_mngr.c **** 
 125:..\src\app\alt_mode/vdm_task_mngr.c **** /**
 126:..\src\app\alt_mode/vdm_task_mngr.c ****    @typedef cable_dp_reset_state_t
 127:..\src\app\alt_mode/vdm_task_mngr.c ****    @brief Enumeration tracking current cable (SOP'') soft reset state.
 128:..\src\app\alt_mode/vdm_task_mngr.c ****  */
 129:..\src\app\alt_mode/vdm_task_mngr.c **** typedef enum {
 130:..\src\app\alt_mode/vdm_task_mngr.c ****     CABLE_DP_RESET_IDLE = 0,    /**< No Cable (SOP'') reset state. */
 131:..\src\app\alt_mode/vdm_task_mngr.c ****     CABLE_DP_RESET_WAIT,        /**< Waiting for response from cable (SOP'') soft reset. */
 132:..\src\app\alt_mode/vdm_task_mngr.c ****     CABLE_DP_RESET_RETRY,       /**< Cable soft reset (SOP'') to be attempted. */
 133:..\src\app\alt_mode/vdm_task_mngr.c ****     CABLE_DP_RESET_DONE         /**< Cable soft reset (SOP'') has been completed. */
 134:..\src\app\alt_mode/vdm_task_mngr.c **** } cable_dp_reset_state_t;
 135:..\src\app\alt_mode/vdm_task_mngr.c **** 
 136:..\src\app\alt_mode/vdm_task_mngr.c **** /* Maximum number of EMCA SOFT_RESET attempts to be made. */
 137:..\src\app\alt_mode/vdm_task_mngr.c **** #define MAX_EMCA_DP_RESET_COUNT         (3u)
 138:..\src\app\alt_mode/vdm_task_mngr.c **** 
 139:..\src\app\alt_mode/vdm_task_mngr.c **** static cable_dp_reset_state_t vdm_emca_rst_state[NO_OF_TYPEC_PORTS] = {
 140:..\src\app\alt_mode/vdm_task_mngr.c ****     CABLE_DP_RESET_IDLE
 141:..\src\app\alt_mode/vdm_task_mngr.c **** #if (NO_OF_TYPEC_PORTS > 1)
 142:..\src\app\alt_mode/vdm_task_mngr.c ****     ,
 143:..\src\app\alt_mode/vdm_task_mngr.c ****     CABLE_DP_RESET_IDLE
 144:..\src\app\alt_mode/vdm_task_mngr.c **** #endif /* (NO_OF_TYPEC_PORTS > 1) */
 145:..\src\app\alt_mode/vdm_task_mngr.c **** };
ARM GAS  e:\temp\ccdoSeHU.s 			page 4


 146:..\src\app\alt_mode/vdm_task_mngr.c **** 
 147:..\src\app\alt_mode/vdm_task_mngr.c **** static uint8_t vdm_emca_rst_count[NO_OF_TYPEC_PORTS] = {
 148:..\src\app\alt_mode/vdm_task_mngr.c ****     0
 149:..\src\app\alt_mode/vdm_task_mngr.c **** #if (NO_OF_TYPEC_PORTS > 1)
 150:..\src\app\alt_mode/vdm_task_mngr.c ****     ,
 151:..\src\app\alt_mode/vdm_task_mngr.c ****     0
 152:..\src\app\alt_mode/vdm_task_mngr.c **** #endif /* (NO_OF_TYPEC_PORTS > 1) */
 153:..\src\app\alt_mode/vdm_task_mngr.c **** };
 154:..\src\app\alt_mode/vdm_task_mngr.c **** 
 155:..\src\app\alt_mode/vdm_task_mngr.c **** void enable_vdm_task_mngr(uint8_t port)
 156:..\src\app\alt_mode/vdm_task_mngr.c **** {
 157:..\src\app\alt_mode/vdm_task_mngr.c ****     /* If the VDM Task is already running, do nothing. */
 158:..\src\app\alt_mode/vdm_task_mngr.c ****     if (app_get_status(port)->vdm_task_en == false)
 159:..\src\app\alt_mode/vdm_task_mngr.c ****     {
 160:..\src\app\alt_mode/vdm_task_mngr.c ****         set_task(port, VDM_TASK_INIT);
 161:..\src\app\alt_mode/vdm_task_mngr.c ****         app_get_status(port)->vdm_task_en = true;
 162:..\src\app\alt_mode/vdm_task_mngr.c ****         app_get_status(port)->vdm_prcs_failed = false;
 163:..\src\app\alt_mode/vdm_task_mngr.c ****     }
 164:..\src\app\alt_mode/vdm_task_mngr.c **** }
 165:..\src\app\alt_mode/vdm_task_mngr.c **** 
 166:..\src\app\alt_mode/vdm_task_mngr.c **** static vdm_task_t vdm_task_mngr_init(uint8_t port)
 167:..\src\app\alt_mode/vdm_task_mngr.c **** {
 168:..\src\app\alt_mode/vdm_task_mngr.c ****     vdm_task_t ret = VDM_TASK_EXIT;
 169:..\src\app\alt_mode/vdm_task_mngr.c **** 
 170:..\src\app\alt_mode/vdm_task_mngr.c ****     /* Reset vdm mngr info */
 171:..\src\app\alt_mode/vdm_task_mngr.c ****     reset_vdm_mngr(port);
 172:..\src\app\alt_mode/vdm_task_mngr.c ****     set_evt(port, VDM_EVT_RUN);
 173:..\src\app\alt_mode/vdm_task_mngr.c **** 
 174:..\src\app\alt_mode/vdm_task_mngr.c **** #if CCG4_DOCK
 175:..\src\app\alt_mode/vdm_task_mngr.c ****     if (gl_dpm_port_type[port] != PRT_TYPE_UFP)
 176:..\src\app\alt_mode/vdm_task_mngr.c ****     {
 177:..\src\app\alt_mode/vdm_task_mngr.c ****         /* in CCG4 Dock US is UFP only, so it should not init D_ID */
 178:..\src\app\alt_mode/vdm_task_mngr.c ****         if(port == 0u) return VDM_TASK_EXIT;
 179:..\src\app\alt_mode/vdm_task_mngr.c ****     }
 180:..\src\app\alt_mode/vdm_task_mngr.c **** #endif /* CCG4_DOCK */
 181:..\src\app\alt_mode/vdm_task_mngr.c **** 
 182:..\src\app\alt_mode/vdm_task_mngr.c ****     if (get_alt_mode_numb(port) != false)
 183:..\src\app\alt_mode/vdm_task_mngr.c ****     {
 184:..\src\app\alt_mode/vdm_task_mngr.c ****         /* Check if current data role is DFP */
 185:..\src\app\alt_mode/vdm_task_mngr.c ****         if (gl_dpm_port_type[port] != PRT_TYPE_UFP)
 186:..\src\app\alt_mode/vdm_task_mngr.c ****         {
 187:..\src\app\alt_mode/vdm_task_mngr.c ****             ret = VDM_TASK_DISC_ID;
 188:..\src\app\alt_mode/vdm_task_mngr.c ****     }
 189:..\src\app\alt_mode/vdm_task_mngr.c ****         else
 190:..\src\app\alt_mode/vdm_task_mngr.c ****         {
 191:..\src\app\alt_mode/vdm_task_mngr.c ****             ret = VDM_TASK_REG_ATCH_TGT_INFO;
 192:..\src\app\alt_mode/vdm_task_mngr.c ****         }
 193:..\src\app\alt_mode/vdm_task_mngr.c ****     }
 194:..\src\app\alt_mode/vdm_task_mngr.c **** 
 195:..\src\app\alt_mode/vdm_task_mngr.c ****     return ret;
 196:..\src\app\alt_mode/vdm_task_mngr.c **** 
 197:..\src\app\alt_mode/vdm_task_mngr.c **** }
 198:..\src\app\alt_mode/vdm_task_mngr.c **** 
 199:..\src\app\alt_mode/vdm_task_mngr.c **** bool is_vdm_task_idle(uint8_t port)
 200:..\src\app\alt_mode/vdm_task_mngr.c **** {
 201:..\src\app\alt_mode/vdm_task_mngr.c ****     /*
 202:..\src\app\alt_mode/vdm_task_mngr.c ****        If VDM manager is enabled, check
ARM GAS  e:\temp\ccdoSeHU.s 			page 5


 203:..\src\app\alt_mode/vdm_task_mngr.c ****        1. Whether BUSY timer is running.
 204:..\src\app\alt_mode/vdm_task_mngr.c ****        2. Whether the ALT mode tasks are idle.
 205:..\src\app\alt_mode/vdm_task_mngr.c ****      */
 206:..\src\app\alt_mode/vdm_task_mngr.c ****     return !(is_vdm_mngr_enabled (port) &&
 207:..\src\app\alt_mode/vdm_task_mngr.c ****             ((timer_is_running (port, APP_VDM_BUSY_TIMER)) ||
 208:..\src\app\alt_mode/vdm_task_mngr.c ****              (get_task(port) != VDM_TASK_ALT_MODE) ||
 209:..\src\app\alt_mode/vdm_task_mngr.c ****              (is_alt_mode_mngr_idle(port) == false))
 210:..\src\app\alt_mode/vdm_task_mngr.c ****             );
 211:..\src\app\alt_mode/vdm_task_mngr.c **** }
 212:..\src\app\alt_mode/vdm_task_mngr.c **** 
 213:..\src\app\alt_mode/vdm_task_mngr.c **** void vdm_task_mngr(uint8_t port)
 214:..\src\app\alt_mode/vdm_task_mngr.c **** {
 215:..\src\app\alt_mode/vdm_task_mngr.c ****     /* The VDM task enabled check is performed by the caller. */
 216:..\src\app\alt_mode/vdm_task_mngr.c ****     if (
 217:..\src\app\alt_mode/vdm_task_mngr.c ****             (timer_is_running(port, APP_VDM_BUSY_TIMER) == true)
 218:..\src\app\alt_mode/vdm_task_mngr.c **** #if MUX_DELAY_EN			
 219:..\src\app\alt_mode/vdm_task_mngr.c **** 			|| (app_get_status(port)->is_mux_busy != false)
 220:..\src\app\alt_mode/vdm_task_mngr.c **** #endif /* MUX_DELAY_EN */			
 221:..\src\app\alt_mode/vdm_task_mngr.c ****        )
 222:..\src\app\alt_mode/vdm_task_mngr.c ****     {
 223:..\src\app\alt_mode/vdm_task_mngr.c ****         return;
 224:..\src\app\alt_mode/vdm_task_mngr.c ****     }
 225:..\src\app\alt_mode/vdm_task_mngr.c **** 
 226:..\src\app\alt_mode/vdm_task_mngr.c ****     /* Get current vdm task */
 227:..\src\app\alt_mode/vdm_task_mngr.c ****     switch (get_task(port))
 228:..\src\app\alt_mode/vdm_task_mngr.c ****     {
 229:..\src\app\alt_mode/vdm_task_mngr.c ****         case VDM_TASK_WAIT:
 230:..\src\app\alt_mode/vdm_task_mngr.c ****             break;
 231:..\src\app\alt_mode/vdm_task_mngr.c **** 
 232:..\src\app\alt_mode/vdm_task_mngr.c ****         case VDM_TASK_INIT:
 233:..\src\app\alt_mode/vdm_task_mngr.c ****             set_task(port, vdm_task_mngr_init(port));
 234:..\src\app\alt_mode/vdm_task_mngr.c ****             break;
 235:..\src\app\alt_mode/vdm_task_mngr.c **** 
 236:..\src\app\alt_mode/vdm_task_mngr.c **** #if ((DFP_ALT_MODE_SUPP) || (UFP_MODE_DISC_ENABLE))
 237:..\src\app\alt_mode/vdm_task_mngr.c ****         case VDM_TASK_DISC_ID:
 238:..\src\app\alt_mode/vdm_task_mngr.c ****             set_task(port, vdm_task_mng_disc_id(port, get_evt(port)));
 239:..\src\app\alt_mode/vdm_task_mngr.c ****             break;
 240:..\src\app\alt_mode/vdm_task_mngr.c **** 
 241:..\src\app\alt_mode/vdm_task_mngr.c ****         case VDM_TASK_DISC_SVID:
 242:..\src\app\alt_mode/vdm_task_mngr.c ****             set_task(port, vdm_task_mng_disc_svid(port, get_evt(port)));
 243:..\src\app\alt_mode/vdm_task_mngr.c ****             break;
 244:..\src\app\alt_mode/vdm_task_mngr.c **** #endif /* ((DFP_ALT_MODE_SUPP) || (UFP_MODE_DISC_ENABLE)) */
 245:..\src\app\alt_mode/vdm_task_mngr.c **** 
 246:..\src\app\alt_mode/vdm_task_mngr.c ****         case VDM_TASK_SEND_MSG:
 247:..\src\app\alt_mode/vdm_task_mngr.c ****             compose_vdm(port);
 248:..\src\app\alt_mode/vdm_task_mngr.c ****             set_task(port, send_vdm(port));
 249:..\src\app\alt_mode/vdm_task_mngr.c ****             break;
 250:..\src\app\alt_mode/vdm_task_mngr.c **** 
 251:..\src\app\alt_mode/vdm_task_mngr.c ****         case VDM_TASK_REG_ATCH_TGT_INFO:
 252:..\src\app\alt_mode/vdm_task_mngr.c ****             set_task(port, reg_alt_mode_mngr(port, &vdm_stat[port].atch_tgt, get_msg(port)));
 253:..\src\app\alt_mode/vdm_task_mngr.c ****             set_evt(port, VDM_EVT_RUN);
 254:..\src\app\alt_mode/vdm_task_mngr.c ****             break;
 255:..\src\app\alt_mode/vdm_task_mngr.c **** 
 256:..\src\app\alt_mode/vdm_task_mngr.c ****         case VDM_TASK_ALT_MODE:
 257:..\src\app\alt_mode/vdm_task_mngr.c ****             set_task(port, vdm_task_mngr_alt_mode_process(port, get_evt(port)));
 258:..\src\app\alt_mode/vdm_task_mngr.c ****             if ((get_task(port) == VDM_TASK_SEND_MSG) || (get_task(port) == VDM_TASK_ALT_MODE))
 259:..\src\app\alt_mode/vdm_task_mngr.c ****             {
ARM GAS  e:\temp\ccdoSeHU.s 			page 6


 260:..\src\app\alt_mode/vdm_task_mngr.c ****                 set_evt(port, VDM_EVT_RUN);
 261:..\src\app\alt_mode/vdm_task_mngr.c ****             }
 262:..\src\app\alt_mode/vdm_task_mngr.c ****             break;
 263:..\src\app\alt_mode/vdm_task_mngr.c **** 
 264:..\src\app\alt_mode/vdm_task_mngr.c ****         case VDM_TASK_EXIT:
 265:..\src\app\alt_mode/vdm_task_mngr.c ****             vdm_task_mngr_deinit(port);
 266:..\src\app\alt_mode/vdm_task_mngr.c ****             app_get_status(port)->vdm_prcs_failed = true;
 267:..\src\app\alt_mode/vdm_task_mngr.c ****             break;
 268:..\src\app\alt_mode/vdm_task_mngr.c **** 
 269:..\src\app\alt_mode/vdm_task_mngr.c ****         default:
 270:..\src\app\alt_mode/vdm_task_mngr.c ****             return;
 271:..\src\app\alt_mode/vdm_task_mngr.c **** 
 272:..\src\app\alt_mode/vdm_task_mngr.c ****     }
 273:..\src\app\alt_mode/vdm_task_mngr.c **** }
 274:..\src\app\alt_mode/vdm_task_mngr.c **** 
 275:..\src\app\alt_mode/vdm_task_mngr.c **** static bool vdm_retry_check(uint8_t port, fail_status_t fail_stat)
 276:..\src\app\alt_mode/vdm_task_mngr.c **** {
 277:..\src\app\alt_mode/vdm_task_mngr.c ****     (vdm_stat[port].rec_retry_cnt)++;
 278:..\src\app\alt_mode/vdm_task_mngr.c **** 
 279:..\src\app\alt_mode/vdm_task_mngr.c ****     /* If we don't receive response more than rec_retry_cnt notify that fail */
 280:..\src\app\alt_mode/vdm_task_mngr.c ****     if (vdm_stat[port].rec_retry_cnt > MAX_RETRY_CNT)
 281:..\src\app\alt_mode/vdm_task_mngr.c ****     {
 282:..\src\app\alt_mode/vdm_task_mngr.c ****         set_vdm_failed(port, fail_stat);
 283:..\src\app\alt_mode/vdm_task_mngr.c ****         return false;
 284:..\src\app\alt_mode/vdm_task_mngr.c ****     }
 285:..\src\app\alt_mode/vdm_task_mngr.c ****     /* Try to send msg again */
 286:..\src\app\alt_mode/vdm_task_mngr.c ****     set_task(port, VDM_TASK_SEND_MSG);
 287:..\src\app\alt_mode/vdm_task_mngr.c ****     /* Start a timer to delay the retry attempt. */
 288:..\src\app\alt_mode/vdm_task_mngr.c ****     timer_start(port, APP_VDM_BUSY_TIMER, APP_VDM_FAIL_RETRY_PERIOD, NULL);
 289:..\src\app\alt_mode/vdm_task_mngr.c ****     return true;
 290:..\src\app\alt_mode/vdm_task_mngr.c **** }
 291:..\src\app\alt_mode/vdm_task_mngr.c **** 
 292:..\src\app\alt_mode/vdm_task_mngr.c **** static void set_vdm_failed(uint8_t port, fail_status_t fail_stat)
 293:..\src\app\alt_mode/vdm_task_mngr.c **** {
 294:..\src\app\alt_mode/vdm_task_mngr.c ****     /* Reset retry counters */
 295:..\src\app\alt_mode/vdm_task_mngr.c ****     vdm_stat[port].rec_retry_cnt = 0;
 296:..\src\app\alt_mode/vdm_task_mngr.c ****     set_evt(port, VDM_EVT_FAIL);
 297:..\src\app\alt_mode/vdm_task_mngr.c ****     /* Set failed and save failed command */
 298:..\src\app\alt_mode/vdm_task_mngr.c ****     get_msg(port)->VDM_HDR.cmd = get_vdm_buff(port)->cmd_do->std_vdm_hdr.cmd;
 299:..\src\app\alt_mode/vdm_task_mngr.c ****     /* Save Failure code in the object position field */
 300:..\src\app\alt_mode/vdm_task_mngr.c ****     get_msg(port)->VDM_HDR.obj_pos = (uint32_t)fail_stat;
 301:..\src\app\alt_mode/vdm_task_mngr.c **** }
 302:..\src\app\alt_mode/vdm_task_mngr.c **** 
 303:..\src\app\alt_mode/vdm_task_mngr.c **** /* Received VDM callback */
 304:..\src\app\alt_mode/vdm_task_mngr.c **** static void vdm_rec_cbk(uint8_t port, resp_status_t status, const pd_packet_t* rec_vdm)
 305:..\src\app\alt_mode/vdm_task_mngr.c **** {
 306:..\src\app\alt_mode/vdm_task_mngr.c ****     uint32_t response;
 307:..\src\app\alt_mode/vdm_task_mngr.c ****     bool     run_task_flag = false;
 308:..\src\app\alt_mode/vdm_task_mngr.c **** 
 309:..\src\app\alt_mode/vdm_task_mngr.c ****     /* If response ACK */
 310:..\src\app\alt_mode/vdm_task_mngr.c ****     if (status == RES_RCVD)
 311:..\src\app\alt_mode/vdm_task_mngr.c ****     {
 312:..\src\app\alt_mode/vdm_task_mngr.c ****         /* Handle Standard VDM */
 313:..\src\app\alt_mode/vdm_task_mngr.c ****         if (rec_vdm->dat[VDM_HEADER_IDX].std_vdm_hdr.vdm_type == VDM_TYPE_STRUCTURED)
 314:..\src\app\alt_mode/vdm_task_mngr.c ****         {
 315:..\src\app\alt_mode/vdm_task_mngr.c ****             response = rec_vdm->dat[VDM_HEADER_IDX].std_vdm_hdr.cmd_type;
 316:..\src\app\alt_mode/vdm_task_mngr.c **** 
ARM GAS  e:\temp\ccdoSeHU.s 			page 7


 317:..\src\app\alt_mode/vdm_task_mngr.c **** #if CCG_PD_REV3_ENABLE
 318:..\src\app\alt_mode/vdm_task_mngr.c ****             if (rec_vdm->sop == SOP)
 319:..\src\app\alt_mode/vdm_task_mngr.c ****             {
 320:..\src\app\alt_mode/vdm_task_mngr.c ****                 app_get_status(port)->vdm_version =
 321:..\src\app\alt_mode/vdm_task_mngr.c ****                     GET_MIN (app_get_status(port)->vdm_version, rec_vdm->dat[VDM_HEADER_IDX].std_vd
 322:..\src\app\alt_mode/vdm_task_mngr.c ****             }
 323:..\src\app\alt_mode/vdm_task_mngr.c **** #endif /* CCG_PD_REV3_ENABLE */
 324:..\src\app\alt_mode/vdm_task_mngr.c **** 
 325:..\src\app\alt_mode/vdm_task_mngr.c ****             /* Actual response received. */
 326:..\src\app\alt_mode/vdm_task_mngr.c ****             switch (response)
 327:..\src\app\alt_mode/vdm_task_mngr.c ****             {
 328:..\src\app\alt_mode/vdm_task_mngr.c ****                 case CMD_TYPE_RESP_ACK:
 329:..\src\app\alt_mode/vdm_task_mngr.c ****                     {
 330:..\src\app\alt_mode/vdm_task_mngr.c ****                         /* Check if received response is expected. */
 331:..\src\app\alt_mode/vdm_task_mngr.c ****                         if ((rec_vdm->dat[VDM_HEADER_IDX].std_vdm_hdr.cmd) ==
 332:..\src\app\alt_mode/vdm_task_mngr.c ****                                 (get_vdm_buff(port)->cmd_do[VDM_HEADER_IDX].std_vdm_hdr.cmd))
 333:..\src\app\alt_mode/vdm_task_mngr.c ****                         {
 334:..\src\app\alt_mode/vdm_task_mngr.c ****                             parse_vdm(port, rec_vdm);
 335:..\src\app\alt_mode/vdm_task_mngr.c ****                             set_evt(port, VDM_EVT_EVAL);
 336:..\src\app\alt_mode/vdm_task_mngr.c **** 
 337:..\src\app\alt_mode/vdm_task_mngr.c ****                             /* Reset timer counter when ACK. */
 338:..\src\app\alt_mode/vdm_task_mngr.c ****                             vdm_stat[port].rec_retry_cnt = 0;
 339:..\src\app\alt_mode/vdm_task_mngr.c ****                         }
 340:..\src\app\alt_mode/vdm_task_mngr.c ****                         else
 341:..\src\app\alt_mode/vdm_task_mngr.c ****                         {
 342:..\src\app\alt_mode/vdm_task_mngr.c ****                             /* Set failed and save failed command */
 343:..\src\app\alt_mode/vdm_task_mngr.c ****                             set_vdm_failed(port, TIMEOUT);
 344:..\src\app\alt_mode/vdm_task_mngr.c ****                         }
 345:..\src\app\alt_mode/vdm_task_mngr.c **** 
 346:..\src\app\alt_mode/vdm_task_mngr.c ****                         /* Continue the state machine operation. */
 347:..\src\app\alt_mode/vdm_task_mngr.c ****                         run_task_flag = true;
 348:..\src\app\alt_mode/vdm_task_mngr.c ****                     }
 349:..\src\app\alt_mode/vdm_task_mngr.c ****                     break;
 350:..\src\app\alt_mode/vdm_task_mngr.c **** 
 351:..\src\app\alt_mode/vdm_task_mngr.c ****                 case CMD_TYPE_RESP_BUSY:
 352:..\src\app\alt_mode/vdm_task_mngr.c ****                     /* Target is BUSY. */
 353:..\src\app\alt_mode/vdm_task_mngr.c ****                     {
 354:..\src\app\alt_mode/vdm_task_mngr.c ****                         /* Check if command should be retried. We always have to continue task exec
 355:..\src\app\alt_mode/vdm_task_mngr.c ****                         vdm_stat[port].rec_retry_cnt++;
 356:..\src\app\alt_mode/vdm_task_mngr.c ****                         if (vdm_stat[port].rec_retry_cnt > MAX_RETRY_CNT)
 357:..\src\app\alt_mode/vdm_task_mngr.c ****                         {
 358:..\src\app\alt_mode/vdm_task_mngr.c ****                             set_vdm_failed(port, BUSY);
 359:..\src\app\alt_mode/vdm_task_mngr.c ****                             run_task_flag = true;
 360:..\src\app\alt_mode/vdm_task_mngr.c ****                         }
 361:..\src\app\alt_mode/vdm_task_mngr.c ****                         else
 362:..\src\app\alt_mode/vdm_task_mngr.c ****                         {
 363:..\src\app\alt_mode/vdm_task_mngr.c ****                             /* Try to send msg again */
 364:..\src\app\alt_mode/vdm_task_mngr.c ****                             set_task(port, VDM_TASK_SEND_MSG);
 365:..\src\app\alt_mode/vdm_task_mngr.c ****                             /* Start a timer. Command will be retried when timer expires. */
 366:..\src\app\alt_mode/vdm_task_mngr.c ****                             timer_start(port, APP_VDM_BUSY_TIMER, APP_VDM_BUSY_TIMER_PERIOD, NULL);
 367:..\src\app\alt_mode/vdm_task_mngr.c ****                         }
 368:..\src\app\alt_mode/vdm_task_mngr.c ****                     }
 369:..\src\app\alt_mode/vdm_task_mngr.c ****                     break;
 370:..\src\app\alt_mode/vdm_task_mngr.c ****                 default:
 371:..\src\app\alt_mode/vdm_task_mngr.c ****                     /* Target NAK-ed the message. */
 372:..\src\app\alt_mode/vdm_task_mngr.c ****                     {
 373:..\src\app\alt_mode/vdm_task_mngr.c ****                         /* Notify manager with failed event */
ARM GAS  e:\temp\ccdoSeHU.s 			page 8


 374:..\src\app\alt_mode/vdm_task_mngr.c ****                         set_vdm_failed(port, NACK);
 375:..\src\app\alt_mode/vdm_task_mngr.c ****                         run_task_flag = true;
 376:..\src\app\alt_mode/vdm_task_mngr.c ****                     }
 377:..\src\app\alt_mode/vdm_task_mngr.c ****                     break;
 378:..\src\app\alt_mode/vdm_task_mngr.c ****             }
 379:..\src\app\alt_mode/vdm_task_mngr.c ****         }
 380:..\src\app\alt_mode/vdm_task_mngr.c ****         /* Handle UVDM */
 381:..\src\app\alt_mode/vdm_task_mngr.c ****         else
 382:..\src\app\alt_mode/vdm_task_mngr.c ****         {
 383:..\src\app\alt_mode/vdm_task_mngr.c ****             parse_vdm(port, rec_vdm);
 384:..\src\app\alt_mode/vdm_task_mngr.c ****             set_evt(port, VDM_EVT_EVAL);
 385:..\src\app\alt_mode/vdm_task_mngr.c ****             /* Reset timer counter when ACK */
 386:..\src\app\alt_mode/vdm_task_mngr.c ****             vdm_stat[port].rec_retry_cnt = 0;
 387:..\src\app\alt_mode/vdm_task_mngr.c ****             run_task_flag = true;
 388:..\src\app\alt_mode/vdm_task_mngr.c ****         }
 389:..\src\app\alt_mode/vdm_task_mngr.c ****     }
 390:..\src\app\alt_mode/vdm_task_mngr.c ****     /* Attention related handler */
 391:..\src\app\alt_mode/vdm_task_mngr.c ****     else if (get_msg(port)->VDM_HDR.cmd == VDM_CMD_ATTENTION)
 392:..\src\app\alt_mode/vdm_task_mngr.c ****     {
 393:..\src\app\alt_mode/vdm_task_mngr.c ****         /* This statement need to notify alt mode that Attention VDM was successfuly sent */
 394:..\src\app\alt_mode/vdm_task_mngr.c ****         if ((status == CMD_SENT) && (get_task(port) == VDM_TASK_WAIT))
 395:..\src\app\alt_mode/vdm_task_mngr.c ****         {
 396:..\src\app\alt_mode/vdm_task_mngr.c ****             /* Start a timer. Command will be retried when timer expires. */
 397:..\src\app\alt_mode/vdm_task_mngr.c ****             timer_stop(port, APP_VDM_BUSY_TIMER);
 398:..\src\app\alt_mode/vdm_task_mngr.c ****             set_evt(port, VDM_EVT_EVAL);
 399:..\src\app\alt_mode/vdm_task_mngr.c ****             /* Reset retry counter */
 400:..\src\app\alt_mode/vdm_task_mngr.c ****             vdm_stat[port].rec_retry_cnt = 0;
 401:..\src\app\alt_mode/vdm_task_mngr.c ****             /* Continue the state machine operation. */
 402:..\src\app\alt_mode/vdm_task_mngr.c ****             run_task_flag = true;
 403:..\src\app\alt_mode/vdm_task_mngr.c ****         }
 404:..\src\app\alt_mode/vdm_task_mngr.c ****         else if (status == SEQ_ABORTED)
 405:..\src\app\alt_mode/vdm_task_mngr.c ****         {
 406:..\src\app\alt_mode/vdm_task_mngr.c ****             /* Try to send msg again */
 407:..\src\app\alt_mode/vdm_task_mngr.c ****             run_task_flag = true;
 408:..\src\app\alt_mode/vdm_task_mngr.c ****         }
 409:..\src\app\alt_mode/vdm_task_mngr.c ****     }
 410:..\src\app\alt_mode/vdm_task_mngr.c ****     else
 411:..\src\app\alt_mode/vdm_task_mngr.c ****     {
 412:..\src\app\alt_mode/vdm_task_mngr.c ****         /* Good CRC not received or no response (maybe corrupted packet). */
 413:..\src\app\alt_mode/vdm_task_mngr.c ****         if ((status == CMD_FAILED) || (status == RES_TIMEOUT))
 414:..\src\app\alt_mode/vdm_task_mngr.c ****         {
 415:..\src\app\alt_mode/vdm_task_mngr.c ****             /* Check for retries. If failure persists after all retries, go to exit. */
 416:..\src\app\alt_mode/vdm_task_mngr.c ****             if (vdm_retry_check (port, (fail_status_t)status) == false)
 417:..\src\app\alt_mode/vdm_task_mngr.c ****             {
 418:..\src\app\alt_mode/vdm_task_mngr.c ****                 run_task_flag = true;
 419:..\src\app\alt_mode/vdm_task_mngr.c ****             }
 420:..\src\app\alt_mode/vdm_task_mngr.c ****         }
 421:..\src\app\alt_mode/vdm_task_mngr.c ****         else
 422:..\src\app\alt_mode/vdm_task_mngr.c ****         {
 423:..\src\app\alt_mode/vdm_task_mngr.c ****             if (status == SEQ_ABORTED)
 424:..\src\app\alt_mode/vdm_task_mngr.c ****             {
 425:..\src\app\alt_mode/vdm_task_mngr.c ****                 /* Try to send msg again */
 426:..\src\app\alt_mode/vdm_task_mngr.c ****                 set_task(port, VDM_TASK_SEND_MSG);
 427:..\src\app\alt_mode/vdm_task_mngr.c ****             }
 428:..\src\app\alt_mode/vdm_task_mngr.c ****         }
 429:..\src\app\alt_mode/vdm_task_mngr.c ****     }
 430:..\src\app\alt_mode/vdm_task_mngr.c **** 
ARM GAS  e:\temp\ccdoSeHU.s 			page 9


 431:..\src\app\alt_mode/vdm_task_mngr.c ****     /* Check if we need run any task */
 432:..\src\app\alt_mode/vdm_task_mngr.c ****     if (run_task_flag == true)
 433:..\src\app\alt_mode/vdm_task_mngr.c ****     {
 434:..\src\app\alt_mode/vdm_task_mngr.c **** #if ((DFP_ALT_MODE_SUPP) || (UFP_MODE_DISC_ENABLE))
 435:..\src\app\alt_mode/vdm_task_mngr.c ****         switch (vdm_stat[port].vdm_msg.VDM_HDR.cmd)
 436:..\src\app\alt_mode/vdm_task_mngr.c ****         {
 437:..\src\app\alt_mode/vdm_task_mngr.c ****             case VDM_CMD_DSC_IDENTITY:
 438:..\src\app\alt_mode/vdm_task_mngr.c ****                 set_task(port, VDM_TASK_DISC_ID);
 439:..\src\app\alt_mode/vdm_task_mngr.c ****                 break;
 440:..\src\app\alt_mode/vdm_task_mngr.c ****             case VDM_CMD_DSC_SVIDS:
 441:..\src\app\alt_mode/vdm_task_mngr.c ****                 set_task(port, VDM_TASK_DISC_SVID);
 442:..\src\app\alt_mode/vdm_task_mngr.c ****                 break;
 443:..\src\app\alt_mode/vdm_task_mngr.c ****             default:
 444:..\src\app\alt_mode/vdm_task_mngr.c ****                 set_task(port, VDM_TASK_ALT_MODE);
 445:..\src\app\alt_mode/vdm_task_mngr.c ****                 break;
 446:..\src\app\alt_mode/vdm_task_mngr.c ****         }
 447:..\src\app\alt_mode/vdm_task_mngr.c **** #else /* ((DFP_ALT_MODE_SUPP) || (UFP_MODE_DISC_ENABLE)) */
 448:..\src\app\alt_mode/vdm_task_mngr.c ****         set_task(port, VDM_TASK_ALT_MODE);
 449:..\src\app\alt_mode/vdm_task_mngr.c **** #endif /* ((DFP_ALT_MODE_SUPP) || (UFP_MODE_DISC_ENABLE)) */
 450:..\src\app\alt_mode/vdm_task_mngr.c ****     }
 451:..\src\app\alt_mode/vdm_task_mngr.c **** }
 452:..\src\app\alt_mode/vdm_task_mngr.c **** 
 453:..\src\app\alt_mode/vdm_task_mngr.c **** #if ((DFP_ALT_MODE_SUPP) || (UFP_MODE_DISC_ENABLE))
 454:..\src\app\alt_mode/vdm_task_mngr.c **** 
 455:..\src\app\alt_mode/vdm_task_mngr.c **** static vdm_task_t vdm_task_mng_disc_id(uint8_t port, vdm_evt_t vdm_evt)
 456:..\src\app\alt_mode/vdm_task_mngr.c **** {
 457:..\src\app\alt_mode/vdm_task_mngr.c ****     vdm_msg_info_t *msg_p  = get_msg (port);
 458:..\src\app\alt_mode/vdm_task_mngr.c ****     vdm_task_t ret         = VDM_TASK_EXIT;
 459:..\src\app\alt_mode/vdm_task_mngr.c ****     const dpm_status_t *dpm_stat = dpm_get_info(port);
 460:..\src\app\alt_mode/vdm_task_mngr.c **** 
 461:..\src\app\alt_mode/vdm_task_mngr.c **** #if ((CCG_PD_REV3_ENABLE) && (UFP_ALT_MODE_SUPP) && (UFP_MODE_DISC_ENABLE))
 462:..\src\app\alt_mode/vdm_task_mngr.c ****     bool pd3_ufp = ((bool)(dpm_get_info(port)->spec_rev_sop_live >= PD_REV3) &&
 463:..\src\app\alt_mode/vdm_task_mngr.c ****             (gl_dpm_port_type[port] == PRT_TYPE_UFP));
 464:..\src\app\alt_mode/vdm_task_mngr.c **** #endif
 465:..\src\app\alt_mode/vdm_task_mngr.c **** 
 466:..\src\app\alt_mode/vdm_task_mngr.c ****     switch (vdm_evt)
 467:..\src\app\alt_mode/vdm_task_mngr.c ****     {
 468:..\src\app\alt_mode/vdm_task_mngr.c ****         case VDM_EVT_RUN:
 469:..\src\app\alt_mode/vdm_task_mngr.c ****             /* Form Discover ID VDM packet. */
 470:..\src\app\alt_mode/vdm_task_mngr.c ****             msg_p->vdm_header.val   = NO_DATA;
 471:..\src\app\alt_mode/vdm_task_mngr.c ****             msg_p->VDM_HDR.svid     = STD_SVID;
 472:..\src\app\alt_mode/vdm_task_mngr.c ****             msg_p->VDM_HDR.cmd      = VDM_CMD_DSC_IDENTITY;
 473:..\src\app\alt_mode/vdm_task_mngr.c ****             msg_p->vdo_numb         = NO_DATA;
 474:..\src\app\alt_mode/vdm_task_mngr.c ****             msg_p->sop_type         = SOP;
 475:..\src\app\alt_mode/vdm_task_mngr.c ****             msg_p->VDM_HDR.vdm_type = VDM_TYPE_STRUCTURED;
 476:..\src\app\alt_mode/vdm_task_mngr.c ****             ret                     = VDM_TASK_SEND_MSG;
 477:..\src\app\alt_mode/vdm_task_mngr.c ****             break;
 478:..\src\app\alt_mode/vdm_task_mngr.c **** 
 479:..\src\app\alt_mode/vdm_task_mngr.c ****             /* Evaluate received response */
 480:..\src\app\alt_mode/vdm_task_mngr.c ****         case VDM_EVT_EVAL:
 481:..\src\app\alt_mode/vdm_task_mngr.c ****             /* Check is current port date role DFP */
 482:..\src\app\alt_mode/vdm_task_mngr.c ****             if (gl_dpm_port_type[port] != PRT_TYPE_UFP)
 483:..\src\app\alt_mode/vdm_task_mngr.c ****             {
 484:..\src\app\alt_mode/vdm_task_mngr.c **** #if VDM_RESP_QUERY_SUPPORTED
 485:..\src\app\alt_mode/vdm_task_mngr.c ****                 /* Store the D_ID response received. */
 486:..\src\app\alt_mode/vdm_task_mngr.c ****                 vdm_disc_id_resp[port][0] = msg_p->vdm_header.val;
 487:..\src\app\alt_mode/vdm_task_mngr.c ****                 memcpy ((uint8_t *)&vdm_disc_id_resp[port][1], (uint8_t *)msg_p->vdo, msg_p->vdo_nu
ARM GAS  e:\temp\ccdoSeHU.s 			page 10


 488:..\src\app\alt_mode/vdm_task_mngr.c ****                 vdm_disc_id_resp_len[port] = msg_p->vdo_numb + 1;
 489:..\src\app\alt_mode/vdm_task_mngr.c **** #endif /* VDM_RESP_QUERY_SUPPORTED */
 490:..\src\app\alt_mode/vdm_task_mngr.c **** 
 491:..\src\app\alt_mode/vdm_task_mngr.c ****                 /* Set svid idx to zero before start DISC SVID */
 492:..\src\app\alt_mode/vdm_task_mngr.c ****                 vdm_stat[port].svid_idx  = NO_DATA;
 493:..\src\app\alt_mode/vdm_task_mngr.c ****                 vdm_stat[port].dsvid_cnt = 0;
 494:..\src\app\alt_mode/vdm_task_mngr.c **** 
 495:..\src\app\alt_mode/vdm_task_mngr.c ****                 /* Copy ID header to info struct */
 496:..\src\app\alt_mode/vdm_task_mngr.c ****                 vdm_stat[port].atch_tgt.ama_vdo.val = msg_p->vdo[PD_DISC_ID_AMA_VDO_IDX].val;
 497:..\src\app\alt_mode/vdm_task_mngr.c ****                 /* Copy AMA VDO to info struct */
 498:..\src\app\alt_mode/vdm_task_mngr.c ****                 vdm_stat[port].atch_tgt.tgt_id_header.val = msg_p->vdo[VDO_START_IDX - 1].val;
 499:..\src\app\alt_mode/vdm_task_mngr.c **** 
 500:..\src\app\alt_mode/vdm_task_mngr.c ****                 /* If AMA and cable (if present) do not need Vconn, disable VConn. */
 501:..\src\app\alt_mode/vdm_task_mngr.c ****                 if (
 502:..\src\app\alt_mode/vdm_task_mngr.c ****                         (dpm_stat->vconn_retain == 0) &&
 503:..\src\app\alt_mode/vdm_task_mngr.c ****                         ((msg_p->vdo[VDO_START_IDX - 1].std_id_hdr.prod_type != PROD_TYPE_AMA) ||
 504:..\src\app\alt_mode/vdm_task_mngr.c ****                             (msg_p->vdo[PD_DISC_ID_AMA_VDO_IDX].std_ama_vdo.vcon_req == 0)) &&
 505:..\src\app\alt_mode/vdm_task_mngr.c ****                         ((dpm_stat->emca_present == false) ||
 506:..\src\app\alt_mode/vdm_task_mngr.c ****                          (dpm_stat->cbl_vdo.std_cbl_vdo.cbl_term == CBL_TERM_BOTH_PAS_VCONN_NOT_REQ
 507:..\src\app\alt_mode/vdm_task_mngr.c ****                    )
 508:..\src\app\alt_mode/vdm_task_mngr.c ****                 {
 509:..\src\app\alt_mode/vdm_task_mngr.c ****                     vconn_disable(port, dpm_stat->rev_pol);
 510:..\src\app\alt_mode/vdm_task_mngr.c ****                 }
 511:..\src\app\alt_mode/vdm_task_mngr.c **** 
 512:..\src\app\alt_mode/vdm_task_mngr.c ****                 /* If alt modes not supported. */
 513:..\src\app\alt_mode/vdm_task_mngr.c ****                 if (msg_p->vdo[VDO_START_IDX - 1].std_id_hdr.mod_support == false)
 514:..\src\app\alt_mode/vdm_task_mngr.c ****                 {
 515:..\src\app\alt_mode/vdm_task_mngr.c ****                     break;
 516:..\src\app\alt_mode/vdm_task_mngr.c ****                 }
 517:..\src\app\alt_mode/vdm_task_mngr.c **** 
 518:..\src\app\alt_mode/vdm_task_mngr.c ****                 /* Send Disc SVID cmd */
 519:..\src\app\alt_mode/vdm_task_mngr.c ****                 set_evt(port, VDM_EVT_RUN);
 520:..\src\app\alt_mode/vdm_task_mngr.c ****                 ret = VDM_TASK_DISC_SVID;
 521:..\src\app\alt_mode/vdm_task_mngr.c ****             }
 522:..\src\app\alt_mode/vdm_task_mngr.c **** 
 523:..\src\app\alt_mode/vdm_task_mngr.c **** #if ((CCG_PD_REV3_ENABLE) && (UFP_ALT_MODE_SUPP) && (UFP_MODE_DISC_ENABLE))
 524:..\src\app\alt_mode/vdm_task_mngr.c ****             /* Check is current port date role UFP */
 525:..\src\app\alt_mode/vdm_task_mngr.c ****             if (pd3_ufp)
 526:..\src\app\alt_mode/vdm_task_mngr.c ****             {
 527:..\src\app\alt_mode/vdm_task_mngr.c ****                 /* Send Disc SVID cmd */
 528:..\src\app\alt_mode/vdm_task_mngr.c ****                 set_evt(port, VDM_EVT_RUN);
 529:..\src\app\alt_mode/vdm_task_mngr.c ****                 ret = VDM_TASK_DISC_SVID;
 530:..\src\app\alt_mode/vdm_task_mngr.c ****             }
 531:..\src\app\alt_mode/vdm_task_mngr.c **** #endif /* (CCG_PD_REV3_ENABLE) && (UFP_ALT_MODE_SUPP) && (UFP_MODE_DISC_ENABLE) */
 532:..\src\app\alt_mode/vdm_task_mngr.c ****             break;
 533:..\src\app\alt_mode/vdm_task_mngr.c **** 
 534:..\src\app\alt_mode/vdm_task_mngr.c **** #if ((CCG_PD_REV3_ENABLE) && (UFP_ALT_MODE_SUPP) && (UFP_MODE_DISC_ENABLE))
 535:..\src\app\alt_mode/vdm_task_mngr.c ****         case VDM_EVT_FAIL:
 536:..\src\app\alt_mode/vdm_task_mngr.c ****             /* Check is current port date role UFP */
 537:..\src\app\alt_mode/vdm_task_mngr.c ****             if (pd3_ufp)
 538:..\src\app\alt_mode/vdm_task_mngr.c ****             {
 539:..\src\app\alt_mode/vdm_task_mngr.c ****                 /* Send Disc SVID cmd */
 540:..\src\app\alt_mode/vdm_task_mngr.c ****                 set_evt(port, VDM_EVT_RUN);
 541:..\src\app\alt_mode/vdm_task_mngr.c ****                 ret = VDM_TASK_DISC_SVID;
 542:..\src\app\alt_mode/vdm_task_mngr.c ****             }
 543:..\src\app\alt_mode/vdm_task_mngr.c **** #endif /* (CCG_PD_REV3_ENABLE) && (UFP_ALT_MODE_SUPP) && (UFP_MODE_DISC_ENABLE) */
 544:..\src\app\alt_mode/vdm_task_mngr.c **** 
ARM GAS  e:\temp\ccdoSeHU.s 			page 11


 545:..\src\app\alt_mode/vdm_task_mngr.c ****         default:
 546:..\src\app\alt_mode/vdm_task_mngr.c ****             break;
 547:..\src\app\alt_mode/vdm_task_mngr.c ****     }
 548:..\src\app\alt_mode/vdm_task_mngr.c **** 
 549:..\src\app\alt_mode/vdm_task_mngr.c ****     return ret;
 550:..\src\app\alt_mode/vdm_task_mngr.c **** }
 551:..\src\app\alt_mode/vdm_task_mngr.c **** 
 552:..\src\app\alt_mode/vdm_task_mngr.c **** /* Checks if input SVID already saved. */
 553:..\src\app\alt_mode/vdm_task_mngr.c **** static bool is_svid_stored(uint16_t *svid_arr, uint16_t svid)
 554:..\src\app\alt_mode/vdm_task_mngr.c **** {
  27              		.loc 1 554 0
  28              		.cfi_startproc
  29              		@ args = 0, pretend = 0, frame = 0
  30              		@ frame_needed = 0, uses_anonymous_args = 0
  31              		@ link register save eliminated.
  32              	.LVL0:
 555:..\src\app\alt_mode/vdm_task_mngr.c ****     uint8_t  idx;
 556:..\src\app\alt_mode/vdm_task_mngr.c **** 
 557:..\src\app\alt_mode/vdm_task_mngr.c ****     /* Go through all SVIDs and compare with input SVID */
 558:..\src\app\alt_mode/vdm_task_mngr.c ****     for (idx = 0; idx < MAX_SVID_VDO_SUPP; idx++)
  33              		.loc 1 558 0
  34 0000 0023     		movs	r3, #0
  35 0002 05E0     		b	.L2
  36              	.LVL1:
  37              	.L4:
 559:..\src\app\alt_mode/vdm_task_mngr.c ****     {
 560:..\src\app\alt_mode/vdm_task_mngr.c ****         /* If input SVID already saved */
 561:..\src\app\alt_mode/vdm_task_mngr.c ****         if (svid_arr[idx] == svid)
  38              		.loc 1 561 0
  39 0004 5A00     		lsls	r2, r3, #1
  40 0006 125A     		ldrh	r2, [r2, r0]
  41 0008 8A42     		cmp	r2, r1
  42 000a 05D0     		beq	.L5
 558:..\src\app\alt_mode/vdm_task_mngr.c ****     {
  43              		.loc 1 558 0 discriminator 2
  44 000c 0133     		adds	r3, r3, #1
  45              	.LVL2:
  46 000e DBB2     		uxtb	r3, r3
  47              	.LVL3:
  48              	.L2:
 558:..\src\app\alt_mode/vdm_task_mngr.c ****     {
  49              		.loc 1 558 0 is_stmt 0 discriminator 1
  50 0010 032B     		cmp	r3, #3
  51 0012 F7D9     		bls	.L4
 562:..\src\app\alt_mode/vdm_task_mngr.c ****         {
 563:..\src\app\alt_mode/vdm_task_mngr.c ****             return true;
 564:..\src\app\alt_mode/vdm_task_mngr.c ****         }
 565:..\src\app\alt_mode/vdm_task_mngr.c ****     }
 566:..\src\app\alt_mode/vdm_task_mngr.c **** 
 567:..\src\app\alt_mode/vdm_task_mngr.c ****     return false;
  52              		.loc 1 567 0 is_stmt 1
  53 0014 0020     		movs	r0, #0
  54              	.LVL4:
  55 0016 00E0     		b	.L3
  56              	.LVL5:
  57              	.L5:
 563:..\src\app\alt_mode/vdm_task_mngr.c ****         }
ARM GAS  e:\temp\ccdoSeHU.s 			page 12


  58              		.loc 1 563 0
  59 0018 0120     		movs	r0, #1
  60              	.LVL6:
  61              	.L3:
 568:..\src\app\alt_mode/vdm_task_mngr.c **** }
  62              		.loc 1 568 0
  63              		@ sp needed
  64 001a 7047     		bx	lr
  65              		.cfi_endproc
  66              	.LFE40:
  67              		.size	is_svid_stored, .-is_svid_stored
  68              		.section	.text.sop_dp_soft_reset_cb,"ax",%progbits
  69              		.align	2
  70              		.code	16
  71              		.thumb_func
  72              		.type	sop_dp_soft_reset_cb, %function
  73              	sop_dp_soft_reset_cb:
  74              	.LFB46:
 569:..\src\app\alt_mode/vdm_task_mngr.c **** 
 570:..\src\app\alt_mode/vdm_task_mngr.c **** /*
 571:..\src\app\alt_mode/vdm_task_mngr.c ****    This function saves received Discover SVID resp,
 572:..\src\app\alt_mode/vdm_task_mngr.c ****    returns true if a NULL SVID was received.
 573:..\src\app\alt_mode/vdm_task_mngr.c ****  */
 574:..\src\app\alt_mode/vdm_task_mngr.c **** static bool save_svids(uint8_t port, uint16_t *svid_arr, uint8_t max_svid)
 575:..\src\app\alt_mode/vdm_task_mngr.c **** {
 576:..\src\app\alt_mode/vdm_task_mngr.c ****     uint8_t         idx, vdo_count;
 577:..\src\app\alt_mode/vdm_task_mngr.c ****     uint16_t        svid;
 578:..\src\app\alt_mode/vdm_task_mngr.c ****     uint8_t         svid_idx = vdm_stat[port].svid_idx;
 579:..\src\app\alt_mode/vdm_task_mngr.c ****     bool            retval   = false;
 580:..\src\app\alt_mode/vdm_task_mngr.c ****     vdm_msg_info_t  *msg_p   = get_msg (port);
 581:..\src\app\alt_mode/vdm_task_mngr.c **** 
 582:..\src\app\alt_mode/vdm_task_mngr.c ****     /* Compare received SVIDs with supported SVIDs */
 583:..\src\app\alt_mode/vdm_task_mngr.c ****     vdo_count = msg_p->vdo_numb;
 584:..\src\app\alt_mode/vdm_task_mngr.c **** 
 585:..\src\app\alt_mode/vdm_task_mngr.c ****     /* Stop further discovery if this response does not have the maximum no. of DOs. */
 586:..\src\app\alt_mode/vdm_task_mngr.c ****     if (vdo_count < (MAX_NO_OF_DO - 1))
 587:..\src\app\alt_mode/vdm_task_mngr.c ****     {
 588:..\src\app\alt_mode/vdm_task_mngr.c ****         retval = true;
 589:..\src\app\alt_mode/vdm_task_mngr.c ****     }
 590:..\src\app\alt_mode/vdm_task_mngr.c **** 
 591:..\src\app\alt_mode/vdm_task_mngr.c ****     for (idx = 0; idx < (vdo_count * 2); idx++)
 592:..\src\app\alt_mode/vdm_task_mngr.c ****     {
 593:..\src\app\alt_mode/vdm_task_mngr.c ****         if ((idx & 1) == 0)
 594:..\src\app\alt_mode/vdm_task_mngr.c ****         {
 595:..\src\app\alt_mode/vdm_task_mngr.c ****             /* Upper half of the DO. */
 596:..\src\app\alt_mode/vdm_task_mngr.c ****             svid = msg_p->vdo[idx >> 1].val >> 16u;
 597:..\src\app\alt_mode/vdm_task_mngr.c ****         }
 598:..\src\app\alt_mode/vdm_task_mngr.c ****         else
 599:..\src\app\alt_mode/vdm_task_mngr.c ****         {
 600:..\src\app\alt_mode/vdm_task_mngr.c ****             /* Lower half of the DO. */
 601:..\src\app\alt_mode/vdm_task_mngr.c ****             svid = msg_p->vdo[idx >> 1].val & 0xFFFFu;
 602:..\src\app\alt_mode/vdm_task_mngr.c ****         }
 603:..\src\app\alt_mode/vdm_task_mngr.c **** 
 604:..\src\app\alt_mode/vdm_task_mngr.c ****         if (svid_idx < (max_svid - 1))
 605:..\src\app\alt_mode/vdm_task_mngr.c ****         {
 606:..\src\app\alt_mode/vdm_task_mngr.c ****             /* Stop on NULL SVID. */
 607:..\src\app\alt_mode/vdm_task_mngr.c ****             if (svid == NO_DATA)
ARM GAS  e:\temp\ccdoSeHU.s 			page 13


 608:..\src\app\alt_mode/vdm_task_mngr.c ****             {
 609:..\src\app\alt_mode/vdm_task_mngr.c ****                 retval = true;
 610:..\src\app\alt_mode/vdm_task_mngr.c ****             }
 611:..\src\app\alt_mode/vdm_task_mngr.c ****             else
 612:..\src\app\alt_mode/vdm_task_mngr.c ****             {
 613:..\src\app\alt_mode/vdm_task_mngr.c ****                 /* If SVID not saved previously then save */
 614:..\src\app\alt_mode/vdm_task_mngr.c ****                 if (is_svid_stored(svid_arr, svid) == false)
 615:..\src\app\alt_mode/vdm_task_mngr.c ****                 {
 616:..\src\app\alt_mode/vdm_task_mngr.c **** #if SAVE_SUPP_SVID_ONLY
 617:..\src\app\alt_mode/vdm_task_mngr.c ****                     if (is_svid_supported(svid, port) != false)
 618:..\src\app\alt_mode/vdm_task_mngr.c **** #endif /* SAVE_SUPP_SVID_ONLY */
 619:..\src\app\alt_mode/vdm_task_mngr.c ****                     {
 620:..\src\app\alt_mode/vdm_task_mngr.c ****                         svid_arr[svid_idx] = svid;
 621:..\src\app\alt_mode/vdm_task_mngr.c ****                         svid_idx++;
 622:..\src\app\alt_mode/vdm_task_mngr.c ****                     }
 623:..\src\app\alt_mode/vdm_task_mngr.c ****                 }
 624:..\src\app\alt_mode/vdm_task_mngr.c ****             }
 625:..\src\app\alt_mode/vdm_task_mngr.c ****         }
 626:..\src\app\alt_mode/vdm_task_mngr.c ****         else
 627:..\src\app\alt_mode/vdm_task_mngr.c ****         {
 628:..\src\app\alt_mode/vdm_task_mngr.c ****             /* Cannot continue as we have no more space. */
 629:..\src\app\alt_mode/vdm_task_mngr.c ****             retval = true;
 630:..\src\app\alt_mode/vdm_task_mngr.c ****             break;
 631:..\src\app\alt_mode/vdm_task_mngr.c ****         }
 632:..\src\app\alt_mode/vdm_task_mngr.c ****     }
 633:..\src\app\alt_mode/vdm_task_mngr.c **** 
 634:..\src\app\alt_mode/vdm_task_mngr.c ****     /* Set zero after last SVID in info */
 635:..\src\app\alt_mode/vdm_task_mngr.c ****     svid_arr[svid_idx] = NO_DATA;
 636:..\src\app\alt_mode/vdm_task_mngr.c ****     vdm_stat[port].svid_idx = svid_idx;
 637:..\src\app\alt_mode/vdm_task_mngr.c **** 
 638:..\src\app\alt_mode/vdm_task_mngr.c ****     /* Terminate discovery after MAX_DISC_SVID_COUNT attempts. */
 639:..\src\app\alt_mode/vdm_task_mngr.c ****     vdm_stat[port].dsvid_cnt++;
 640:..\src\app\alt_mode/vdm_task_mngr.c ****     if (vdm_stat[port].dsvid_cnt >= MAX_DISC_SVID_COUNT)
 641:..\src\app\alt_mode/vdm_task_mngr.c ****         retval = true;
 642:..\src\app\alt_mode/vdm_task_mngr.c **** 
 643:..\src\app\alt_mode/vdm_task_mngr.c ****     return retval;
 644:..\src\app\alt_mode/vdm_task_mngr.c **** }
 645:..\src\app\alt_mode/vdm_task_mngr.c **** 
 646:..\src\app\alt_mode/vdm_task_mngr.c **** static void set_disc_svid_param (uint8_t port, uint8_t sop)
 647:..\src\app\alt_mode/vdm_task_mngr.c **** {
 648:..\src\app\alt_mode/vdm_task_mngr.c ****     vdm_msg_info_t *msg_p = get_msg (port);
 649:..\src\app\alt_mode/vdm_task_mngr.c **** 
 650:..\src\app\alt_mode/vdm_task_mngr.c ****     msg_p->vdm_header.val   = NO_DATA;
 651:..\src\app\alt_mode/vdm_task_mngr.c ****     msg_p->VDM_HDR.svid     = STD_SVID;
 652:..\src\app\alt_mode/vdm_task_mngr.c ****     msg_p->VDM_HDR.cmd      = VDM_CMD_DSC_SVIDS;
 653:..\src\app\alt_mode/vdm_task_mngr.c ****     msg_p->VDM_HDR.obj_pos  = NO_DATA;
 654:..\src\app\alt_mode/vdm_task_mngr.c ****     msg_p->sop_type         = sop;
 655:..\src\app\alt_mode/vdm_task_mngr.c ****     msg_p->vdo_numb         = NO_DATA;
 656:..\src\app\alt_mode/vdm_task_mngr.c ****     msg_p->VDM_HDR.vdm_type = VDM_TYPE_STRUCTURED;
 657:..\src\app\alt_mode/vdm_task_mngr.c **** }
 658:..\src\app\alt_mode/vdm_task_mngr.c **** 
 659:..\src\app\alt_mode/vdm_task_mngr.c **** static vdm_task_t vdm_task_mng_disc_svid(uint8_t port, vdm_evt_t vdm_evt)
 660:..\src\app\alt_mode/vdm_task_mngr.c **** {
 661:..\src\app\alt_mode/vdm_task_mngr.c ****     vdm_task_t ret               = VDM_TASK_EXIT;
 662:..\src\app\alt_mode/vdm_task_mngr.c ****     const dpm_status_t *dpm_stat = dpm_get_info(port);
 663:..\src\app\alt_mode/vdm_task_mngr.c ****     vdm_msg_info_t *msg_p        = get_msg (port);
 664:..\src\app\alt_mode/vdm_task_mngr.c **** #if VDM_RESP_QUERY_SUPPORTED
ARM GAS  e:\temp\ccdoSeHU.s 			page 14


 665:..\src\app\alt_mode/vdm_task_mngr.c ****     uint32_t tmp;
 666:..\src\app\alt_mode/vdm_task_mngr.c **** #endif /* VDM_RESP_QUERY_SUPPORTED */
 667:..\src\app\alt_mode/vdm_task_mngr.c **** 
 668:..\src\app\alt_mode/vdm_task_mngr.c **** #if ((CCG_PD_REV3_ENABLE) && (UFP_ALT_MODE_SUPP) && (UFP_MODE_DISC_ENABLE))
 669:..\src\app\alt_mode/vdm_task_mngr.c ****     bool pd3_ufp = ((bool)(dpm_stat->spec_rev_sop_live >= PD_REV3) &&
 670:..\src\app\alt_mode/vdm_task_mngr.c ****             (gl_dpm_port_type[port] == PRT_TYPE_UFP));
 671:..\src\app\alt_mode/vdm_task_mngr.c **** #endif
 672:..\src\app\alt_mode/vdm_task_mngr.c **** 
 673:..\src\app\alt_mode/vdm_task_mngr.c ****     switch (vdm_evt)
 674:..\src\app\alt_mode/vdm_task_mngr.c ****     {
 675:..\src\app\alt_mode/vdm_task_mngr.c ****         case VDM_EVT_RUN:
 676:..\src\app\alt_mode/vdm_task_mngr.c ****             /* Form Discover SVID VDM packet */
 677:..\src\app\alt_mode/vdm_task_mngr.c ****             set_disc_svid_param (port, SOP);
 678:..\src\app\alt_mode/vdm_task_mngr.c ****             ret = VDM_TASK_SEND_MSG;
 679:..\src\app\alt_mode/vdm_task_mngr.c ****             break;
 680:..\src\app\alt_mode/vdm_task_mngr.c **** 
 681:..\src\app\alt_mode/vdm_task_mngr.c ****         case VDM_EVT_EVAL:
 682:..\src\app\alt_mode/vdm_task_mngr.c ****             /* Check is current port date role DFP */
 683:..\src\app\alt_mode/vdm_task_mngr.c ****             if (gl_dpm_port_type[port] != PRT_TYPE_UFP)
 684:..\src\app\alt_mode/vdm_task_mngr.c ****             {
 685:..\src\app\alt_mode/vdm_task_mngr.c ****                 /* For attached target response */
 686:..\src\app\alt_mode/vdm_task_mngr.c ****                 if (msg_p->sop_type == (uint8_t)SOP)
 687:..\src\app\alt_mode/vdm_task_mngr.c ****                 {
 688:..\src\app\alt_mode/vdm_task_mngr.c **** #if VDM_RESP_QUERY_SUPPORTED
 689:..\src\app\alt_mode/vdm_task_mngr.c ****                     if (vdm_stat[port].svid_idx == 0)
 690:..\src\app\alt_mode/vdm_task_mngr.c ****                     {
 691:..\src\app\alt_mode/vdm_task_mngr.c ****                         /* Save the DISC_SVID response. */
 692:..\src\app\alt_mode/vdm_task_mngr.c ****                         vdm_disc_svid_resp[port][0] = msg_p->vdm_header.val;
 693:..\src\app\alt_mode/vdm_task_mngr.c ****                         memcpy ((uint8_t *)&vdm_disc_svid_resp[port][1], (uint8_t *)msg_p->vdo, msg
 694:..\src\app\alt_mode/vdm_task_mngr.c ****                         vdm_disc_svid_resp_len[port] = msg_p->vdo_numb + 1;
 695:..\src\app\alt_mode/vdm_task_mngr.c ****                     }
 696:..\src\app\alt_mode/vdm_task_mngr.c ****                     else
 697:..\src\app\alt_mode/vdm_task_mngr.c ****                     {
 698:..\src\app\alt_mode/vdm_task_mngr.c ****                         /* Save the incremental DISC_SVID response. */
 699:..\src\app\alt_mode/vdm_task_mngr.c ****                         tmp = GET_MIN (msg_p->vdo_numb, MAX_DISC_SVID_RESP_LEN - vdm_disc_svid_resp
 700:..\src\app\alt_mode/vdm_task_mngr.c ****                         memcpy ((uint8_t *)&vdm_disc_svid_resp[port][vdm_disc_svid_resp_len[port]],
 701:..\src\app\alt_mode/vdm_task_mngr.c ****                                 tmp * sizeof (uint32_t));
 702:..\src\app\alt_mode/vdm_task_mngr.c ****                         vdm_disc_svid_resp_len[port] += tmp;
 703:..\src\app\alt_mode/vdm_task_mngr.c ****                     }
 704:..\src\app\alt_mode/vdm_task_mngr.c **** #endif /* VDM_RESP_QUERY_SUPPORTED */
 705:..\src\app\alt_mode/vdm_task_mngr.c **** 
 706:..\src\app\alt_mode/vdm_task_mngr.c ****                     if (msg_p->vdo[0].val == NONE_VDO)
 707:..\src\app\alt_mode/vdm_task_mngr.c ****                     {
 708:..\src\app\alt_mode/vdm_task_mngr.c ****                         /* No SVID supported */
 709:..\src\app\alt_mode/vdm_task_mngr.c ****                         break;
 710:..\src\app\alt_mode/vdm_task_mngr.c ****                     }
 711:..\src\app\alt_mode/vdm_task_mngr.c **** 
 712:..\src\app\alt_mode/vdm_task_mngr.c ****                     /* Save received SVIDs and check if a NULL SVID was received. */
 713:..\src\app\alt_mode/vdm_task_mngr.c ****                     if (save_svids (port, vdm_stat[port].atch_tgt.tgt_svid, MAX_SVID_VDO_SUPP) != f
 714:..\src\app\alt_mode/vdm_task_mngr.c ****                     {
 715:..\src\app\alt_mode/vdm_task_mngr.c ****                         /* If cable was detected and supports alternate modes, send SOP' disc svid 
 716:..\src\app\alt_mode/vdm_task_mngr.c ****                         if ((dpm_stat->emca_present != false) &&
 717:..\src\app\alt_mode/vdm_task_mngr.c ****                                 (dpm_stat->cbl_mode_en != false))
 718:..\src\app\alt_mode/vdm_task_mngr.c ****                         {
 719:..\src\app\alt_mode/vdm_task_mngr.c ****                             if (
 720:..\src\app\alt_mode/vdm_task_mngr.c ****                                     (dpm_stat->vconn_logical)
 721:..\src\app\alt_mode/vdm_task_mngr.c ****                             #if VCONN_OCP_ENABLE
ARM GAS  e:\temp\ccdoSeHU.s 			page 15


 722:..\src\app\alt_mode/vdm_task_mngr.c ****                                     && ((app_get_status(port)->fault_status & APP_PORT_VCONN_FAULT_
 723:..\src\app\alt_mode/vdm_task_mngr.c ****                             #endif /* VCONN_OCP_ENABLE */
 724:..\src\app\alt_mode/vdm_task_mngr.c ****                                )
 725:..\src\app\alt_mode/vdm_task_mngr.c ****                             {
 726:..\src\app\alt_mode/vdm_task_mngr.c ****                                 if (!vconn_is_present (port))
 727:..\src\app\alt_mode/vdm_task_mngr.c ****                                 {
 728:..\src\app\alt_mode/vdm_task_mngr.c ****                                     /*
 729:..\src\app\alt_mode/vdm_task_mngr.c ****                                      * We are VConn source and VConn is off. Enable and apply a del
 730:..\src\app\alt_mode/vdm_task_mngr.c ****                                      * the EMCA power up.
 731:..\src\app\alt_mode/vdm_task_mngr.c ****                                      */
 732:..\src\app\alt_mode/vdm_task_mngr.c ****                                     vconn_enable (port, dpm_stat->rev_pol);
 733:..\src\app\alt_mode/vdm_task_mngr.c **** 
 734:..\src\app\alt_mode/vdm_task_mngr.c ****                                     /* Start a timer to delay the retry attempt. */
 735:..\src\app\alt_mode/vdm_task_mngr.c ****                                     timer_start(port, APP_VDM_BUSY_TIMER, APP_CABLE_POWER_UP_DELAY,
 736:..\src\app\alt_mode/vdm_task_mngr.c ****                                 }
 737:..\src\app\alt_mode/vdm_task_mngr.c **** 
 738:..\src\app\alt_mode/vdm_task_mngr.c ****                                 vdm_stat[port].svid_idx  = 0;
 739:..\src\app\alt_mode/vdm_task_mngr.c ****                                 vdm_stat[port].dsvid_cnt = 0;
 740:..\src\app\alt_mode/vdm_task_mngr.c ****                                 set_disc_svid_param (port, SOP_PRIME);
 741:..\src\app\alt_mode/vdm_task_mngr.c ****                                 ret = VDM_TASK_SEND_MSG;
 742:..\src\app\alt_mode/vdm_task_mngr.c ****                             }
 743:..\src\app\alt_mode/vdm_task_mngr.c ****                             else
 744:..\src\app\alt_mode/vdm_task_mngr.c ****                             {
 745:..\src\app\alt_mode/vdm_task_mngr.c ****                                 /*
 746:..\src\app\alt_mode/vdm_task_mngr.c ****                                  * We are not VConn source. This should not happen as stack will en
 747:..\src\app\alt_mode/vdm_task_mngr.c ****                                  * we are VConn source. Skip SOP' checks in the unlikely case where
 748:..\src\app\alt_mode/vdm_task_mngr.c ****                                  * happens.
 749:..\src\app\alt_mode/vdm_task_mngr.c ****                                  */
 750:..\src\app\alt_mode/vdm_task_mngr.c ****                                 set_evt(port, VDM_EVT_RUN);
 751:..\src\app\alt_mode/vdm_task_mngr.c ****                                 ret = VDM_TASK_REG_ATCH_TGT_INFO;
 752:..\src\app\alt_mode/vdm_task_mngr.c ****                             }
 753:..\src\app\alt_mode/vdm_task_mngr.c ****                         }
 754:..\src\app\alt_mode/vdm_task_mngr.c ****                         else
 755:..\src\app\alt_mode/vdm_task_mngr.c ****                         {
 756:..\src\app\alt_mode/vdm_task_mngr.c ****                             /* Goto register info in alt modes mngr */
 757:..\src\app\alt_mode/vdm_task_mngr.c ****                             set_evt(port, VDM_EVT_RUN);
 758:..\src\app\alt_mode/vdm_task_mngr.c ****                             ret = VDM_TASK_REG_ATCH_TGT_INFO;
 759:..\src\app\alt_mode/vdm_task_mngr.c ****                         }
 760:..\src\app\alt_mode/vdm_task_mngr.c ****                     }
 761:..\src\app\alt_mode/vdm_task_mngr.c ****                     else
 762:..\src\app\alt_mode/vdm_task_mngr.c ****                     {
 763:..\src\app\alt_mode/vdm_task_mngr.c ****                         /* If not all SVID received, ask for the next set of SVIDs. */
 764:..\src\app\alt_mode/vdm_task_mngr.c ****                         set_disc_svid_param (port, SOP);
 765:..\src\app\alt_mode/vdm_task_mngr.c ****                         ret = VDM_TASK_SEND_MSG;
 766:..\src\app\alt_mode/vdm_task_mngr.c ****                     }
 767:..\src\app\alt_mode/vdm_task_mngr.c ****                 }
 768:..\src\app\alt_mode/vdm_task_mngr.c ****                 /* For cable response */
 769:..\src\app\alt_mode/vdm_task_mngr.c ****                 else
 770:..\src\app\alt_mode/vdm_task_mngr.c ****                 {
 771:..\src\app\alt_mode/vdm_task_mngr.c ****                     /* If the EMCA returned any DOs, save the content. */
 772:..\src\app\alt_mode/vdm_task_mngr.c ****                     if ((msg_p->vdo[VDO_START_IDX - 1].val != NONE_VDO) &&
 773:..\src\app\alt_mode/vdm_task_mngr.c ****                             (save_svids(port, vdm_stat[port].atch_tgt.cbl_svid, MAX_CABLE_SVID_SUPP
 774:..\src\app\alt_mode/vdm_task_mngr.c ****                     {
 775:..\src\app\alt_mode/vdm_task_mngr.c ****                         /* If not all SVID received, ask for the next set of SVIDs. */
 776:..\src\app\alt_mode/vdm_task_mngr.c ****                         set_disc_svid_param (port, SOP_PRIME);
 777:..\src\app\alt_mode/vdm_task_mngr.c ****                         ret = VDM_TASK_SEND_MSG;
 778:..\src\app\alt_mode/vdm_task_mngr.c ****                     }
ARM GAS  e:\temp\ccdoSeHU.s 			page 16


 779:..\src\app\alt_mode/vdm_task_mngr.c ****                     else
 780:..\src\app\alt_mode/vdm_task_mngr.c ****                     {
 781:..\src\app\alt_mode/vdm_task_mngr.c ****                         /*
 782:..\src\app\alt_mode/vdm_task_mngr.c ****                            If EMCA did not support any SVIDs of interest and does not require VConn
 783:..\src\app\alt_mode/vdm_task_mngr.c ****                            we can disable VConn.
 784:..\src\app\alt_mode/vdm_task_mngr.c ****                          */
 785:..\src\app\alt_mode/vdm_task_mngr.c ****                         if (vdm_stat[port].atch_tgt.cbl_svid[0] == NO_DATA)
 786:..\src\app\alt_mode/vdm_task_mngr.c ****                         {
 787:..\src\app\alt_mode/vdm_task_mngr.c ****                             if (
 788:..\src\app\alt_mode/vdm_task_mngr.c ****                                     (dpm_stat->vconn_retain == 0) &&
 789:..\src\app\alt_mode/vdm_task_mngr.c ****                                     (dpm_stat->cbl_vdo.std_cbl_vdo.cbl_term == CBL_TERM_BOTH_PAS_VC
 790:..\src\app\alt_mode/vdm_task_mngr.c ****                                )
 791:..\src\app\alt_mode/vdm_task_mngr.c ****                             {
 792:..\src\app\alt_mode/vdm_task_mngr.c ****                                 vconn_disable(port, dpm_stat->rev_pol);
 793:..\src\app\alt_mode/vdm_task_mngr.c ****                             }
 794:..\src\app\alt_mode/vdm_task_mngr.c ****                         }
 795:..\src\app\alt_mode/vdm_task_mngr.c **** 
 796:..\src\app\alt_mode/vdm_task_mngr.c ****                         /* Move to the next step. */
 797:..\src\app\alt_mode/vdm_task_mngr.c ****                         set_evt(port, VDM_EVT_RUN);
 798:..\src\app\alt_mode/vdm_task_mngr.c ****                         ret = VDM_TASK_REG_ATCH_TGT_INFO;
 799:..\src\app\alt_mode/vdm_task_mngr.c ****                     }
 800:..\src\app\alt_mode/vdm_task_mngr.c ****                 }
 801:..\src\app\alt_mode/vdm_task_mngr.c ****             }
 802:..\src\app\alt_mode/vdm_task_mngr.c **** 
 803:..\src\app\alt_mode/vdm_task_mngr.c **** #if ((CCG_PD_REV3_ENABLE) && (UFP_ALT_MODE_SUPP) && (UFP_MODE_DISC_ENABLE))
 804:..\src\app\alt_mode/vdm_task_mngr.c ****             /* Check is current port date role UFP */
 805:..\src\app\alt_mode/vdm_task_mngr.c ****             if (pd3_ufp)
 806:..\src\app\alt_mode/vdm_task_mngr.c ****             {
 807:..\src\app\alt_mode/vdm_task_mngr.c ****                 /* Send Disc SVID cmd */
 808:..\src\app\alt_mode/vdm_task_mngr.c ****                 set_evt(port, VDM_EVT_RUN);
 809:..\src\app\alt_mode/vdm_task_mngr.c ****                 ret = VDM_TASK_REG_ATCH_TGT_INFO;
 810:..\src\app\alt_mode/vdm_task_mngr.c ****             }
 811:..\src\app\alt_mode/vdm_task_mngr.c **** #endif /* (CCG_PD_REV3_ENABLE) && (UFP_ALT_MODE_SUPP) && (UFP_MODE_DISC_ENABLE) */
 812:..\src\app\alt_mode/vdm_task_mngr.c ****             break;
 813:..\src\app\alt_mode/vdm_task_mngr.c **** 
 814:..\src\app\alt_mode/vdm_task_mngr.c ****         case VDM_EVT_FAIL:
 815:..\src\app\alt_mode/vdm_task_mngr.c ****             /* If cable SVID fails */
 816:..\src\app\alt_mode/vdm_task_mngr.c ****             if (msg_p->sop_type == (uint8_t)SOP_PRIME)
 817:..\src\app\alt_mode/vdm_task_mngr.c ****             {
 818:..\src\app\alt_mode/vdm_task_mngr.c ****                 set_evt(port, VDM_EVT_RUN);
 819:..\src\app\alt_mode/vdm_task_mngr.c ****                 ret = VDM_TASK_REG_ATCH_TGT_INFO;
 820:..\src\app\alt_mode/vdm_task_mngr.c ****             }
 821:..\src\app\alt_mode/vdm_task_mngr.c ****             break;
 822:..\src\app\alt_mode/vdm_task_mngr.c **** 
 823:..\src\app\alt_mode/vdm_task_mngr.c ****         default:
 824:..\src\app\alt_mode/vdm_task_mngr.c ****             break;
 825:..\src\app\alt_mode/vdm_task_mngr.c ****     }
 826:..\src\app\alt_mode/vdm_task_mngr.c **** 
 827:..\src\app\alt_mode/vdm_task_mngr.c ****     return ret;
 828:..\src\app\alt_mode/vdm_task_mngr.c **** }
 829:..\src\app\alt_mode/vdm_task_mngr.c **** 
 830:..\src\app\alt_mode/vdm_task_mngr.c **** #endif /* ((DFP_ALT_MODE_SUPP) || (UFP_MODE_DISC_ENABLE)) */
 831:..\src\app\alt_mode/vdm_task_mngr.c **** 
 832:..\src\app\alt_mode/vdm_task_mngr.c **** static void reset_vdm_mngr(uint8_t port)
 833:..\src\app\alt_mode/vdm_task_mngr.c **** {
 834:..\src\app\alt_mode/vdm_task_mngr.c ****     vdm_stat[port].rec_retry_cnt = NO_DATA;
 835:..\src\app\alt_mode/vdm_task_mngr.c ****     vdm_stat[port].svid_idx      = NO_DATA;
ARM GAS  e:\temp\ccdoSeHU.s 			page 17


 836:..\src\app\alt_mode/vdm_task_mngr.c ****     vdm_stat[port].dsvid_cnt     = NO_DATA;
 837:..\src\app\alt_mode/vdm_task_mngr.c ****     /* Clear arrays which hold SVIDs */
 838:..\src\app\alt_mode/vdm_task_mngr.c ****     memset(&vdm_stat[port].atch_tgt, NO_DATA, sizeof(atch_tgt_info_t));
 839:..\src\app\alt_mode/vdm_task_mngr.c ****     /* Store the pointer to the cable VDO discovered by PD stack. */
 840:..\src\app\alt_mode/vdm_task_mngr.c ****     vdm_stat[port].atch_tgt.cbl_vdo = &(dpm_get_info(port)->cbl_vdo);
 841:..\src\app\alt_mode/vdm_task_mngr.c ****     /* Clear the SOP'' reset state. */
 842:..\src\app\alt_mode/vdm_task_mngr.c ****     vdm_emca_rst_state[port] = CABLE_DP_RESET_IDLE;
 843:..\src\app\alt_mode/vdm_task_mngr.c ****     vdm_emca_rst_count[port] = 0;
 844:..\src\app\alt_mode/vdm_task_mngr.c **** 
 845:..\src\app\alt_mode/vdm_task_mngr.c ****     /* Stop the VDM task delay timer. */
 846:..\src\app\alt_mode/vdm_task_mngr.c ****     timer_stop(port, APP_VDM_BUSY_TIMER);
 847:..\src\app\alt_mode/vdm_task_mngr.c **** 
 848:..\src\app\alt_mode/vdm_task_mngr.c **** #if VDM_RESP_QUERY_SUPPORTED
 849:..\src\app\alt_mode/vdm_task_mngr.c ****     vdm_disc_id_resp_len[port] = 0;
 850:..\src\app\alt_mode/vdm_task_mngr.c ****     memset ((uint8_t *)&vdm_disc_id_resp[port], 0, MAX_NO_OF_DO * sizeof (uint32_t));
 851:..\src\app\alt_mode/vdm_task_mngr.c ****     vdm_disc_svid_resp_len[port] = 0;
 852:..\src\app\alt_mode/vdm_task_mngr.c ****     memset ((uint8_t *)&vdm_disc_svid_resp[port], 0, MAX_DISC_SVID_RESP_LEN * sizeof (uint32_t));
 853:..\src\app\alt_mode/vdm_task_mngr.c **** #endif /* VDM_RESP_QUERY_SUPPORTED */
 854:..\src\app\alt_mode/vdm_task_mngr.c **** }
 855:..\src\app\alt_mode/vdm_task_mngr.c **** 
 856:..\src\app\alt_mode/vdm_task_mngr.c **** void vdm_task_mngr_deinit(uint8_t port)
 857:..\src\app\alt_mode/vdm_task_mngr.c **** {
 858:..\src\app\alt_mode/vdm_task_mngr.c ****     /* CDT 247011 re-fix */
 859:..\src\app\alt_mode/vdm_task_mngr.c ****     app_get_status(port)->vdm_prcs_failed = false;
 860:..\src\app\alt_mode/vdm_task_mngr.c ****     /* If VDM task is not active, no need to go through the rest of the steps. */
 861:..\src\app\alt_mode/vdm_task_mngr.c ****     if (app_get_status(port)->vdm_task_en != false)
 862:..\src\app\alt_mode/vdm_task_mngr.c ****     {
 863:..\src\app\alt_mode/vdm_task_mngr.c ****         reset_vdm_mngr(port);
 864:..\src\app\alt_mode/vdm_task_mngr.c ****         app_get_status(port)->vdm_task_en = false;
 865:..\src\app\alt_mode/vdm_task_mngr.c ****         app_get_status(port)->alt_mode_entered = false;
 866:..\src\app\alt_mode/vdm_task_mngr.c ****         /* Exit from alt mode manager */
 867:..\src\app\alt_mode/vdm_task_mngr.c ****         vdm_task_mngr_alt_mode_process(port, VDM_EVT_EXIT);
 868:..\src\app\alt_mode/vdm_task_mngr.c ****         /* Deinit App HW */
 869:..\src\app\alt_mode/vdm_task_mngr.c ****         alt_mode_hw_deinit(port);
 870:..\src\app\alt_mode/vdm_task_mngr.c ****     }
 871:..\src\app\alt_mode/vdm_task_mngr.c **** }
 872:..\src\app\alt_mode/vdm_task_mngr.c **** 
 873:..\src\app\alt_mode/vdm_task_mngr.c **** static void sop_dp_soft_reset_cb(uint8_t port, resp_status_t resp, const pd_packet_t *pkt_ptr)
 874:..\src\app\alt_mode/vdm_task_mngr.c **** {
  75              		.loc 1 874 0
  76              		.cfi_startproc
  77              		@ args = 0, pretend = 0, frame = 0
  78              		@ frame_needed = 0, uses_anonymous_args = 0
  79              		@ link register save eliminated.
  80              	.LVL7:
 875:..\src\app\alt_mode/vdm_task_mngr.c ****     switch (resp)
  81              		.loc 1 875 0
  82 0000 0329     		cmp	r1, #3
  83 0002 14D0     		beq	.L6
  84 0004 0429     		cmp	r1, #4
  85 0006 03D1     		bne	.L11
 876:..\src\app\alt_mode/vdm_task_mngr.c ****     {
 877:..\src\app\alt_mode/vdm_task_mngr.c ****         case CMD_SENT:
 878:..\src\app\alt_mode/vdm_task_mngr.c ****             /* Do nothing. */
 879:..\src\app\alt_mode/vdm_task_mngr.c ****             break;
 880:..\src\app\alt_mode/vdm_task_mngr.c **** 
 881:..\src\app\alt_mode/vdm_task_mngr.c ****         case RES_RCVD:
ARM GAS  e:\temp\ccdoSeHU.s 			page 18


 882:..\src\app\alt_mode/vdm_task_mngr.c ****             /* Proceed with rest of alternate mode state machine. */
 883:..\src\app\alt_mode/vdm_task_mngr.c ****             vdm_emca_rst_state[port] = CABLE_DP_RESET_DONE;
  86              		.loc 1 883 0
  87 0008 0322     		movs	r2, #3
  88              	.LVL8:
  89 000a 094B     		ldr	r3, .L12
  90 000c 1A54     		strb	r2, [r3, r0]
 884:..\src\app\alt_mode/vdm_task_mngr.c ****             break;
  91              		.loc 1 884 0
  92 000e 0EE0     		b	.L6
  93              	.LVL9:
  94              	.L11:
 885:..\src\app\alt_mode/vdm_task_mngr.c **** 
 886:..\src\app\alt_mode/vdm_task_mngr.c ****         default:
 887:..\src\app\alt_mode/vdm_task_mngr.c ****             /* Retry the cable SOFT_RESET. */
 888:..\src\app\alt_mode/vdm_task_mngr.c ****             vdm_emca_rst_count[port]++;
  95              		.loc 1 888 0
  96 0010 074A     		ldr	r2, .L12
  97              	.LVL10:
  98 0012 1218     		adds	r2, r2, r0
  99 0014 1379     		ldrb	r3, [r2, #4]
 100 0016 0133     		adds	r3, r3, #1
 101 0018 DBB2     		uxtb	r3, r3
 102 001a 1371     		strb	r3, [r2, #4]
 889:..\src\app\alt_mode/vdm_task_mngr.c ****             if (vdm_emca_rst_count[port] >= MAX_EMCA_DP_RESET_COUNT)
 103              		.loc 1 889 0
 104 001c 022B     		cmp	r3, #2
 105 001e 03D9     		bls	.L10
 890:..\src\app\alt_mode/vdm_task_mngr.c ****             {
 891:..\src\app\alt_mode/vdm_task_mngr.c ****                 vdm_emca_rst_state[port] = CABLE_DP_RESET_DONE;
 106              		.loc 1 891 0
 107 0020 0322     		movs	r2, #3
 108 0022 034B     		ldr	r3, .L12
 109 0024 1A54     		strb	r2, [r3, r0]
 110 0026 02E0     		b	.L6
 111              	.L10:
 892:..\src\app\alt_mode/vdm_task_mngr.c ****             }
 893:..\src\app\alt_mode/vdm_task_mngr.c ****             else
 894:..\src\app\alt_mode/vdm_task_mngr.c ****             {
 895:..\src\app\alt_mode/vdm_task_mngr.c ****                 vdm_emca_rst_state[port] = CABLE_DP_RESET_RETRY;
 112              		.loc 1 895 0
 113 0028 0222     		movs	r2, #2
 114 002a 014B     		ldr	r3, .L12
 115 002c 1A54     		strb	r2, [r3, r0]
 116              	.L6:
 896:..\src\app\alt_mode/vdm_task_mngr.c ****             }
 897:..\src\app\alt_mode/vdm_task_mngr.c ****             break;
 898:..\src\app\alt_mode/vdm_task_mngr.c ****     }
 899:..\src\app\alt_mode/vdm_task_mngr.c **** }
 117              		.loc 1 899 0
 118              		@ sp needed
 119 002e 7047     		bx	lr
 120              	.L13:
 121              		.align	2
 122              	.L12:
 123 0030 00000000 		.word	.LANCHOR0
 124              		.cfi_endproc
ARM GAS  e:\temp\ccdoSeHU.s 			page 19


 125              	.LFE46:
 126              		.size	sop_dp_soft_reset_cb, .-sop_dp_soft_reset_cb
 127              		.section	.text.get_msg,"ax",%progbits
 128              		.align	2
 129              		.code	16
 130              		.thumb_func
 131              		.type	get_msg, %function
 132              	get_msg:
 133              	.LFB56:
 900:..\src\app\alt_mode/vdm_task_mngr.c **** 
 901:..\src\app\alt_mode/vdm_task_mngr.c **** static void send_sop_dp_soft_reset(uint8_t port)
 902:..\src\app\alt_mode/vdm_task_mngr.c **** {
 903:..\src\app\alt_mode/vdm_task_mngr.c ****     dpm_pd_cmd_buf_t dpm_cmd_param;
 904:..\src\app\alt_mode/vdm_task_mngr.c ****     ccg_status_t     api_stat;
 905:..\src\app\alt_mode/vdm_task_mngr.c **** 
 906:..\src\app\alt_mode/vdm_task_mngr.c ****     dpm_cmd_param.cmd_sop      = SOP_DPRIME;
 907:..\src\app\alt_mode/vdm_task_mngr.c ****     dpm_cmd_param.no_of_cmd_do = 0;
 908:..\src\app\alt_mode/vdm_task_mngr.c ****     dpm_cmd_param.dat_ptr      = 0;
 909:..\src\app\alt_mode/vdm_task_mngr.c ****     dpm_cmd_param.timeout      = 15;
 910:..\src\app\alt_mode/vdm_task_mngr.c **** 
 911:..\src\app\alt_mode/vdm_task_mngr.c ****     api_stat = dpm_pd_command (port, DPM_CMD_SEND_SOFT_RESET_EMCA, &dpm_cmd_param, sop_dp_soft_rese
 912:..\src\app\alt_mode/vdm_task_mngr.c ****     switch (api_stat)
 913:..\src\app\alt_mode/vdm_task_mngr.c ****     {
 914:..\src\app\alt_mode/vdm_task_mngr.c ****         case CCG_STAT_SUCCESS:
 915:..\src\app\alt_mode/vdm_task_mngr.c ****             /* Wait for the cable SOFT_RESET response. */
 916:..\src\app\alt_mode/vdm_task_mngr.c ****             vdm_emca_rst_state[port] = CABLE_DP_RESET_WAIT;
 917:..\src\app\alt_mode/vdm_task_mngr.c ****             break;
 918:..\src\app\alt_mode/vdm_task_mngr.c **** 
 919:..\src\app\alt_mode/vdm_task_mngr.c ****         case CCG_STAT_BUSY:
 920:..\src\app\alt_mode/vdm_task_mngr.c ****         case CCG_STAT_NOT_READY:
 921:..\src\app\alt_mode/vdm_task_mngr.c ****             /* Need to retry the command. */
 922:..\src\app\alt_mode/vdm_task_mngr.c ****             vdm_emca_rst_state[port] = CABLE_DP_RESET_RETRY;
 923:..\src\app\alt_mode/vdm_task_mngr.c ****             break;
 924:..\src\app\alt_mode/vdm_task_mngr.c **** 
 925:..\src\app\alt_mode/vdm_task_mngr.c ****         default:
 926:..\src\app\alt_mode/vdm_task_mngr.c ****             /* Connection state changed. Abort the Cable SOFT_RESET process. */
 927:..\src\app\alt_mode/vdm_task_mngr.c ****             vdm_emca_rst_state[port] = CABLE_DP_RESET_DONE;
 928:..\src\app\alt_mode/vdm_task_mngr.c ****             break;
 929:..\src\app\alt_mode/vdm_task_mngr.c ****     }
 930:..\src\app\alt_mode/vdm_task_mngr.c **** }
 931:..\src\app\alt_mode/vdm_task_mngr.c **** 
 932:..\src\app\alt_mode/vdm_task_mngr.c **** /* Fill DPM cmd buffer with properly VDM info */
 933:..\src\app\alt_mode/vdm_task_mngr.c **** static uint8_t compose_vdm(uint8_t port)
 934:..\src\app\alt_mode/vdm_task_mngr.c **** {
 935:..\src\app\alt_mode/vdm_task_mngr.c ****     uint8_t           idx;
 936:..\src\app\alt_mode/vdm_task_mngr.c ****     dpm_pd_cmd_buf_t  *vdm_buf = get_vdm_buff(port);
 937:..\src\app\alt_mode/vdm_task_mngr.c ****     vdm_msg_info_t    *msg_p   = get_msg(port);
 938:..\src\app\alt_mode/vdm_task_mngr.c **** 
 939:..\src\app\alt_mode/vdm_task_mngr.c ****     vdm_buf->cmd_sop                = msg_p->sop_type;
 940:..\src\app\alt_mode/vdm_task_mngr.c ****     vdm_buf->no_of_cmd_do           = msg_p->vdo_numb + VDO_START_IDX;
 941:..\src\app\alt_mode/vdm_task_mngr.c ****     vdm_buf->cmd_do[VDM_HEADER_IDX] = msg_p->vdm_header;
 942:..\src\app\alt_mode/vdm_task_mngr.c **** 
 943:..\src\app\alt_mode/vdm_task_mngr.c ****     if (msg_p->VDM_HDR.vdm_type == VDM_TYPE_STRUCTURED)
 944:..\src\app\alt_mode/vdm_task_mngr.c ****     {
 945:..\src\app\alt_mode/vdm_task_mngr.c ****         msg_p->VDM_HDR.cmd_type    = CMD_TYPE_INITIATOR;
 946:..\src\app\alt_mode/vdm_task_mngr.c **** 
 947:..\src\app\alt_mode/vdm_task_mngr.c ****         if (vdm_buf->cmd_sop == SOP)
ARM GAS  e:\temp\ccdoSeHU.s 			page 20


 948:..\src\app\alt_mode/vdm_task_mngr.c ****         {
 949:..\src\app\alt_mode/vdm_task_mngr.c ****             vdm_buf->cmd_do[VDM_HEADER_IDX].std_vdm_hdr.st_ver = app_get_status(port)->vdm_version;
 950:..\src\app\alt_mode/vdm_task_mngr.c ****         }
 951:..\src\app\alt_mode/vdm_task_mngr.c ****         else
 952:..\src\app\alt_mode/vdm_task_mngr.c ****         {
 953:..\src\app\alt_mode/vdm_task_mngr.c ****             vdm_buf->cmd_do[VDM_HEADER_IDX].std_vdm_hdr.st_ver = dpm_get_info(port)->cbl_vdm_versio
 954:..\src\app\alt_mode/vdm_task_mngr.c ****         }
 955:..\src\app\alt_mode/vdm_task_mngr.c **** 
 956:..\src\app\alt_mode/vdm_task_mngr.c ****         /* Set exceptions for Enter/Exit mode cmd period */
 957:..\src\app\alt_mode/vdm_task_mngr.c ****         switch (msg_p->VDM_HDR.cmd)
 958:..\src\app\alt_mode/vdm_task_mngr.c ****         {
 959:..\src\app\alt_mode/vdm_task_mngr.c ****             case VDM_CMD_ENTER_MODE:
 960:..\src\app\alt_mode/vdm_task_mngr.c ****                 vdm_buf->timeout = PD_VDM_ENTER_MODE_RESPONSE_TIMER_PERIOD;
 961:..\src\app\alt_mode/vdm_task_mngr.c ****                 break;
 962:..\src\app\alt_mode/vdm_task_mngr.c ****             case VDM_CMD_EXIT_MODE:
 963:..\src\app\alt_mode/vdm_task_mngr.c ****                 vdm_buf->timeout = PD_VDM_EXIT_MODE_RESPONSE_TIMER_PERIOD;
 964:..\src\app\alt_mode/vdm_task_mngr.c ****                 break;
 965:..\src\app\alt_mode/vdm_task_mngr.c ****             case VDM_CMD_ATTENTION:
 966:..\src\app\alt_mode/vdm_task_mngr.c ****                 /* No timeout required for attention messages. */
 967:..\src\app\alt_mode/vdm_task_mngr.c ****                 vdm_buf->timeout = NO_DATA;
 968:..\src\app\alt_mode/vdm_task_mngr.c ****                 break;
 969:..\src\app\alt_mode/vdm_task_mngr.c ****             default:
 970:..\src\app\alt_mode/vdm_task_mngr.c ****                 vdm_buf->timeout = PD_VDM_RESPONSE_TIMER_PERIOD;
 971:..\src\app\alt_mode/vdm_task_mngr.c ****                 break;
 972:..\src\app\alt_mode/vdm_task_mngr.c ****         }
 973:..\src\app\alt_mode/vdm_task_mngr.c ****     }
 974:..\src\app\alt_mode/vdm_task_mngr.c ****     /* Handle UVDM */
 975:..\src\app\alt_mode/vdm_task_mngr.c ****     else
 976:..\src\app\alt_mode/vdm_task_mngr.c ****     {
 977:..\src\app\alt_mode/vdm_task_mngr.c ****         vdm_buf->timeout = PD_VDM_RESPONSE_TIMER_PERIOD;
 978:..\src\app\alt_mode/vdm_task_mngr.c ****     }
 979:..\src\app\alt_mode/vdm_task_mngr.c **** 
 980:..\src\app\alt_mode/vdm_task_mngr.c ****     /* Copy VDOs to send buffer */
 981:..\src\app\alt_mode/vdm_task_mngr.c ****     if (msg_p->vdo_numb > NO_DATA)
 982:..\src\app\alt_mode/vdm_task_mngr.c ****     {
 983:..\src\app\alt_mode/vdm_task_mngr.c ****         for (idx = 0; idx < msg_p->vdo_numb; idx++)
 984:..\src\app\alt_mode/vdm_task_mngr.c ****         {
 985:..\src\app\alt_mode/vdm_task_mngr.c ****             vdm_buf->cmd_do[idx + VDO_START_IDX].val = msg_p->vdo[idx].val;
 986:..\src\app\alt_mode/vdm_task_mngr.c ****         }
 987:..\src\app\alt_mode/vdm_task_mngr.c ****     }
 988:..\src\app\alt_mode/vdm_task_mngr.c **** 
 989:..\src\app\alt_mode/vdm_task_mngr.c ****     return true;
 990:..\src\app\alt_mode/vdm_task_mngr.c **** }
 991:..\src\app\alt_mode/vdm_task_mngr.c **** 
 992:..\src\app\alt_mode/vdm_task_mngr.c **** /* Parse received VDM and save info in  */
 993:..\src\app\alt_mode/vdm_task_mngr.c **** static uint8_t parse_vdm(uint8_t port, const pd_packet_t* rec_vdm)
 994:..\src\app\alt_mode/vdm_task_mngr.c **** {
 995:..\src\app\alt_mode/vdm_task_mngr.c ****     uint8_t vdo_idx;
 996:..\src\app\alt_mode/vdm_task_mngr.c ****     vdm_msg_info_t *msg_p  = get_msg (port);
 997:..\src\app\alt_mode/vdm_task_mngr.c **** 
 998:..\src\app\alt_mode/vdm_task_mngr.c ****     msg_p->vdm_header = rec_vdm->dat[VDM_HEADER_IDX];
 999:..\src\app\alt_mode/vdm_task_mngr.c ****     msg_p->vdo_numb   = (rec_vdm->len - VDO_START_IDX);
1000:..\src\app\alt_mode/vdm_task_mngr.c ****     msg_p->sop_type   = rec_vdm->sop;
1001:..\src\app\alt_mode/vdm_task_mngr.c **** 
1002:..\src\app\alt_mode/vdm_task_mngr.c ****     /* If VDO is present in received VDM */
1003:..\src\app\alt_mode/vdm_task_mngr.c ****     if (rec_vdm->len > VDO_START_IDX)
1004:..\src\app\alt_mode/vdm_task_mngr.c ****     {
ARM GAS  e:\temp\ccdoSeHU.s 			page 21


1005:..\src\app\alt_mode/vdm_task_mngr.c ****         for (vdo_idx = 0; vdo_idx < rec_vdm->len; vdo_idx++)
1006:..\src\app\alt_mode/vdm_task_mngr.c ****         {
1007:..\src\app\alt_mode/vdm_task_mngr.c ****             msg_p->vdo[vdo_idx].val = rec_vdm->dat[vdo_idx + VDO_START_IDX].val;
1008:..\src\app\alt_mode/vdm_task_mngr.c ****         }
1009:..\src\app\alt_mode/vdm_task_mngr.c ****     }
1010:..\src\app\alt_mode/vdm_task_mngr.c **** 
1011:..\src\app\alt_mode/vdm_task_mngr.c ****     return true;
1012:..\src\app\alt_mode/vdm_task_mngr.c **** }
1013:..\src\app\alt_mode/vdm_task_mngr.c **** 
1014:..\src\app\alt_mode/vdm_task_mngr.c **** static vdm_task_t send_vdm(uint8_t port)
1015:..\src\app\alt_mode/vdm_task_mngr.c **** {
1016:..\src\app\alt_mode/vdm_task_mngr.c ****     if ((gl_dpm_port_type[port] == PRT_TYPE_DFP) && (get_vdm_buff(port)->cmd_sop == SOP_DPRIME))
1017:..\src\app\alt_mode/vdm_task_mngr.c ****     {
1018:..\src\app\alt_mode/vdm_task_mngr.c ****         switch (vdm_emca_rst_state[port])
1019:..\src\app\alt_mode/vdm_task_mngr.c ****         {
1020:..\src\app\alt_mode/vdm_task_mngr.c ****             /* If SOP'' SOFT RESET has not been done or a retry is pending, try to send it. */
1021:..\src\app\alt_mode/vdm_task_mngr.c ****             case CABLE_DP_RESET_IDLE:
1022:..\src\app\alt_mode/vdm_task_mngr.c ****             case CABLE_DP_RESET_RETRY:
1023:..\src\app\alt_mode/vdm_task_mngr.c ****                 send_sop_dp_soft_reset(port);
1024:..\src\app\alt_mode/vdm_task_mngr.c ****                 /* Intentional fall-through. */
1025:..\src\app\alt_mode/vdm_task_mngr.c **** 
1026:..\src\app\alt_mode/vdm_task_mngr.c ****             case CABLE_DP_RESET_WAIT:
1027:..\src\app\alt_mode/vdm_task_mngr.c ****                 return VDM_TASK_SEND_MSG;
1028:..\src\app\alt_mode/vdm_task_mngr.c **** 
1029:..\src\app\alt_mode/vdm_task_mngr.c ****             default:
1030:..\src\app\alt_mode/vdm_task_mngr.c ****                 /* EMCA SOFT_RESET done. We can proceed. */
1031:..\src\app\alt_mode/vdm_task_mngr.c ****                 break;
1032:..\src\app\alt_mode/vdm_task_mngr.c ****         }
1033:..\src\app\alt_mode/vdm_task_mngr.c ****     }
1034:..\src\app\alt_mode/vdm_task_mngr.c **** 
1035:..\src\app\alt_mode/vdm_task_mngr.c ****     app_get_status(port)->vdm_retry_pending = (vdm_stat[port].rec_retry_cnt != MAX_RETRY_CNT);
1036:..\src\app\alt_mode/vdm_task_mngr.c ****     if (dpm_pd_command (port, DPM_CMD_SEND_VDM, get_vdm_buff(port), vdm_rec_cbk) == CCG_STAT_SUCCES
1037:..\src\app\alt_mode/vdm_task_mngr.c ****     {
1038:..\src\app\alt_mode/vdm_task_mngr.c ****         return VDM_TASK_WAIT;
1039:..\src\app\alt_mode/vdm_task_mngr.c ****     }
1040:..\src\app\alt_mode/vdm_task_mngr.c **** 
1041:..\src\app\alt_mode/vdm_task_mngr.c ****     /* If fails - try to send VDM again */
1042:..\src\app\alt_mode/vdm_task_mngr.c ****     return VDM_TASK_SEND_MSG;
1043:..\src\app\alt_mode/vdm_task_mngr.c **** }
1044:..\src\app\alt_mode/vdm_task_mngr.c **** 
1045:..\src\app\alt_mode/vdm_task_mngr.c **** #if ((CCG_PD_REV3_ENABLE) && (UFP_ALT_MODE_SUPP) && (UFP_MODE_DISC_ENABLE))
1046:..\src\app\alt_mode/vdm_task_mngr.c **** bool is_ufp_disc_started(uint8_t port)
1047:..\src\app\alt_mode/vdm_task_mngr.c **** {
1048:..\src\app\alt_mode/vdm_task_mngr.c ****     if (is_vdm_task_idle(port) == true)
1049:..\src\app\alt_mode/vdm_task_mngr.c ****     {
1050:..\src\app\alt_mode/vdm_task_mngr.c ****         /* Set VDM Task to send DISC ID VDM */
1051:..\src\app\alt_mode/vdm_task_mngr.c ****         set_task(port, VDM_TASK_DISC_ID);
1052:..\src\app\alt_mode/vdm_task_mngr.c ****         set_evt(port, VDM_EVT_RUN);
1053:..\src\app\alt_mode/vdm_task_mngr.c ****         return true;
1054:..\src\app\alt_mode/vdm_task_mngr.c ****     }
1055:..\src\app\alt_mode/vdm_task_mngr.c **** 
1056:..\src\app\alt_mode/vdm_task_mngr.c ****     return false;
1057:..\src\app\alt_mode/vdm_task_mngr.c **** }
1058:..\src\app\alt_mode/vdm_task_mngr.c **** #endif /* (CCG_PD_REV3_ENABLE) && (UFP_ALT_MODE_SUPP) && (UFP_MODE_DISC_ENABLE) */
1059:..\src\app\alt_mode/vdm_task_mngr.c **** 
1060:..\src\app\alt_mode/vdm_task_mngr.c **** bool is_vdm_mngr_enabled(uint8_t port)
1061:..\src\app\alt_mode/vdm_task_mngr.c **** {
ARM GAS  e:\temp\ccdoSeHU.s 			page 22


1062:..\src\app\alt_mode/vdm_task_mngr.c ****     return (bool)app_get_status(port)->vdm_task_en;
1063:..\src\app\alt_mode/vdm_task_mngr.c **** }
1064:..\src\app\alt_mode/vdm_task_mngr.c **** 
1065:..\src\app\alt_mode/vdm_task_mngr.c **** vdm_evt_t get_evt(uint8_t port)
1066:..\src\app\alt_mode/vdm_task_mngr.c **** {
1067:..\src\app\alt_mode/vdm_task_mngr.c ****     return vdm_stat[port].vdm_evt;
1068:..\src\app\alt_mode/vdm_task_mngr.c **** }
1069:..\src\app\alt_mode/vdm_task_mngr.c **** 
1070:..\src\app\alt_mode/vdm_task_mngr.c **** vdm_task_t get_task(uint8_t port)
1071:..\src\app\alt_mode/vdm_task_mngr.c **** {
1072:..\src\app\alt_mode/vdm_task_mngr.c ****     return vdm_stat[port].vdm_task;
1073:..\src\app\alt_mode/vdm_task_mngr.c **** }
1074:..\src\app\alt_mode/vdm_task_mngr.c **** 
1075:..\src\app\alt_mode/vdm_task_mngr.c **** void set_task(uint8_t port, vdm_task_t task)
1076:..\src\app\alt_mode/vdm_task_mngr.c **** {
1077:..\src\app\alt_mode/vdm_task_mngr.c ****     vdm_stat[port].vdm_task = task;
1078:..\src\app\alt_mode/vdm_task_mngr.c **** }
1079:..\src\app\alt_mode/vdm_task_mngr.c **** 
1080:..\src\app\alt_mode/vdm_task_mngr.c **** void set_evt(uint8_t port, vdm_evt_t evt)
1081:..\src\app\alt_mode/vdm_task_mngr.c **** {
1082:..\src\app\alt_mode/vdm_task_mngr.c ****     vdm_stat[port].vdm_evt = evt;
1083:..\src\app\alt_mode/vdm_task_mngr.c **** }
1084:..\src\app\alt_mode/vdm_task_mngr.c **** 
1085:..\src\app\alt_mode/vdm_task_mngr.c **** static vdm_msg_info_t* get_msg(uint8_t port)
1086:..\src\app\alt_mode/vdm_task_mngr.c **** {
 134              		.loc 1 1086 0
 135              		.cfi_startproc
 136              		@ args = 0, pretend = 0, frame = 0
 137              		@ frame_needed = 0, uses_anonymous_args = 0
 138              		@ link register save eliminated.
 139              	.LVL11:
1087:..\src\app\alt_mode/vdm_task_mngr.c ****     return &vdm_stat[port].vdm_msg;
 140              		.loc 1 1087 0
 141 0000 C300     		lsls	r3, r0, #3
 142 0002 1818     		adds	r0, r3, r0
 143              	.LVL12:
 144 0004 C300     		lsls	r3, r0, #3
 145 0006 2033     		adds	r3, r3, #32
 146 0008 0148     		ldr	r0, .L15
 147 000a 1818     		adds	r0, r3, r0
1088:..\src\app\alt_mode/vdm_task_mngr.c **** }
 148              		.loc 1 1088 0
 149              		@ sp needed
 150 000c 7047     		bx	lr
 151              	.L16:
 152 000e C046     		.align	2
 153              	.L15:
 154 0010 00000000 		.word	vdm_stat
 155              		.cfi_endproc
 156              	.LFE56:
 157              		.size	get_msg, .-get_msg
 158              		.section	.text.set_disc_svid_param,"ax",%progbits
 159              		.align	2
 160              		.code	16
 161              		.thumb_func
 162              		.type	set_disc_svid_param, %function
 163              	set_disc_svid_param:
ARM GAS  e:\temp\ccdoSeHU.s 			page 23


 164              	.LFB42:
 647:..\src\app\alt_mode/vdm_task_mngr.c ****     vdm_msg_info_t *msg_p = get_msg (port);
 165              		.loc 1 647 0
 166              		.cfi_startproc
 167              		@ args = 0, pretend = 0, frame = 0
 168              		@ frame_needed = 0, uses_anonymous_args = 0
 169              	.LVL13:
 170 0000 10B5     		push	{r4, lr}
 171              		.cfi_def_cfa_offset 8
 172              		.cfi_offset 4, -8
 173              		.cfi_offset 14, -4
 174 0002 0C00     		movs	r4, r1
 648:..\src\app\alt_mode/vdm_task_mngr.c **** 
 175              		.loc 1 648 0
 176 0004 FFF7FEFF 		bl	get_msg
 177              	.LVL14:
 651:..\src\app\alt_mode/vdm_task_mngr.c ****     msg_p->VDM_HDR.cmd      = VDM_CMD_DSC_SVIDS;
 178              		.loc 1 651 0
 179 0008 054B     		ldr	r3, .L18
 180 000a 4380     		strh	r3, [r0, #2]
 652:..\src\app\alt_mode/vdm_task_mngr.c ****     msg_p->VDM_HDR.obj_pos  = NO_DATA;
 181              		.loc 1 652 0
 182 000c 0333     		adds	r3, r3, #3
 183 000e FF33     		adds	r3, r3, #255
 184 0010 0370     		strb	r3, [r0]
 654:..\src\app\alt_mode/vdm_task_mngr.c ****     msg_p->vdo_numb         = NO_DATA;
 185              		.loc 1 654 0
 186 0012 0471     		strb	r4, [r0, #4]
 655:..\src\app\alt_mode/vdm_task_mngr.c ****     msg_p->VDM_HDR.vdm_type = VDM_TYPE_STRUCTURED;
 187              		.loc 1 655 0
 188 0014 0023     		movs	r3, #0
 189 0016 4371     		strb	r3, [r0, #5]
 656:..\src\app\alt_mode/vdm_task_mngr.c **** }
 190              		.loc 1 656 0
 191 0018 803B     		subs	r3, r3, #128
 192 001a 4370     		strb	r3, [r0, #1]
 657:..\src\app\alt_mode/vdm_task_mngr.c **** 
 193              		.loc 1 657 0
 194              		@ sp needed
 195 001c 10BD     		pop	{r4, pc}
 196              	.L19:
 197 001e C046     		.align	2
 198              	.L18:
 199 0020 00FFFFFF 		.word	-256
 200              		.cfi_endproc
 201              	.LFE42:
 202              		.size	set_disc_svid_param, .-set_disc_svid_param
 203              		.section	.text.parse_vdm,"ax",%progbits
 204              		.align	2
 205              		.code	16
 206              		.thumb_func
 207              		.type	parse_vdm, %function
 208              	parse_vdm:
 209              	.LFB49:
 994:..\src\app\alt_mode/vdm_task_mngr.c ****     uint8_t vdo_idx;
 210              		.loc 1 994 0
 211              		.cfi_startproc
ARM GAS  e:\temp\ccdoSeHU.s 			page 24


 212              		@ args = 0, pretend = 0, frame = 0
 213              		@ frame_needed = 0, uses_anonymous_args = 0
 214              	.LVL15:
 215 0000 10B5     		push	{r4, lr}
 216              		.cfi_def_cfa_offset 8
 217              		.cfi_offset 4, -8
 218              		.cfi_offset 14, -4
 219 0002 0C00     		movs	r4, r1
 996:..\src\app\alt_mode/vdm_task_mngr.c **** 
 220              		.loc 1 996 0
 221 0004 FFF7FEFF 		bl	get_msg
 222              	.LVL16:
 998:..\src\app\alt_mode/vdm_task_mngr.c ****     msg_p->vdo_numb   = (rec_vdm->len - VDO_START_IDX);
 223              		.loc 1 998 0
 224 0008 A368     		ldr	r3, [r4, #8]
 225 000a 0360     		str	r3, [r0]
 999:..\src\app\alt_mode/vdm_task_mngr.c ****     msg_p->sop_type   = rec_vdm->sop;
 226              		.loc 1 999 0
 227 000c 6378     		ldrb	r3, [r4, #1]
 228 000e 013B     		subs	r3, r3, #1
 229 0010 4371     		strb	r3, [r0, #5]
1000:..\src\app\alt_mode/vdm_task_mngr.c **** 
 230              		.loc 1 1000 0
 231 0012 2378     		ldrb	r3, [r4]
 232 0014 0371     		strb	r3, [r0, #4]
1003:..\src\app\alt_mode/vdm_task_mngr.c ****     {
 233              		.loc 1 1003 0
 234 0016 6378     		ldrb	r3, [r4, #1]
 235 0018 012B     		cmp	r3, #1
 236 001a 09D8     		bhi	.L24
 237 001c 0CE0     		b	.L22
 238              	.LVL17:
 239              	.L23:
1007:..\src\app\alt_mode/vdm_task_mngr.c ****         }
 240              		.loc 1 1007 0 discriminator 3
 241 001e 591C     		adds	r1, r3, #1
 242 0020 DA1C     		adds	r2, r3, #3
 243 0022 9200     		lsls	r2, r2, #2
 244 0024 1259     		ldr	r2, [r2, r4]
 245 0026 0233     		adds	r3, r3, #2
 246              	.LVL18:
 247 0028 9B00     		lsls	r3, r3, #2
 248 002a 1A50     		str	r2, [r3, r0]
1005:..\src\app\alt_mode/vdm_task_mngr.c ****         {
 249              		.loc 1 1005 0 discriminator 3
 250 002c CBB2     		uxtb	r3, r1
 251              	.LVL19:
 252 002e 00E0     		b	.L21
 253              	.LVL20:
 254              	.L24:
 255 0030 0023     		movs	r3, #0
 256              	.L21:
 257              	.LVL21:
1005:..\src\app\alt_mode/vdm_task_mngr.c ****         {
 258              		.loc 1 1005 0 is_stmt 0 discriminator 1
 259 0032 6278     		ldrb	r2, [r4, #1]
 260 0034 9342     		cmp	r3, r2
ARM GAS  e:\temp\ccdoSeHU.s 			page 25


 261 0036 F2D3     		bcc	.L23
 262              	.LVL22:
 263              	.L22:
1012:..\src\app\alt_mode/vdm_task_mngr.c **** 
 264              		.loc 1 1012 0 is_stmt 1
 265 0038 0120     		movs	r0, #1
 266              	.LVL23:
 267              		@ sp needed
 268              	.LVL24:
 269 003a 10BD     		pop	{r4, pc}
 270              		.cfi_endproc
 271              	.LFE49:
 272              		.size	parse_vdm, .-parse_vdm
 273              		.section	.text.is_vdm_mngr_enabled,"ax",%progbits
 274              		.align	2
 275              		.code	16
 276              		.thumb_func
 277              		.type	is_vdm_mngr_enabled, %function
 278              	is_vdm_mngr_enabled:
 279              	.LFB51:
1061:..\src\app\alt_mode/vdm_task_mngr.c ****     return (bool)app_get_status(port)->vdm_task_en;
 280              		.loc 1 1061 0
 281              		.cfi_startproc
 282              		@ args = 0, pretend = 0, frame = 0
 283              		@ frame_needed = 0, uses_anonymous_args = 0
 284              	.LVL25:
 285 0000 10B5     		push	{r4, lr}
 286              		.cfi_def_cfa_offset 8
 287              		.cfi_offset 4, -8
 288              		.cfi_offset 14, -4
1062:..\src\app\alt_mode/vdm_task_mngr.c **** }
 289              		.loc 1 1062 0
 290 0002 FFF7FEFF 		bl	app_get_status
 291              	.LVL26:
 292 0006 3823     		movs	r3, #56
 293 0008 C05C     		ldrb	r0, [r0, r3]
 294 000a 431E     		subs	r3, r0, #1
 295 000c 9841     		sbcs	r0, r0, r3
 296 000e C0B2     		uxtb	r0, r0
1063:..\src\app\alt_mode/vdm_task_mngr.c **** 
 297              		.loc 1 1063 0
 298              		@ sp needed
 299 0010 10BD     		pop	{r4, pc}
 300              		.cfi_endproc
 301              	.LFE51:
 302              		.size	is_vdm_mngr_enabled, .-is_vdm_mngr_enabled
 303 0012 C046     		.section	.text.reset_vdm_mngr,"ax",%progbits
 304              		.align	2
 305              		.code	16
 306              		.thumb_func
 307              		.type	reset_vdm_mngr, %function
 308              	reset_vdm_mngr:
 309              	.LFB44:
 833:..\src\app\alt_mode/vdm_task_mngr.c ****     vdm_stat[port].rec_retry_cnt = NO_DATA;
 310              		.loc 1 833 0
 311              		.cfi_startproc
 312              		@ args = 0, pretend = 0, frame = 0
ARM GAS  e:\temp\ccdoSeHU.s 			page 26


 313              		@ frame_needed = 0, uses_anonymous_args = 0
 314              	.LVL27:
 315 0000 F0B5     		push	{r4, r5, r6, r7, lr}
 316              		.cfi_def_cfa_offset 20
 317              		.cfi_offset 4, -20
 318              		.cfi_offset 5, -16
 319              		.cfi_offset 6, -12
 320              		.cfi_offset 7, -8
 321              		.cfi_offset 14, -4
 322 0002 4746     		mov	r7, r8
 323 0004 80B4     		push	{r7}
 324              		.cfi_def_cfa_offset 24
 325              		.cfi_offset 8, -24
 326 0006 0400     		movs	r4, r0
 834:..\src\app\alt_mode/vdm_task_mngr.c ****     vdm_stat[port].svid_idx      = NO_DATA;
 327              		.loc 1 834 0
 328 0008 C700     		lsls	r7, r0, #3
 329 000a 3A18     		adds	r2, r7, r0
 330 000c D300     		lsls	r3, r2, #3
 331 000e 1B4D     		ldr	r5, .L27
 332 0010 ED18     		adds	r5, r5, r3
 333 0012 2B00     		movs	r3, r5
 334 0014 4433     		adds	r3, r3, #68
 335 0016 0026     		movs	r6, #0
 336 0018 1E70     		strb	r6, [r3]
 835:..\src\app\alt_mode/vdm_task_mngr.c ****     vdm_stat[port].dsvid_cnt     = NO_DATA;
 337              		.loc 1 835 0
 338 001a 0133     		adds	r3, r3, #1
 339 001c 1E70     		strb	r6, [r3]
 836:..\src\app\alt_mode/vdm_task_mngr.c ****     /* Clear arrays which hold SVIDs */
 340              		.loc 1 836 0
 341 001e 0133     		adds	r3, r3, #1
 342 0020 1E70     		strb	r6, [r3]
 838:..\src\app\alt_mode/vdm_task_mngr.c ****     /* Store the pointer to the cable VDO discovered by PD stack. */
 343              		.loc 1 838 0
 344 0022 281D     		adds	r0, r5, #4
 345              	.LVL28:
 346 0024 1C22     		movs	r2, #28
 347 0026 0021     		movs	r1, #0
 348 0028 FFF7FEFF 		bl	memset
 349              	.LVL29:
 840:..\src\app\alt_mode/vdm_task_mngr.c ****     /* Clear the SOP'' reset state. */
 350              		.loc 1 840 0
 351 002c 2000     		movs	r0, r4
 352 002e FFF7FEFF 		bl	dpm_get_info
 353              	.LVL30:
 354 0032 B830     		adds	r0, r0, #184
 355 0034 E860     		str	r0, [r5, #12]
 842:..\src\app\alt_mode/vdm_task_mngr.c ****     vdm_emca_rst_count[port] = 0;
 356              		.loc 1 842 0
 357 0036 124D     		ldr	r5, .L27+4
 358 0038 2E55     		strb	r6, [r5, r4]
 843:..\src\app\alt_mode/vdm_task_mngr.c **** 
 359              		.loc 1 843 0
 360 003a 2B19     		adds	r3, r5, r4
 361 003c 9846     		mov	r8, r3
 362 003e 1E71     		strb	r6, [r3, #4]
ARM GAS  e:\temp\ccdoSeHU.s 			page 27


 846:..\src\app\alt_mode/vdm_task_mngr.c **** 
 363              		.loc 1 846 0
 364 0040 2821     		movs	r1, #40
 365 0042 2000     		movs	r0, r4
 366 0044 FFF7FEFF 		bl	timer_stop
 367              	.LVL31:
 849:..\src\app\alt_mode/vdm_task_mngr.c ****     memset ((uint8_t *)&vdm_disc_id_resp[port], 0, MAX_NO_OF_DO * sizeof (uint32_t));
 368              		.loc 1 849 0
 369 0048 4346     		mov	r3, r8
 370 004a 1E72     		strb	r6, [r3, #8]
 850:..\src\app\alt_mode/vdm_task_mngr.c ****     vdm_disc_svid_resp_len[port] = 0;
 371              		.loc 1 850 0
 372 004c 2A00     		movs	r2, r5
 373 004e 0C32     		adds	r2, r2, #12
 374 0050 3B1B     		subs	r3, r7, r4
 375 0052 9800     		lsls	r0, r3, #2
 376 0054 1018     		adds	r0, r2, r0
 377 0056 1C22     		movs	r2, #28
 378 0058 0021     		movs	r1, #0
 379 005a FFF7FEFF 		bl	memset
 380              	.LVL32:
 851:..\src\app\alt_mode/vdm_task_mngr.c ****     memset ((uint8_t *)&vdm_disc_svid_resp[port], 0, MAX_DISC_SVID_RESP_LEN * sizeof (uint32_t));
 381              		.loc 1 851 0
 382 005e 4423     		movs	r3, #68
 383 0060 4246     		mov	r2, r8
 384 0062 D654     		strb	r6, [r2, r3]
 852:..\src\app\alt_mode/vdm_task_mngr.c **** #endif /* VDM_RESP_QUERY_SUPPORTED */
 385              		.loc 1 852 0
 386 0064 2B00     		movs	r3, r5
 387 0066 4833     		adds	r3, r3, #72
 388 0068 3C19     		adds	r4, r7, r4
 389 006a E000     		lsls	r0, r4, #3
 390 006c 1818     		adds	r0, r3, r0
 391 006e 4822     		movs	r2, #72
 392 0070 0021     		movs	r1, #0
 393 0072 FFF7FEFF 		bl	memset
 394              	.LVL33:
 854:..\src\app\alt_mode/vdm_task_mngr.c **** 
 395              		.loc 1 854 0
 396              		@ sp needed
 397 0076 04BC     		pop	{r2}
 398 0078 9046     		mov	r8, r2
 399 007a F0BD     		pop	{r4, r5, r6, r7, pc}
 400              	.L28:
 401              		.align	2
 402              	.L27:
 403 007c 00000000 		.word	vdm_stat
 404 0080 00000000 		.word	.LANCHOR0
 405              		.cfi_endproc
 406              	.LFE44:
 407              		.size	reset_vdm_mngr, .-reset_vdm_mngr
 408              		.section	.text.save_svids,"ax",%progbits
 409              		.align	2
 410              		.code	16
 411              		.thumb_func
 412              		.type	save_svids, %function
 413              	save_svids:
ARM GAS  e:\temp\ccdoSeHU.s 			page 28


 414              	.LFB41:
 575:..\src\app\alt_mode/vdm_task_mngr.c ****     uint8_t         idx, vdo_count;
 415              		.loc 1 575 0
 416              		.cfi_startproc
 417              		@ args = 0, pretend = 0, frame = 8
 418              		@ frame_needed = 0, uses_anonymous_args = 0
 419              	.LVL34:
 420 0000 F0B5     		push	{r4, r5, r6, r7, lr}
 421              		.cfi_def_cfa_offset 20
 422              		.cfi_offset 4, -20
 423              		.cfi_offset 5, -16
 424              		.cfi_offset 6, -12
 425              		.cfi_offset 7, -8
 426              		.cfi_offset 14, -4
 427 0002 5F46     		mov	r7, fp
 428 0004 5646     		mov	r6, r10
 429 0006 4D46     		mov	r5, r9
 430 0008 4446     		mov	r4, r8
 431 000a F0B4     		push	{r4, r5, r6, r7}
 432              		.cfi_def_cfa_offset 36
 433              		.cfi_offset 8, -36
 434              		.cfi_offset 9, -32
 435              		.cfi_offset 10, -28
 436              		.cfi_offset 11, -24
 437 000c 83B0     		sub	sp, sp, #12
 438              		.cfi_def_cfa_offset 48
 439 000e 8346     		mov	fp, r0
 440 0010 0191     		str	r1, [sp, #4]
 441 0012 9246     		mov	r10, r2
 578:..\src\app\alt_mode/vdm_task_mngr.c ****     bool            retval   = false;
 442              		.loc 1 578 0
 443 0014 C200     		lsls	r2, r0, #3
 444              	.LVL35:
 445 0016 5A44     		add	r2, r2, fp
 446 0018 D300     		lsls	r3, r2, #3
 447 001a 324A     		ldr	r2, .L42
 448 001c D318     		adds	r3, r2, r3
 449 001e 4533     		adds	r3, r3, #69
 450 0020 1E78     		ldrb	r6, [r3]
 451              	.LVL36:
 580:..\src\app\alt_mode/vdm_task_mngr.c **** 
 452              		.loc 1 580 0
 453 0022 FFF7FEFF 		bl	get_msg
 454              	.LVL37:
 455 0026 0700     		movs	r7, r0
 456              	.LVL38:
 583:..\src\app\alt_mode/vdm_task_mngr.c **** 
 457              		.loc 1 583 0
 458 0028 4379     		ldrb	r3, [r0, #5]
 459 002a 9846     		mov	r8, r3
 460              	.LVL39:
 586:..\src\app\alt_mode/vdm_task_mngr.c ****     {
 461              		.loc 1 586 0
 462 002c 052B     		cmp	r3, #5
 463 002e 02D9     		bls	.L38
 579:..\src\app\alt_mode/vdm_task_mngr.c ****     vdm_msg_info_t  *msg_p   = get_msg (port);
 464              		.loc 1 579 0
ARM GAS  e:\temp\ccdoSeHU.s 			page 29


 465 0030 0023     		movs	r3, #0
 466              	.LVL40:
 467 0032 9946     		mov	r9, r3
 468 0034 01E0     		b	.L30
 469              	.LVL41:
 470              	.L38:
 588:..\src\app\alt_mode/vdm_task_mngr.c ****     }
 471              		.loc 1 588 0
 472 0036 0123     		movs	r3, #1
 473              	.LVL42:
 474 0038 9946     		mov	r9, r3
 475              	.L30:
 609:..\src\app\alt_mode/vdm_task_mngr.c ****             }
 476              		.loc 1 609 0 discriminator 1
 477 003a 0024     		movs	r4, #0
 478 003c 27E0     		b	.L31
 479              	.LVL43:
 480              	.L36:
 593:..\src\app\alt_mode/vdm_task_mngr.c ****         {
 481              		.loc 1 593 0
 482 003e E307     		lsls	r3, r4, #31
 483 0040 05D4     		bmi	.L32
 596:..\src\app\alt_mode/vdm_task_mngr.c ****         }
 484              		.loc 1 596 0
 485 0042 6308     		lsrs	r3, r4, #1
 486 0044 0233     		adds	r3, r3, #2
 487 0046 9B00     		lsls	r3, r3, #2
 488 0048 DD59     		ldr	r5, [r3, r7]
 489 004a 2D0C     		lsrs	r5, r5, #16
 490              	.LVL44:
 491 004c 03E0     		b	.L33
 492              	.LVL45:
 493              	.L32:
 601:..\src\app\alt_mode/vdm_task_mngr.c ****         }
 494              		.loc 1 601 0
 495 004e 6308     		lsrs	r3, r4, #1
 496 0050 0233     		adds	r3, r3, #2
 497 0052 9B00     		lsls	r3, r3, #2
 498 0054 FD5A     		ldrh	r5, [r7, r3]
 499              	.LVL46:
 500              	.L33:
 604:..\src\app\alt_mode/vdm_task_mngr.c ****         {
 501              		.loc 1 604 0
 502 0056 5346     		mov	r3, r10
 503 0058 013B     		subs	r3, r3, #1
 504 005a 9E42     		cmp	r6, r3
 505 005c 1CDA     		bge	.L39
 607:..\src\app\alt_mode/vdm_task_mngr.c ****             {
 506              		.loc 1 607 0
 507 005e 002D     		cmp	r5, #0
 508 0060 11D0     		beq	.L40
 614:..\src\app\alt_mode/vdm_task_mngr.c ****                 {
 509              		.loc 1 614 0
 510 0062 2900     		movs	r1, r5
 511 0064 0198     		ldr	r0, [sp, #4]
 512 0066 FFF7FEFF 		bl	is_svid_stored
 513              	.LVL47:
ARM GAS  e:\temp\ccdoSeHU.s 			page 30


 514 006a 0028     		cmp	r0, #0
 515 006c 0DD1     		bne	.L35
 617:..\src\app\alt_mode/vdm_task_mngr.c **** #endif /* SAVE_SUPP_SVID_ONLY */
 516              		.loc 1 617 0
 517 006e 5946     		mov	r1, fp
 518 0070 2800     		movs	r0, r5
 519 0072 FFF7FEFF 		bl	is_svid_supported
 520              	.LVL48:
 521 0076 0028     		cmp	r0, #0
 522 0078 07D0     		beq	.L35
 620:..\src\app\alt_mode/vdm_task_mngr.c ****                         svid_idx++;
 523              		.loc 1 620 0
 524 007a 7300     		lsls	r3, r6, #1
 525 007c 019A     		ldr	r2, [sp, #4]
 526 007e D552     		strh	r5, [r2, r3]
 621:..\src\app\alt_mode/vdm_task_mngr.c ****                     }
 527              		.loc 1 621 0
 528 0080 0136     		adds	r6, r6, #1
 529              	.LVL49:
 530 0082 F6B2     		uxtb	r6, r6
 531              	.LVL50:
 532 0084 01E0     		b	.L35
 533              	.L40:
 609:..\src\app\alt_mode/vdm_task_mngr.c ****             }
 534              		.loc 1 609 0
 535 0086 0123     		movs	r3, #1
 536 0088 9946     		mov	r9, r3
 537              	.LVL51:
 538              	.L35:
 591:..\src\app\alt_mode/vdm_task_mngr.c ****     {
 539              		.loc 1 591 0 discriminator 2
 540 008a 0134     		adds	r4, r4, #1
 541              	.LVL52:
 542 008c E4B2     		uxtb	r4, r4
 543              	.LVL53:
 544              	.L31:
 591:..\src\app\alt_mode/vdm_task_mngr.c ****     {
 545              		.loc 1 591 0 is_stmt 0 discriminator 1
 546 008e 4346     		mov	r3, r8
 547 0090 5B00     		lsls	r3, r3, #1
 548 0092 9C42     		cmp	r4, r3
 549 0094 D3DB     		blt	.L36
 550 0096 01E0     		b	.L34
 551              	.LVL54:
 552              	.L39:
 629:..\src\app\alt_mode/vdm_task_mngr.c ****             break;
 553              		.loc 1 629 0 is_stmt 1
 554 0098 0123     		movs	r3, #1
 555 009a 9946     		mov	r9, r3
 556              	.LVL55:
 557              	.L34:
 635:..\src\app\alt_mode/vdm_task_mngr.c ****     vdm_stat[port].svid_idx = svid_idx;
 558              		.loc 1 635 0
 559 009c 7300     		lsls	r3, r6, #1
 560 009e 019A     		ldr	r2, [sp, #4]
 561 00a0 D218     		adds	r2, r2, r3
 562 00a2 0023     		movs	r3, #0
ARM GAS  e:\temp\ccdoSeHU.s 			page 31


 563 00a4 1380     		strh	r3, [r2]
 636:..\src\app\alt_mode/vdm_task_mngr.c **** 
 564              		.loc 1 636 0
 565 00a6 0F48     		ldr	r0, .L42
 566 00a8 5B46     		mov	r3, fp
 567 00aa DB00     		lsls	r3, r3, #3
 568 00ac 5A46     		mov	r2, fp
 569 00ae 9918     		adds	r1, r3, r2
 570 00b0 CA00     		lsls	r2, r1, #3
 571 00b2 8218     		adds	r2, r0, r2
 572 00b4 1100     		movs	r1, r2
 573 00b6 4531     		adds	r1, r1, #69
 574 00b8 0E70     		strb	r6, [r1]
 639:..\src\app\alt_mode/vdm_task_mngr.c ****     if (vdm_stat[port].dsvid_cnt >= MAX_DISC_SVID_COUNT)
 575              		.loc 1 639 0
 576 00ba 4632     		adds	r2, r2, #70
 577 00bc 1278     		ldrb	r2, [r2]
 578 00be 0132     		adds	r2, r2, #1
 579 00c0 D2B2     		uxtb	r2, r2
 580 00c2 5B44     		add	r3, r3, fp
 581 00c4 D900     		lsls	r1, r3, #3
 582 00c6 4118     		adds	r1, r0, r1
 583 00c8 4631     		adds	r1, r1, #70
 584 00ca 0A70     		strb	r2, [r1]
 640:..\src\app\alt_mode/vdm_task_mngr.c ****         retval = true;
 585              		.loc 1 640 0
 586 00cc 092A     		cmp	r2, #9
 587 00ce 01D9     		bls	.L37
 641:..\src\app\alt_mode/vdm_task_mngr.c **** 
 588              		.loc 1 641 0
 589 00d0 0123     		movs	r3, #1
 590 00d2 9946     		mov	r9, r3
 591              	.LVL56:
 592              	.L37:
 644:..\src\app\alt_mode/vdm_task_mngr.c **** 
 593              		.loc 1 644 0
 594 00d4 4846     		mov	r0, r9
 595 00d6 03B0     		add	sp, sp, #12
 596              		@ sp needed
 597              	.LVL57:
 598              	.LVL58:
 599              	.LVL59:
 600              	.LVL60:
 601              	.LVL61:
 602 00d8 3CBC     		pop	{r2, r3, r4, r5}
 603 00da 9046     		mov	r8, r2
 604 00dc 9946     		mov	r9, r3
 605 00de A246     		mov	r10, r4
 606 00e0 AB46     		mov	fp, r5
 607 00e2 F0BD     		pop	{r4, r5, r6, r7, pc}
 608              	.L43:
 609              		.align	2
 610              	.L42:
 611 00e4 00000000 		.word	vdm_stat
 612              		.cfi_endproc
 613              	.LFE41:
 614              		.size	save_svids, .-save_svids
ARM GAS  e:\temp\ccdoSeHU.s 			page 32


 615              		.section	.text.compose_vdm,"ax",%progbits
 616              		.align	2
 617              		.code	16
 618              		.thumb_func
 619              		.type	compose_vdm, %function
 620              	compose_vdm:
 621              	.LFB48:
 934:..\src\app\alt_mode/vdm_task_mngr.c ****     uint8_t           idx;
 622              		.loc 1 934 0
 623              		.cfi_startproc
 624              		@ args = 0, pretend = 0, frame = 0
 625              		@ frame_needed = 0, uses_anonymous_args = 0
 626              	.LVL62:
 627 0000 70B5     		push	{r4, r5, r6, lr}
 628              		.cfi_def_cfa_offset 16
 629              		.cfi_offset 4, -16
 630              		.cfi_offset 5, -12
 631              		.cfi_offset 6, -8
 632              		.cfi_offset 14, -4
 633 0002 0600     		movs	r6, r0
 936:..\src\app\alt_mode/vdm_task_mngr.c ****     vdm_msg_info_t    *msg_p   = get_msg(port);
 634              		.loc 1 936 0
 635 0004 FFF7FEFF 		bl	get_vdm_buff
 636              	.LVL63:
 637 0008 0500     		movs	r5, r0
 638              	.LVL64:
 937:..\src\app\alt_mode/vdm_task_mngr.c **** 
 639              		.loc 1 937 0
 640 000a 3000     		movs	r0, r6
 641              	.LVL65:
 642 000c FFF7FEFF 		bl	get_msg
 643              	.LVL66:
 644 0010 0400     		movs	r4, r0
 645              	.LVL67:
 939:..\src\app\alt_mode/vdm_task_mngr.c ****     vdm_buf->no_of_cmd_do           = msg_p->vdo_numb + VDO_START_IDX;
 646              		.loc 1 939 0
 647 0012 0379     		ldrb	r3, [r0, #4]
 648 0014 2B70     		strb	r3, [r5]
 940:..\src\app\alt_mode/vdm_task_mngr.c ****     vdm_buf->cmd_do[VDM_HEADER_IDX] = msg_p->vdm_header;
 649              		.loc 1 940 0
 650 0016 4379     		ldrb	r3, [r0, #5]
 651 0018 0133     		adds	r3, r3, #1
 652 001a 2B71     		strb	r3, [r5, #4]
 941:..\src\app\alt_mode/vdm_task_mngr.c **** 
 653              		.loc 1 941 0
 654 001c 0368     		ldr	r3, [r0]
 655 001e 2B61     		str	r3, [r5, #16]
 943:..\src\app\alt_mode/vdm_task_mngr.c ****     {
 656              		.loc 1 943 0
 657 0020 4378     		ldrb	r3, [r0, #1]
 658 0022 7F22     		movs	r2, #127
 659 0024 9343     		bics	r3, r2
 660 0026 36D0     		beq	.L45
 945:..\src\app\alt_mode/vdm_task_mngr.c **** 
 661              		.loc 1 945 0
 662 0028 0378     		ldrb	r3, [r0]
 663 002a 403A     		subs	r2, r2, #64
ARM GAS  e:\temp\ccdoSeHU.s 			page 33


 664 002c 1340     		ands	r3, r2
 665 002e 0370     		strb	r3, [r0]
 947:..\src\app\alt_mode/vdm_task_mngr.c ****         {
 666              		.loc 1 947 0
 667 0030 2B78     		ldrb	r3, [r5]
 668 0032 002B     		cmp	r3, #0
 669 0034 0DD1     		bne	.L46
 949:..\src\app\alt_mode/vdm_task_mngr.c ****         }
 670              		.loc 1 949 0
 671 0036 3000     		movs	r0, r6
 672              	.LVL68:
 673 0038 FFF7FEFF 		bl	app_get_status
 674              	.LVL69:
 675 003c 3A23     		movs	r3, #58
 676 003e C35C     		ldrb	r3, [r0, r3]
 677 0040 0322     		movs	r2, #3
 678 0042 1340     		ands	r3, r2
 679 0044 5A01     		lsls	r2, r3, #5
 680 0046 6B7C     		ldrb	r3, [r5, #17]
 681 0048 6021     		movs	r1, #96
 682 004a 8B43     		bics	r3, r1
 683 004c 1343     		orrs	r3, r2
 684 004e 6B74     		strb	r3, [r5, #17]
 685 0050 0CE0     		b	.L47
 686              	.LVL70:
 687              	.L46:
 953:..\src\app\alt_mode/vdm_task_mngr.c ****         }
 688              		.loc 1 953 0
 689 0052 3000     		movs	r0, r6
 690              	.LVL71:
 691 0054 FFF7FEFF 		bl	dpm_get_info
 692              	.LVL72:
 693 0058 7C23     		movs	r3, #124
 694 005a C35C     		ldrb	r3, [r0, r3]
 695 005c 0322     		movs	r2, #3
 696 005e 1340     		ands	r3, r2
 697 0060 5A01     		lsls	r2, r3, #5
 698 0062 6B7C     		ldrb	r3, [r5, #17]
 699 0064 6021     		movs	r1, #96
 700 0066 8B43     		bics	r3, r1
 701 0068 1343     		orrs	r3, r2
 702 006a 6B74     		strb	r3, [r5, #17]
 703              	.L47:
 957:..\src\app\alt_mode/vdm_task_mngr.c ****         {
 704              		.loc 1 957 0
 705 006c 2378     		ldrb	r3, [r4]
 706 006e DB06     		lsls	r3, r3, #27
 707 0070 DB0E     		lsrs	r3, r3, #27
 708 0072 052B     		cmp	r3, #5
 709 0074 06D0     		beq	.L49
 710 0076 062B     		cmp	r3, #6
 711 0078 07D0     		beq	.L50
 712 007a 042B     		cmp	r3, #4
 713 007c 08D1     		bne	.L57
 960:..\src\app\alt_mode/vdm_task_mngr.c ****                 break;
 714              		.loc 1 960 0
 715 007e 2933     		adds	r3, r3, #41
ARM GAS  e:\temp\ccdoSeHU.s 			page 34


 716 0080 2B73     		strb	r3, [r5, #12]
 961:..\src\app\alt_mode/vdm_task_mngr.c ****             case VDM_CMD_EXIT_MODE:
 717              		.loc 1 961 0
 718 0082 0AE0     		b	.L52
 719              	.L49:
 963:..\src\app\alt_mode/vdm_task_mngr.c ****                 break;
 720              		.loc 1 963 0
 721 0084 2D23     		movs	r3, #45
 722 0086 2B73     		strb	r3, [r5, #12]
 964:..\src\app\alt_mode/vdm_task_mngr.c ****             case VDM_CMD_ATTENTION:
 723              		.loc 1 964 0
 724 0088 07E0     		b	.L52
 725              	.L50:
 967:..\src\app\alt_mode/vdm_task_mngr.c ****                 break;
 726              		.loc 1 967 0
 727 008a 0023     		movs	r3, #0
 728 008c 2B73     		strb	r3, [r5, #12]
 968:..\src\app\alt_mode/vdm_task_mngr.c ****             default:
 729              		.loc 1 968 0
 730 008e 04E0     		b	.L52
 731              	.L57:
 970:..\src\app\alt_mode/vdm_task_mngr.c ****                 break;
 732              		.loc 1 970 0
 733 0090 1923     		movs	r3, #25
 734 0092 2B73     		strb	r3, [r5, #12]
 971:..\src\app\alt_mode/vdm_task_mngr.c ****         }
 735              		.loc 1 971 0
 736 0094 01E0     		b	.L52
 737              	.LVL73:
 738              	.L45:
 977:..\src\app\alt_mode/vdm_task_mngr.c ****     }
 739              		.loc 1 977 0
 740 0096 1923     		movs	r3, #25
 741 0098 2B73     		strb	r3, [r5, #12]
 742              	.LVL74:
 743              	.L52:
 981:..\src\app\alt_mode/vdm_task_mngr.c ****     {
 744              		.loc 1 981 0
 745 009a 6379     		ldrb	r3, [r4, #5]
 746 009c 002B     		cmp	r3, #0
 747 009e 09D1     		bne	.L56
 748 00a0 0CE0     		b	.L54
 749              	.LVL75:
 750              	.L55:
 985:..\src\app\alt_mode/vdm_task_mngr.c ****         }
 751              		.loc 1 985 0 discriminator 3
 752 00a2 591C     		adds	r1, r3, #1
 753 00a4 9A1C     		adds	r2, r3, #2
 754 00a6 9200     		lsls	r2, r2, #2
 755 00a8 1259     		ldr	r2, [r2, r4]
 756 00aa 0533     		adds	r3, r3, #5
 757              	.LVL76:
 758 00ac 9B00     		lsls	r3, r3, #2
 759 00ae 5A51     		str	r2, [r3, r5]
 983:..\src\app\alt_mode/vdm_task_mngr.c ****         {
 760              		.loc 1 983 0 discriminator 3
 761 00b0 CBB2     		uxtb	r3, r1
ARM GAS  e:\temp\ccdoSeHU.s 			page 35


 762              	.LVL77:
 763 00b2 00E0     		b	.L53
 764              	.LVL78:
 765              	.L56:
 766 00b4 0023     		movs	r3, #0
 767              	.L53:
 768              	.LVL79:
 983:..\src\app\alt_mode/vdm_task_mngr.c ****         {
 769              		.loc 1 983 0 is_stmt 0 discriminator 1
 770 00b6 6279     		ldrb	r2, [r4, #5]
 771 00b8 9342     		cmp	r3, r2
 772 00ba F2D3     		bcc	.L55
 773              	.LVL80:
 774              	.L54:
 990:..\src\app\alt_mode/vdm_task_mngr.c **** 
 775              		.loc 1 990 0 is_stmt 1
 776 00bc 0120     		movs	r0, #1
 777              		@ sp needed
 778              	.LVL81:
 779              	.LVL82:
 780 00be 70BD     		pop	{r4, r5, r6, pc}
 781              		.cfi_endproc
 782              	.LFE48:
 783              		.size	compose_vdm, .-compose_vdm
 784              		.section	.text.send_sop_dp_soft_reset,"ax",%progbits
 785              		.align	2
 786              		.code	16
 787              		.thumb_func
 788              		.type	send_sop_dp_soft_reset, %function
 789              	send_sop_dp_soft_reset:
 790              	.LFB47:
 902:..\src\app\alt_mode/vdm_task_mngr.c ****     dpm_pd_cmd_buf_t dpm_cmd_param;
 791              		.loc 1 902 0
 792              		.cfi_startproc
 793              		@ args = 0, pretend = 0, frame = 48
 794              		@ frame_needed = 0, uses_anonymous_args = 0
 795              	.LVL83:
 796 0000 10B5     		push	{r4, lr}
 797              		.cfi_def_cfa_offset 8
 798              		.cfi_offset 4, -8
 799              		.cfi_offset 14, -4
 800 0002 8CB0     		sub	sp, sp, #48
 801              		.cfi_def_cfa_offset 56
 802 0004 0400     		movs	r4, r0
 906:..\src\app\alt_mode/vdm_task_mngr.c ****     dpm_cmd_param.no_of_cmd_do = 0;
 803              		.loc 1 906 0
 804 0006 01AA     		add	r2, sp, #4
 805 0008 0223     		movs	r3, #2
 806 000a 1370     		strb	r3, [r2]
 907:..\src\app\alt_mode/vdm_task_mngr.c ****     dpm_cmd_param.dat_ptr      = 0;
 807              		.loc 1 907 0
 808 000c 0023     		movs	r3, #0
 809 000e 1371     		strb	r3, [r2, #4]
 908:..\src\app\alt_mode/vdm_task_mngr.c ****     dpm_cmd_param.timeout      = 15;
 810              		.loc 1 908 0
 811 0010 9360     		str	r3, [r2, #8]
 909:..\src\app\alt_mode/vdm_task_mngr.c **** 
ARM GAS  e:\temp\ccdoSeHU.s 			page 36


 812              		.loc 1 909 0
 813 0012 0F33     		adds	r3, r3, #15
 814 0014 1373     		strb	r3, [r2, #12]
 911:..\src\app\alt_mode/vdm_task_mngr.c ****     switch (api_stat)
 815              		.loc 1 911 0
 816 0016 0C4B     		ldr	r3, .L64
 817 0018 0821     		movs	r1, #8
 818 001a FFF7FEFF 		bl	dpm_pd_command
 819              	.LVL84:
 912:..\src\app\alt_mode/vdm_task_mngr.c ****     {
 820              		.loc 1 912 0
 821 001e 0028     		cmp	r0, #0
 822 0020 05D0     		beq	.L60
 823 0022 0CDB     		blt	.L59
 824 0024 0E38     		subs	r0, r0, #14
 825              	.LVL85:
 826 0026 C0B2     		uxtb	r0, r0
 827 0028 0128     		cmp	r0, #1
 828 002a 04D9     		bls	.L63
 829 002c 07E0     		b	.L59
 830              	.LVL86:
 831              	.L60:
 916:..\src\app\alt_mode/vdm_task_mngr.c ****             break;
 832              		.loc 1 916 0
 833 002e 0122     		movs	r2, #1
 834 0030 064B     		ldr	r3, .L64+4
 835 0032 1A55     		strb	r2, [r3, r4]
 917:..\src\app\alt_mode/vdm_task_mngr.c **** 
 836              		.loc 1 917 0
 837 0034 06E0     		b	.L58
 838              	.LVL87:
 839              	.L63:
 922:..\src\app\alt_mode/vdm_task_mngr.c ****             break;
 840              		.loc 1 922 0
 841 0036 0222     		movs	r2, #2
 842 0038 044B     		ldr	r3, .L64+4
 843 003a 1A55     		strb	r2, [r3, r4]
 923:..\src\app\alt_mode/vdm_task_mngr.c **** 
 844              		.loc 1 923 0
 845 003c 02E0     		b	.L58
 846              	.L59:
 927:..\src\app\alt_mode/vdm_task_mngr.c ****             break;
 847              		.loc 1 927 0
 848 003e 0322     		movs	r2, #3
 849 0040 024B     		ldr	r3, .L64+4
 850 0042 1A55     		strb	r2, [r3, r4]
 851              	.L58:
 930:..\src\app\alt_mode/vdm_task_mngr.c **** 
 852              		.loc 1 930 0
 853 0044 0CB0     		add	sp, sp, #48
 854              		@ sp needed
 855 0046 10BD     		pop	{r4, pc}
 856              	.L65:
 857              		.align	2
 858              	.L64:
 859 0048 00000000 		.word	sop_dp_soft_reset_cb
 860 004c 00000000 		.word	.LANCHOR0
ARM GAS  e:\temp\ccdoSeHU.s 			page 37


 861              		.cfi_endproc
 862              	.LFE47:
 863              		.size	send_sop_dp_soft_reset, .-send_sop_dp_soft_reset
 864              		.section	.text.send_vdm,"ax",%progbits
 865              		.align	2
 866              		.code	16
 867              		.thumb_func
 868              		.type	send_vdm, %function
 869              	send_vdm:
 870              	.LFB50:
1015:..\src\app\alt_mode/vdm_task_mngr.c ****     if ((gl_dpm_port_type[port] == PRT_TYPE_DFP) && (get_vdm_buff(port)->cmd_sop == SOP_DPRIME))
 871              		.loc 1 1015 0
 872              		.cfi_startproc
 873              		@ args = 0, pretend = 0, frame = 0
 874              		@ frame_needed = 0, uses_anonymous_args = 0
 875              	.LVL88:
 876 0000 10B5     		push	{r4, lr}
 877              		.cfi_def_cfa_offset 8
 878              		.cfi_offset 4, -8
 879              		.cfi_offset 14, -4
 880 0002 0400     		movs	r4, r0
1016:..\src\app\alt_mode/vdm_task_mngr.c ****     {
 881              		.loc 1 1016 0
 882 0004 1A4B     		ldr	r3, .L72
 883 0006 1B5C     		ldrb	r3, [r3, r0]
 884 0008 012B     		cmp	r3, #1
 885 000a 11D1     		bne	.L67
1016:..\src\app\alt_mode/vdm_task_mngr.c ****     {
 886              		.loc 1 1016 0 is_stmt 0 discriminator 1
 887 000c FFF7FEFF 		bl	get_vdm_buff
 888              	.LVL89:
 889 0010 0378     		ldrb	r3, [r0]
 890 0012 022B     		cmp	r3, #2
 891 0014 0CD1     		bne	.L67
1018:..\src\app\alt_mode/vdm_task_mngr.c ****         {
 892              		.loc 1 1018 0 is_stmt 1
 893 0016 174B     		ldr	r3, .L72+4
 894 0018 1B5D     		ldrb	r3, [r3, r4]
 895 001a 012B     		cmp	r3, #1
 896 001c 23D0     		beq	.L70
 897 001e 002B     		cmp	r3, #0
 898 0020 01D0     		beq	.L69
 899 0022 022B     		cmp	r3, #2
 900 0024 04D1     		bne	.L67
 901              	.L69:
1023:..\src\app\alt_mode/vdm_task_mngr.c ****                 /* Intentional fall-through. */
 902              		.loc 1 1023 0
 903 0026 2000     		movs	r0, r4
 904 0028 FFF7FEFF 		bl	send_sop_dp_soft_reset
 905              	.LVL90:
1027:..\src\app\alt_mode/vdm_task_mngr.c **** 
 906              		.loc 1 1027 0
 907 002c 0620     		movs	r0, #6
 908 002e 1DE0     		b	.L68
 909              	.L67:
1035:..\src\app\alt_mode/vdm_task_mngr.c ****     if (dpm_pd_command (port, DPM_CMD_SEND_VDM, get_vdm_buff(port), vdm_rec_cbk) == CCG_STAT_SUCCES
 910              		.loc 1 1035 0
ARM GAS  e:\temp\ccdoSeHU.s 			page 38


 911 0030 2000     		movs	r0, r4
 912 0032 FFF7FEFF 		bl	app_get_status
 913              	.LVL91:
 914 0036 E200     		lsls	r2, r4, #3
 915 0038 1219     		adds	r2, r2, r4
 916 003a D300     		lsls	r3, r2, #3
 917 003c 0E4A     		ldr	r2, .L72+8
 918 003e D318     		adds	r3, r2, r3
 919 0040 4433     		adds	r3, r3, #68
 920 0042 1B78     		ldrb	r3, [r3]
 921 0044 093B     		subs	r3, r3, #9
 922 0046 5A1E     		subs	r2, r3, #1
 923 0048 9341     		sbcs	r3, r3, r2
 924 004a 4122     		movs	r2, #65
 925 004c 8354     		strb	r3, [r0, r2]
1036:..\src\app\alt_mode/vdm_task_mngr.c ****     {
 926              		.loc 1 1036 0
 927 004e 2000     		movs	r0, r4
 928 0050 FFF7FEFF 		bl	get_vdm_buff
 929              	.LVL92:
 930 0054 0200     		movs	r2, r0
 931 0056 094B     		ldr	r3, .L72+12
 932 0058 0C21     		movs	r1, #12
 933 005a 2000     		movs	r0, r4
 934 005c FFF7FEFF 		bl	dpm_pd_command
 935              	.LVL93:
 936 0060 0028     		cmp	r0, #0
 937 0062 02D1     		bne	.L71
 938 0064 02E0     		b	.L68
 939              	.L70:
1027:..\src\app\alt_mode/vdm_task_mngr.c **** 
 940              		.loc 1 1027 0
 941 0066 0620     		movs	r0, #6
 942 0068 00E0     		b	.L68
 943              	.L71:
1042:..\src\app\alt_mode/vdm_task_mngr.c **** }
 944              		.loc 1 1042 0
 945 006a 0620     		movs	r0, #6
 946              	.L68:
1043:..\src\app\alt_mode/vdm_task_mngr.c **** 
 947              		.loc 1 1043 0
 948              		@ sp needed
 949 006c 10BD     		pop	{r4, pc}
 950              	.L73:
 951 006e C046     		.align	2
 952              	.L72:
 953 0070 00000000 		.word	gl_dpm_port_type
 954 0074 00000000 		.word	.LANCHOR0
 955 0078 00000000 		.word	vdm_stat
 956 007c 00000000 		.word	vdm_rec_cbk
 957              		.cfi_endproc
 958              	.LFE50:
 959              		.size	send_vdm, .-send_vdm
 960              		.section	.text.vdm_task_mngr_deinit,"ax",%progbits
 961              		.align	2
 962              		.global	vdm_task_mngr_deinit
 963              		.code	16
ARM GAS  e:\temp\ccdoSeHU.s 			page 39


 964              		.thumb_func
 965              		.type	vdm_task_mngr_deinit, %function
 966              	vdm_task_mngr_deinit:
 967              	.LFB45:
 857:..\src\app\alt_mode/vdm_task_mngr.c ****     /* CDT 247011 re-fix */
 968              		.loc 1 857 0
 969              		.cfi_startproc
 970              		@ args = 0, pretend = 0, frame = 0
 971              		@ frame_needed = 0, uses_anonymous_args = 0
 972              	.LVL94:
 973 0000 70B5     		push	{r4, r5, r6, lr}
 974              		.cfi_def_cfa_offset 16
 975              		.cfi_offset 4, -16
 976              		.cfi_offset 5, -12
 977              		.cfi_offset 6, -8
 978              		.cfi_offset 14, -4
 979 0002 0400     		movs	r4, r0
 859:..\src\app\alt_mode/vdm_task_mngr.c ****     /* If VDM task is not active, no need to go through the rest of the steps. */
 980              		.loc 1 859 0
 981 0004 FFF7FEFF 		bl	app_get_status
 982              	.LVL95:
 983 0008 0022     		movs	r2, #0
 984 000a 3E23     		movs	r3, #62
 985 000c C254     		strb	r2, [r0, r3]
 861:..\src\app\alt_mode/vdm_task_mngr.c ****     {
 986              		.loc 1 861 0
 987 000e 2000     		movs	r0, r4
 988 0010 FFF7FEFF 		bl	app_get_status
 989              	.LVL96:
 990 0014 3823     		movs	r3, #56
 991 0016 C35C     		ldrb	r3, [r0, r3]
 992 0018 002B     		cmp	r3, #0
 993 001a 14D0     		beq	.L74
 863:..\src\app\alt_mode/vdm_task_mngr.c ****         app_get_status(port)->vdm_task_en = false;
 994              		.loc 1 863 0
 995 001c 2000     		movs	r0, r4
 996 001e FFF7FEFF 		bl	reset_vdm_mngr
 997              	.LVL97:
 864:..\src\app\alt_mode/vdm_task_mngr.c ****         app_get_status(port)->alt_mode_entered = false;
 998              		.loc 1 864 0
 999 0022 2000     		movs	r0, r4
 1000 0024 FFF7FEFF 		bl	app_get_status
 1001              	.LVL98:
 1002 0028 0025     		movs	r5, #0
 1003 002a 3823     		movs	r3, #56
 1004 002c C554     		strb	r5, [r0, r3]
 865:..\src\app\alt_mode/vdm_task_mngr.c ****         /* Exit from alt mode manager */
 1005              		.loc 1 865 0
 1006 002e 2000     		movs	r0, r4
 1007 0030 FFF7FEFF 		bl	app_get_status
 1008              	.LVL99:
 1009 0034 3D23     		movs	r3, #61
 1010 0036 C554     		strb	r5, [r0, r3]
 867:..\src\app\alt_mode/vdm_task_mngr.c ****         /* Deinit App HW */
 1011              		.loc 1 867 0
 1012 0038 0321     		movs	r1, #3
 1013 003a 2000     		movs	r0, r4
ARM GAS  e:\temp\ccdoSeHU.s 			page 40


 1014 003c FFF7FEFF 		bl	vdm_task_mngr_alt_mode_process
 1015              	.LVL100:
 869:..\src\app\alt_mode/vdm_task_mngr.c ****     }
 1016              		.loc 1 869 0
 1017 0040 2000     		movs	r0, r4
 1018 0042 FFF7FEFF 		bl	alt_mode_hw_deinit
 1019              	.LVL101:
 1020              	.L74:
 871:..\src\app\alt_mode/vdm_task_mngr.c **** 
 1021              		.loc 1 871 0
 1022              		@ sp needed
 1023 0046 70BD     		pop	{r4, r5, r6, pc}
 1024              		.cfi_endproc
 1025              	.LFE45:
 1026              		.size	vdm_task_mngr_deinit, .-vdm_task_mngr_deinit
 1027              		.section	.text.get_evt,"ax",%progbits
 1028              		.align	2
 1029              		.global	get_evt
 1030              		.code	16
 1031              		.thumb_func
 1032              		.type	get_evt, %function
 1033              	get_evt:
 1034              	.LFB52:
1066:..\src\app\alt_mode/vdm_task_mngr.c ****     return vdm_stat[port].vdm_evt;
 1035              		.loc 1 1066 0
 1036              		.cfi_startproc
 1037              		@ args = 0, pretend = 0, frame = 0
 1038              		@ frame_needed = 0, uses_anonymous_args = 0
 1039              		@ link register save eliminated.
 1040              	.LVL102:
1067:..\src\app\alt_mode/vdm_task_mngr.c **** }
 1041              		.loc 1 1067 0
 1042 0000 C300     		lsls	r3, r0, #3
 1043 0002 1818     		adds	r0, r3, r0
 1044              	.LVL103:
 1045 0004 C300     		lsls	r3, r0, #3
 1046 0006 024A     		ldr	r2, .L77
 1047 0008 D318     		adds	r3, r2, r3
 1048 000a 5878     		ldrb	r0, [r3, #1]
1068:..\src\app\alt_mode/vdm_task_mngr.c **** 
 1049              		.loc 1 1068 0
 1050              		@ sp needed
 1051 000c 7047     		bx	lr
 1052              	.L78:
 1053 000e C046     		.align	2
 1054              	.L77:
 1055 0010 00000000 		.word	vdm_stat
 1056              		.cfi_endproc
 1057              	.LFE52:
 1058              		.size	get_evt, .-get_evt
 1059              		.section	.text.get_task,"ax",%progbits
 1060              		.align	2
 1061              		.global	get_task
 1062              		.code	16
 1063              		.thumb_func
 1064              		.type	get_task, %function
 1065              	get_task:
ARM GAS  e:\temp\ccdoSeHU.s 			page 41


 1066              	.LFB53:
1071:..\src\app\alt_mode/vdm_task_mngr.c ****     return vdm_stat[port].vdm_task;
 1067              		.loc 1 1071 0
 1068              		.cfi_startproc
 1069              		@ args = 0, pretend = 0, frame = 0
 1070              		@ frame_needed = 0, uses_anonymous_args = 0
 1071              		@ link register save eliminated.
 1072              	.LVL104:
1072:..\src\app\alt_mode/vdm_task_mngr.c **** }
 1073              		.loc 1 1072 0
 1074 0000 C300     		lsls	r3, r0, #3
 1075 0002 1818     		adds	r0, r3, r0
 1076              	.LVL105:
 1077 0004 C300     		lsls	r3, r0, #3
 1078 0006 014A     		ldr	r2, .L80
 1079 0008 D05C     		ldrb	r0, [r2, r3]
1073:..\src\app\alt_mode/vdm_task_mngr.c **** 
 1080              		.loc 1 1073 0
 1081              		@ sp needed
 1082 000a 7047     		bx	lr
 1083              	.L81:
 1084              		.align	2
 1085              	.L80:
 1086 000c 00000000 		.word	vdm_stat
 1087              		.cfi_endproc
 1088              	.LFE53:
 1089              		.size	get_task, .-get_task
 1090              		.section	.text.is_vdm_task_idle,"ax",%progbits
 1091              		.align	2
 1092              		.global	is_vdm_task_idle
 1093              		.code	16
 1094              		.thumb_func
 1095              		.type	is_vdm_task_idle, %function
 1096              	is_vdm_task_idle:
 1097              	.LFB34:
 200:..\src\app\alt_mode/vdm_task_mngr.c ****     /*
 1098              		.loc 1 200 0
 1099              		.cfi_startproc
 1100              		@ args = 0, pretend = 0, frame = 0
 1101              		@ frame_needed = 0, uses_anonymous_args = 0
 1102              	.LVL106:
 1103 0000 10B5     		push	{r4, lr}
 1104              		.cfi_def_cfa_offset 8
 1105              		.cfi_offset 4, -8
 1106              		.cfi_offset 14, -4
 1107 0002 0400     		movs	r4, r0
 206:..\src\app\alt_mode/vdm_task_mngr.c ****             ((timer_is_running (port, APP_VDM_BUSY_TIMER)) ||
 1108              		.loc 1 206 0
 1109 0004 FFF7FEFF 		bl	is_vdm_mngr_enabled
 1110              	.LVL107:
 1111 0008 0028     		cmp	r0, #0
 1112 000a 10D0     		beq	.L84
 207:..\src\app\alt_mode/vdm_task_mngr.c ****              (get_task(port) != VDM_TASK_ALT_MODE) ||
 1113              		.loc 1 207 0 discriminator 2
 1114 000c 2821     		movs	r1, #40
 1115 000e 2000     		movs	r0, r4
 1116 0010 FFF7FEFF 		bl	timer_is_running
ARM GAS  e:\temp\ccdoSeHU.s 			page 42


 1117              	.LVL108:
 206:..\src\app\alt_mode/vdm_task_mngr.c ****             ((timer_is_running (port, APP_VDM_BUSY_TIMER)) ||
 1118              		.loc 1 206 0 discriminator 2
 1119 0014 0028     		cmp	r0, #0
 1120 0016 0CD1     		bne	.L85
 208:..\src\app\alt_mode/vdm_task_mngr.c ****              (is_alt_mode_mngr_idle(port) == false))
 1121              		.loc 1 208 0
 1122 0018 2000     		movs	r0, r4
 1123 001a FFF7FEFF 		bl	get_task
 1124              	.LVL109:
 207:..\src\app\alt_mode/vdm_task_mngr.c ****              (get_task(port) != VDM_TASK_ALT_MODE) ||
 1125              		.loc 1 207 0
 1126 001e 0728     		cmp	r0, #7
 1127 0020 09D1     		bne	.L86
 209:..\src\app\alt_mode/vdm_task_mngr.c ****             );
 1128              		.loc 1 209 0
 1129 0022 2000     		movs	r0, r4
 1130 0024 FFF7FEFF 		bl	is_alt_mode_mngr_idle
 1131              	.LVL110:
 208:..\src\app\alt_mode/vdm_task_mngr.c ****              (is_alt_mode_mngr_idle(port) == false))
 1132              		.loc 1 208 0
 1133 0028 0028     		cmp	r0, #0
 1134 002a 06D1     		bne	.L87
 1135 002c 06E0     		b	.L83
 1136              	.L84:
 206:..\src\app\alt_mode/vdm_task_mngr.c ****             ((timer_is_running (port, APP_VDM_BUSY_TIMER)) ||
 1137              		.loc 1 206 0
 1138 002e 0120     		movs	r0, #1
 1139 0030 04E0     		b	.L83
 1140              	.L85:
 1141 0032 0020     		movs	r0, #0
 1142 0034 02E0     		b	.L83
 1143              	.L86:
 1144 0036 0020     		movs	r0, #0
 1145 0038 00E0     		b	.L83
 1146              	.L87:
 1147 003a 0120     		movs	r0, #1
 1148              	.L83:
 211:..\src\app\alt_mode/vdm_task_mngr.c **** 
 1149              		.loc 1 211 0 discriminator 5
 1150              		@ sp needed
 1151 003c 10BD     		pop	{r4, pc}
 1152              		.cfi_endproc
 1153              	.LFE34:
 1154              		.size	is_vdm_task_idle, .-is_vdm_task_idle
 1155 003e C046     		.section	.text.set_task,"ax",%progbits
 1156              		.align	2
 1157              		.global	set_task
 1158              		.code	16
 1159              		.thumb_func
 1160              		.type	set_task, %function
 1161              	set_task:
 1162              	.LFB54:
1076:..\src\app\alt_mode/vdm_task_mngr.c ****     vdm_stat[port].vdm_task = task;
 1163              		.loc 1 1076 0
 1164              		.cfi_startproc
 1165              		@ args = 0, pretend = 0, frame = 0
ARM GAS  e:\temp\ccdoSeHU.s 			page 43


 1166              		@ frame_needed = 0, uses_anonymous_args = 0
 1167              		@ link register save eliminated.
 1168              	.LVL111:
1077:..\src\app\alt_mode/vdm_task_mngr.c **** }
 1169              		.loc 1 1077 0
 1170 0000 C300     		lsls	r3, r0, #3
 1171 0002 1818     		adds	r0, r3, r0
 1172              	.LVL112:
 1173 0004 C300     		lsls	r3, r0, #3
 1174 0006 014A     		ldr	r2, .L89
 1175 0008 9954     		strb	r1, [r3, r2]
1078:..\src\app\alt_mode/vdm_task_mngr.c **** 
 1176              		.loc 1 1078 0
 1177              		@ sp needed
 1178 000a 7047     		bx	lr
 1179              	.L90:
 1180              		.align	2
 1181              	.L89:
 1182 000c 00000000 		.word	vdm_stat
 1183              		.cfi_endproc
 1184              	.LFE54:
 1185              		.size	set_task, .-set_task
 1186              		.section	.text.enable_vdm_task_mngr,"ax",%progbits
 1187              		.align	2
 1188              		.global	enable_vdm_task_mngr
 1189              		.code	16
 1190              		.thumb_func
 1191              		.type	enable_vdm_task_mngr, %function
 1192              	enable_vdm_task_mngr:
 1193              	.LFB32:
 156:..\src\app\alt_mode/vdm_task_mngr.c ****     /* If the VDM Task is already running, do nothing. */
 1194              		.loc 1 156 0
 1195              		.cfi_startproc
 1196              		@ args = 0, pretend = 0, frame = 0
 1197              		@ frame_needed = 0, uses_anonymous_args = 0
 1198              	.LVL113:
 1199 0000 10B5     		push	{r4, lr}
 1200              		.cfi_def_cfa_offset 8
 1201              		.cfi_offset 4, -8
 1202              		.cfi_offset 14, -4
 1203 0002 0400     		movs	r4, r0
 158:..\src\app\alt_mode/vdm_task_mngr.c ****     {
 1204              		.loc 1 158 0
 1205 0004 FFF7FEFF 		bl	app_get_status
 1206              	.LVL114:
 1207 0008 3823     		movs	r3, #56
 1208 000a C35C     		ldrb	r3, [r0, r3]
 1209 000c 002B     		cmp	r3, #0
 1210 000e 0FD1     		bne	.L91
 160:..\src\app\alt_mode/vdm_task_mngr.c ****         app_get_status(port)->vdm_task_en = true;
 1211              		.loc 1 160 0
 1212 0010 0121     		movs	r1, #1
 1213 0012 2000     		movs	r0, r4
 1214 0014 FFF7FEFF 		bl	set_task
 1215              	.LVL115:
 161:..\src\app\alt_mode/vdm_task_mngr.c ****         app_get_status(port)->vdm_prcs_failed = false;
 1216              		.loc 1 161 0
ARM GAS  e:\temp\ccdoSeHU.s 			page 44


 1217 0018 2000     		movs	r0, r4
 1218 001a FFF7FEFF 		bl	app_get_status
 1219              	.LVL116:
 1220 001e 0122     		movs	r2, #1
 1221 0020 3823     		movs	r3, #56
 1222 0022 C254     		strb	r2, [r0, r3]
 162:..\src\app\alt_mode/vdm_task_mngr.c ****     }
 1223              		.loc 1 162 0
 1224 0024 2000     		movs	r0, r4
 1225 0026 FFF7FEFF 		bl	app_get_status
 1226              	.LVL117:
 1227 002a 0022     		movs	r2, #0
 1228 002c 3E23     		movs	r3, #62
 1229 002e C254     		strb	r2, [r0, r3]
 1230              	.L91:
 164:..\src\app\alt_mode/vdm_task_mngr.c **** 
 1231              		.loc 1 164 0
 1232              		@ sp needed
 1233 0030 10BD     		pop	{r4, pc}
 1234              		.cfi_endproc
 1235              	.LFE32:
 1236              		.size	enable_vdm_task_mngr, .-enable_vdm_task_mngr
 1237              		.section	.text.set_evt,"ax",%progbits
 1238              		.align	2
 1239              		.global	set_evt
 1240              		.code	16
 1241              		.thumb_func
 1242              		.type	set_evt, %function
 1243              	set_evt:
 1244              	.LFB55:
1081:..\src\app\alt_mode/vdm_task_mngr.c ****     vdm_stat[port].vdm_evt = evt;
 1245              		.loc 1 1081 0
 1246              		.cfi_startproc
 1247              		@ args = 0, pretend = 0, frame = 0
 1248              		@ frame_needed = 0, uses_anonymous_args = 0
 1249              		@ link register save eliminated.
 1250              	.LVL118:
1082:..\src\app\alt_mode/vdm_task_mngr.c **** }
 1251              		.loc 1 1082 0
 1252 0000 C300     		lsls	r3, r0, #3
 1253 0002 1818     		adds	r0, r3, r0
 1254              	.LVL119:
 1255 0004 C300     		lsls	r3, r0, #3
 1256 0006 024A     		ldr	r2, .L94
 1257 0008 D318     		adds	r3, r2, r3
 1258 000a 5970     		strb	r1, [r3, #1]
1083:..\src\app\alt_mode/vdm_task_mngr.c **** 
 1259              		.loc 1 1083 0
 1260              		@ sp needed
 1261 000c 7047     		bx	lr
 1262              	.L95:
 1263 000e C046     		.align	2
 1264              	.L94:
 1265 0010 00000000 		.word	vdm_stat
 1266              		.cfi_endproc
 1267              	.LFE55:
 1268              		.size	set_evt, .-set_evt
ARM GAS  e:\temp\ccdoSeHU.s 			page 45


 1269              		.section	.text.vdm_task_mngr_init,"ax",%progbits
 1270              		.align	2
 1271              		.code	16
 1272              		.thumb_func
 1273              		.type	vdm_task_mngr_init, %function
 1274              	vdm_task_mngr_init:
 1275              	.LFB33:
 167:..\src\app\alt_mode/vdm_task_mngr.c ****     vdm_task_t ret = VDM_TASK_EXIT;
 1276              		.loc 1 167 0
 1277              		.cfi_startproc
 1278              		@ args = 0, pretend = 0, frame = 0
 1279              		@ frame_needed = 0, uses_anonymous_args = 0
 1280              	.LVL120:
 1281 0000 10B5     		push	{r4, lr}
 1282              		.cfi_def_cfa_offset 8
 1283              		.cfi_offset 4, -8
 1284              		.cfi_offset 14, -4
 1285 0002 0400     		movs	r4, r0
 1286              	.LVL121:
 171:..\src\app\alt_mode/vdm_task_mngr.c ****     set_evt(port, VDM_EVT_RUN);
 1287              		.loc 1 171 0
 1288 0004 FFF7FEFF 		bl	reset_vdm_mngr
 1289              	.LVL122:
 172:..\src\app\alt_mode/vdm_task_mngr.c **** 
 1290              		.loc 1 172 0
 1291 0008 0021     		movs	r1, #0
 1292 000a 2000     		movs	r0, r4
 1293 000c FFF7FEFF 		bl	set_evt
 1294              	.LVL123:
 182:..\src\app\alt_mode/vdm_task_mngr.c ****     {
 1295              		.loc 1 182 0
 1296 0010 2000     		movs	r0, r4
 1297 0012 FFF7FEFF 		bl	get_alt_mode_numb
 1298              	.LVL124:
 1299 0016 0028     		cmp	r0, #0
 1300 0018 05D0     		beq	.L98
 185:..\src\app\alt_mode/vdm_task_mngr.c ****         {
 1301              		.loc 1 185 0
 1302 001a 054B     		ldr	r3, .L100
 1303 001c 1B5D     		ldrb	r3, [r3, r4]
 1304 001e 002B     		cmp	r3, #0
 1305 0020 03D0     		beq	.L99
 187:..\src\app\alt_mode/vdm_task_mngr.c ****     }
 1306              		.loc 1 187 0
 1307 0022 0220     		movs	r0, #2
 1308 0024 02E0     		b	.L97
 1309              	.L98:
 168:..\src\app\alt_mode/vdm_task_mngr.c **** 
 1310              		.loc 1 168 0
 1311 0026 0520     		movs	r0, #5
 1312 0028 00E0     		b	.L97
 1313              	.L99:
 191:..\src\app\alt_mode/vdm_task_mngr.c ****         }
 1314              		.loc 1 191 0
 1315 002a 0420     		movs	r0, #4
 1316              	.L97:
 1317              	.LVL125:
ARM GAS  e:\temp\ccdoSeHU.s 			page 46


 197:..\src\app\alt_mode/vdm_task_mngr.c **** 
 1318              		.loc 1 197 0
 1319              		@ sp needed
 1320 002c 10BD     		pop	{r4, pc}
 1321              	.L101:
 1322 002e C046     		.align	2
 1323              	.L100:
 1324 0030 00000000 		.word	gl_dpm_port_type
 1325              		.cfi_endproc
 1326              	.LFE33:
 1327              		.size	vdm_task_mngr_init, .-vdm_task_mngr_init
 1328              		.section	.text.vdm_task_mng_disc_id,"ax",%progbits
 1329              		.align	2
 1330              		.code	16
 1331              		.thumb_func
 1332              		.type	vdm_task_mng_disc_id, %function
 1333              	vdm_task_mng_disc_id:
 1334              	.LFB39:
 456:..\src\app\alt_mode/vdm_task_mngr.c ****     vdm_msg_info_t *msg_p  = get_msg (port);
 1335              		.loc 1 456 0
 1336              		.cfi_startproc
 1337              		@ args = 0, pretend = 0, frame = 0
 1338              		@ frame_needed = 0, uses_anonymous_args = 0
 1339              	.LVL126:
 1340 0000 F0B5     		push	{r4, r5, r6, r7, lr}
 1341              		.cfi_def_cfa_offset 20
 1342              		.cfi_offset 4, -20
 1343              		.cfi_offset 5, -16
 1344              		.cfi_offset 6, -12
 1345              		.cfi_offset 7, -8
 1346              		.cfi_offset 14, -4
 1347 0002 4746     		mov	r7, r8
 1348 0004 80B4     		push	{r7}
 1349              		.cfi_def_cfa_offset 24
 1350              		.cfi_offset 8, -24
 1351 0006 0400     		movs	r4, r0
 1352 0008 0E00     		movs	r6, r1
 457:..\src\app\alt_mode/vdm_task_mngr.c ****     vdm_task_t ret         = VDM_TASK_EXIT;
 1353              		.loc 1 457 0
 1354 000a FFF7FEFF 		bl	get_msg
 1355              	.LVL127:
 1356 000e 0500     		movs	r5, r0
 1357              	.LVL128:
 459:..\src\app\alt_mode/vdm_task_mngr.c **** 
 1358              		.loc 1 459 0
 1359 0010 2000     		movs	r0, r4
 1360              	.LVL129:
 1361 0012 FFF7FEFF 		bl	dpm_get_info
 1362              	.LVL130:
 1363 0016 0700     		movs	r7, r0
 1364              	.LVL131:
 466:..\src\app\alt_mode/vdm_task_mngr.c ****     {
 1365              		.loc 1 466 0
 1366 0018 002E     		cmp	r6, #0
 1367 001a 02D0     		beq	.L104
 1368 001c 012E     		cmp	r6, #1
 1369 001e 0CD0     		beq	.L105
ARM GAS  e:\temp\ccdoSeHU.s 			page 47


 1370 0020 5BE0     		b	.L112
 1371              	.L104:
 470:..\src\app\alt_mode/vdm_task_mngr.c ****             msg_p->VDM_HDR.svid     = STD_SVID;
 1372              		.loc 1 470 0
 1373 0022 0023     		movs	r3, #0
 471:..\src\app\alt_mode/vdm_task_mngr.c ****             msg_p->VDM_HDR.cmd      = VDM_CMD_DSC_IDENTITY;
 1374              		.loc 1 471 0
 1375 0024 314A     		ldr	r2, .L113
 1376 0026 6A80     		strh	r2, [r5, #2]
 472:..\src\app\alt_mode/vdm_task_mngr.c ****             msg_p->vdo_numb         = NO_DATA;
 1377              		.loc 1 472 0
 1378 0028 0232     		adds	r2, r2, #2
 1379 002a FF32     		adds	r2, r2, #255
 1380 002c 2A70     		strb	r2, [r5]
 473:..\src\app\alt_mode/vdm_task_mngr.c ****             msg_p->sop_type         = SOP;
 1381              		.loc 1 473 0
 1382 002e 6B71     		strb	r3, [r5, #5]
 474:..\src\app\alt_mode/vdm_task_mngr.c ****             msg_p->VDM_HDR.vdm_type = VDM_TYPE_STRUCTURED;
 1383              		.loc 1 474 0
 1384 0030 2B71     		strb	r3, [r5, #4]
 475:..\src\app\alt_mode/vdm_task_mngr.c ****             ret                     = VDM_TASK_SEND_MSG;
 1385              		.loc 1 475 0
 1386 0032 803B     		subs	r3, r3, #128
 1387 0034 6B70     		strb	r3, [r5, #1]
 1388              	.LVL132:
 476:..\src\app\alt_mode/vdm_task_mngr.c ****             break;
 1389              		.loc 1 476 0
 1390 0036 0620     		movs	r0, #6
 1391              	.LVL133:
 477:..\src\app\alt_mode/vdm_task_mngr.c **** 
 1392              		.loc 1 477 0
 1393 0038 54E0     		b	.L103
 1394              	.LVL134:
 1395              	.L105:
 482:..\src\app\alt_mode/vdm_task_mngr.c ****             {
 1396              		.loc 1 482 0
 1397 003a 2D4B     		ldr	r3, .L113+4
 1398 003c 1B5D     		ldrb	r3, [r3, r4]
 1399 003e 002B     		cmp	r3, #0
 1400 0040 4DD0     		beq	.L110
 486:..\src\app\alt_mode/vdm_task_mngr.c ****                 memcpy ((uint8_t *)&vdm_disc_id_resp[port][1], (uint8_t *)msg_p->vdo, msg_p->vdo_nu
 1401              		.loc 1 486 0
 1402 0042 2C4B     		ldr	r3, .L113+8
 1403 0044 9846     		mov	r8, r3
 1404 0046 E600     		lsls	r6, r4, #3
 1405 0048 321B     		subs	r2, r6, r4
 1406 004a 9300     		lsls	r3, r2, #2
 1407 004c 4344     		add	r3, r3, r8
 1408 004e 2A68     		ldr	r2, [r5]
 1409 0050 DA60     		str	r2, [r3, #12]
 487:..\src\app\alt_mode/vdm_task_mngr.c ****                 vdm_disc_id_resp_len[port] = msg_p->vdo_numb + 1;
 1410              		.loc 1 487 0
 1411 0052 4046     		mov	r0, r8
 1412              	.LVL135:
 1413 0054 0C30     		adds	r0, r0, #12
 1414 0056 321B     		subs	r2, r6, r4
 1415 0058 9300     		lsls	r3, r2, #2
ARM GAS  e:\temp\ccdoSeHU.s 			page 48


 1416 005a 0433     		adds	r3, r3, #4
 1417 005c C018     		adds	r0, r0, r3
 1418 005e 2900     		movs	r1, r5
 1419 0060 0831     		adds	r1, r1, #8
 1420 0062 6A79     		ldrb	r2, [r5, #5]
 1421 0064 9200     		lsls	r2, r2, #2
 1422 0066 FFF7FEFF 		bl	memcpy
 1423              	.LVL136:
 488:..\src\app\alt_mode/vdm_task_mngr.c **** #endif /* VDM_RESP_QUERY_SUPPORTED */
 1424              		.loc 1 488 0
 1425 006a 6A79     		ldrb	r2, [r5, #5]
 1426 006c 4346     		mov	r3, r8
 1427 006e 1B19     		adds	r3, r3, r4
 1428 0070 0132     		adds	r2, r2, #1
 1429 0072 1A72     		strb	r2, [r3, #8]
 492:..\src\app\alt_mode/vdm_task_mngr.c ****                 vdm_stat[port].dsvid_cnt = 0;
 1430              		.loc 1 492 0
 1431 0074 204A     		ldr	r2, .L113+12
 1432 0076 3119     		adds	r1, r6, r4
 1433 0078 CB00     		lsls	r3, r1, #3
 1434 007a D318     		adds	r3, r2, r3
 1435 007c 1800     		movs	r0, r3
 1436 007e 4530     		adds	r0, r0, #69
 1437 0080 0021     		movs	r1, #0
 1438 0082 0170     		strb	r1, [r0]
 493:..\src\app\alt_mode/vdm_task_mngr.c **** 
 1439              		.loc 1 493 0
 1440 0084 0130     		adds	r0, r0, #1
 1441 0086 0170     		strb	r1, [r0]
 496:..\src\app\alt_mode/vdm_task_mngr.c ****                 /* Copy AMA VDO to info struct */
 1442              		.loc 1 496 0
 1443 0088 6969     		ldr	r1, [r5, #20]
 1444 008a 9960     		str	r1, [r3, #8]
 498:..\src\app\alt_mode/vdm_task_mngr.c **** 
 1445              		.loc 1 498 0
 1446 008c 3619     		adds	r6, r6, r4
 1447 008e F300     		lsls	r3, r6, #3
 1448 0090 D318     		adds	r3, r2, r3
 1449 0092 AA68     		ldr	r2, [r5, #8]
 1450 0094 5A60     		str	r2, [r3, #4]
 502:..\src\app\alt_mode/vdm_task_mngr.c ****                         ((msg_p->vdo[VDO_START_IDX - 1].std_id_hdr.prod_type != PROD_TYPE_AMA) ||
 1451              		.loc 1 502 0
 1452 0096 7B7D     		ldrb	r3, [r7, #21]
 501:..\src\app\alt_mode/vdm_task_mngr.c ****                         (dpm_stat->vconn_retain == 0) &&
 1453              		.loc 1 501 0
 1454 0098 002B     		cmp	r3, #0
 1455 009a 15D1     		bne	.L106
 503:..\src\app\alt_mode/vdm_task_mngr.c ****                             (msg_p->vdo[PD_DISC_ID_AMA_VDO_IDX].std_ama_vdo.vcon_req == 0)) &&
 1456              		.loc 1 503 0
 1457 009c EB7A     		ldrb	r3, [r5, #11]
 1458 009e 3822     		movs	r2, #56
 1459 00a0 1340     		ands	r3, r2
 502:..\src\app\alt_mode/vdm_task_mngr.c ****                         ((msg_p->vdo[VDO_START_IDX - 1].std_id_hdr.prod_type != PROD_TYPE_AMA) ||
 1460              		.loc 1 502 0
 1461 00a2 282B     		cmp	r3, #40
 1462 00a4 02D1     		bne	.L107
 504:..\src\app\alt_mode/vdm_task_mngr.c ****                         ((dpm_stat->emca_present == false) ||
ARM GAS  e:\temp\ccdoSeHU.s 			page 49


 1463              		.loc 1 504 0
 1464 00a6 2B7D     		ldrb	r3, [r5, #20]
 503:..\src\app\alt_mode/vdm_task_mngr.c ****                             (msg_p->vdo[PD_DISC_ID_AMA_VDO_IDX].std_ama_vdo.vcon_req == 0)) &&
 1465              		.loc 1 503 0
 1466 00a8 DB06     		lsls	r3, r3, #27
 1467 00aa 0DD4     		bmi	.L106
 1468              	.L107:
 505:..\src\app\alt_mode/vdm_task_mngr.c ****                          (dpm_stat->cbl_vdo.std_cbl_vdo.cbl_term == CBL_TERM_BOTH_PAS_VCONN_NOT_REQ
 1469              		.loc 1 505 0
 1470 00ac 7923     		movs	r3, #121
 1471 00ae FB5C     		ldrb	r3, [r7, r3]
 504:..\src\app\alt_mode/vdm_task_mngr.c ****                         ((dpm_stat->emca_present == false) ||
 1472              		.loc 1 504 0
 1473 00b0 002B     		cmp	r3, #0
 1474 00b2 04D0     		beq	.L108
 506:..\src\app\alt_mode/vdm_task_mngr.c ****                    )
 1475              		.loc 1 506 0
 1476 00b4 B923     		movs	r3, #185
 1477 00b6 FB5C     		ldrb	r3, [r7, r3]
 1478 00b8 1822     		movs	r2, #24
 505:..\src\app\alt_mode/vdm_task_mngr.c ****                          (dpm_stat->cbl_vdo.std_cbl_vdo.cbl_term == CBL_TERM_BOTH_PAS_VCONN_NOT_REQ
 1479              		.loc 1 505 0
 1480 00ba 1A42     		tst	r2, r3
 1481 00bc 04D1     		bne	.L106
 1482              	.L108:
 509:..\src\app\alt_mode/vdm_task_mngr.c ****                 }
 1483              		.loc 1 509 0
 1484 00be 7023     		movs	r3, #112
 1485 00c0 F95C     		ldrb	r1, [r7, r3]
 1486 00c2 2000     		movs	r0, r4
 1487 00c4 FFF7FEFF 		bl	vconn_disable
 1488              	.LVL137:
 1489              	.L106:
 513:..\src\app\alt_mode/vdm_task_mngr.c ****                 {
 1490              		.loc 1 513 0
 1491 00c8 EB7A     		ldrb	r3, [r5, #11]
 1492 00ca 5B07     		lsls	r3, r3, #29
 1493 00cc 09D5     		bpl	.L111
 519:..\src\app\alt_mode/vdm_task_mngr.c ****                 ret = VDM_TASK_DISC_SVID;
 1494              		.loc 1 519 0
 1495 00ce 0021     		movs	r1, #0
 1496 00d0 2000     		movs	r0, r4
 1497 00d2 FFF7FEFF 		bl	set_evt
 1498              	.LVL138:
 520:..\src\app\alt_mode/vdm_task_mngr.c ****             }
 1499              		.loc 1 520 0
 1500 00d6 0320     		movs	r0, #3
 1501 00d8 04E0     		b	.L103
 1502              	.LVL139:
 1503              	.L112:
 458:..\src\app\alt_mode/vdm_task_mngr.c ****     const dpm_status_t *dpm_stat = dpm_get_info(port);
 1504              		.loc 1 458 0
 1505 00da 0520     		movs	r0, #5
 1506              	.LVL140:
 1507 00dc 02E0     		b	.L103
 1508              	.LVL141:
 1509              	.L110:
ARM GAS  e:\temp\ccdoSeHU.s 			page 50


 1510 00de 0520     		movs	r0, #5
 1511              	.LVL142:
 1512 00e0 00E0     		b	.L103
 1513              	.L111:
 1514 00e2 0520     		movs	r0, #5
 1515              	.LVL143:
 1516              	.L103:
 550:..\src\app\alt_mode/vdm_task_mngr.c **** 
 1517              		.loc 1 550 0
 1518              		@ sp needed
 1519              	.LVL144:
 1520              	.LVL145:
 1521 00e4 04BC     		pop	{r2}
 1522 00e6 9046     		mov	r8, r2
 1523 00e8 F0BD     		pop	{r4, r5, r6, r7, pc}
 1524              	.L114:
 1525 00ea C046     		.align	2
 1526              	.L113:
 1527 00ec 00FFFFFF 		.word	-256
 1528 00f0 00000000 		.word	gl_dpm_port_type
 1529 00f4 00000000 		.word	.LANCHOR0
 1530 00f8 00000000 		.word	vdm_stat
 1531              		.cfi_endproc
 1532              	.LFE39:
 1533              		.size	vdm_task_mng_disc_id, .-vdm_task_mng_disc_id
 1534              		.section	.text.vdm_task_mng_disc_svid,"ax",%progbits
 1535              		.align	2
 1536              		.code	16
 1537              		.thumb_func
 1538              		.type	vdm_task_mng_disc_svid, %function
 1539              	vdm_task_mng_disc_svid:
 1540              	.LFB43:
 660:..\src\app\alt_mode/vdm_task_mngr.c ****     vdm_task_t ret               = VDM_TASK_EXIT;
 1541              		.loc 1 660 0
 1542              		.cfi_startproc
 1543              		@ args = 0, pretend = 0, frame = 0
 1544              		@ frame_needed = 0, uses_anonymous_args = 0
 1545              	.LVL146:
 1546 0000 F8B5     		push	{r3, r4, r5, r6, r7, lr}
 1547              		.cfi_def_cfa_offset 24
 1548              		.cfi_offset 3, -24
 1549              		.cfi_offset 4, -20
 1550              		.cfi_offset 5, -16
 1551              		.cfi_offset 6, -12
 1552              		.cfi_offset 7, -8
 1553              		.cfi_offset 14, -4
 1554 0002 4F46     		mov	r7, r9
 1555 0004 4646     		mov	r6, r8
 1556 0006 C0B4     		push	{r6, r7}
 1557              		.cfi_def_cfa_offset 32
 1558              		.cfi_offset 8, -32
 1559              		.cfi_offset 9, -28
 1560 0008 0400     		movs	r4, r0
 1561 000a 0D00     		movs	r5, r1
 1562              	.LVL147:
 662:..\src\app\alt_mode/vdm_task_mngr.c ****     vdm_msg_info_t *msg_p        = get_msg (port);
 1563              		.loc 1 662 0
ARM GAS  e:\temp\ccdoSeHU.s 			page 51


 1564 000c FFF7FEFF 		bl	dpm_get_info
 1565              	.LVL148:
 1566 0010 0700     		movs	r7, r0
 1567              	.LVL149:
 663:..\src\app\alt_mode/vdm_task_mngr.c **** #if VDM_RESP_QUERY_SUPPORTED
 1568              		.loc 1 663 0
 1569 0012 2000     		movs	r0, r4
 1570              	.LVL150:
 1571 0014 FFF7FEFF 		bl	get_msg
 1572              	.LVL151:
 1573 0018 0600     		movs	r6, r0
 1574              	.LVL152:
 673:..\src\app\alt_mode/vdm_task_mngr.c ****     {
 1575              		.loc 1 673 0
 1576 001a 012D     		cmp	r5, #1
 1577 001c 0BD0     		beq	.L117
 1578 001e 002D     		cmp	r5, #0
 1579 0020 03D0     		beq	.L118
 1580 0022 022D     		cmp	r5, #2
 1581 0024 00D1     		bne	.LCB1519
 1582 0026 DAE0     		b	.L119	@long jump
 1583              	.LCB1519:
 1584 0028 E2E0     		b	.L134
 1585              	.L118:
 677:..\src\app\alt_mode/vdm_task_mngr.c ****             ret = VDM_TASK_SEND_MSG;
 1586              		.loc 1 677 0
 1587 002a 0021     		movs	r1, #0
 1588 002c 2000     		movs	r0, r4
 1589              	.LVL153:
 1590 002e FFF7FEFF 		bl	set_disc_svid_param
 1591              	.LVL154:
 678:..\src\app\alt_mode/vdm_task_mngr.c ****             break;
 1592              		.loc 1 678 0
 1593 0032 0620     		movs	r0, #6
 679:..\src\app\alt_mode/vdm_task_mngr.c **** 
 1594              		.loc 1 679 0
 1595 0034 E3E0     		b	.L116
 1596              	.LVL155:
 1597              	.L117:
 683:..\src\app\alt_mode/vdm_task_mngr.c ****             {
 1598              		.loc 1 683 0
 1599 0036 744B     		ldr	r3, .L135
 1600 0038 1B5D     		ldrb	r3, [r3, r4]
 1601 003a 002B     		cmp	r3, #0
 1602 003c 00D1     		bne	.LCB1540
 1603 003e D9E0     		b	.L131	@long jump
 1604              	.LCB1540:
 686:..\src\app\alt_mode/vdm_task_mngr.c ****                 {
 1605              		.loc 1 686 0
 1606 0040 0379     		ldrb	r3, [r0, #4]
 1607 0042 002B     		cmp	r3, #0
 1608 0044 00D0     		beq	.LCB1543
 1609 0046 99E0     		b	.L120	@long jump
 1610              	.LCB1543:
 689:..\src\app\alt_mode/vdm_task_mngr.c ****                     {
 1611              		.loc 1 689 0
 1612 0048 E200     		lsls	r2, r4, #3
ARM GAS  e:\temp\ccdoSeHU.s 			page 52


 1613 004a 1219     		adds	r2, r2, r4
 1614 004c D300     		lsls	r3, r2, #3
 1615 004e 6F4A     		ldr	r2, .L135+4
 1616 0050 D318     		adds	r3, r2, r3
 1617 0052 4533     		adds	r3, r3, #69
 1618 0054 1B78     		ldrb	r3, [r3]
 1619 0056 002B     		cmp	r3, #0
 1620 0058 18D1     		bne	.L121
 692:..\src\app\alt_mode/vdm_task_mngr.c ****                         memcpy ((uint8_t *)&vdm_disc_svid_resp[port][1], (uint8_t *)msg_p->vdo, msg
 1621              		.loc 1 692 0
 1622 005a 6D4D     		ldr	r5, .L135+8
 1623 005c E200     		lsls	r2, r4, #3
 1624 005e 1119     		adds	r1, r2, r4
 1625 0060 CB00     		lsls	r3, r1, #3
 1626 0062 EB18     		adds	r3, r5, r3
 1627 0064 0168     		ldr	r1, [r0]
 1628 0066 9964     		str	r1, [r3, #72]
 693:..\src\app\alt_mode/vdm_task_mngr.c ****                         vdm_disc_svid_resp_len[port] = msg_p->vdo_numb + 1;
 1629              		.loc 1 693 0
 1630 0068 2800     		movs	r0, r5
 1631              	.LVL156:
 1632 006a 4830     		adds	r0, r0, #72
 1633 006c 1219     		adds	r2, r2, r4
 1634 006e D300     		lsls	r3, r2, #3
 1635 0070 0433     		adds	r3, r3, #4
 1636 0072 C018     		adds	r0, r0, r3
 1637 0074 3100     		movs	r1, r6
 1638 0076 0831     		adds	r1, r1, #8
 1639 0078 7279     		ldrb	r2, [r6, #5]
 1640 007a 9200     		lsls	r2, r2, #2
 1641 007c FFF7FEFF 		bl	memcpy
 1642              	.LVL157:
 694:..\src\app\alt_mode/vdm_task_mngr.c ****                     }
 1643              		.loc 1 694 0
 1644 0080 7379     		ldrb	r3, [r6, #5]
 1645 0082 2D19     		adds	r5, r5, r4
 1646 0084 0133     		adds	r3, r3, #1
 1647 0086 4422     		movs	r2, #68
 1648 0088 AB54     		strb	r3, [r5, r2]
 1649 008a 1FE0     		b	.L122
 1650              	.LVL158:
 1651              	.L121:
 699:..\src\app\alt_mode/vdm_task_mngr.c ****                         memcpy ((uint8_t *)&vdm_disc_svid_resp[port][vdm_disc_svid_resp_len[port]],
 1652              		.loc 1 699 0
 1653 008c 604B     		ldr	r3, .L135+8
 1654 008e 1B19     		adds	r3, r3, r4
 1655 0090 4422     		movs	r2, #68
 1656 0092 9B5C     		ldrb	r3, [r3, r2]
 1657 0094 9946     		mov	r9, r3
 1658 0096 1223     		movs	r3, #18
 1659 0098 4A46     		mov	r2, r9
 1660 009a 9B1A     		subs	r3, r3, r2
 1661 009c 4579     		ldrb	r5, [r0, #5]
 1662 009e 9D42     		cmp	r5, r3
 1663 00a0 00D9     		bls	.L123
 1664 00a2 1D00     		movs	r5, r3
 1665              	.L123:
ARM GAS  e:\temp\ccdoSeHU.s 			page 53


 1666              	.LVL159:
 700:..\src\app\alt_mode/vdm_task_mngr.c ****                                 tmp * sizeof (uint32_t));
 1667              		.loc 1 700 0
 1668 00a4 5A4B     		ldr	r3, .L135+8
 1669 00a6 9846     		mov	r8, r3
 1670 00a8 1800     		movs	r0, r3
 1671              	.LVL160:
 1672 00aa 4830     		adds	r0, r0, #72
 1673 00ac E200     		lsls	r2, r4, #3
 1674 00ae 1219     		adds	r2, r2, r4
 1675 00b0 5300     		lsls	r3, r2, #1
 1676 00b2 4B44     		add	r3, r3, r9
 1677 00b4 9B00     		lsls	r3, r3, #2
 1678 00b6 C018     		adds	r0, r0, r3
 1679 00b8 3100     		movs	r1, r6
 1680 00ba 0831     		adds	r1, r1, #8
 701:..\src\app\alt_mode/vdm_task_mngr.c ****                         vdm_disc_svid_resp_len[port] += tmp;
 1681              		.loc 1 701 0
 1682 00bc AA00     		lsls	r2, r5, #2
 700:..\src\app\alt_mode/vdm_task_mngr.c ****                                 tmp * sizeof (uint32_t));
 1683              		.loc 1 700 0
 1684 00be FFF7FEFF 		bl	memcpy
 1685              	.LVL161:
 702:..\src\app\alt_mode/vdm_task_mngr.c ****                     }
 1686              		.loc 1 702 0
 1687 00c2 4346     		mov	r3, r8
 1688 00c4 1B19     		adds	r3, r3, r4
 1689 00c6 4D44     		add	r5, r5, r9
 1690              	.LVL162:
 1691 00c8 4422     		movs	r2, #68
 1692 00ca 9D54     		strb	r5, [r3, r2]
 1693              	.L122:
 706:..\src\app\alt_mode/vdm_task_mngr.c ****                     {
 1694              		.loc 1 706 0
 1695 00cc B368     		ldr	r3, [r6, #8]
 1696 00ce 0133     		adds	r3, r3, #1
 1697 00d0 00D1     		bne	.LCB1628
 1698 00d2 91E0     		b	.L132	@long jump
 1699              	.LCB1628:
 713:..\src\app\alt_mode/vdm_task_mngr.c ****                     {
 1700              		.loc 1 713 0
 1701 00d4 E300     		lsls	r3, r4, #3
 1702 00d6 1B19     		adds	r3, r3, r4
 1703 00d8 D900     		lsls	r1, r3, #3
 1704 00da 0831     		adds	r1, r1, #8
 1705 00dc 4B4B     		ldr	r3, .L135+4
 1706 00de C918     		adds	r1, r1, r3
 1707 00e0 0831     		adds	r1, r1, #8
 1708 00e2 0422     		movs	r2, #4
 1709 00e4 2000     		movs	r0, r4
 1710 00e6 FFF7FEFF 		bl	save_svids
 1711              	.LVL163:
 1712 00ea 0028     		cmp	r0, #0
 1713 00ec 40D0     		beq	.L124
 716:..\src\app\alt_mode/vdm_task_mngr.c ****                                 (dpm_stat->cbl_mode_en != false))
 1714              		.loc 1 716 0
 1715 00ee 7923     		movs	r3, #121
ARM GAS  e:\temp\ccdoSeHU.s 			page 54


 1716 00f0 FB5C     		ldrb	r3, [r7, r3]
 1717 00f2 002B     		cmp	r3, #0
 1718 00f4 36D0     		beq	.L125
 717:..\src\app\alt_mode/vdm_task_mngr.c ****                         {
 1719              		.loc 1 717 0 discriminator 1
 1720 00f6 BC23     		movs	r3, #188
 1721 00f8 FB5C     		ldrb	r3, [r7, r3]
 716:..\src\app\alt_mode/vdm_task_mngr.c ****                                 (dpm_stat->cbl_mode_en != false))
 1722              		.loc 1 716 0 discriminator 1
 1723 00fa 002B     		cmp	r3, #0
 1724 00fc 32D0     		beq	.L125
 720:..\src\app\alt_mode/vdm_task_mngr.c ****                             #if VCONN_OCP_ENABLE
 1725              		.loc 1 720 0
 1726 00fe 7D23     		movs	r3, #125
 1727 0100 FB5C     		ldrb	r3, [r7, r3]
 719:..\src\app\alt_mode/vdm_task_mngr.c ****                                     (dpm_stat->vconn_logical)
 1728              		.loc 1 719 0
 1729 0102 002B     		cmp	r3, #0
 1730 0104 28D0     		beq	.L126
 722:..\src\app\alt_mode/vdm_task_mngr.c ****                             #endif /* VCONN_OCP_ENABLE */
 1731              		.loc 1 722 0
 1732 0106 2000     		movs	r0, r4
 1733 0108 FFF7FEFF 		bl	app_get_status
 1734              	.LVL164:
 1735 010c 3C23     		movs	r3, #60
 1736 010e C35C     		ldrb	r3, [r0, r3]
 1737 0110 DB07     		lsls	r3, r3, #31
 1738 0112 21D4     		bmi	.L126
 726:..\src\app\alt_mode/vdm_task_mngr.c ****                                 {
 1739              		.loc 1 726 0
 1740 0114 2000     		movs	r0, r4
 1741 0116 FFF7FEFF 		bl	vconn_is_present
 1742              	.LVL165:
 1743 011a 0028     		cmp	r0, #0
 1744 011c 0AD1     		bne	.L127
 732:..\src\app\alt_mode/vdm_task_mngr.c **** 
 1745              		.loc 1 732 0
 1746 011e 7023     		movs	r3, #112
 1747 0120 F95C     		ldrb	r1, [r7, r3]
 1748 0122 2000     		movs	r0, r4
 1749 0124 FFF7FEFF 		bl	vconn_enable
 1750              	.LVL166:
 735:..\src\app\alt_mode/vdm_task_mngr.c ****                                 }
 1751              		.loc 1 735 0
 1752 0128 0023     		movs	r3, #0
 1753 012a 3722     		movs	r2, #55
 1754 012c 2821     		movs	r1, #40
 1755 012e 2000     		movs	r0, r4
 1756 0130 FFF7FEFF 		bl	timer_start
 1757              	.LVL167:
 1758              	.L127:
 738:..\src\app\alt_mode/vdm_task_mngr.c ****                                 vdm_stat[port].dsvid_cnt = 0;
 1759              		.loc 1 738 0
 1760 0134 354D     		ldr	r5, .L135+4
 1761 0136 E100     		lsls	r1, r4, #3
 1762 0138 0B19     		adds	r3, r1, r4
 1763 013a DA00     		lsls	r2, r3, #3
ARM GAS  e:\temp\ccdoSeHU.s 			page 55


 1764 013c 1300     		movs	r3, r2
 1765 013e AA18     		adds	r2, r5, r2
 1766 0140 4532     		adds	r2, r2, #69
 1767 0142 0020     		movs	r0, #0
 1768 0144 1070     		strb	r0, [r2]
 739:..\src\app\alt_mode/vdm_task_mngr.c ****                                 set_disc_svid_param (port, SOP_PRIME);
 1769              		.loc 1 739 0
 1770 0146 EB18     		adds	r3, r5, r3
 1771 0148 4633     		adds	r3, r3, #70
 1772 014a 1870     		strb	r0, [r3]
 740:..\src\app\alt_mode/vdm_task_mngr.c ****                                 ret = VDM_TASK_SEND_MSG;
 1773              		.loc 1 740 0
 1774 014c 0121     		movs	r1, #1
 1775 014e 2000     		movs	r0, r4
 1776 0150 FFF7FEFF 		bl	set_disc_svid_param
 1777              	.LVL168:
 741:..\src\app\alt_mode/vdm_task_mngr.c ****                             }
 1778              		.loc 1 741 0
 1779 0154 0620     		movs	r0, #6
 1780 0156 52E0     		b	.L116
 1781              	.LVL169:
 1782              	.L126:
 750:..\src\app\alt_mode/vdm_task_mngr.c ****                                 ret = VDM_TASK_REG_ATCH_TGT_INFO;
 1783              		.loc 1 750 0
 1784 0158 0021     		movs	r1, #0
 1785 015a 2000     		movs	r0, r4
 1786 015c FFF7FEFF 		bl	set_evt
 1787              	.LVL170:
 751:..\src\app\alt_mode/vdm_task_mngr.c ****                             }
 1788              		.loc 1 751 0
 1789 0160 0420     		movs	r0, #4
 1790 0162 4CE0     		b	.L116
 1791              	.LVL171:
 1792              	.L125:
 757:..\src\app\alt_mode/vdm_task_mngr.c ****                             ret = VDM_TASK_REG_ATCH_TGT_INFO;
 1793              		.loc 1 757 0
 1794 0164 0021     		movs	r1, #0
 1795 0166 2000     		movs	r0, r4
 1796 0168 FFF7FEFF 		bl	set_evt
 1797              	.LVL172:
 758:..\src\app\alt_mode/vdm_task_mngr.c ****                         }
 1798              		.loc 1 758 0
 1799 016c 0420     		movs	r0, #4
 1800 016e 46E0     		b	.L116
 1801              	.LVL173:
 1802              	.L124:
 764:..\src\app\alt_mode/vdm_task_mngr.c ****                         ret = VDM_TASK_SEND_MSG;
 1803              		.loc 1 764 0
 1804 0170 0021     		movs	r1, #0
 1805 0172 2000     		movs	r0, r4
 1806 0174 FFF7FEFF 		bl	set_disc_svid_param
 1807              	.LVL174:
 765:..\src\app\alt_mode/vdm_task_mngr.c ****                     }
 1808              		.loc 1 765 0
 1809 0178 0620     		movs	r0, #6
 1810 017a 40E0     		b	.L116
 1811              	.LVL175:
ARM GAS  e:\temp\ccdoSeHU.s 			page 56


 1812              	.L120:
 772:..\src\app\alt_mode/vdm_task_mngr.c ****                             (save_svids(port, vdm_stat[port].atch_tgt.cbl_svid, MAX_CABLE_SVID_SUPP
 1813              		.loc 1 772 0
 1814 017c 8368     		ldr	r3, [r0, #8]
 1815 017e 0133     		adds	r3, r3, #1
 1816 0180 12D0     		beq	.L128
 773:..\src\app\alt_mode/vdm_task_mngr.c ****                     {
 1817              		.loc 1 773 0 discriminator 1
 1818 0182 E300     		lsls	r3, r4, #3
 1819 0184 1B19     		adds	r3, r3, r4
 1820 0186 D900     		lsls	r1, r3, #3
 1821 0188 1031     		adds	r1, r1, #16
 1822 018a 204B     		ldr	r3, .L135+4
 1823 018c C918     		adds	r1, r1, r3
 1824 018e 0831     		adds	r1, r1, #8
 1825 0190 0422     		movs	r2, #4
 1826 0192 2000     		movs	r0, r4
 1827              	.LVL176:
 1828 0194 FFF7FEFF 		bl	save_svids
 1829              	.LVL177:
 772:..\src\app\alt_mode/vdm_task_mngr.c ****                             (save_svids(port, vdm_stat[port].atch_tgt.cbl_svid, MAX_CABLE_SVID_SUPP
 1830              		.loc 1 772 0 discriminator 1
 1831 0198 0028     		cmp	r0, #0
 1832 019a 05D1     		bne	.L128
 776:..\src\app\alt_mode/vdm_task_mngr.c ****                         ret = VDM_TASK_SEND_MSG;
 1833              		.loc 1 776 0
 1834 019c 0121     		movs	r1, #1
 1835 019e 2000     		movs	r0, r4
 1836 01a0 FFF7FEFF 		bl	set_disc_svid_param
 1837              	.LVL178:
 777:..\src\app\alt_mode/vdm_task_mngr.c ****                     }
 1838              		.loc 1 777 0
 1839 01a4 0620     		movs	r0, #6
 1840 01a6 2AE0     		b	.L116
 1841              	.LVL179:
 1842              	.L128:
 785:..\src\app\alt_mode/vdm_task_mngr.c ****                         {
 1843              		.loc 1 785 0
 1844 01a8 E200     		lsls	r2, r4, #3
 1845 01aa 1219     		adds	r2, r2, r4
 1846 01ac D300     		lsls	r3, r2, #3
 1847 01ae 174A     		ldr	r2, .L135+4
 1848 01b0 D318     		adds	r3, r2, r3
 1849 01b2 1B8B     		ldrh	r3, [r3, #24]
 1850 01b4 002B     		cmp	r3, #0
 1851 01b6 0CD1     		bne	.L129
 788:..\src\app\alt_mode/vdm_task_mngr.c ****                                     (dpm_stat->cbl_vdo.std_cbl_vdo.cbl_term == CBL_TERM_BOTH_PAS_VC
 1852              		.loc 1 788 0
 1853 01b8 7B7D     		ldrb	r3, [r7, #21]
 787:..\src\app\alt_mode/vdm_task_mngr.c ****                                     (dpm_stat->vconn_retain == 0) &&
 1854              		.loc 1 787 0
 1855 01ba 002B     		cmp	r3, #0
 1856 01bc 09D1     		bne	.L129
 789:..\src\app\alt_mode/vdm_task_mngr.c ****                                )
 1857              		.loc 1 789 0
 1858 01be B933     		adds	r3, r3, #185
 1859 01c0 FB5C     		ldrb	r3, [r7, r3]
ARM GAS  e:\temp\ccdoSeHU.s 			page 57


 1860 01c2 1822     		movs	r2, #24
 788:..\src\app\alt_mode/vdm_task_mngr.c ****                                     (dpm_stat->cbl_vdo.std_cbl_vdo.cbl_term == CBL_TERM_BOTH_PAS_VC
 1861              		.loc 1 788 0
 1862 01c4 1A42     		tst	r2, r3
 1863 01c6 04D1     		bne	.L129
 792:..\src\app\alt_mode/vdm_task_mngr.c ****                             }
 1864              		.loc 1 792 0
 1865 01c8 7023     		movs	r3, #112
 1866 01ca F95C     		ldrb	r1, [r7, r3]
 1867 01cc 2000     		movs	r0, r4
 1868 01ce FFF7FEFF 		bl	vconn_disable
 1869              	.LVL180:
 1870              	.L129:
 797:..\src\app\alt_mode/vdm_task_mngr.c ****                         ret = VDM_TASK_REG_ATCH_TGT_INFO;
 1871              		.loc 1 797 0
 1872 01d2 0021     		movs	r1, #0
 1873 01d4 2000     		movs	r0, r4
 1874 01d6 FFF7FEFF 		bl	set_evt
 1875              	.LVL181:
 798:..\src\app\alt_mode/vdm_task_mngr.c ****                     }
 1876              		.loc 1 798 0
 1877 01da 0420     		movs	r0, #4
 1878 01dc 0FE0     		b	.L116
 1879              	.LVL182:
 1880              	.L119:
 816:..\src\app\alt_mode/vdm_task_mngr.c ****             {
 1881              		.loc 1 816 0
 1882 01de 0379     		ldrb	r3, [r0, #4]
 1883 01e0 012B     		cmp	r3, #1
 1884 01e2 0BD1     		bne	.L133
 818:..\src\app\alt_mode/vdm_task_mngr.c ****                 ret = VDM_TASK_REG_ATCH_TGT_INFO;
 1885              		.loc 1 818 0
 1886 01e4 0021     		movs	r1, #0
 1887 01e6 2000     		movs	r0, r4
 1888              	.LVL183:
 1889 01e8 FFF7FEFF 		bl	set_evt
 1890              	.LVL184:
 819:..\src\app\alt_mode/vdm_task_mngr.c ****             }
 1891              		.loc 1 819 0
 1892 01ec 0420     		movs	r0, #4
 1893 01ee 06E0     		b	.L116
 1894              	.LVL185:
 1895              	.L134:
 661:..\src\app\alt_mode/vdm_task_mngr.c ****     const dpm_status_t *dpm_stat = dpm_get_info(port);
 1896              		.loc 1 661 0
 1897 01f0 0520     		movs	r0, #5
 1898              	.LVL186:
 1899 01f2 04E0     		b	.L116
 1900              	.LVL187:
 1901              	.L131:
 1902 01f4 0520     		movs	r0, #5
 1903              	.LVL188:
 1904 01f6 02E0     		b	.L116
 1905              	.L132:
 1906 01f8 0520     		movs	r0, #5
 1907 01fa 00E0     		b	.L116
 1908              	.LVL189:
ARM GAS  e:\temp\ccdoSeHU.s 			page 58


 1909              	.L133:
 1910 01fc 0520     		movs	r0, #5
 1911              	.LVL190:
 1912              	.L116:
 828:..\src\app\alt_mode/vdm_task_mngr.c **** 
 1913              		.loc 1 828 0
 1914              		@ sp needed
 1915              	.LVL191:
 1916              	.LVL192:
 1917 01fe 0CBC     		pop	{r2, r3}
 1918 0200 9046     		mov	r8, r2
 1919 0202 9946     		mov	r9, r3
 1920 0204 F8BD     		pop	{r3, r4, r5, r6, r7, pc}
 1921              	.L136:
 1922 0206 C046     		.align	2
 1923              	.L135:
 1924 0208 00000000 		.word	gl_dpm_port_type
 1925 020c 00000000 		.word	vdm_stat
 1926 0210 00000000 		.word	.LANCHOR0
 1927              		.cfi_endproc
 1928              	.LFE43:
 1929              		.size	vdm_task_mng_disc_svid, .-vdm_task_mng_disc_svid
 1930              		.section	.text.vdm_task_mngr,"ax",%progbits
 1931              		.align	2
 1932              		.global	vdm_task_mngr
 1933              		.code	16
 1934              		.thumb_func
 1935              		.type	vdm_task_mngr, %function
 1936              	vdm_task_mngr:
 1937              	.LFB35:
 214:..\src\app\alt_mode/vdm_task_mngr.c ****     /* The VDM task enabled check is performed by the caller. */
 1938              		.loc 1 214 0
 1939              		.cfi_startproc
 1940              		@ args = 0, pretend = 0, frame = 0
 1941              		@ frame_needed = 0, uses_anonymous_args = 0
 1942              	.LVL193:
 1943 0000 10B5     		push	{r4, lr}
 1944              		.cfi_def_cfa_offset 8
 1945              		.cfi_offset 4, -8
 1946              		.cfi_offset 14, -4
 1947 0002 0400     		movs	r4, r0
 217:..\src\app\alt_mode/vdm_task_mngr.c **** #if MUX_DELAY_EN			
 1948              		.loc 1 217 0
 1949 0004 2821     		movs	r1, #40
 1950 0006 FFF7FEFF 		bl	timer_is_running
 1951              	.LVL194:
 216:..\src\app\alt_mode/vdm_task_mngr.c ****             (timer_is_running(port, APP_VDM_BUSY_TIMER) == true)
 1952              		.loc 1 216 0
 1953 000a 0028     		cmp	r0, #0
 1954 000c 69D1     		bne	.L137
 227:..\src\app\alt_mode/vdm_task_mngr.c ****     {
 1955              		.loc 1 227 0
 1956 000e 2000     		movs	r0, r4
 1957 0010 FFF7FEFF 		bl	get_task
 1958              	.LVL195:
 1959 0014 0728     		cmp	r0, #7
 1960 0016 64D8     		bhi	.L137
ARM GAS  e:\temp\ccdoSeHU.s 			page 59


 1961 0018 8000     		lsls	r0, r0, #2
 1962 001a 324B     		ldr	r3, .L148
 1963 001c 1B58     		ldr	r3, [r3, r0]
 1964 001e 9F46     		mov	pc, r3
 1965              		.section	.rodata
 1966              		.align	2
 1967              	.L140:
 1968 0000 E2000000 		.word	.L137
 1969 0004 20000000 		.word	.L139
 1970 0008 30000000 		.word	.L141
 1971 000c 48000000 		.word	.L142
 1972 0010 76000000 		.word	.L143
 1973 0014 D0000000 		.word	.L144
 1974 0018 60000000 		.word	.L145
 1975 001c A2000000 		.word	.L146
 1976              		.section	.text.vdm_task_mngr
 1977              	.L139:
 233:..\src\app\alt_mode/vdm_task_mngr.c ****             break;
 1978              		.loc 1 233 0
 1979 0020 2000     		movs	r0, r4
 1980 0022 FFF7FEFF 		bl	vdm_task_mngr_init
 1981              	.LVL196:
 1982 0026 0100     		movs	r1, r0
 1983 0028 2000     		movs	r0, r4
 1984 002a FFF7FEFF 		bl	set_task
 1985              	.LVL197:
 234:..\src\app\alt_mode/vdm_task_mngr.c **** 
 1986              		.loc 1 234 0
 1987 002e 58E0     		b	.L137
 1988              	.L141:
 238:..\src\app\alt_mode/vdm_task_mngr.c ****             break;
 1989              		.loc 1 238 0
 1990 0030 2000     		movs	r0, r4
 1991 0032 FFF7FEFF 		bl	get_evt
 1992              	.LVL198:
 1993 0036 0100     		movs	r1, r0
 1994 0038 2000     		movs	r0, r4
 1995 003a FFF7FEFF 		bl	vdm_task_mng_disc_id
 1996              	.LVL199:
 1997 003e 0100     		movs	r1, r0
 1998 0040 2000     		movs	r0, r4
 1999 0042 FFF7FEFF 		bl	set_task
 2000              	.LVL200:
 239:..\src\app\alt_mode/vdm_task_mngr.c **** 
 2001              		.loc 1 239 0
 2002 0046 4CE0     		b	.L137
 2003              	.L142:
 242:..\src\app\alt_mode/vdm_task_mngr.c ****             break;
 2004              		.loc 1 242 0
 2005 0048 2000     		movs	r0, r4
 2006 004a FFF7FEFF 		bl	get_evt
 2007              	.LVL201:
 2008 004e 0100     		movs	r1, r0
 2009 0050 2000     		movs	r0, r4
 2010 0052 FFF7FEFF 		bl	vdm_task_mng_disc_svid
 2011              	.LVL202:
 2012 0056 0100     		movs	r1, r0
ARM GAS  e:\temp\ccdoSeHU.s 			page 60


 2013 0058 2000     		movs	r0, r4
 2014 005a FFF7FEFF 		bl	set_task
 2015              	.LVL203:
 243:..\src\app\alt_mode/vdm_task_mngr.c **** #endif /* ((DFP_ALT_MODE_SUPP) || (UFP_MODE_DISC_ENABLE)) */
 2016              		.loc 1 243 0
 2017 005e 40E0     		b	.L137
 2018              	.L145:
 247:..\src\app\alt_mode/vdm_task_mngr.c ****             set_task(port, send_vdm(port));
 2019              		.loc 1 247 0
 2020 0060 2000     		movs	r0, r4
 2021 0062 FFF7FEFF 		bl	compose_vdm
 2022              	.LVL204:
 248:..\src\app\alt_mode/vdm_task_mngr.c ****             break;
 2023              		.loc 1 248 0
 2024 0066 2000     		movs	r0, r4
 2025 0068 FFF7FEFF 		bl	send_vdm
 2026              	.LVL205:
 2027 006c 0100     		movs	r1, r0
 2028 006e 2000     		movs	r0, r4
 2029 0070 FFF7FEFF 		bl	set_task
 2030              	.LVL206:
 249:..\src\app\alt_mode/vdm_task_mngr.c **** 
 2031              		.loc 1 249 0
 2032 0074 35E0     		b	.L137
 2033              	.L143:
 252:..\src\app\alt_mode/vdm_task_mngr.c ****             set_evt(port, VDM_EVT_RUN);
 2034              		.loc 1 252 0
 2035 0076 2000     		movs	r0, r4
 2036 0078 FFF7FEFF 		bl	get_msg
 2037              	.LVL207:
 2038 007c 0200     		movs	r2, r0
 2039 007e E300     		lsls	r3, r4, #3
 2040 0080 1B19     		adds	r3, r3, r4
 2041 0082 D900     		lsls	r1, r3, #3
 2042 0084 184B     		ldr	r3, .L148+4
 2043 0086 C918     		adds	r1, r1, r3
 2044 0088 0431     		adds	r1, r1, #4
 2045 008a 2000     		movs	r0, r4
 2046 008c FFF7FEFF 		bl	reg_alt_mode_mngr
 2047              	.LVL208:
 2048 0090 0100     		movs	r1, r0
 2049 0092 2000     		movs	r0, r4
 2050 0094 FFF7FEFF 		bl	set_task
 2051              	.LVL209:
 253:..\src\app\alt_mode/vdm_task_mngr.c ****             break;
 2052              		.loc 1 253 0
 2053 0098 0021     		movs	r1, #0
 2054 009a 2000     		movs	r0, r4
 2055 009c FFF7FEFF 		bl	set_evt
 2056              	.LVL210:
 254:..\src\app\alt_mode/vdm_task_mngr.c **** 
 2057              		.loc 1 254 0
 2058 00a0 1FE0     		b	.L137
 2059              	.L146:
 257:..\src\app\alt_mode/vdm_task_mngr.c ****             if ((get_task(port) == VDM_TASK_SEND_MSG) || (get_task(port) == VDM_TASK_ALT_MODE))
 2060              		.loc 1 257 0
 2061 00a2 2000     		movs	r0, r4
ARM GAS  e:\temp\ccdoSeHU.s 			page 61


 2062 00a4 FFF7FEFF 		bl	get_evt
 2063              	.LVL211:
 2064 00a8 0100     		movs	r1, r0
 2065 00aa 2000     		movs	r0, r4
 2066 00ac FFF7FEFF 		bl	vdm_task_mngr_alt_mode_process
 2067              	.LVL212:
 2068 00b0 0100     		movs	r1, r0
 2069 00b2 2000     		movs	r0, r4
 2070 00b4 FFF7FEFF 		bl	set_task
 2071              	.LVL213:
 258:..\src\app\alt_mode/vdm_task_mngr.c ****             {
 2072              		.loc 1 258 0
 2073 00b8 2000     		movs	r0, r4
 2074 00ba FFF7FEFF 		bl	get_task
 2075              	.LVL214:
 2076 00be 0628     		cmp	r0, #6
 2077 00c0 01D0     		beq	.L147
 258:..\src\app\alt_mode/vdm_task_mngr.c ****             {
 2078              		.loc 1 258 0 is_stmt 0 discriminator 1
 2079 00c2 0728     		cmp	r0, #7
 2080 00c4 0DD1     		bne	.L137
 2081              	.L147:
 260:..\src\app\alt_mode/vdm_task_mngr.c ****             }
 2082              		.loc 1 260 0 is_stmt 1
 2083 00c6 0021     		movs	r1, #0
 2084 00c8 2000     		movs	r0, r4
 2085 00ca FFF7FEFF 		bl	set_evt
 2086              	.LVL215:
 2087 00ce 08E0     		b	.L137
 2088              	.L144:
 265:..\src\app\alt_mode/vdm_task_mngr.c ****             app_get_status(port)->vdm_prcs_failed = true;
 2089              		.loc 1 265 0
 2090 00d0 2000     		movs	r0, r4
 2091 00d2 FFF7FEFF 		bl	vdm_task_mngr_deinit
 2092              	.LVL216:
 266:..\src\app\alt_mode/vdm_task_mngr.c ****             break;
 2093              		.loc 1 266 0
 2094 00d6 2000     		movs	r0, r4
 2095 00d8 FFF7FEFF 		bl	app_get_status
 2096              	.LVL217:
 2097 00dc 0122     		movs	r2, #1
 2098 00de 3E23     		movs	r3, #62
 2099 00e0 C254     		strb	r2, [r0, r3]
 2100              	.L137:
 273:..\src\app\alt_mode/vdm_task_mngr.c **** 
 2101              		.loc 1 273 0
 2102              		@ sp needed
 2103 00e2 10BD     		pop	{r4, pc}
 2104              	.L149:
 2105              		.align	2
 2106              	.L148:
 2107 00e4 00000000 		.word	.L140
 2108 00e8 00000000 		.word	vdm_stat
 2109              		.cfi_endproc
 2110              	.LFE35:
 2111              		.size	vdm_task_mngr, .-vdm_task_mngr
 2112              		.section	.text.set_vdm_failed,"ax",%progbits
ARM GAS  e:\temp\ccdoSeHU.s 			page 62


 2113              		.align	2
 2114              		.code	16
 2115              		.thumb_func
 2116              		.type	set_vdm_failed, %function
 2117              	set_vdm_failed:
 2118              	.LFB37:
 293:..\src\app\alt_mode/vdm_task_mngr.c ****     /* Reset retry counters */
 2119              		.loc 1 293 0
 2120              		.cfi_startproc
 2121              		@ args = 0, pretend = 0, frame = 0
 2122              		@ frame_needed = 0, uses_anonymous_args = 0
 2123              	.LVL218:
 2124 0000 70B5     		push	{r4, r5, r6, lr}
 2125              		.cfi_def_cfa_offset 16
 2126              		.cfi_offset 4, -16
 2127              		.cfi_offset 5, -12
 2128              		.cfi_offset 6, -8
 2129              		.cfi_offset 14, -4
 2130 0002 0500     		movs	r5, r0
 2131 0004 0C00     		movs	r4, r1
 295:..\src\app\alt_mode/vdm_task_mngr.c ****     set_evt(port, VDM_EVT_FAIL);
 2132              		.loc 1 295 0
 2133 0006 C200     		lsls	r2, r0, #3
 2134 0008 1218     		adds	r2, r2, r0
 2135 000a D300     		lsls	r3, r2, #3
 2136 000c 0F4A     		ldr	r2, .L151
 2137 000e D318     		adds	r3, r2, r3
 2138 0010 4433     		adds	r3, r3, #68
 2139 0012 0022     		movs	r2, #0
 2140 0014 1A70     		strb	r2, [r3]
 296:..\src\app\alt_mode/vdm_task_mngr.c ****     /* Set failed and save failed command */
 2141              		.loc 1 296 0
 2142 0016 0221     		movs	r1, #2
 2143              	.LVL219:
 2144 0018 FFF7FEFF 		bl	set_evt
 2145              	.LVL220:
 298:..\src\app\alt_mode/vdm_task_mngr.c ****     /* Save Failure code in the object position field */
 2146              		.loc 1 298 0
 2147 001c 2800     		movs	r0, r5
 2148 001e FFF7FEFF 		bl	get_msg
 2149              	.LVL221:
 2150 0022 0600     		movs	r6, r0
 2151 0024 2800     		movs	r0, r5
 2152 0026 FFF7FEFF 		bl	get_vdm_buff
 2153              	.LVL222:
 2154 002a 037C     		ldrb	r3, [r0, #16]
 2155 002c DB06     		lsls	r3, r3, #27
 2156 002e DA0E     		lsrs	r2, r3, #27
 2157 0030 3378     		ldrb	r3, [r6]
 2158 0032 1F21     		movs	r1, #31
 2159 0034 8B43     		bics	r3, r1
 2160 0036 1343     		orrs	r3, r2
 2161 0038 3370     		strb	r3, [r6]
 300:..\src\app\alt_mode/vdm_task_mngr.c **** }
 2162              		.loc 1 300 0
 2163 003a 0723     		movs	r3, #7
 2164 003c 1C40     		ands	r4, r3
ARM GAS  e:\temp\ccdoSeHU.s 			page 63


 2165 003e 7378     		ldrb	r3, [r6, #1]
 2166 0040 0722     		movs	r2, #7
 2167 0042 9343     		bics	r3, r2
 2168 0044 1C43     		orrs	r4, r3
 2169 0046 7470     		strb	r4, [r6, #1]
 301:..\src\app\alt_mode/vdm_task_mngr.c **** 
 2170              		.loc 1 301 0
 2171              		@ sp needed
 2172 0048 70BD     		pop	{r4, r5, r6, pc}
 2173              	.L152:
 2174 004a C046     		.align	2
 2175              	.L151:
 2176 004c 00000000 		.word	vdm_stat
 2177              		.cfi_endproc
 2178              	.LFE37:
 2179              		.size	set_vdm_failed, .-set_vdm_failed
 2180              		.section	.text.vdm_retry_check,"ax",%progbits
 2181              		.align	2
 2182              		.code	16
 2183              		.thumb_func
 2184              		.type	vdm_retry_check, %function
 2185              	vdm_retry_check:
 2186              	.LFB36:
 276:..\src\app\alt_mode/vdm_task_mngr.c ****     (vdm_stat[port].rec_retry_cnt)++;
 2187              		.loc 1 276 0
 2188              		.cfi_startproc
 2189              		@ args = 0, pretend = 0, frame = 0
 2190              		@ frame_needed = 0, uses_anonymous_args = 0
 2191              	.LVL223:
 2192 0000 70B5     		push	{r4, r5, r6, lr}
 2193              		.cfi_def_cfa_offset 16
 2194              		.cfi_offset 4, -16
 2195              		.cfi_offset 5, -12
 2196              		.cfi_offset 6, -8
 2197              		.cfi_offset 14, -4
 2198 0002 0400     		movs	r4, r0
 277:..\src\app\alt_mode/vdm_task_mngr.c **** 
 2199              		.loc 1 277 0
 2200 0004 0F4D     		ldr	r5, .L156
 2201 0006 C000     		lsls	r0, r0, #3
 2202              	.LVL224:
 2203 0008 0219     		adds	r2, r0, r4
 2204 000a D300     		lsls	r3, r2, #3
 2205 000c EB18     		adds	r3, r5, r3
 2206 000e 4433     		adds	r3, r3, #68
 2207 0010 1B78     		ldrb	r3, [r3]
 2208 0012 0133     		adds	r3, r3, #1
 2209 0014 DBB2     		uxtb	r3, r3
 2210 0016 D200     		lsls	r2, r2, #3
 2211 0018 AA18     		adds	r2, r5, r2
 2212 001a 4432     		adds	r2, r2, #68
 2213 001c 1370     		strb	r3, [r2]
 280:..\src\app\alt_mode/vdm_task_mngr.c ****     {
 2214              		.loc 1 280 0
 2215 001e 092B     		cmp	r3, #9
 2216 0020 04D9     		bls	.L154
 282:..\src\app\alt_mode/vdm_task_mngr.c ****         return false;
ARM GAS  e:\temp\ccdoSeHU.s 			page 64


 2217              		.loc 1 282 0
 2218 0022 2000     		movs	r0, r4
 2219 0024 FFF7FEFF 		bl	set_vdm_failed
 2220              	.LVL225:
 283:..\src\app\alt_mode/vdm_task_mngr.c ****     }
 2221              		.loc 1 283 0
 2222 0028 0020     		movs	r0, #0
 2223 002a 0AE0     		b	.L155
 2224              	.LVL226:
 2225              	.L154:
 286:..\src\app\alt_mode/vdm_task_mngr.c ****     /* Start a timer to delay the retry attempt. */
 2226              		.loc 1 286 0
 2227 002c 0621     		movs	r1, #6
 2228              	.LVL227:
 2229 002e 2000     		movs	r0, r4
 2230 0030 FFF7FEFF 		bl	set_task
 2231              	.LVL228:
 288:..\src\app\alt_mode/vdm_task_mngr.c ****     return true;
 2232              		.loc 1 288 0
 2233 0034 0023     		movs	r3, #0
 2234 0036 6422     		movs	r2, #100
 2235 0038 2821     		movs	r1, #40
 2236 003a 2000     		movs	r0, r4
 2237 003c FFF7FEFF 		bl	timer_start
 2238              	.LVL229:
 289:..\src\app\alt_mode/vdm_task_mngr.c **** }
 2239              		.loc 1 289 0
 2240 0040 0120     		movs	r0, #1
 2241              	.L155:
 290:..\src\app\alt_mode/vdm_task_mngr.c **** 
 2242              		.loc 1 290 0
 2243              		@ sp needed
 2244 0042 70BD     		pop	{r4, r5, r6, pc}
 2245              	.L157:
 2246              		.align	2
 2247              	.L156:
 2248 0044 00000000 		.word	vdm_stat
 2249              		.cfi_endproc
 2250              	.LFE36:
 2251              		.size	vdm_retry_check, .-vdm_retry_check
 2252              		.section	.text.vdm_rec_cbk,"ax",%progbits
 2253              		.align	2
 2254              		.code	16
 2255              		.thumb_func
 2256              		.type	vdm_rec_cbk, %function
 2257              	vdm_rec_cbk:
 2258              	.LFB38:
 305:..\src\app\alt_mode/vdm_task_mngr.c ****     uint32_t response;
 2259              		.loc 1 305 0
 2260              		.cfi_startproc
 2261              		@ args = 0, pretend = 0, frame = 0
 2262              		@ frame_needed = 0, uses_anonymous_args = 0
 2263              	.LVL230:
 2264 0000 F8B5     		push	{r3, r4, r5, r6, r7, lr}
 2265              		.cfi_def_cfa_offset 24
 2266              		.cfi_offset 3, -24
 2267              		.cfi_offset 4, -20
ARM GAS  e:\temp\ccdoSeHU.s 			page 65


 2268              		.cfi_offset 5, -16
 2269              		.cfi_offset 6, -12
 2270              		.cfi_offset 7, -8
 2271              		.cfi_offset 14, -4
 2272 0002 0400     		movs	r4, r0
 2273 0004 0D00     		movs	r5, r1
 2274 0006 1600     		movs	r6, r2
 2275              	.LVL231:
 310:..\src\app\alt_mode/vdm_task_mngr.c ****     {
 2276              		.loc 1 310 0
 2277 0008 0429     		cmp	r1, #4
 2278 000a 7CD1     		bne	.L159
 313:..\src\app\alt_mode/vdm_task_mngr.c ****         {
 2279              		.loc 1 313 0
 2280 000c 537A     		ldrb	r3, [r2, #9]
 2281 000e 7F22     		movs	r2, #127
 2282              	.LVL232:
 2283 0010 9343     		bics	r3, r2
 2284 0012 67D0     		beq	.L160
 315:..\src\app\alt_mode/vdm_task_mngr.c **** 
 2285              		.loc 1 315 0
 2286 0014 357A     		ldrb	r5, [r6, #8]
 2287 0016 AD09     		lsrs	r5, r5, #6
 2288              	.LVL233:
 318:..\src\app\alt_mode/vdm_task_mngr.c ****             {
 2289              		.loc 1 318 0
 2290 0018 3378     		ldrb	r3, [r6]
 2291 001a 002B     		cmp	r3, #0
 2292 001c 13D1     		bne	.L161
 320:..\src\app\alt_mode/vdm_task_mngr.c ****                     GET_MIN (app_get_status(port)->vdm_version, rec_vdm->dat[VDM_HEADER_IDX].std_vd
 2293              		.loc 1 320 0
 2294 001e FFF7FEFF 		bl	app_get_status
 2295              	.LVL234:
 2296 0022 0700     		movs	r7, r0
 321:..\src\app\alt_mode/vdm_task_mngr.c ****             }
 2297              		.loc 1 321 0
 2298 0024 2000     		movs	r0, r4
 2299 0026 FFF7FEFF 		bl	app_get_status
 2300              	.LVL235:
 2301 002a 3A23     		movs	r3, #58
 2302 002c C25C     		ldrb	r2, [r0, r3]
 2303 002e 737A     		ldrb	r3, [r6, #9]
 2304 0030 5B06     		lsls	r3, r3, #25
 2305 0032 9B0F     		lsrs	r3, r3, #30
 320:..\src\app\alt_mode/vdm_task_mngr.c ****                     GET_MIN (app_get_status(port)->vdm_version, rec_vdm->dat[VDM_HEADER_IDX].std_vd
 2306              		.loc 1 320 0
 2307 0034 9A42     		cmp	r2, r3
 2308 0036 04DC     		bgt	.L163
 321:..\src\app\alt_mode/vdm_task_mngr.c ****             }
 2309              		.loc 1 321 0 discriminator 2
 2310 0038 2000     		movs	r0, r4
 2311 003a FFF7FEFF 		bl	app_get_status
 2312              	.LVL236:
 320:..\src\app\alt_mode/vdm_task_mngr.c ****                     GET_MIN (app_get_status(port)->vdm_version, rec_vdm->dat[VDM_HEADER_IDX].std_vd
 2313              		.loc 1 320 0 discriminator 2
 2314 003e 3A23     		movs	r3, #58
 2315 0040 C35C     		ldrb	r3, [r0, r3]
ARM GAS  e:\temp\ccdoSeHU.s 			page 66


 2316              	.L163:
 320:..\src\app\alt_mode/vdm_task_mngr.c ****                     GET_MIN (app_get_status(port)->vdm_version, rec_vdm->dat[VDM_HEADER_IDX].std_vd
 2317              		.loc 1 320 0 is_stmt 0 discriminator 4
 2318 0042 3A22     		movs	r2, #58
 2319 0044 BB54     		strb	r3, [r7, r2]
 2320              	.L161:
 326:..\src\app\alt_mode/vdm_task_mngr.c ****             {
 2321              		.loc 1 326 0 is_stmt 1
 2322 0046 012D     		cmp	r5, #1
 2323 0048 02D0     		beq	.L165
 2324 004a 032D     		cmp	r5, #3
 2325 004c 23D0     		beq	.L166
 2326 004e 43E0     		b	.L180
 2327              	.L165:
 331:..\src\app\alt_mode/vdm_task_mngr.c ****                                 (get_vdm_buff(port)->cmd_do[VDM_HEADER_IDX].std_vdm_hdr.cmd))
 2328              		.loc 1 331 0
 2329 0050 357A     		ldrb	r5, [r6, #8]
 2330 0052 ED06     		lsls	r5, r5, #27
 2331 0054 ED0E     		lsrs	r5, r5, #27
 332:..\src\app\alt_mode/vdm_task_mngr.c ****                         {
 2332              		.loc 1 332 0
 2333 0056 2000     		movs	r0, r4
 2334 0058 FFF7FEFF 		bl	get_vdm_buff
 2335              	.LVL237:
 2336 005c 037C     		ldrb	r3, [r0, #16]
 2337 005e DB06     		lsls	r3, r3, #27
 2338 0060 DB0E     		lsrs	r3, r3, #27
 331:..\src\app\alt_mode/vdm_task_mngr.c ****                                 (get_vdm_buff(port)->cmd_do[VDM_HEADER_IDX].std_vdm_hdr.cmd))
 2339              		.loc 1 331 0
 2340 0062 9D42     		cmp	r5, r3
 2341 0064 11D1     		bne	.L167
 334:..\src\app\alt_mode/vdm_task_mngr.c ****                             set_evt(port, VDM_EVT_EVAL);
 2342              		.loc 1 334 0
 2343 0066 3100     		movs	r1, r6
 2344 0068 2000     		movs	r0, r4
 2345 006a FFF7FEFF 		bl	parse_vdm
 2346              	.LVL238:
 335:..\src\app\alt_mode/vdm_task_mngr.c **** 
 2347              		.loc 1 335 0
 2348 006e 0121     		movs	r1, #1
 2349 0070 2000     		movs	r0, r4
 2350 0072 FFF7FEFF 		bl	set_evt
 2351              	.LVL239:
 338:..\src\app\alt_mode/vdm_task_mngr.c ****                         }
 2352              		.loc 1 338 0
 2353 0076 E200     		lsls	r2, r4, #3
 2354 0078 1219     		adds	r2, r2, r4
 2355 007a D300     		lsls	r3, r2, #3
 2356 007c 504A     		ldr	r2, .L182
 2357 007e D318     		adds	r3, r2, r3
 2358 0080 4433     		adds	r3, r3, #68
 2359 0082 0022     		movs	r2, #0
 2360 0084 1A70     		strb	r2, [r3]
 347:..\src\app\alt_mode/vdm_task_mngr.c ****                     }
 2361              		.loc 1 347 0
 2362 0086 0123     		movs	r3, #1
 2363 0088 7AE0     		b	.L168
ARM GAS  e:\temp\ccdoSeHU.s 			page 67


 2364              	.L167:
 343:..\src\app\alt_mode/vdm_task_mngr.c ****                         }
 2365              		.loc 1 343 0
 2366 008a 0221     		movs	r1, #2
 2367 008c 2000     		movs	r0, r4
 2368 008e FFF7FEFF 		bl	set_vdm_failed
 2369              	.LVL240:
 347:..\src\app\alt_mode/vdm_task_mngr.c ****                     }
 2370              		.loc 1 347 0
 2371 0092 0123     		movs	r3, #1
 2372 0094 74E0     		b	.L168
 2373              	.L166:
 355:..\src\app\alt_mode/vdm_task_mngr.c ****                         if (vdm_stat[port].rec_retry_cnt > MAX_RETRY_CNT)
 2374              		.loc 1 355 0
 2375 0096 4A48     		ldr	r0, .L182
 2376 0098 E100     		lsls	r1, r4, #3
 2377 009a 0A19     		adds	r2, r1, r4
 2378 009c D300     		lsls	r3, r2, #3
 2379 009e 1A00     		movs	r2, r3
 2380 00a0 C318     		adds	r3, r0, r3
 2381 00a2 4433     		adds	r3, r3, #68
 2382 00a4 1B78     		ldrb	r3, [r3]
 2383 00a6 0133     		adds	r3, r3, #1
 2384 00a8 DBB2     		uxtb	r3, r3
 2385 00aa 8218     		adds	r2, r0, r2
 2386 00ac 4432     		adds	r2, r2, #68
 2387 00ae 1370     		strb	r3, [r2]
 356:..\src\app\alt_mode/vdm_task_mngr.c ****                         {
 2388              		.loc 1 356 0
 2389 00b0 092B     		cmp	r3, #9
 2390 00b2 05D9     		bls	.L169
 358:..\src\app\alt_mode/vdm_task_mngr.c ****                             run_task_flag = true;
 2391              		.loc 1 358 0
 2392 00b4 0021     		movs	r1, #0
 2393 00b6 2000     		movs	r0, r4
 2394 00b8 FFF7FEFF 		bl	set_vdm_failed
 2395              	.LVL241:
 359:..\src\app\alt_mode/vdm_task_mngr.c ****                         }
 2396              		.loc 1 359 0
 2397 00bc 0123     		movs	r3, #1
 2398 00be 5FE0     		b	.L168
 2399              	.LVL242:
 2400              	.L169:
 364:..\src\app\alt_mode/vdm_task_mngr.c ****                             /* Start a timer. Command will be retried when timer expires. */
 2401              		.loc 1 364 0
 2402 00c0 0621     		movs	r1, #6
 2403 00c2 2000     		movs	r0, r4
 2404 00c4 FFF7FEFF 		bl	set_task
 2405              	.LVL243:
 366:..\src\app\alt_mode/vdm_task_mngr.c ****                         }
 2406              		.loc 1 366 0
 2407 00c8 0023     		movs	r3, #0
 2408 00ca 3222     		movs	r2, #50
 2409 00cc 2821     		movs	r1, #40
 2410 00ce 2000     		movs	r0, r4
 2411 00d0 FFF7FEFF 		bl	timer_start
 2412              	.LVL244:
ARM GAS  e:\temp\ccdoSeHU.s 			page 68


 307:..\src\app\alt_mode/vdm_task_mngr.c **** 
 2413              		.loc 1 307 0
 2414 00d4 0023     		movs	r3, #0
 2415 00d6 53E0     		b	.L168
 2416              	.L180:
 374:..\src\app\alt_mode/vdm_task_mngr.c ****                         run_task_flag = true;
 2417              		.loc 1 374 0
 2418 00d8 0321     		movs	r1, #3
 2419 00da 2000     		movs	r0, r4
 2420 00dc FFF7FEFF 		bl	set_vdm_failed
 2421              	.LVL245:
 375:..\src\app\alt_mode/vdm_task_mngr.c ****                     }
 2422              		.loc 1 375 0
 2423 00e0 0123     		movs	r3, #1
 377:..\src\app\alt_mode/vdm_task_mngr.c ****             }
 2424              		.loc 1 377 0
 2425 00e2 4DE0     		b	.L168
 2426              	.LVL246:
 2427              	.L160:
 383:..\src\app\alt_mode/vdm_task_mngr.c ****             set_evt(port, VDM_EVT_EVAL);
 2428              		.loc 1 383 0
 2429 00e4 3100     		movs	r1, r6
 2430              	.LVL247:
 2431 00e6 FFF7FEFF 		bl	parse_vdm
 2432              	.LVL248:
 384:..\src\app\alt_mode/vdm_task_mngr.c ****             /* Reset timer counter when ACK */
 2433              		.loc 1 384 0
 2434 00ea 0121     		movs	r1, #1
 2435 00ec 2000     		movs	r0, r4
 2436 00ee FFF7FEFF 		bl	set_evt
 2437              	.LVL249:
 386:..\src\app\alt_mode/vdm_task_mngr.c ****             run_task_flag = true;
 2438              		.loc 1 386 0
 2439 00f2 E200     		lsls	r2, r4, #3
 2440 00f4 1219     		adds	r2, r2, r4
 2441 00f6 D300     		lsls	r3, r2, #3
 2442 00f8 314A     		ldr	r2, .L182
 2443 00fa D318     		adds	r3, r2, r3
 2444 00fc 4433     		adds	r3, r3, #68
 2445 00fe 0022     		movs	r2, #0
 2446 0100 1A70     		strb	r2, [r3]
 2447              	.LVL250:
 387:..\src\app\alt_mode/vdm_task_mngr.c ****         }
 2448              		.loc 1 387 0
 2449 0102 0123     		movs	r3, #1
 2450 0104 3CE0     		b	.L168
 2451              	.LVL251:
 2452              	.L159:
 391:..\src\app\alt_mode/vdm_task_mngr.c ****     {
 2453              		.loc 1 391 0
 2454 0106 FFF7FEFF 		bl	get_msg
 2455              	.LVL252:
 2456 010a 0378     		ldrb	r3, [r0]
 2457 010c 1F22     		movs	r2, #31
 2458 010e 1340     		ands	r3, r2
 2459 0110 062B     		cmp	r3, #6
 2460 0112 1CD1     		bne	.L170
ARM GAS  e:\temp\ccdoSeHU.s 			page 69


 394:..\src\app\alt_mode/vdm_task_mngr.c ****         {
 2461              		.loc 1 394 0
 2462 0114 032D     		cmp	r5, #3
 2463 0116 16D1     		bne	.L171
 394:..\src\app\alt_mode/vdm_task_mngr.c ****         {
 2464              		.loc 1 394 0 is_stmt 0 discriminator 1
 2465 0118 2000     		movs	r0, r4
 2466 011a FFF7FEFF 		bl	get_task
 2467              	.LVL253:
 2468 011e 0028     		cmp	r0, #0
 2469 0120 11D1     		bne	.L171
 397:..\src\app\alt_mode/vdm_task_mngr.c ****             set_evt(port, VDM_EVT_EVAL);
 2470              		.loc 1 397 0 is_stmt 1
 2471 0122 2821     		movs	r1, #40
 2472 0124 2000     		movs	r0, r4
 2473 0126 FFF7FEFF 		bl	timer_stop
 2474              	.LVL254:
 398:..\src\app\alt_mode/vdm_task_mngr.c ****             /* Reset retry counter */
 2475              		.loc 1 398 0
 2476 012a 0121     		movs	r1, #1
 2477 012c 2000     		movs	r0, r4
 2478 012e FFF7FEFF 		bl	set_evt
 2479              	.LVL255:
 400:..\src\app\alt_mode/vdm_task_mngr.c ****             /* Continue the state machine operation. */
 2480              		.loc 1 400 0
 2481 0132 E200     		lsls	r2, r4, #3
 2482 0134 1219     		adds	r2, r2, r4
 2483 0136 D300     		lsls	r3, r2, #3
 2484 0138 214A     		ldr	r2, .L182
 2485 013a D318     		adds	r3, r2, r3
 2486 013c 4433     		adds	r3, r3, #68
 2487 013e 0022     		movs	r2, #0
 2488 0140 1A70     		strb	r2, [r3]
 2489              	.LVL256:
 402:..\src\app\alt_mode/vdm_task_mngr.c ****         }
 2490              		.loc 1 402 0
 2491 0142 0123     		movs	r3, #1
 2492 0144 1CE0     		b	.L168
 2493              	.LVL257:
 2494              	.L171:
 404:..\src\app\alt_mode/vdm_task_mngr.c ****         {
 2495              		.loc 1 404 0
 2496 0146 002D     		cmp	r5, #0
 2497 0148 15D0     		beq	.L177
 307:..\src\app\alt_mode/vdm_task_mngr.c **** 
 2498              		.loc 1 307 0
 2499 014a 0023     		movs	r3, #0
 2500 014c 18E0     		b	.L168
 2501              	.L170:
 413:..\src\app\alt_mode/vdm_task_mngr.c ****         {
 2502              		.loc 1 413 0
 2503 014e 6B1E     		subs	r3, r5, #1
 2504 0150 DBB2     		uxtb	r3, r3
 2505 0152 012B     		cmp	r3, #1
 2506 0154 07D8     		bhi	.L172
 416:..\src\app\alt_mode/vdm_task_mngr.c ****             {
 2507              		.loc 1 416 0
ARM GAS  e:\temp\ccdoSeHU.s 			page 70


 2508 0156 2900     		movs	r1, r5
 2509 0158 2000     		movs	r0, r4
 2510 015a FFF7FEFF 		bl	vdm_retry_check
 2511              	.LVL258:
 2512 015e 0028     		cmp	r0, #0
 2513 0160 0BD0     		beq	.L178
 307:..\src\app\alt_mode/vdm_task_mngr.c **** 
 2514              		.loc 1 307 0
 2515 0162 0023     		movs	r3, #0
 2516 0164 0CE0     		b	.L168
 2517              	.L172:
 423:..\src\app\alt_mode/vdm_task_mngr.c ****             {
 2518              		.loc 1 423 0
 2519 0166 002D     		cmp	r5, #0
 2520 0168 09D1     		bne	.L179
 426:..\src\app\alt_mode/vdm_task_mngr.c ****             }
 2521              		.loc 1 426 0
 2522 016a 0621     		movs	r1, #6
 2523 016c 2000     		movs	r0, r4
 2524 016e FFF7FEFF 		bl	set_task
 2525              	.LVL259:
 307:..\src\app\alt_mode/vdm_task_mngr.c **** 
 2526              		.loc 1 307 0
 2527 0172 0023     		movs	r3, #0
 2528 0174 04E0     		b	.L168
 2529              	.L177:
 407:..\src\app\alt_mode/vdm_task_mngr.c ****         }
 2530              		.loc 1 407 0
 2531 0176 0123     		movs	r3, #1
 2532 0178 02E0     		b	.L168
 2533              	.L178:
 418:..\src\app\alt_mode/vdm_task_mngr.c ****             }
 2534              		.loc 1 418 0
 2535 017a 0123     		movs	r3, #1
 2536 017c 00E0     		b	.L168
 2537              	.L179:
 307:..\src\app\alt_mode/vdm_task_mngr.c **** 
 2538              		.loc 1 307 0
 2539 017e 0023     		movs	r3, #0
 2540              	.LVL260:
 2541              	.L168:
 432:..\src\app\alt_mode/vdm_task_mngr.c ****     {
 2542              		.loc 1 432 0
 2543 0180 002B     		cmp	r3, #0
 2544 0182 1BD0     		beq	.L158
 435:..\src\app\alt_mode/vdm_task_mngr.c ****         {
 2545              		.loc 1 435 0
 2546 0184 E200     		lsls	r2, r4, #3
 2547 0186 1219     		adds	r2, r2, r4
 2548 0188 D300     		lsls	r3, r2, #3
 2549              	.LVL261:
 2550 018a 0D4A     		ldr	r2, .L182
 2551 018c D318     		adds	r3, r2, r3
 2552 018e 2033     		adds	r3, r3, #32
 2553 0190 1B78     		ldrb	r3, [r3]
 2554 0192 DB06     		lsls	r3, r3, #27
 2555 0194 DB0E     		lsrs	r3, r3, #27
ARM GAS  e:\temp\ccdoSeHU.s 			page 71


 2556 0196 012B     		cmp	r3, #1
 2557 0198 02D0     		beq	.L175
 2558 019a 022B     		cmp	r3, #2
 2559 019c 05D0     		beq	.L176
 2560 019e 09E0     		b	.L181
 2561              	.L175:
 438:..\src\app\alt_mode/vdm_task_mngr.c ****                 break;
 2562              		.loc 1 438 0
 2563 01a0 0221     		movs	r1, #2
 2564 01a2 2000     		movs	r0, r4
 2565 01a4 FFF7FEFF 		bl	set_task
 2566              	.LVL262:
 439:..\src\app\alt_mode/vdm_task_mngr.c ****             case VDM_CMD_DSC_SVIDS:
 2567              		.loc 1 439 0
 2568 01a8 08E0     		b	.L158
 2569              	.L176:
 441:..\src\app\alt_mode/vdm_task_mngr.c ****                 break;
 2570              		.loc 1 441 0
 2571 01aa 0321     		movs	r1, #3
 2572 01ac 2000     		movs	r0, r4
 2573 01ae FFF7FEFF 		bl	set_task
 2574              	.LVL263:
 442:..\src\app\alt_mode/vdm_task_mngr.c ****             default:
 2575              		.loc 1 442 0
 2576 01b2 03E0     		b	.L158
 2577              	.L181:
 444:..\src\app\alt_mode/vdm_task_mngr.c ****                 break;
 2578              		.loc 1 444 0
 2579 01b4 0721     		movs	r1, #7
 2580 01b6 2000     		movs	r0, r4
 2581 01b8 FFF7FEFF 		bl	set_task
 2582              	.LVL264:
 2583              	.L158:
 451:..\src\app\alt_mode/vdm_task_mngr.c **** 
 2584              		.loc 1 451 0
 2585              		@ sp needed
 2586              	.LVL265:
 2587 01bc F8BD     		pop	{r3, r4, r5, r6, r7, pc}
 2588              	.L183:
 2589 01be C046     		.align	2
 2590              	.L182:
 2591 01c0 00000000 		.word	vdm_stat
 2592              		.cfi_endproc
 2593              	.LFE38:
 2594              		.size	vdm_rec_cbk, .-vdm_rec_cbk
 2595              		.section	.text.vdm_get_disc_id_resp,"ax",%progbits
 2596              		.align	2
 2597              		.global	vdm_get_disc_id_resp
 2598              		.code	16
 2599              		.thumb_func
 2600              		.type	vdm_get_disc_id_resp, %function
 2601              	vdm_get_disc_id_resp:
 2602              	.LFB57:
1089:..\src\app\alt_mode/vdm_task_mngr.c **** #endif /* (DFP_ALT_MODE_SUPP) || (UFP_ALT_MODE_SUPP) */
1090:..\src\app\alt_mode/vdm_task_mngr.c **** 
1091:..\src\app\alt_mode/vdm_task_mngr.c **** uint8_t *vdm_get_disc_id_resp(uint8_t port, uint8_t *resp_len_p)
1092:..\src\app\alt_mode/vdm_task_mngr.c **** {
ARM GAS  e:\temp\ccdoSeHU.s 			page 72


 2603              		.loc 1 1092 0
 2604              		.cfi_startproc
 2605              		@ args = 0, pretend = 0, frame = 0
 2606              		@ frame_needed = 0, uses_anonymous_args = 0
 2607              		@ link register save eliminated.
 2608              	.LVL266:
1093:..\src\app\alt_mode/vdm_task_mngr.c ****     uint8_t *ptr = NULL;
1094:..\src\app\alt_mode/vdm_task_mngr.c **** 
1095:..\src\app\alt_mode/vdm_task_mngr.c ****     /* Check for bad pointer argument. */
1096:..\src\app\alt_mode/vdm_task_mngr.c ****     if (resp_len_p == NULL)
 2609              		.loc 1 1096 0
 2610 0000 0029     		cmp	r1, #0
 2611 0002 12D0     		beq	.L186
1097:..\src\app\alt_mode/vdm_task_mngr.c ****         return NULL;
1098:..\src\app\alt_mode/vdm_task_mngr.c **** 
1099:..\src\app\alt_mode/vdm_task_mngr.c ****     /* Set response length to zero by default. */
1100:..\src\app\alt_mode/vdm_task_mngr.c ****     *resp_len_p = 0;
 2612              		.loc 1 1100 0
 2613 0004 0023     		movs	r3, #0
 2614 0006 0B70     		strb	r3, [r1]
1101:..\src\app\alt_mode/vdm_task_mngr.c **** 
1102:..\src\app\alt_mode/vdm_task_mngr.c **** #if ((DFP_ALT_MODE_SUPP) && (VDM_RESP_QUERY_SUPPORTED))
1103:..\src\app\alt_mode/vdm_task_mngr.c ****     if ((port < NO_OF_TYPEC_PORTS) && (gl_dpm_port_type[port] == PRT_TYPE_DFP))
 2615              		.loc 1 1103 0
 2616 0008 0128     		cmp	r0, #1
 2617 000a 10D8     		bhi	.L187
 2618              		.loc 1 1103 0 is_stmt 0 discriminator 1
 2619 000c 0A4B     		ldr	r3, .L189
 2620 000e 1B5C     		ldrb	r3, [r3, r0]
 2621 0010 012B     		cmp	r3, #1
 2622 0012 0ED1     		bne	.L188
1104:..\src\app\alt_mode/vdm_task_mngr.c ****     {
1105:..\src\app\alt_mode/vdm_task_mngr.c ****         *resp_len_p = vdm_disc_id_resp_len[port];
 2623              		.loc 1 1105 0 is_stmt 1
 2624 0014 094B     		ldr	r3, .L189+4
 2625 0016 1A18     		adds	r2, r3, r0
 2626 0018 127A     		ldrb	r2, [r2, #8]
 2627 001a 0A70     		strb	r2, [r1]
1106:..\src\app\alt_mode/vdm_task_mngr.c ****         ptr         = (uint8_t *)vdm_disc_id_resp[port];
 2628              		.loc 1 1106 0
 2629 001c 0C33     		adds	r3, r3, #12
 2630 001e 1A00     		movs	r2, r3
 2631 0020 C300     		lsls	r3, r0, #3
 2632 0022 181A     		subs	r0, r3, r0
 2633              	.LVL267:
 2634 0024 8300     		lsls	r3, r0, #2
 2635 0026 D018     		adds	r0, r2, r3
 2636              	.LVL268:
 2637 0028 04E0     		b	.L185
 2638              	.LVL269:
 2639              	.L186:
1097:..\src\app\alt_mode/vdm_task_mngr.c **** 
 2640              		.loc 1 1097 0
 2641 002a 0020     		movs	r0, #0
 2642              	.LVL270:
 2643 002c 02E0     		b	.L185
 2644              	.LVL271:
ARM GAS  e:\temp\ccdoSeHU.s 			page 73


 2645              	.L187:
1093:..\src\app\alt_mode/vdm_task_mngr.c **** 
 2646              		.loc 1 1093 0
 2647 002e 0020     		movs	r0, #0
 2648              	.LVL272:
 2649 0030 00E0     		b	.L185
 2650              	.LVL273:
 2651              	.L188:
 2652 0032 0020     		movs	r0, #0
 2653              	.LVL274:
 2654              	.L185:
1107:..\src\app\alt_mode/vdm_task_mngr.c ****     }
1108:..\src\app\alt_mode/vdm_task_mngr.c **** #endif /* ((DFP_ALT_MODE_SUPP) && (VDM_RESP_QUERY_SUPPORTED)) */
1109:..\src\app\alt_mode/vdm_task_mngr.c **** 
1110:..\src\app\alt_mode/vdm_task_mngr.c ****     return (ptr);
1111:..\src\app\alt_mode/vdm_task_mngr.c **** }
 2655              		.loc 1 1111 0
 2656              		@ sp needed
 2657 0034 7047     		bx	lr
 2658              	.L190:
 2659 0036 C046     		.align	2
 2660              	.L189:
 2661 0038 00000000 		.word	gl_dpm_port_type
 2662 003c 00000000 		.word	.LANCHOR0
 2663              		.cfi_endproc
 2664              	.LFE57:
 2665              		.size	vdm_get_disc_id_resp, .-vdm_get_disc_id_resp
 2666              		.section	.text.vdm_get_disc_svid_resp,"ax",%progbits
 2667              		.align	2
 2668              		.global	vdm_get_disc_svid_resp
 2669              		.code	16
 2670              		.thumb_func
 2671              		.type	vdm_get_disc_svid_resp, %function
 2672              	vdm_get_disc_svid_resp:
 2673              	.LFB58:
1112:..\src\app\alt_mode/vdm_task_mngr.c **** 
1113:..\src\app\alt_mode/vdm_task_mngr.c **** uint8_t *vdm_get_disc_svid_resp(uint8_t port, uint8_t *resp_len_p)
1114:..\src\app\alt_mode/vdm_task_mngr.c **** {
 2674              		.loc 1 1114 0
 2675              		.cfi_startproc
 2676              		@ args = 0, pretend = 0, frame = 0
 2677              		@ frame_needed = 0, uses_anonymous_args = 0
 2678              	.LVL275:
 2679 0000 10B5     		push	{r4, lr}
 2680              		.cfi_def_cfa_offset 8
 2681              		.cfi_offset 4, -8
 2682              		.cfi_offset 14, -4
 2683              	.LVL276:
1115:..\src\app\alt_mode/vdm_task_mngr.c ****     uint8_t *ptr = NULL;
1116:..\src\app\alt_mode/vdm_task_mngr.c **** 
1117:..\src\app\alt_mode/vdm_task_mngr.c ****     /* Check for bad pointer argument. */
1118:..\src\app\alt_mode/vdm_task_mngr.c ****     if (resp_len_p == NULL)
 2684              		.loc 1 1118 0
 2685 0002 0029     		cmp	r1, #0
 2686 0004 13D0     		beq	.L193
1119:..\src\app\alt_mode/vdm_task_mngr.c ****         return NULL;
1120:..\src\app\alt_mode/vdm_task_mngr.c **** 
ARM GAS  e:\temp\ccdoSeHU.s 			page 74


1121:..\src\app\alt_mode/vdm_task_mngr.c ****     /* Set response length to zero by default. */
1122:..\src\app\alt_mode/vdm_task_mngr.c ****     *resp_len_p = 0;
 2687              		.loc 1 1122 0
 2688 0006 0023     		movs	r3, #0
 2689 0008 0B70     		strb	r3, [r1]
1123:..\src\app\alt_mode/vdm_task_mngr.c **** 
1124:..\src\app\alt_mode/vdm_task_mngr.c **** #if ((DFP_ALT_MODE_SUPP) && (VDM_RESP_QUERY_SUPPORTED))
1125:..\src\app\alt_mode/vdm_task_mngr.c ****     if ((port < NO_OF_TYPEC_PORTS) && (gl_dpm_port_type[port] == PRT_TYPE_DFP))
 2690              		.loc 1 1125 0
 2691 000a 0128     		cmp	r0, #1
 2692 000c 11D8     		bhi	.L194
 2693              		.loc 1 1125 0 is_stmt 0 discriminator 1
 2694 000e 0B4B     		ldr	r3, .L196
 2695 0010 1B5C     		ldrb	r3, [r3, r0]
 2696 0012 012B     		cmp	r3, #1
 2697 0014 0FD1     		bne	.L195
1126:..\src\app\alt_mode/vdm_task_mngr.c ****     {
1127:..\src\app\alt_mode/vdm_task_mngr.c ****         *resp_len_p = vdm_disc_svid_resp_len[port];
 2698              		.loc 1 1127 0 is_stmt 1
 2699 0016 0A4B     		ldr	r3, .L196+4
 2700 0018 1C18     		adds	r4, r3, r0
 2701 001a 4422     		movs	r2, #68
 2702 001c A25C     		ldrb	r2, [r4, r2]
 2703 001e 0A70     		strb	r2, [r1]
1128:..\src\app\alt_mode/vdm_task_mngr.c ****         ptr         = (uint8_t *)vdm_disc_svid_resp[port];
 2704              		.loc 1 1128 0
 2705 0020 4833     		adds	r3, r3, #72
 2706 0022 1A00     		movs	r2, r3
 2707 0024 C300     		lsls	r3, r0, #3
 2708 0026 1818     		adds	r0, r3, r0
 2709              	.LVL277:
 2710 0028 C300     		lsls	r3, r0, #3
 2711 002a D018     		adds	r0, r2, r3
 2712              	.LVL278:
 2713 002c 04E0     		b	.L192
 2714              	.LVL279:
 2715              	.L193:
1119:..\src\app\alt_mode/vdm_task_mngr.c **** 
 2716              		.loc 1 1119 0
 2717 002e 0020     		movs	r0, #0
 2718              	.LVL280:
 2719 0030 02E0     		b	.L192
 2720              	.LVL281:
 2721              	.L194:
1115:..\src\app\alt_mode/vdm_task_mngr.c **** 
 2722              		.loc 1 1115 0
 2723 0032 0020     		movs	r0, #0
 2724              	.LVL282:
 2725 0034 00E0     		b	.L192
 2726              	.LVL283:
 2727              	.L195:
 2728 0036 0020     		movs	r0, #0
 2729              	.LVL284:
 2730              	.L192:
1129:..\src\app\alt_mode/vdm_task_mngr.c ****     }
1130:..\src\app\alt_mode/vdm_task_mngr.c **** #endif /* ((DFP_ALT_MODE_SUPP) && (VDM_RESP_QUERY_SUPPORTED)) */
1131:..\src\app\alt_mode/vdm_task_mngr.c **** 
ARM GAS  e:\temp\ccdoSeHU.s 			page 75


1132:..\src\app\alt_mode/vdm_task_mngr.c ****     return (ptr);
1133:..\src\app\alt_mode/vdm_task_mngr.c **** }
 2731              		.loc 1 1133 0
 2732              		@ sp needed
 2733 0038 10BD     		pop	{r4, pc}
 2734              	.L197:
 2735 003a C046     		.align	2
 2736              	.L196:
 2737 003c 00000000 		.word	gl_dpm_port_type
 2738 0040 00000000 		.word	.LANCHOR0
 2739              		.cfi_endproc
 2740              	.LFE58:
 2741              		.size	vdm_get_disc_svid_resp, .-vdm_get_disc_svid_resp
 2742              		.comm	vdm_stat,144,4
 2743              		.bss
 2744              		.align	2
 2745              		.set	.LANCHOR0,. + 0
 2746              		.type	vdm_emca_rst_state, %object
 2747              		.size	vdm_emca_rst_state, 2
 2748              	vdm_emca_rst_state:
 2749 0000 0000     		.space	2
 2750 0002 0000     		.space	2
 2751              		.type	vdm_emca_rst_count, %object
 2752              		.size	vdm_emca_rst_count, 2
 2753              	vdm_emca_rst_count:
 2754 0004 0000     		.space	2
 2755 0006 0000     		.space	2
 2756              		.type	vdm_disc_id_resp_len, %object
 2757              		.size	vdm_disc_id_resp_len, 2
 2758              	vdm_disc_id_resp_len:
 2759 0008 0000     		.space	2
 2760 000a 0000     		.space	2
 2761              		.type	vdm_disc_id_resp, %object
 2762              		.size	vdm_disc_id_resp, 56
 2763              	vdm_disc_id_resp:
 2764 000c 00000000 		.space	56
 2764      00000000 
 2764      00000000 
 2764      00000000 
 2764      00000000 
 2765              		.type	vdm_disc_svid_resp_len, %object
 2766              		.size	vdm_disc_svid_resp_len, 2
 2767              	vdm_disc_svid_resp_len:
 2768 0044 0000     		.space	2
 2769 0046 0000     		.space	2
 2770              		.type	vdm_disc_svid_resp, %object
 2771              		.size	vdm_disc_svid_resp, 144
 2772              	vdm_disc_svid_resp:
 2773 0048 00000000 		.space	144
 2773      00000000 
 2773      00000000 
 2773      00000000 
 2773      00000000 
 2774              		.text
 2775              	.Letext0:
 2776              		.file 2 "e:\\cypress\\psoc creator\\4.2\\psoc creator\\import\\gnu\\arm\\5.4.1\\arm-none-eabi\\inc
 2777              		.file 3 "e:\\cypress\\psoc creator\\4.2\\psoc creator\\import\\gnu\\arm\\5.4.1\\arm-none-eabi\\inc
ARM GAS  e:\temp\ccdoSeHU.s 			page 76


 2778              		.file 4 "..\\src\\pd_common/pd.h"
 2779              		.file 5 "..\\src\\system/status.h"
 2780              		.file 6 "..\\src\\app/app.h"
 2781              		.file 7 "..\\src\\app\\alt_mode/vdm_task_mngr.h"
 2782              		.file 8 "..\\src\\app\\alt_mode/alt_modes_mngr.h"
 2783              		.file 9 "..\\src\\pd_common/dpm.h"
 2784              		.file 10 "..\\src\\system/timer.h"
 2785              		.file 11 "..\\src\\app\\alt_mode/alt_mode_hw.h"